
As-needed library included to satisfy reference by file (symbol)

libarsal.so                   /home/sunho/bebop_ws/devel/arsdk/out/arsdk-native/build/libARController/obj/Sources/ARCONTROLLER_StreamQueue.c.o (ARSAL_Sem_Wait)
libardiscovery.so             /home/sunho/bebop_ws/devel/arsdk/out/arsdk-native/build/libARController/obj/Sources/ARCONTROLLER_Network.c.o (ARDISCOVERY_Device_WifiSetDeviceToControllerPort)
libarcommands.so              /home/sunho/bebop_ws/devel/arsdk/out/arsdk-native/build/libARController/obj/Sources/ARCONTROLLER_Network.c.o (ARCOMMANDS_Decoder_DescribeBuffer)
libarstream.so                /home/sunho/bebop_ws/devel/arsdk/out/arsdk-native/build/libARController/obj/Sources/ARCONTROLLER_Stream1.c.o (ARSTREAM_Reader_New)
libarstream2.so               /home/sunho/bebop_ws/devel/arsdk/out/arsdk-native/build/libARController/obj/Sources/ARCONTROLLER_Stream2.c.o (ARSTREAM2_StreamReceiver_RunControlThread)
libarnetworkal.so             /home/sunho/bebop_ws/devel/arsdk/out/arsdk-native/build/libARController/obj/Sources/ARCONTROLLER_Network.c.o (ARNETWORKAL_Error_ToString)
libarnetwork.so               /home/sunho/bebop_ws/devel/arsdk/out/arsdk-native/build/libARController/obj/Sources/ARCONTROLLER_Network.c.o (ARNETWORK_Manager_ReceivingThreadRun)
libmux.so                     /home/sunho/bebop_ws/devel/arsdk/out/arsdk-native/build/libARController/obj/Sources/ARCONTROLLER_Stream2.c.o (mux_ref)
libjson.so                    /home/sunho/bebop_ws/devel/arsdk/out/arsdk-native/build/libARController/obj/gen/Sources/ARCONTROLLER_Device.c.o (json_object_new_string)
libpthread.so.0               /home/sunho/bebop_ws/devel/arsdk/out/arsdk-native/build/libARController/obj/Sources/ARCONTROLLER_Network.c.o (__errno_location@@GLIBC_2.2.5)
libc.so.6                     /home/sunho/bebop_ws/devel/arsdk/out/arsdk-native/build/libARController/obj/Sources/ARCONTROLLER_Dictionary.c.o (exit@@GLIBC_2.2.5)

Discarded input sections

 .text          0x0000000000000000        0x0 /usr/lib/gcc/x86_64-linux-gnu/4.8/../../../x86_64-linux-gnu/crti.o
 .data          0x0000000000000000        0x0 /usr/lib/gcc/x86_64-linux-gnu/4.8/../../../x86_64-linux-gnu/crti.o
 .bss           0x0000000000000000        0x0 /usr/lib/gcc/x86_64-linux-gnu/4.8/../../../x86_64-linux-gnu/crti.o
 .note.GNU-stack
                0x0000000000000000        0x0 /usr/lib/gcc/x86_64-linux-gnu/4.8/../../../x86_64-linux-gnu/crti.o
 .gnu_debuglink
                0x0000000000000000        0xc /usr/lib/gcc/x86_64-linux-gnu/4.8/../../../x86_64-linux-gnu/crti.o
 .data          0x0000000000000000        0x0 /usr/lib/gcc/x86_64-linux-gnu/4.8/crtbeginS.o
 .note.GNU-stack
                0x0000000000000000        0x0 /usr/lib/gcc/x86_64-linux-gnu/4.8/crtbeginS.o
 .text          0x0000000000000000        0x0 /home/sunho/bebop_ws/devel/arsdk/out/arsdk-native/build/libARController/obj/Sources/ARCONTROLLER_Dictionary.c.o
 .data          0x0000000000000000        0x0 /home/sunho/bebop_ws/devel/arsdk/out/arsdk-native/build/libARController/obj/Sources/ARCONTROLLER_Dictionary.c.o
 .bss           0x0000000000000000        0x0 /home/sunho/bebop_ws/devel/arsdk/out/arsdk-native/build/libARController/obj/Sources/ARCONTROLLER_Dictionary.c.o
 .note.GNU-stack
                0x0000000000000000        0x0 /home/sunho/bebop_ws/devel/arsdk/out/arsdk-native/build/libARController/obj/Sources/ARCONTROLLER_Dictionary.c.o
 .text          0x0000000000000000        0x0 /home/sunho/bebop_ws/devel/arsdk/out/arsdk-native/build/libARController/obj/Sources/ARCONTROLLER_Frame.c.o
 .data          0x0000000000000000        0x0 /home/sunho/bebop_ws/devel/arsdk/out/arsdk-native/build/libARController/obj/Sources/ARCONTROLLER_Frame.c.o
 .bss           0x0000000000000000        0x0 /home/sunho/bebop_ws/devel/arsdk/out/arsdk-native/build/libARController/obj/Sources/ARCONTROLLER_Frame.c.o
 .note.GNU-stack
                0x0000000000000000        0x0 /home/sunho/bebop_ws/devel/arsdk/out/arsdk-native/build/libARController/obj/Sources/ARCONTROLLER_Frame.c.o
 .text          0x0000000000000000        0x0 /home/sunho/bebop_ws/devel/arsdk/out/arsdk-native/build/libARController/obj/Sources/ARCONTROLLER_Network.c.o
 .data          0x0000000000000000        0x0 /home/sunho/bebop_ws/devel/arsdk/out/arsdk-native/build/libARController/obj/Sources/ARCONTROLLER_Network.c.o
 .bss           0x0000000000000000        0x0 /home/sunho/bebop_ws/devel/arsdk/out/arsdk-native/build/libARController/obj/Sources/ARCONTROLLER_Network.c.o
 .note.GNU-stack
                0x0000000000000000        0x0 /home/sunho/bebop_ws/devel/arsdk/out/arsdk-native/build/libARController/obj/Sources/ARCONTROLLER_Network.c.o
 .text          0x0000000000000000        0x0 /home/sunho/bebop_ws/devel/arsdk/out/arsdk-native/build/libARController/obj/Sources/ARCONTROLLER_Stream.c.o
 .data          0x0000000000000000        0x0 /home/sunho/bebop_ws/devel/arsdk/out/arsdk-native/build/libARController/obj/Sources/ARCONTROLLER_Stream.c.o
 .bss           0x0000000000000000        0x0 /home/sunho/bebop_ws/devel/arsdk/out/arsdk-native/build/libARController/obj/Sources/ARCONTROLLER_Stream.c.o
 .note.GNU-stack
                0x0000000000000000        0x0 /home/sunho/bebop_ws/devel/arsdk/out/arsdk-native/build/libARController/obj/Sources/ARCONTROLLER_Stream.c.o
 .text          0x0000000000000000        0x0 /home/sunho/bebop_ws/devel/arsdk/out/arsdk-native/build/libARController/obj/Sources/ARCONTROLLER_StreamPool.c.o
 .data          0x0000000000000000        0x0 /home/sunho/bebop_ws/devel/arsdk/out/arsdk-native/build/libARController/obj/Sources/ARCONTROLLER_StreamPool.c.o
 .bss           0x0000000000000000        0x0 /home/sunho/bebop_ws/devel/arsdk/out/arsdk-native/build/libARController/obj/Sources/ARCONTROLLER_StreamPool.c.o
 .note.GNU-stack
                0x0000000000000000        0x0 /home/sunho/bebop_ws/devel/arsdk/out/arsdk-native/build/libARController/obj/Sources/ARCONTROLLER_StreamPool.c.o
 .text          0x0000000000000000        0x0 /home/sunho/bebop_ws/devel/arsdk/out/arsdk-native/build/libARController/obj/Sources/ARCONTROLLER_StreamQueue.c.o
 .data          0x0000000000000000        0x0 /home/sunho/bebop_ws/devel/arsdk/out/arsdk-native/build/libARController/obj/Sources/ARCONTROLLER_StreamQueue.c.o
 .bss           0x0000000000000000        0x0 /home/sunho/bebop_ws/devel/arsdk/out/arsdk-native/build/libARController/obj/Sources/ARCONTROLLER_StreamQueue.c.o
 .note.GNU-stack
                0x0000000000000000        0x0 /home/sunho/bebop_ws/devel/arsdk/out/arsdk-native/build/libARController/obj/Sources/ARCONTROLLER_StreamQueue.c.o
 .text          0x0000000000000000        0x0 /home/sunho/bebop_ws/devel/arsdk/out/arsdk-native/build/libARController/obj/Sources/ARCONTROLLER_Stream1.c.o
 .data          0x0000000000000000        0x0 /home/sunho/bebop_ws/devel/arsdk/out/arsdk-native/build/libARController/obj/Sources/ARCONTROLLER_Stream1.c.o
 .note.GNU-stack
                0x0000000000000000        0x0 /home/sunho/bebop_ws/devel/arsdk/out/arsdk-native/build/libARController/obj/Sources/ARCONTROLLER_Stream1.c.o
 .text          0x0000000000000000        0x0 /home/sunho/bebop_ws/devel/arsdk/out/arsdk-native/build/libARController/obj/Sources/ARCONTROLLER_Stream2.c.o
 .data          0x0000000000000000        0x0 /home/sunho/bebop_ws/devel/arsdk/out/arsdk-native/build/libARController/obj/Sources/ARCONTROLLER_Stream2.c.o
 .bss           0x0000000000000000        0x0 /home/sunho/bebop_ws/devel/arsdk/out/arsdk-native/build/libARController/obj/Sources/ARCONTROLLER_Stream2.c.o
 .note.GNU-stack
                0x0000000000000000        0x0 /home/sunho/bebop_ws/devel/arsdk/out/arsdk-native/build/libARController/obj/Sources/ARCONTROLLER_Stream2.c.o
 .text          0x0000000000000000        0x0 /home/sunho/bebop_ws/devel/arsdk/out/arsdk-native/build/libARController/obj/Sources/ARCONTROLLER_StreamSender.c.o
 .data          0x0000000000000000        0x0 /home/sunho/bebop_ws/devel/arsdk/out/arsdk-native/build/libARController/obj/Sources/ARCONTROLLER_StreamSender.c.o
 .bss           0x0000000000000000        0x0 /home/sunho/bebop_ws/devel/arsdk/out/arsdk-native/build/libARController/obj/Sources/ARCONTROLLER_StreamSender.c.o
 .note.GNU-stack
                0x0000000000000000        0x0 /home/sunho/bebop_ws/devel/arsdk/out/arsdk-native/build/libARController/obj/Sources/ARCONTROLLER_StreamSender.c.o
 .text          0x0000000000000000        0x0 /home/sunho/bebop_ws/devel/arsdk/out/arsdk-native/build/libARController/obj/gen/Sources/ARCONTROLLER_Device.c.o
 .data          0x0000000000000000        0x0 /home/sunho/bebop_ws/devel/arsdk/out/arsdk-native/build/libARController/obj/gen/Sources/ARCONTROLLER_Device.c.o
 .bss           0x0000000000000000        0x0 /home/sunho/bebop_ws/devel/arsdk/out/arsdk-native/build/libARController/obj/gen/Sources/ARCONTROLLER_Device.c.o
 .note.GNU-stack
                0x0000000000000000        0x0 /home/sunho/bebop_ws/devel/arsdk/out/arsdk-native/build/libARController/obj/gen/Sources/ARCONTROLLER_Device.c.o
 .text          0x0000000000000000        0x0 /home/sunho/bebop_ws/devel/arsdk/out/arsdk-native/build/libARController/obj/gen/Sources/ARCONTROLLER_DICTIONARY_Key.c.o
 .data          0x0000000000000000        0x0 /home/sunho/bebop_ws/devel/arsdk/out/arsdk-native/build/libARController/obj/gen/Sources/ARCONTROLLER_DICTIONARY_Key.c.o
 .bss           0x0000000000000000        0x0 /home/sunho/bebop_ws/devel/arsdk/out/arsdk-native/build/libARController/obj/gen/Sources/ARCONTROLLER_DICTIONARY_Key.c.o
 .note.GNU-stack
                0x0000000000000000        0x0 /home/sunho/bebop_ws/devel/arsdk/out/arsdk-native/build/libARController/obj/gen/Sources/ARCONTROLLER_DICTIONARY_Key.c.o
 .text          0x0000000000000000        0x0 /home/sunho/bebop_ws/devel/arsdk/out/arsdk-native/build/libARController/obj/gen/Sources/ARCONTROLLER_Error.c.o
 .data          0x0000000000000000        0x0 /home/sunho/bebop_ws/devel/arsdk/out/arsdk-native/build/libARController/obj/gen/Sources/ARCONTROLLER_Error.c.o
 .bss           0x0000000000000000        0x0 /home/sunho/bebop_ws/devel/arsdk/out/arsdk-native/build/libARController/obj/gen/Sources/ARCONTROLLER_Error.c.o
 .note.GNU-stack
                0x0000000000000000        0x0 /home/sunho/bebop_ws/devel/arsdk/out/arsdk-native/build/libARController/obj/gen/Sources/ARCONTROLLER_Error.c.o
 .text          0x0000000000000000        0x0 /home/sunho/bebop_ws/devel/arsdk/out/arsdk-native/build/libARController/obj/gen/Sources/ARCONTROLLER_Feature.c.o
 .data          0x0000000000000000        0x0 /home/sunho/bebop_ws/devel/arsdk/out/arsdk-native/build/libARController/obj/gen/Sources/ARCONTROLLER_Feature.c.o
 .bss           0x0000000000000000        0x0 /home/sunho/bebop_ws/devel/arsdk/out/arsdk-native/build/libARController/obj/gen/Sources/ARCONTROLLER_Feature.c.o
 .note.GNU-stack
                0x0000000000000000        0x0 /home/sunho/bebop_ws/devel/arsdk/out/arsdk-native/build/libARController/obj/gen/Sources/ARCONTROLLER_Feature.c.o
 .text          0x0000000000000000        0x0 /usr/lib/gcc/x86_64-linux-gnu/4.8/crtendS.o
 .data          0x0000000000000000        0x0 /usr/lib/gcc/x86_64-linux-gnu/4.8/crtendS.o
 .bss           0x0000000000000000        0x0 /usr/lib/gcc/x86_64-linux-gnu/4.8/crtendS.o
 .note.GNU-stack
                0x0000000000000000        0x0 /usr/lib/gcc/x86_64-linux-gnu/4.8/crtendS.o
 .text          0x0000000000000000        0x0 /usr/lib/gcc/x86_64-linux-gnu/4.8/../../../x86_64-linux-gnu/crtn.o
 .data          0x0000000000000000        0x0 /usr/lib/gcc/x86_64-linux-gnu/4.8/../../../x86_64-linux-gnu/crtn.o
 .bss           0x0000000000000000        0x0 /usr/lib/gcc/x86_64-linux-gnu/4.8/../../../x86_64-linux-gnu/crtn.o
 .note.GNU-stack
                0x0000000000000000        0x0 /usr/lib/gcc/x86_64-linux-gnu/4.8/../../../x86_64-linux-gnu/crtn.o
 .gnu_debuglink
                0x0000000000000000        0xc /usr/lib/gcc/x86_64-linux-gnu/4.8/../../../x86_64-linux-gnu/crtn.o

Memory Configuration

Name             Origin             Length             Attributes
*default*        0x0000000000000000 0xffffffffffffffff

Linker script and memory map

LOAD /usr/lib/gcc/x86_64-linux-gnu/4.8/../../../x86_64-linux-gnu/crti.o
LOAD /usr/lib/gcc/x86_64-linux-gnu/4.8/crtbeginS.o
LOAD /home/sunho/bebop_ws/devel/arsdk/out/arsdk-native/build/libARController/obj/Sources/ARCONTROLLER_Dictionary.c.o
LOAD /home/sunho/bebop_ws/devel/arsdk/out/arsdk-native/build/libARController/obj/Sources/ARCONTROLLER_Frame.c.o
LOAD /home/sunho/bebop_ws/devel/arsdk/out/arsdk-native/build/libARController/obj/Sources/ARCONTROLLER_Network.c.o
LOAD /home/sunho/bebop_ws/devel/arsdk/out/arsdk-native/build/libARController/obj/Sources/ARCONTROLLER_Stream.c.o
LOAD /home/sunho/bebop_ws/devel/arsdk/out/arsdk-native/build/libARController/obj/Sources/ARCONTROLLER_StreamPool.c.o
LOAD /home/sunho/bebop_ws/devel/arsdk/out/arsdk-native/build/libARController/obj/Sources/ARCONTROLLER_StreamQueue.c.o
LOAD /home/sunho/bebop_ws/devel/arsdk/out/arsdk-native/build/libARController/obj/Sources/ARCONTROLLER_Stream1.c.o
LOAD /home/sunho/bebop_ws/devel/arsdk/out/arsdk-native/build/libARController/obj/Sources/ARCONTROLLER_Stream2.c.o
LOAD /home/sunho/bebop_ws/devel/arsdk/out/arsdk-native/build/libARController/obj/Sources/ARCONTROLLER_StreamSender.c.o
LOAD /home/sunho/bebop_ws/devel/arsdk/out/arsdk-native/build/libARController/obj/gen/Sources/ARCONTROLLER_Device.c.o
LOAD /home/sunho/bebop_ws/devel/arsdk/out/arsdk-native/build/libARController/obj/gen/Sources/ARCONTROLLER_DICTIONARY_Key.c.o
LOAD /home/sunho/bebop_ws/devel/arsdk/out/arsdk-native/build/libARController/obj/gen/Sources/ARCONTROLLER_Error.c.o
LOAD /home/sunho/bebop_ws/devel/arsdk/out/arsdk-native/build/libARController/obj/gen/Sources/ARCONTROLLER_Feature.c.o
LOAD /home/sunho/bebop_ws/devel/arsdk/out/arsdk-native/staging/usr/lib/libarsal.so
LOAD /home/sunho/bebop_ws/devel/arsdk/out/arsdk-native/staging/usr/lib/libardiscovery.so
LOAD /home/sunho/bebop_ws/devel/arsdk/out/arsdk-native/staging/usr/lib/libarcommands.so
LOAD /home/sunho/bebop_ws/devel/arsdk/out/arsdk-native/staging/usr/lib/libarutils.so
LOAD /home/sunho/bebop_ws/devel/arsdk/out/arsdk-native/staging/usr/lib/libarstream.so
LOAD /home/sunho/bebop_ws/devel/arsdk/out/arsdk-native/staging/usr/lib/libarstream2.so
LOAD /home/sunho/bebop_ws/devel/arsdk/out/arsdk-native/staging/usr/lib/libarnetworkal.so
LOAD /home/sunho/bebop_ws/devel/arsdk/out/arsdk-native/staging/usr/lib/libarnetwork.so
LOAD /home/sunho/bebop_ws/devel/arsdk/out/arsdk-native/staging/usr/lib/libmux.so
LOAD /home/sunho/bebop_ws/devel/arsdk/out/arsdk-native/staging/usr/lib/libjson.so
LOAD /usr/lib/gcc/x86_64-linux-gnu/4.8/../../../x86_64-linux-gnu/librt.so
LOAD /usr/lib/gcc/x86_64-linux-gnu/4.8/libstdc++.so
LOAD /usr/lib/gcc/x86_64-linux-gnu/4.8/../../../x86_64-linux-gnu/libm.so
LOAD /usr/lib/gcc/x86_64-linux-gnu/4.8/libgcc_s.so
LOAD /usr/lib/gcc/x86_64-linux-gnu/4.8/../../../x86_64-linux-gnu/libpthread.so
START GROUP
LOAD /lib/x86_64-linux-gnu/libpthread.so.0
LOAD /usr/lib/x86_64-linux-gnu/libpthread_nonshared.a
END GROUP
LOAD /usr/lib/gcc/x86_64-linux-gnu/4.8/../../../x86_64-linux-gnu/libc.so
START GROUP
LOAD /lib/x86_64-linux-gnu/libc.so.6
LOAD /usr/lib/x86_64-linux-gnu/libc_nonshared.a
LOAD /lib/x86_64-linux-gnu/ld-linux-x86-64.so.2
END GROUP
LOAD /usr/lib/gcc/x86_64-linux-gnu/4.8/libgcc_s.so
LOAD /usr/lib/gcc/x86_64-linux-gnu/4.8/crtendS.o
LOAD /usr/lib/gcc/x86_64-linux-gnu/4.8/../../../x86_64-linux-gnu/crtn.o
                0x00000000000001c8                . = (0x0 + SIZEOF_HEADERS)

.note.gnu.build-id
                0x00000000000001c8       0x24
 *(.note.gnu.build-id)
 .note.gnu.build-id
                0x00000000000001c8       0x24 /usr/lib/gcc/x86_64-linux-gnu/4.8/../../../x86_64-linux-gnu/crti.o

.hash
 *(.hash)

.gnu.hash       0x00000000000001f0     0x3298
 *(.gnu.hash)
 .gnu.hash      0x00000000000001f0     0x3298 /usr/lib/gcc/x86_64-linux-gnu/4.8/../../../x86_64-linux-gnu/crti.o

.dynsym         0x0000000000003488     0xd8a8
 *(.dynsym)
 .dynsym        0x0000000000003488     0xd8a8 /usr/lib/gcc/x86_64-linux-gnu/4.8/../../../x86_64-linux-gnu/crti.o

.dynstr         0x0000000000010d30    0x23cec
 *(.dynstr)
 .dynstr        0x0000000000010d30    0x23cec /usr/lib/gcc/x86_64-linux-gnu/4.8/../../../x86_64-linux-gnu/crti.o

.gnu.version    0x0000000000034a1c     0x120e
 *(.gnu.version)
 .gnu.version   0x0000000000034a1c     0x120e /usr/lib/gcc/x86_64-linux-gnu/4.8/../../../x86_64-linux-gnu/crti.o

.gnu.version_d  0x0000000000035c30        0x0
 *(.gnu.version_d)
 .gnu.version_d
                0x0000000000000000        0x0 /usr/lib/gcc/x86_64-linux-gnu/4.8/../../../x86_64-linux-gnu/crti.o

.gnu.version_r  0x0000000000035c30       0x80
 *(.gnu.version_r)
 .gnu.version_r
                0x0000000000035c30       0x80 /usr/lib/gcc/x86_64-linux-gnu/4.8/../../../x86_64-linux-gnu/crti.o

.rela.dyn       0x0000000000035cb0     0x9e70
 *(.rela.init)
 *(.rela.text .rela.text.* .rela.gnu.linkonce.t.*)
 .rela.text     0x0000000000000000        0x0 /usr/lib/gcc/x86_64-linux-gnu/4.8/../../../x86_64-linux-gnu/crti.o
 *(.rela.fini)
 *(.rela.rodata .rela.rodata.* .rela.gnu.linkonce.r.*)
 *(.rela.data .rela.data.* .rela.gnu.linkonce.d.*)
 .rela.data.rel
                0x0000000000035cb0       0x18 /usr/lib/gcc/x86_64-linux-gnu/4.8/../../../x86_64-linux-gnu/crti.o
 .rela.data.rel.local
                0x0000000000035cc8     0x3480 /usr/lib/gcc/x86_64-linux-gnu/4.8/../../../x86_64-linux-gnu/crti.o
 *(.rela.tdata .rela.tdata.* .rela.gnu.linkonce.td.*)
 *(.rela.tbss .rela.tbss.* .rela.gnu.linkonce.tb.*)
 *(.rela.ctors)
 *(.rela.dtors)
 *(.rela.got)
 .rela.got      0x0000000000039148     0x69a8 /usr/lib/gcc/x86_64-linux-gnu/4.8/../../../x86_64-linux-gnu/crti.o
 *(.rela.bss .rela.bss.* .rela.gnu.linkonce.b.*)
 *(.rela.ldata .rela.ldata.* .rela.gnu.linkonce.l.*)
 *(.rela.lbss .rela.lbss.* .rela.gnu.linkonce.lb.*)
 *(.rela.lrodata .rela.lrodata.* .rela.gnu.linkonce.lr.*)
 *(.rela.ifunc)
 .rela.ifunc    0x0000000000000000        0x0 /usr/lib/gcc/x86_64-linux-gnu/4.8/../../../x86_64-linux-gnu/crti.o
 .rela.fini_array
                0x000000000003faf0       0x18 /usr/lib/gcc/x86_64-linux-gnu/4.8/../../../x86_64-linux-gnu/crti.o
 .rela.init_array
                0x000000000003fb08       0x18 /usr/lib/gcc/x86_64-linux-gnu/4.8/../../../x86_64-linux-gnu/crti.o

.rela.plt       0x000000000003fb20     0x69d8
 *(.rela.plt)
 .rela.plt      0x000000000003fb20     0x69d8 /usr/lib/gcc/x86_64-linux-gnu/4.8/../../../x86_64-linux-gnu/crti.o
 *(.rela.iplt)

.init           0x00000000000464f8       0x1a
 *(SORT(.init))
 .init          0x00000000000464f8       0x15 /usr/lib/gcc/x86_64-linux-gnu/4.8/../../../x86_64-linux-gnu/crti.o
                0x00000000000464f8                _init
 .init          0x000000000004650d        0x5 /usr/lib/gcc/x86_64-linux-gnu/4.8/../../../x86_64-linux-gnu/crtn.o

.plt            0x0000000000046520     0x46a0
 *(.plt)
 .plt           0x0000000000046520     0x46a0 /usr/lib/gcc/x86_64-linux-gnu/4.8/../../../x86_64-linux-gnu/crti.o
 *(.iplt)

.text           0x000000000004abc0   0x151d50
 *(.text.unlikely .text.*_unlikely .text.unlikely.*)
 *(.text.exit .text.exit.*)
 *(.text.startup .text.startup.*)
 *(.text.hot .text.hot.*)
 *(.text .stub .text.* .gnu.linkonce.t.*)
 .text          0x000000000004abc0       0xe5 /usr/lib/gcc/x86_64-linux-gnu/4.8/crtbeginS.o
 *fill*         0x000000000004aca5        0xb 
 .text.ARCONTROLLER_Dictionary_DeleteCallbackList
                0x000000000004acb0       0x9c /home/sunho/bebop_ws/devel/arsdk/out/arsdk-native/build/libARController/obj/Sources/ARCONTROLLER_Dictionary.c.o
                0x000000000004acb0                ARCONTROLLER_Dictionary_DeleteCallbackList
 *fill*         0x000000000004ad4c        0x4 
 .text.ARCONTROLLER_Dictionary_Delete
                0x000000000004ad50       0x32 /home/sunho/bebop_ws/devel/arsdk/out/arsdk-native/build/libARController/obj/Sources/ARCONTROLLER_Dictionary.c.o
                0x000000000004ad50                ARCONTROLLER_Dictionary_Delete
 *fill*         0x000000000004ad82        0xe 
 .text.ARCONTROLLER_Dictionary_New
                0x000000000004ad90       0x56 /home/sunho/bebop_ws/devel/arsdk/out/arsdk-native/build/libARController/obj/Sources/ARCONTROLLER_Dictionary.c.o
                0x000000000004ad90                ARCONTROLLER_Dictionary_New
 *fill*         0x000000000004ade6        0xa 
 .text.ARCONTROLLER_Dictionary_AddCallbackInList
                0x000000000004adf0       0x75 /home/sunho/bebop_ws/devel/arsdk/out/arsdk-native/build/libARController/obj/Sources/ARCONTROLLER_Dictionary.c.o
                0x000000000004adf0                ARCONTROLLER_Dictionary_AddCallbackInList
 *fill*         0x000000000004ae65        0xb 
 .text.ARCONTROLLER_Dictionary_DeleteDictionary
                0x000000000004ae70      0x17c /home/sunho/bebop_ws/devel/arsdk/out/arsdk-native/build/libARController/obj/Sources/ARCONTROLLER_Dictionary.c.o
                0x000000000004ae70                ARCONTROLLER_Dictionary_DeleteDictionary
 *fill*         0x000000000004afec        0x4 
 .text.ARCONTROLLER_DICTIONARY_NotifyAllCallbackInList
                0x000000000004aff0       0x3d /home/sunho/bebop_ws/devel/arsdk/out/arsdk-native/build/libARController/obj/Sources/ARCONTROLLER_Dictionary.c.o
                0x000000000004aff0                ARCONTROLLER_DICTIONARY_NotifyAllCallbackInList
 *fill*         0x000000000004b02d        0x3 
 .text.ARCONTROLLER_Dictionary_Notify
                0x000000000004b030      0x129 /home/sunho/bebop_ws/devel/arsdk/out/arsdk-native/build/libARController/obj/Sources/ARCONTROLLER_Dictionary.c.o
                0x000000000004b030                ARCONTROLLER_Dictionary_Notify
 *fill*         0x000000000004b159        0x7 
 .text.ARCONTROLLER_DICTIONARY_ElementCompare
                0x000000000004b160       0x1f /home/sunho/bebop_ws/devel/arsdk/out/arsdk-native/build/libARController/obj/Sources/ARCONTROLLER_Dictionary.c.o
                0x000000000004b160                ARCONTROLLER_DICTIONARY_ElementCompare
 *fill*         0x000000000004b17f        0x1 
 .text.ARCONTROLLER_Dictionary_AddCallback
                0x000000000004b180       0x9d /home/sunho/bebop_ws/devel/arsdk/out/arsdk-native/build/libARController/obj/Sources/ARCONTROLLER_Dictionary.c.o
                0x000000000004b180                ARCONTROLLER_Dictionary_AddCallback
 *fill*         0x000000000004b21d        0x3 
 .text.ARCONTROLLER_Dictionary_AddDictionaryElement
                0x000000000004b220      0x5b1 /home/sunho/bebop_ws/devel/arsdk/out/arsdk-native/build/libARController/obj/Sources/ARCONTROLLER_Dictionary.c.o
                0x000000000004b220                ARCONTROLLER_Dictionary_AddDictionaryElement
 *fill*         0x000000000004b7d1        0xf 
 .text.ARCONTROLLER_Dictionary_RemoveCallbackFromList
                0x000000000004b7e0       0xd4 /home/sunho/bebop_ws/devel/arsdk/out/arsdk-native/build/libARController/obj/Sources/ARCONTROLLER_Dictionary.c.o
                0x000000000004b7e0                ARCONTROLLER_Dictionary_RemoveCallbackFromList
 *fill*         0x000000000004b8b4        0xc 
 .text.ARCONTROLLER_Dictionary_RemoveCallback
                0x000000000004b8c0       0x1e /home/sunho/bebop_ws/devel/arsdk/out/arsdk-native/build/libARController/obj/Sources/ARCONTROLLER_Dictionary.c.o
                0x000000000004b8c0                ARCONTROLLER_Dictionary_RemoveCallback
 *fill*         0x000000000004b8de        0x2 
 .text.ARCONTROLLER_Dictionary_RemoveDictionaryElement
                0x000000000004b8e0      0x146 /home/sunho/bebop_ws/devel/arsdk/out/arsdk-native/build/libARController/obj/Sources/ARCONTROLLER_Dictionary.c.o
                0x000000000004b8e0                ARCONTROLLER_Dictionary_RemoveDictionaryElement
 *fill*         0x000000000004ba26        0xa 
 .text.ARCONTROLLER_Frame_NewWithCapacity
                0x000000000004ba30       0xc8 /home/sunho/bebop_ws/devel/arsdk/out/arsdk-native/build/libARController/obj/Sources/ARCONTROLLER_Frame.c.o
                0x000000000004ba30                ARCONTROLLER_Frame_NewWithCapacity
 *fill*         0x000000000004baf8        0x8 
 .text.ARCONTROLLER_Frame_New
                0x000000000004bb00        0xd /home/sunho/bebop_ws/devel/arsdk/out/arsdk-native/build/libARController/obj/Sources/ARCONTROLLER_Frame.c.o
                0x000000000004bb00                ARCONTROLLER_Frame_New
 *fill*         0x000000000004bb0d        0x3 
 .text.ARCONTROLLER_Frame_Delete
                0x000000000004bb10       0x48 /home/sunho/bebop_ws/devel/arsdk/out/arsdk-native/build/libARController/obj/Sources/ARCONTROLLER_Frame.c.o
                0x000000000004bb10                ARCONTROLLER_Frame_Delete
 *fill*         0x000000000004bb58        0x8 
 .text.ARCONTROLLER_Frame_ensureCapacityIsAtLeast
                0x000000000004bb60       0x8a /home/sunho/bebop_ws/devel/arsdk/out/arsdk-native/build/libARController/obj/Sources/ARCONTROLLER_Frame.c.o
                0x000000000004bb60                ARCONTROLLER_Frame_ensureCapacityIsAtLeast
 *fill*         0x000000000004bbea        0x6 
 .text.ARCONTROLLER_Frame_SetFree
                0x000000000004bbf0       0x4f /home/sunho/bebop_ws/devel/arsdk/out/arsdk-native/build/libARController/obj/Sources/ARCONTROLLER_Frame.c.o
                0x000000000004bbf0                ARCONTROLLER_Frame_SetFree
 *fill*         0x000000000004bc3f        0x1 
 .text.ARCONTROLLER_Network_OnDisconnectNetwork
                0x000000000004bc40       0x22 /home/sunho/bebop_ws/devel/arsdk/out/arsdk-native/build/libARController/obj/Sources/ARCONTROLLER_Network.c.o
                0x000000000004bc40                ARCONTROLLER_Network_OnDisconnectNetwork
 *fill*         0x000000000004bc62        0xe 
 .text.ARCONTROLLER_Network_OnSendJson
                0x000000000004bc70       0x69 /home/sunho/bebop_ws/devel/arsdk/out/arsdk-native/build/libARController/obj/Sources/ARCONTROLLER_Network.c.o
                0x000000000004bc70                ARCONTROLLER_Network_OnSendJson
 *fill*         0x000000000004bcd9        0x7 
 .text.ARCONTROLLER_Network_OnReceiveJson
                0x000000000004bce0       0x93 /home/sunho/bebop_ws/devel/arsdk/out/arsdk-native/build/libARController/obj/Sources/ARCONTROLLER_Network.c.o
                0x000000000004bce0                ARCONTROLLER_Network_OnReceiveJson
 *fill*         0x000000000004bd73        0xd 
 .text.ARCONTROLLER_Network_ReaderRun
                0x000000000004bd80      0x3ab /home/sunho/bebop_ws/devel/arsdk/out/arsdk-native/build/libARController/obj/Sources/ARCONTROLLER_Network.c.o
                0x000000000004bd80                ARCONTROLLER_Network_ReaderRun
 *fill*         0x000000000004c12b        0x5 
 .text.ARCONTROLLER_Network_SendingCallback
                0x000000000004c130      0x13c /home/sunho/bebop_ws/devel/arsdk/out/arsdk-native/build/libARController/obj/Sources/ARCONTROLLER_Network.c.o
                0x000000000004c130                ARCONTROLLER_Network_SendingCallback
 *fill*         0x000000000004c26c        0x4 
 .text.ARCONTROLLER_Network_Pause
                0x000000000004c270      0x1d5 /home/sunho/bebop_ws/devel/arsdk/out/arsdk-native/build/libARController/obj/Sources/ARCONTROLLER_Network.c.o
                0x000000000004c270                ARCONTROLLER_Network_Pause
 *fill*         0x000000000004c445        0xb 
 .text.ARCONTROLLER_Network_Resume
                0x000000000004c450      0x1c2 /home/sunho/bebop_ws/devel/arsdk/out/arsdk-native/build/libARController/obj/Sources/ARCONTROLLER_Network.c.o
                0x000000000004c450                ARCONTROLLER_Network_Resume
 *fill*         0x000000000004c612        0xe 
 .text.ARCONTROLLER_Network_SetVideoReceiveCallback
                0x000000000004c620       0x82 /home/sunho/bebop_ws/devel/arsdk/out/arsdk-native/build/libARController/obj/Sources/ARCONTROLLER_Network.c.o
                0x000000000004c620                ARCONTROLLER_Network_SetVideoReceiveCallback
 *fill*         0x000000000004c6a2        0xe 
 .text.ARCONTROLLER_Network_StartVideoStream
                0x000000000004c6b0       0x5c /home/sunho/bebop_ws/devel/arsdk/out/arsdk-native/build/libARController/obj/Sources/ARCONTROLLER_Network.c.o
                0x000000000004c6b0                ARCONTROLLER_Network_StartVideoStream
 *fill*         0x000000000004c70c        0x4 
 .text.ARCONTROLLER_Network_StopVideoStream
                0x000000000004c710       0x58 /home/sunho/bebop_ws/devel/arsdk/out/arsdk-native/build/libARController/obj/Sources/ARCONTROLLER_Network.c.o
                0x000000000004c710                ARCONTROLLER_Network_StopVideoStream
 *fill*         0x000000000004c768        0x8 
 .text.ARCONTROLLER_Network_SetVideoStreamMP4Compliant
                0x000000000004c770       0x6b /home/sunho/bebop_ws/devel/arsdk/out/arsdk-native/build/libARController/obj/Sources/ARCONTROLLER_Network.c.o
                0x000000000004c770                ARCONTROLLER_Network_SetVideoStreamMP4Compliant
 *fill*         0x000000000004c7db        0x5 
 .text.ARCONTROLLER_Network_SetAudioReceiveCallback
                0x000000000004c7e0       0x82 /home/sunho/bebop_ws/devel/arsdk/out/arsdk-native/build/libARController/obj/Sources/ARCONTROLLER_Network.c.o
                0x000000000004c7e0                ARCONTROLLER_Network_SetAudioReceiveCallback
 *fill*         0x000000000004c862        0xe 
 .text.ARCONTROLLER_Network_StartAudioStream
                0x000000000004c870       0x78 /home/sunho/bebop_ws/devel/arsdk/out/arsdk-native/build/libARController/obj/Sources/ARCONTROLLER_Network.c.o
                0x000000000004c870                ARCONTROLLER_Network_StartAudioStream
 *fill*         0x000000000004c8e8        0x8 
 .text.ARCONTROLLER_Network_StopAudioStream
                0x000000000004c8f0       0x74 /home/sunho/bebop_ws/devel/arsdk/out/arsdk-native/build/libARController/obj/Sources/ARCONTROLLER_Network.c.o
                0x000000000004c8f0                ARCONTROLLER_Network_StopAudioStream
 *fill*         0x000000000004c964        0xc 
 .text.ARCONTROLLER_Network_SendData
                0x000000000004c970      0x1ef /home/sunho/bebop_ws/devel/arsdk/out/arsdk-native/build/libARController/obj/Sources/ARCONTROLLER_Network.c.o
                0x000000000004c970                ARCONTROLLER_Network_SendData
 *fill*         0x000000000004cb5f        0x1 
 .text.ARCONTROLLER_Network_SendAudioFrame
                0x000000000004cb60       0x36 /home/sunho/bebop_ws/devel/arsdk/out/arsdk-native/build/libARController/obj/Sources/ARCONTROLLER_Network.c.o
                0x000000000004cb60                ARCONTROLLER_Network_SendAudioFrame
 *fill*         0x000000000004cb96        0xa 
 .text.ARCONTROLLER_Network_CreateNetworkThreads
                0x000000000004cba0      0x179 /home/sunho/bebop_ws/devel/arsdk/out/arsdk-native/build/libARController/obj/Sources/ARCONTROLLER_Network.c.o
                0x000000000004cba0                ARCONTROLLER_Network_CreateNetworkThreads
 *fill*         0x000000000004cd19        0x7 
 .text.ARCONTROLLER_Network_StopNetworkThreads
                0x000000000004cd20       0x7d /home/sunho/bebop_ws/devel/arsdk/out/arsdk-native/build/libARController/obj/Sources/ARCONTROLLER_Network.c.o
                0x000000000004cd20                ARCONTROLLER_Network_StopNetworkThreads
 *fill*         0x000000000004cd9d        0x3 
 .text.ARCONTROLLER_Network_CreateReaderThreads
                0x000000000004cda0      0x27d /home/sunho/bebop_ws/devel/arsdk/out/arsdk-native/build/libARController/obj/Sources/ARCONTROLLER_Network.c.o
                0x000000000004cda0                ARCONTROLLER_Network_CreateReaderThreads
 *fill*         0x000000000004d01d        0x3 
 .text.ARCONTROLLER_Network_StopReaderThreads
                0x000000000004d020       0xbc /home/sunho/bebop_ws/devel/arsdk/out/arsdk-native/build/libARController/obj/Sources/ARCONTROLLER_Network.c.o
                0x000000000004d020                ARCONTROLLER_Network_StopReaderThreads
 *fill*         0x000000000004d0dc        0x4 
 .text.ARCONTROLLER_Network_Delete
                0x000000000004d0e0       0xff /home/sunho/bebop_ws/devel/arsdk/out/arsdk-native/build/libARController/obj/Sources/ARCONTROLLER_Network.c.o
                0x000000000004d0e0                ARCONTROLLER_Network_Delete
 *fill*         0x000000000004d1df        0x1 
 .text.ARCONTROLLER_Network_New
                0x000000000004d1e0      0xa3f /home/sunho/bebop_ws/devel/arsdk/out/arsdk-native/build/libARController/obj/Sources/ARCONTROLLER_Network.c.o
                0x000000000004d1e0                ARCONTROLLER_Network_New
 *fill*         0x000000000004dc1f        0x1 
 .text.ARCONTROLLER_Stream_SetMP4Compliant
                0x000000000004dc20       0x34 /home/sunho/bebop_ws/devel/arsdk/out/arsdk-native/build/libARController/obj/Sources/ARCONTROLLER_Stream.c.o
                0x000000000004dc20                ARCONTROLLER_Stream_SetMP4Compliant
 *fill*         0x000000000004dc54        0xc 
 .text.ARCONTROLLER_Stream_Stop
                0x000000000004dc60       0x76 /home/sunho/bebop_ws/devel/arsdk/out/arsdk-native/build/libARController/obj/Sources/ARCONTROLLER_Stream.c.o
                0x000000000004dc60                ARCONTROLLER_Stream_Stop
 *fill*         0x000000000004dcd6        0xa 
 .text.ARCONTROLLER_Stream_Delete
                0x000000000004dce0       0x3f /home/sunho/bebop_ws/devel/arsdk/out/arsdk-native/build/libARController/obj/Sources/ARCONTROLLER_Stream.c.o
                0x000000000004dce0                ARCONTROLLER_Stream_Delete
 *fill*         0x000000000004dd1f        0x1 
 .text.ARCONTROLLER_Stream_New
                0x000000000004dd20       0xd5 /home/sunho/bebop_ws/devel/arsdk/out/arsdk-native/build/libARController/obj/Sources/ARCONTROLLER_Stream.c.o
                0x000000000004dd20                ARCONTROLLER_Stream_New
 *fill*         0x000000000004ddf5        0xb 
 .text.ARCONTROLLER_Stream_video_New
                0x000000000004de00       0x74 /home/sunho/bebop_ws/devel/arsdk/out/arsdk-native/build/libARController/obj/Sources/ARCONTROLLER_Stream.c.o
                0x000000000004de00                ARCONTROLLER_Stream_video_New
 *fill*         0x000000000004de74        0xc 
 .text.ARCONTROLLER_Stream_audio_New
                0x000000000004de80        0xd /home/sunho/bebop_ws/devel/arsdk/out/arsdk-native/build/libARController/obj/Sources/ARCONTROLLER_Stream.c.o
                0x000000000004de80                ARCONTROLLER_Stream_audio_New
 *fill*         0x000000000004de8d        0x3 
 .text.ARCONTROLLER_Stream_Start
                0x000000000004de90       0x6d /home/sunho/bebop_ws/devel/arsdk/out/arsdk-native/build/libARController/obj/Sources/ARCONTROLLER_Stream.c.o
                0x000000000004de90                ARCONTROLLER_Stream_Start
 *fill*         0x000000000004defd        0x3 
 .text.ARCONTROLLER_Stream_SetReceiveFrameCallback
                0x000000000004df00       0x58 /home/sunho/bebop_ws/devel/arsdk/out/arsdk-native/build/libARController/obj/Sources/ARCONTROLLER_Stream.c.o
                0x000000000004df00                ARCONTROLLER_Stream_SetReceiveFrameCallback
 *fill*         0x000000000004df58        0x8 
 .text.ARCONTROLLER_Stream_OnSendJson
                0x000000000004df60       0x1e /home/sunho/bebop_ws/devel/arsdk/out/arsdk-native/build/libARController/obj/Sources/ARCONTROLLER_Stream.c.o
                0x000000000004df60                ARCONTROLLER_Stream_OnSendJson
 *fill*         0x000000000004df7e        0x2 
 .text.ARCONTROLLER_Stream_OnReceiveJson
                0x000000000004df80       0x44 /home/sunho/bebop_ws/devel/arsdk/out/arsdk-native/build/libARController/obj/Sources/ARCONTROLLER_Stream.c.o
                0x000000000004df80                ARCONTROLLER_Stream_OnReceiveJson
 *fill*         0x000000000004dfc4        0xc 
 .text.ARCONTROLLER_StreamPool_Delete
                0x000000000004dfd0       0x77 /home/sunho/bebop_ws/devel/arsdk/out/arsdk-native/build/libARController/obj/Sources/ARCONTROLLER_StreamPool.c.o
                0x000000000004dfd0                ARCONTROLLER_StreamPool_Delete
 *fill*         0x000000000004e047        0x9 
 .text.ARCONTROLLER_StreamPool_New
                0x000000000004e050       0xef /home/sunho/bebop_ws/devel/arsdk/out/arsdk-native/build/libARController/obj/Sources/ARCONTROLLER_StreamPool.c.o
                0x000000000004e050                ARCONTROLLER_StreamPool_New
 *fill*         0x000000000004e13f        0x1 
 .text.ARCONTROLLER_StreamPool_GetNextFreeFrame
                0x000000000004e140       0x69 /home/sunho/bebop_ws/devel/arsdk/out/arsdk-native/build/libARController/obj/Sources/ARCONTROLLER_StreamPool.c.o
                0x000000000004e140                ARCONTROLLER_StreamPool_GetNextFreeFrame
 *fill*         0x000000000004e1a9        0x7 
 .text.ARCONTROLLER_StreamPool_GetFrameFromData
                0x000000000004e1b0       0x61 /home/sunho/bebop_ws/devel/arsdk/out/arsdk-native/build/libARController/obj/Sources/ARCONTROLLER_StreamPool.c.o
                0x000000000004e1b0                ARCONTROLLER_StreamPool_GetFrameFromData
 *fill*         0x000000000004e211        0xf 
 .text.ARCONTROLLER_StreamQueue_New
                0x000000000004e220       0x7c /home/sunho/bebop_ws/devel/arsdk/out/arsdk-native/build/libARController/obj/Sources/ARCONTROLLER_StreamQueue.c.o
                0x000000000004e220                ARCONTROLLER_StreamQueue_New
 *fill*         0x000000000004e29c        0x4 
 .text.ARCONTROLLER_StreamQueue_LocalPopFrame
                0x000000000004e2a0       0x8b /home/sunho/bebop_ws/devel/arsdk/out/arsdk-native/build/libARController/obj/Sources/ARCONTROLLER_StreamQueue.c.o
                0x000000000004e2a0                ARCONTROLLER_StreamQueue_LocalPopFrame
 *fill*         0x000000000004e32b        0x5 
 .text.ARCONTROLLER_StreamQueue_Pop
                0x000000000004e330       0x59 /home/sunho/bebop_ws/devel/arsdk/out/arsdk-native/build/libARController/obj/Sources/ARCONTROLLER_StreamQueue.c.o
                0x000000000004e330                ARCONTROLLER_StreamQueue_Pop
 *fill*         0x000000000004e389        0x7 
 .text.ARCONTROLLER_StreamQueue_PopWithTimeout
                0x000000000004e390       0x89 /home/sunho/bebop_ws/devel/arsdk/out/arsdk-native/build/libARController/obj/Sources/ARCONTROLLER_StreamQueue.c.o
                0x000000000004e390                ARCONTROLLER_StreamQueue_PopWithTimeout
 *fill*         0x000000000004e419        0x7 
 .text.ARCONTROLLER_StreamQueue_LocalTryPop
                0x000000000004e420       0x49 /home/sunho/bebop_ws/devel/arsdk/out/arsdk-native/build/libARController/obj/Sources/ARCONTROLLER_StreamQueue.c.o
                0x000000000004e420                ARCONTROLLER_StreamQueue_LocalTryPop
 *fill*         0x000000000004e469        0x7 
 .text.ARCONTROLLER_StreamQueue_TryPop
                0x000000000004e470       0x3c /home/sunho/bebop_ws/devel/arsdk/out/arsdk-native/build/libARController/obj/Sources/ARCONTROLLER_StreamQueue.c.o
                0x000000000004e470                ARCONTROLLER_StreamQueue_TryPop
 *fill*         0x000000000004e4ac        0x4 
 .text.ARCONTROLLER_StreamQueue_LocalFlush
                0x000000000004e4b0      0x148 /home/sunho/bebop_ws/devel/arsdk/out/arsdk-native/build/libARController/obj/Sources/ARCONTROLLER_StreamQueue.c.o
                0x000000000004e4b0                ARCONTROLLER_StreamQueue_LocalFlush
 *fill*         0x000000000004e5f8        0x8 
 .text.ARCONTROLLER_StreamQueue_Push
                0x000000000004e600       0xdb /home/sunho/bebop_ws/devel/arsdk/out/arsdk-native/build/libARController/obj/Sources/ARCONTROLLER_StreamQueue.c.o
                0x000000000004e600                ARCONTROLLER_StreamQueue_Push
 *fill*         0x000000000004e6db        0x5 
 .text.ARCONTROLLER_StreamQueue_Flush
                0x000000000004e6e0       0x16 /home/sunho/bebop_ws/devel/arsdk/out/arsdk-native/build/libARController/obj/Sources/ARCONTROLLER_StreamQueue.c.o
                0x000000000004e6e0                ARCONTROLLER_StreamQueue_Flush
 *fill*         0x000000000004e6f6        0xa 
 .text.ARCONTROLLER_StreamQueue_Delete
                0x000000000004e700       0x3f /home/sunho/bebop_ws/devel/arsdk/out/arsdk-native/build/libARController/obj/Sources/ARCONTROLLER_StreamQueue.c.o
                0x000000000004e700                ARCONTROLLER_StreamQueue_Delete
 *fill*         0x000000000004e73f        0x1 
 .text.ARCONTROLLER_Stream1_FrameCompleteCallback
                0x000000000004e740      0x36b /home/sunho/bebop_ws/devel/arsdk/out/arsdk-native/build/libARController/obj/Sources/ARCONTROLLER_Stream1.c.o
                0x000000000004e740                ARCONTROLLER_Stream1_FrameCompleteCallback
 *fill*         0x000000000004eaab        0x5 
 .text.ARCONTROLLER_Stream1_Stop
                0x000000000004eab0       0xb1 /home/sunho/bebop_ws/devel/arsdk/out/arsdk-native/build/libARController/obj/Sources/ARCONTROLLER_Stream1.c.o
                0x000000000004eab0                ARCONTROLLER_Stream1_Stop
 *fill*         0x000000000004eb61        0xf 
 .text.ARCONTROLLER_Stream1_Delete
                0x000000000004eb70       0x3f /home/sunho/bebop_ws/devel/arsdk/out/arsdk-native/build/libARController/obj/Sources/ARCONTROLLER_Stream1.c.o
                0x000000000004eb70                ARCONTROLLER_Stream1_Delete
 *fill*         0x000000000004ebaf        0x1 
 .text.ARCONTROLLER_Stream1_New
                0x000000000004ebb0      0x162 /home/sunho/bebop_ws/devel/arsdk/out/arsdk-native/build/libARController/obj/Sources/ARCONTROLLER_Stream1.c.o
                0x000000000004ebb0                ARCONTROLLER_Stream1_New
 *fill*         0x000000000004ed12        0xe 
 .text.ARCONTROLLER_Stream1_Start
                0x000000000004ed20      0x3ce /home/sunho/bebop_ws/devel/arsdk/out/arsdk-native/build/libARController/obj/Sources/ARCONTROLLER_Stream1.c.o
                0x000000000004ed20                ARCONTROLLER_Stream1_Start
 *fill*         0x000000000004f0ee        0x2 
 .text.ARCONTROLLER_Stream1_SetCallbacks
                0x000000000004f0f0       0x21 /home/sunho/bebop_ws/devel/arsdk/out/arsdk-native/build/libARController/obj/Sources/ARCONTROLLER_Stream1.c.o
                0x000000000004f0f0                ARCONTROLLER_Stream1_SetCallbacks
 *fill*         0x000000000004f111        0xf 
 .text.ARCONTROLLER_Stream1_IsRunning
                0x000000000004f120       0x29 /home/sunho/bebop_ws/devel/arsdk/out/arsdk-native/build/libARController/obj/Sources/ARCONTROLLER_Stream1.c.o
                0x000000000004f120                ARCONTROLLER_Stream1_IsRunning
 *fill*         0x000000000004f149        0x7 
 .text.ARCONTROLLER_Stream1_SetMP4Compliant
                0x000000000004f150       0x1e /home/sunho/bebop_ws/devel/arsdk/out/arsdk-native/build/libARController/obj/Sources/ARCONTROLLER_Stream1.c.o
                0x000000000004f150                ARCONTROLLER_Stream1_SetMP4Compliant
 *fill*         0x000000000004f16e        0x2 
 .text.ARCONTROLLER_Stream1_GetFrame
                0x000000000004f170       0x54 /home/sunho/bebop_ws/devel/arsdk/out/arsdk-native/build/libARController/obj/Sources/ARCONTROLLER_Stream1.c.o
                0x000000000004f170                ARCONTROLLER_Stream1_GetFrame
 *fill*         0x000000000004f1c4        0xc 
 .text.ARCONTROLLER_Stream1_TryGetFrame
                0x000000000004f1d0       0x54 /home/sunho/bebop_ws/devel/arsdk/out/arsdk-native/build/libARController/obj/Sources/ARCONTROLLER_Stream1.c.o
                0x000000000004f1d0                ARCONTROLLER_Stream1_TryGetFrame
 *fill*         0x000000000004f224        0xc 
 .text.ARCONTROLLER_Stream1_GetFrameWithTimeout
                0x000000000004f230       0x54 /home/sunho/bebop_ws/devel/arsdk/out/arsdk-native/build/libARController/obj/Sources/ARCONTROLLER_Stream1.c.o
                0x000000000004f230                ARCONTROLLER_Stream1_GetFrameWithTimeout
 *fill*         0x000000000004f284        0xc 
 .text.ARCONTROLLER_Stream1_IdToIndex
                0x000000000004f290       0x3c /home/sunho/bebop_ws/devel/arsdk/out/arsdk-native/build/libARController/obj/Sources/ARCONTROLLER_Stream1.c.o
                0x000000000004f290                ARCONTROLLER_Stream1_IdToIndex
 *fill*         0x000000000004f2cc        0x4 
 .text.ARCONTROLLER_Stream1_InitStream1Buffers
                0x000000000004f2d0      0x104 /home/sunho/bebop_ws/devel/arsdk/out/arsdk-native/build/libARController/obj/Sources/ARCONTROLLER_Stream1.c.o
                0x000000000004f2d0                ARCONTROLLER_Stream1_InitStream1Buffers
 *fill*         0x000000000004f3d4        0xc 
 .text.ARCONTROLLER_Stream1_OnReceiveJson
                0x000000000004f3e0      0x167 /home/sunho/bebop_ws/devel/arsdk/out/arsdk-native/build/libARController/obj/Sources/ARCONTROLLER_Stream1.c.o
                0x000000000004f3e0                ARCONTROLLER_Stream1_OnReceiveJson
 *fill*         0x000000000004f547        0x9 
 .text.ARCONTROLLER_Stream1_GetSpsPpsFromIFrame
                0x000000000004f550      0x294 /home/sunho/bebop_ws/devel/arsdk/out/arsdk-native/build/libARController/obj/Sources/ARCONTROLLER_Stream1.c.o
                0x000000000004f550                ARCONTROLLER_Stream1_GetSpsPpsFromIFrame
 *fill*         0x000000000004f7e4        0xc 
 .text.ARCONTROLLER_Stream1_ReaderThreadRun
                0x000000000004f7f0      0x4aa /home/sunho/bebop_ws/devel/arsdk/out/arsdk-native/build/libARController/obj/Sources/ARCONTROLLER_Stream1.c.o
                0x000000000004f7f0                ARCONTROLLER_Stream1_ReaderThreadRun
 *fill*         0x000000000004fc9a        0x6 
 .text.ARCONTROLLER_Stream2_SpsPpsCallback
                0x000000000004fca0       0x73 /home/sunho/bebop_ws/devel/arsdk/out/arsdk-native/build/libARController/obj/Sources/ARCONTROLLER_Stream2.c.o
 *fill*         0x000000000004fd13        0xd 
 .text.ARCONTROLLER_Stream2_AuReadyCallback
                0x000000000004fd20      0x1bd /home/sunho/bebop_ws/devel/arsdk/out/arsdk-native/build/libARController/obj/Sources/ARCONTROLLER_Stream2.c.o
 *fill*         0x000000000004fedd        0x3 
 .text.ARCONTROLLER_Stream2_Open_Socket
                0x000000000004fee0      0x3f0 /home/sunho/bebop_ws/devel/arsdk/out/arsdk-native/build/libARController/obj/Sources/ARCONTROLLER_Stream2.c.o
 .text.ARCONTROLLER_Stream2_StartStream
                0x00000000000502d0      0x4ad /home/sunho/bebop_ws/devel/arsdk/out/arsdk-native/build/libARController/obj/Sources/ARCONTROLLER_Stream2.c.o
 *fill*         0x000000000005077d        0x3 
 .text.ARCONTROLLER_Stream2_StopStream.part.0
                0x0000000000050780       0x7a /home/sunho/bebop_ws/devel/arsdk/out/arsdk-native/build/libARController/obj/Sources/ARCONTROLLER_Stream2.c.o
 *fill*         0x00000000000507fa        0x6 
 .text.ARCONTROLLER_Stream2_RestartRun
                0x0000000000050800       0x1a /home/sunho/bebop_ws/devel/arsdk/out/arsdk-native/build/libARController/obj/Sources/ARCONTROLLER_Stream2.c.o
 *fill*         0x000000000005081a        0x6 
 .text.ARCONTROLLER_Stream2_GetAuBufferCallback
                0x0000000000050820      0x10f /home/sunho/bebop_ws/devel/arsdk/out/arsdk-native/build/libARController/obj/Sources/ARCONTROLLER_Stream2.c.o
 *fill*         0x000000000005092f        0x1 
 .text.ARCONTROLLER_Stream2_Stop
                0x0000000000050930       0x31 /home/sunho/bebop_ws/devel/arsdk/out/arsdk-native/build/libARController/obj/Sources/ARCONTROLLER_Stream2.c.o
                0x0000000000050930                ARCONTROLLER_Stream2_Stop
 *fill*         0x0000000000050961        0xf 
 .text.ARCONTROLLER_Stream2_Delete
                0x0000000000050970       0x70 /home/sunho/bebop_ws/devel/arsdk/out/arsdk-native/build/libARController/obj/Sources/ARCONTROLLER_Stream2.c.o
                0x0000000000050970                ARCONTROLLER_Stream2_Delete
 .text.ARCONTROLLER_Stream2_New
                0x00000000000509e0      0x19b /home/sunho/bebop_ws/devel/arsdk/out/arsdk-native/build/libARController/obj/Sources/ARCONTROLLER_Stream2.c.o
                0x00000000000509e0                ARCONTROLLER_Stream2_New
 *fill*         0x0000000000050b7b        0x5 
 .text.ARCONTROLLER_Stream2_SetCallbacks
                0x0000000000050b80       0x23 /home/sunho/bebop_ws/devel/arsdk/out/arsdk-native/build/libARController/obj/Sources/ARCONTROLLER_Stream2.c.o
                0x0000000000050b80                ARCONTROLLER_Stream2_SetCallbacks
 *fill*         0x0000000000050ba3        0xd 
 .text.ARCONTROLLER_Stream2_IsRunning
                0x0000000000050bb0       0x29 /home/sunho/bebop_ws/devel/arsdk/out/arsdk-native/build/libARController/obj/Sources/ARCONTROLLER_Stream2.c.o
                0x0000000000050bb0                ARCONTROLLER_Stream2_IsRunning
 *fill*         0x0000000000050bd9        0x7 
 .text.ARCONTROLLER_Stream2_SetMP4Compliant
                0x0000000000050be0       0x14 /home/sunho/bebop_ws/devel/arsdk/out/arsdk-native/build/libARController/obj/Sources/ARCONTROLLER_Stream2.c.o
                0x0000000000050be0                ARCONTROLLER_Stream2_SetMP4Compliant
 *fill*         0x0000000000050bf4        0xc 
 .text.ARCONTROLLER_Stream2_OnSendJson
                0x0000000000050c00       0x77 /home/sunho/bebop_ws/devel/arsdk/out/arsdk-native/build/libARController/obj/Sources/ARCONTROLLER_Stream2.c.o
                0x0000000000050c00                ARCONTROLLER_Stream2_OnSendJson
 *fill*         0x0000000000050c77        0x9 
 .text.ARCONTROLLER_Stream2_OnReceiveJson
                0x0000000000050c80      0x17b /home/sunho/bebop_ws/devel/arsdk/out/arsdk-native/build/libARController/obj/Sources/ARCONTROLLER_Stream2.c.o
                0x0000000000050c80                ARCONTROLLER_Stream2_OnReceiveJson
 *fill*         0x0000000000050dfb        0x5 
 .text.ARCONTROLLER_Stream2_JsonContainsStream2Param
                0x0000000000050e00       0x3e /home/sunho/bebop_ws/devel/arsdk/out/arsdk-native/build/libARController/obj/Sources/ARCONTROLLER_Stream2.c.o
                0x0000000000050e00                ARCONTROLLER_Stream2_JsonContainsStream2Param
 *fill*         0x0000000000050e3e        0x2 
 .text.ARCONTROLLER_Stream2_IsInitilized
                0x0000000000050e40       0x15 /home/sunho/bebop_ws/devel/arsdk/out/arsdk-native/build/libARController/obj/Sources/ARCONTROLLER_Stream2.c.o
                0x0000000000050e40                ARCONTROLLER_Stream2_IsInitilized
 *fill*         0x0000000000050e55        0xb 
 .text.ARCONTROLLER_Stream2_Start
                0x0000000000050e60       0x90 /home/sunho/bebop_ws/devel/arsdk/out/arsdk-native/build/libARController/obj/Sources/ARCONTROLLER_Stream2.c.o
                0x0000000000050e60                ARCONTROLLER_Stream2_Start
 .text.ARCONTROLLER_StreamSender_FrameUpdateCallback
                0x0000000000050ef0       0x46 /home/sunho/bebop_ws/devel/arsdk/out/arsdk-native/build/libARController/obj/Sources/ARCONTROLLER_StreamSender.c.o
 *fill*         0x0000000000050f36        0xa 
 .text.ARCONTROLLER_StreamSender_Stop
                0x0000000000050f40       0x75 /home/sunho/bebop_ws/devel/arsdk/out/arsdk-native/build/libARController/obj/Sources/ARCONTROLLER_StreamSender.c.o
                0x0000000000050f40                ARCONTROLLER_StreamSender_Stop
 *fill*         0x0000000000050fb5        0xb 
 .text.ARCONTROLLER_StreamSender_Delete
                0x0000000000050fc0       0x33 /home/sunho/bebop_ws/devel/arsdk/out/arsdk-native/build/libARController/obj/Sources/ARCONTROLLER_StreamSender.c.o
                0x0000000000050fc0                ARCONTROLLER_StreamSender_Delete
 *fill*         0x0000000000050ff3        0xd 
 .text.ARCONTROLLER_StreamSender_New
                0x0000000000051000       0xf2 /home/sunho/bebop_ws/devel/arsdk/out/arsdk-native/build/libARController/obj/Sources/ARCONTROLLER_StreamSender.c.o
                0x0000000000051000                ARCONTROLLER_StreamSender_New
 *fill*         0x00000000000510f2        0xe 
 .text.ARCONTROLLER_StreamSender_Start
                0x0000000000051100      0x2b6 /home/sunho/bebop_ws/devel/arsdk/out/arsdk-native/build/libARController/obj/Sources/ARCONTROLLER_StreamSender.c.o
                0x0000000000051100                ARCONTROLLER_StreamSender_Start
 *fill*         0x00000000000513b6        0xa 
 .text.ARCONTROLLER_StreamSender_SendAudioFrame
                0x00000000000513c0      0x248 /home/sunho/bebop_ws/devel/arsdk/out/arsdk-native/build/libARController/obj/Sources/ARCONTROLLER_StreamSender.c.o
                0x00000000000513c0                ARCONTROLLER_StreamSender_SendAudioFrame
 *fill*         0x0000000000051608        0x8 
 .text.ARCONTROLLER_StreamSender_OnReceiveJson
                0x0000000000051610      0x15c /home/sunho/bebop_ws/devel/arsdk/out/arsdk-native/build/libARController/obj/Sources/ARCONTROLLER_StreamSender.c.o
                0x0000000000051610                ARCONTROLLER_StreamSender_OnReceiveJson
 *fill*         0x000000000005176c        0x4 
 .text.ARCONTROLLER_Device_ReceiveJsonCallback
                0x0000000000051770       0x26 /home/sunho/bebop_ws/devel/arsdk/out/arsdk-native/build/libARController/obj/gen/Sources/ARCONTROLLER_Device.c.o
                0x0000000000051770                ARCONTROLLER_Device_ReceiveJsonCallback
 *fill*         0x0000000000051796        0xa 
 .text.ARCONTROLLER_Device_ControllerLooperThread
                0x00000000000517a0      0x453 /home/sunho/bebop_ws/devel/arsdk/out/arsdk-native/build/libARController/obj/gen/Sources/ARCONTROLLER_Device.c.o
                0x00000000000517a0                ARCONTROLLER_Device_ControllerLooperThread
 *fill*         0x0000000000051bf3        0xd 
 .text.ARCONTROLLER_Device_SendJsonCallback
                0x0000000000051c00       0x67 /home/sunho/bebop_ws/devel/arsdk/out/arsdk-native/build/libARController/obj/gen/Sources/ARCONTROLLER_Device.c.o
                0x0000000000051c00                ARCONTROLLER_Device_SendJsonCallback
 *fill*         0x0000000000051c67        0x9 
 .text.ARCONTROLLER_Device_RegisterCallbacks
                0x0000000000051c70     0x2287 /home/sunho/bebop_ws/devel/arsdk/out/arsdk-native/build/libARController/obj/gen/Sources/ARCONTROLLER_Device.c.o
                0x0000000000051c70                ARCONTROLLER_Device_RegisterCallbacks
 *fill*         0x0000000000053ef7        0x9 
 .text.ARCONTROLLER_Device_UnregisterCallbacks
                0x0000000000053f00     0x19a6 /home/sunho/bebop_ws/devel/arsdk/out/arsdk-native/build/libARController/obj/gen/Sources/ARCONTROLLER_Device.c.o
                0x0000000000053f00                ARCONTROLLER_Device_UnregisterCallbacks
 *fill*         0x00000000000558a6        0xa 
 .text.ARCONTROLLER_Device_SetVideoStreamCallbacks
                0x00000000000558b0       0x87 /home/sunho/bebop_ws/devel/arsdk/out/arsdk-native/build/libARController/obj/gen/Sources/ARCONTROLLER_Device.c.o
                0x00000000000558b0                ARCONTROLLER_Device_SetVideoStreamCallbacks
 *fill*         0x0000000000055937        0x9 
 .text.ARCONTROLLER_Device_SetVideoStreamMP4Compliant
                0x0000000000055940       0x57 /home/sunho/bebop_ws/devel/arsdk/out/arsdk-native/build/libARController/obj/gen/Sources/ARCONTROLLER_Device.c.o
                0x0000000000055940                ARCONTROLLER_Device_SetVideoStreamMP4Compliant
 *fill*         0x0000000000055997        0x9 
 .text.ARCONTROLLER_Device_SetAudioStreamCallbacks
                0x00000000000559a0       0x87 /home/sunho/bebop_ws/devel/arsdk/out/arsdk-native/build/libARController/obj/gen/Sources/ARCONTROLLER_Device.c.o
                0x00000000000559a0                ARCONTROLLER_Device_SetAudioStreamCallbacks
 *fill*         0x0000000000055a27        0x9 
 .text.ARCONTROLLER_Device_AddCommandReceivedCallback
                0x0000000000055a30       0x61 /home/sunho/bebop_ws/devel/arsdk/out/arsdk-native/build/libARController/obj/gen/Sources/ARCONTROLLER_Device.c.o
                0x0000000000055a30                ARCONTROLLER_Device_AddCommandReceivedCallback
 *fill*         0x0000000000055a91        0xf 
 .text.ARCONTROLLER_Device_RemoveCommandReceivedCallback
                0x0000000000055aa0       0x61 /home/sunho/bebop_ws/devel/arsdk/out/arsdk-native/build/libARController/obj/gen/Sources/ARCONTROLLER_Device.c.o
                0x0000000000055aa0                ARCONTROLLER_Device_RemoveCommandReceivedCallback
 *fill*         0x0000000000055b01        0xf 
 .text.ARCONTROLLER_Device_GetCommandElements
                0x0000000000055b10      0x3f5 /home/sunho/bebop_ws/devel/arsdk/out/arsdk-native/build/libARController/obj/gen/Sources/ARCONTROLLER_Device.c.o
                0x0000000000055b10                ARCONTROLLER_Device_GetCommandElements
 *fill*         0x0000000000055f05        0xb 
 .text.ARCONTROLLER_Device_SendStreamFrame
                0x0000000000055f10       0x63 /home/sunho/bebop_ws/devel/arsdk/out/arsdk-native/build/libARController/obj/gen/Sources/ARCONTROLLER_Device.c.o
                0x0000000000055f10                ARCONTROLLER_Device_SendStreamFrame
 *fill*         0x0000000000055f73        0xd 
 .text.ARCONTROLLER_Device_GetState
                0x0000000000055f80       0x5c /home/sunho/bebop_ws/devel/arsdk/out/arsdk-native/build/libARController/obj/gen/Sources/ARCONTROLLER_Device.c.o
                0x0000000000055f80                ARCONTROLLER_Device_GetState
 *fill*         0x0000000000055fdc        0x4 
 .text.ARCONTROLLER_Device_GetExtensionState
                0x0000000000055fe0       0x5c /home/sunho/bebop_ws/devel/arsdk/out/arsdk-native/build/libARController/obj/gen/Sources/ARCONTROLLER_Device.c.o
                0x0000000000055fe0                ARCONTROLLER_Device_GetExtensionState
 *fill*         0x000000000005603c        0x4 
 .text.ARCONTROLLER_Device_GetExtensionName
                0x0000000000056040       0xa1 /home/sunho/bebop_ws/devel/arsdk/out/arsdk-native/build/libARController/obj/gen/Sources/ARCONTROLLER_Device.c.o
                0x0000000000056040                ARCONTROLLER_Device_GetExtensionName
 *fill*         0x00000000000560e1        0xf 
 .text.ARCONTROLLER_Device_GetExtensionProduct
                0x00000000000560f0       0x5c /home/sunho/bebop_ws/devel/arsdk/out/arsdk-native/build/libARController/obj/gen/Sources/ARCONTROLLER_Device.c.o
                0x00000000000560f0                ARCONTROLLER_Device_GetExtensionProduct
 *fill*         0x000000000005614c        0x4 
 .text.ARCONTROLLER_Device_HasOutputVideoStream
                0x0000000000056150       0x59 /home/sunho/bebop_ws/devel/arsdk/out/arsdk-native/build/libARController/obj/gen/Sources/ARCONTROLLER_Device.c.o
                0x0000000000056150                ARCONTROLLER_Device_HasOutputVideoStream
 *fill*         0x00000000000561a9        0x7 
 .text.ARCONTROLLER_Device_HasOutputAudioStream
                0x00000000000561b0       0x3e /home/sunho/bebop_ws/devel/arsdk/out/arsdk-native/build/libARController/obj/gen/Sources/ARCONTROLLER_Device.c.o
                0x00000000000561b0                ARCONTROLLER_Device_HasOutputAudioStream
 *fill*         0x00000000000561ee        0x2 
 .text.ARCONTROLLER_Device_HasInputAudioStream
                0x00000000000561f0       0x3e /home/sunho/bebop_ws/devel/arsdk/out/arsdk-native/build/libARController/obj/gen/Sources/ARCONTROLLER_Device.c.o
                0x00000000000561f0                ARCONTROLLER_Device_HasInputAudioStream
 *fill*         0x000000000005622e        0x2 
 .text.ARCONTROLLER_Device_StopNetwork
                0x0000000000056230      0xb45 /home/sunho/bebop_ws/devel/arsdk/out/arsdk-native/build/libARController/obj/gen/Sources/ARCONTROLLER_Device.c.o
                0x0000000000056230                ARCONTROLLER_Device_StopNetwork
 *fill*         0x0000000000056d75        0xb 
 .text.ARCONTROLLER_Device_SetNetworkControllerToFeatures
                0x0000000000056d80      0xd6e /home/sunho/bebop_ws/devel/arsdk/out/arsdk-native/build/libARController/obj/gen/Sources/ARCONTROLLER_Device.c.o
                0x0000000000056d80                ARCONTROLLER_Device_SetNetworkControllerToFeatures
 *fill*         0x0000000000057aee        0x2 
 .text.ARCONTROLLER_Device_StartNetwork
                0x0000000000057af0      0xc1f /home/sunho/bebop_ws/devel/arsdk/out/arsdk-native/build/libARController/obj/gen/Sources/ARCONTROLLER_Device.c.o
                0x0000000000057af0                ARCONTROLLER_Device_StartNetwork
 *fill*         0x000000000005870f        0x1 
 .text.ARCONTROLLER_Device_StartControllerLooperThread
                0x0000000000058710       0xef /home/sunho/bebop_ws/devel/arsdk/out/arsdk-native/build/libARController/obj/gen/Sources/ARCONTROLLER_Device.c.o
                0x0000000000058710                ARCONTROLLER_Device_StartControllerLooperThread
 *fill*         0x00000000000587ff        0x1 
 .text.ARCONTROLLER_Device_StopControllerLooperThread
                0x0000000000058800       0x5f /home/sunho/bebop_ws/devel/arsdk/out/arsdk-native/build/libARController/obj/gen/Sources/ARCONTROLLER_Device.c.o
                0x0000000000058800                ARCONTROLLER_Device_StopControllerLooperThread
 *fill*         0x000000000005885f        0x1 
 .text.ARCONTROLLER_Device_SetInitialDate
                0x0000000000058860      0x19c /home/sunho/bebop_ws/devel/arsdk/out/arsdk-native/build/libARController/obj/gen/Sources/ARCONTROLLER_Device.c.o
                0x0000000000058860                ARCONTROLLER_Device_SetInitialDate
 *fill*         0x00000000000589fc        0x4 
 .text.ARCONTROLLER_Device_GetInitialSettings
                0x0000000000058a00       0x56 /home/sunho/bebop_ws/devel/arsdk/out/arsdk-native/build/libARController/obj/gen/Sources/ARCONTROLLER_Device.c.o
                0x0000000000058a00                ARCONTROLLER_Device_GetInitialSettings
 *fill*         0x0000000000058a56        0xa 
 .text.ARCONTROLLER_Device_GetInitialStates
                0x0000000000058a60       0x56 /home/sunho/bebop_ws/devel/arsdk/out/arsdk-native/build/libARController/obj/gen/Sources/ARCONTROLLER_Device.c.o
                0x0000000000058a60                ARCONTROLLER_Device_GetInitialStates
 *fill*         0x0000000000058ab6        0xa 
 .text.ARCONTROLLER_Device_OnStart
                0x0000000000058ac0       0x94 /home/sunho/bebop_ws/devel/arsdk/out/arsdk-native/build/libARController/obj/gen/Sources/ARCONTROLLER_Device.c.o
                0x0000000000058ac0                ARCONTROLLER_Device_OnStart
 *fill*         0x0000000000058b54        0xc 
 .text.ARCONTROLLER_Device_OnAllStatesEnd
                0x0000000000058b60       0x22 /home/sunho/bebop_ws/devel/arsdk/out/arsdk-native/build/libARController/obj/gen/Sources/ARCONTROLLER_Device.c.o
                0x0000000000058b60                ARCONTROLLER_Device_OnAllStatesEnd
 *fill*         0x0000000000058b82        0xe 
 .text.ARCONTROLLER_Device_OnAllSettingsEnd
                0x0000000000058b90       0x22 /home/sunho/bebop_ws/devel/arsdk/out/arsdk-native/build/libARController/obj/gen/Sources/ARCONTROLLER_Device.c.o
                0x0000000000058b90                ARCONTROLLER_Device_OnAllSettingsEnd
 *fill*         0x0000000000058bb2        0xe 
 .text.ARCONTROLLER_Device_OnARDrone3VideoEnableChanged
                0x0000000000058bc0      0x6f7 /home/sunho/bebop_ws/devel/arsdk/out/arsdk-native/build/libARController/obj/gen/Sources/ARCONTROLLER_Device.c.o
                0x0000000000058bc0                ARCONTROLLER_Device_OnARDrone3VideoEnableChanged
 *fill*         0x00000000000592b7        0x9 
 .text.ARCONTROLLER_Device_OnJumpingSumoVideoEnableChanged
                0x00000000000592c0      0x6f7 /home/sunho/bebop_ws/devel/arsdk/out/arsdk-native/build/libARController/obj/gen/Sources/ARCONTROLLER_Device.c.o
                0x00000000000592c0                ARCONTROLLER_Device_OnJumpingSumoVideoEnableChanged
 *fill*         0x00000000000599b7        0x9 
 .text.ARCONTROLLER_Device_OnPowerUpVideoEnableChanged
                0x00000000000599c0      0x6f7 /home/sunho/bebop_ws/devel/arsdk/out/arsdk-native/build/libARController/obj/gen/Sources/ARCONTROLLER_Device.c.o
                0x00000000000599c0                ARCONTROLLER_Device_OnPowerUpVideoEnableChanged
 *fill*         0x000000000005a0b7        0x9 
 .text.ARCONTROLLER_Device_OnAudioStreamStateChanged
                0x000000000005a0c0      0x65f /home/sunho/bebop_ws/devel/arsdk/out/arsdk-native/build/libARController/obj/gen/Sources/ARCONTROLLER_Device.c.o
                0x000000000005a0c0                ARCONTROLLER_Device_OnAudioStreamStateChanged
 *fill*         0x000000000005a71f        0x1 
 .text.ARCONTROLLER_Device_AddCallbackInList
                0x000000000005a720       0x75 /home/sunho/bebop_ws/devel/arsdk/out/arsdk-native/build/libARController/obj/gen/Sources/ARCONTROLLER_Device.c.o
                0x000000000005a720                ARCONTROLLER_Device_AddCallbackInList
 *fill*         0x000000000005a795        0xb 
 .text.ARCONTROLLER_Device_AddStateChangedCallback
                0x000000000005a7a0       0x61 /home/sunho/bebop_ws/devel/arsdk/out/arsdk-native/build/libARController/obj/gen/Sources/ARCONTROLLER_Device.c.o
                0x000000000005a7a0                ARCONTROLLER_Device_AddStateChangedCallback
 *fill*         0x000000000005a801        0xf 
 .text.ARCONTROLLER_Device_AddExtensionCallbackInList
                0x000000000005a810       0x75 /home/sunho/bebop_ws/devel/arsdk/out/arsdk-native/build/libARController/obj/gen/Sources/ARCONTROLLER_Device.c.o
                0x000000000005a810                ARCONTROLLER_Device_AddExtensionCallbackInList
 *fill*         0x000000000005a885        0xb 
 .text.ARCONTROLLER_Device_AddExtensionStateChangedCallback
                0x000000000005a890       0x61 /home/sunho/bebop_ws/devel/arsdk/out/arsdk-native/build/libARController/obj/gen/Sources/ARCONTROLLER_Device.c.o
                0x000000000005a890                ARCONTROLLER_Device_AddExtensionStateChangedCallback
 *fill*         0x000000000005a8f1        0xf 
 .text.ARCONTROLLER_Device_RemoveCallbackFromList
                0x000000000005a900       0x82 /home/sunho/bebop_ws/devel/arsdk/out/arsdk-native/build/libARController/obj/gen/Sources/ARCONTROLLER_Device.c.o
                0x000000000005a900                ARCONTROLLER_Device_RemoveCallbackFromList
 *fill*         0x000000000005a982        0xe 
 .text.ARCONTROLLER_Device_RemoveStateChangedCallback
                0x000000000005a990       0x61 /home/sunho/bebop_ws/devel/arsdk/out/arsdk-native/build/libARController/obj/gen/Sources/ARCONTROLLER_Device.c.o
                0x000000000005a990                ARCONTROLLER_Device_RemoveStateChangedCallback
 *fill*         0x000000000005a9f1        0xf 
 .text.ARCONTROLLER_Device_RemoveExtensionCallbackFromList
                0x000000000005aa00       0x82 /home/sunho/bebop_ws/devel/arsdk/out/arsdk-native/build/libARController/obj/gen/Sources/ARCONTROLLER_Device.c.o
                0x000000000005aa00                ARCONTROLLER_Device_RemoveExtensionCallbackFromList
 *fill*         0x000000000005aa82        0xe 
 .text.ARCONTROLLER_Device_DeleteCallbackList
                0x000000000005aa90       0x6f /home/sunho/bebop_ws/devel/arsdk/out/arsdk-native/build/libARController/obj/gen/Sources/ARCONTROLLER_Device.c.o
                0x000000000005aa90                ARCONTROLLER_Device_DeleteCallbackList
 *fill*         0x000000000005aaff        0x1 
 .text.ARCONTROLLER_Device_DeleteExtensionCallbackList
                0x000000000005ab00       0x6f /home/sunho/bebop_ws/devel/arsdk/out/arsdk-native/build/libARController/obj/gen/Sources/ARCONTROLLER_Device.c.o
                0x000000000005ab00                ARCONTROLLER_Device_DeleteExtensionCallbackList
 *fill*         0x000000000005ab6f        0x1 
 .text.ARCONTROLLER_Device_DeleteExtension
                0x000000000005ab70      0x362 /home/sunho/bebop_ws/devel/arsdk/out/arsdk-native/build/libARController/obj/gen/Sources/ARCONTROLLER_Device.c.o
                0x000000000005ab70                ARCONTROLLER_Device_DeleteExtension
 *fill*         0x000000000005aed2        0xe 
 .text.ARCONTROLLER_Device_Delete
                0x000000000005aee0      0x277 /home/sunho/bebop_ws/devel/arsdk/out/arsdk-native/build/libARController/obj/gen/Sources/ARCONTROLLER_Device.c.o
                0x000000000005aee0                ARCONTROLLER_Device_Delete
 *fill*         0x000000000005b157        0x9 
 .text.ARCONTROLLER_Device_New
                0x000000000005b160      0x592 /home/sunho/bebop_ws/devel/arsdk/out/arsdk-native/build/libARController/obj/gen/Sources/ARCONTROLLER_Device.c.o
                0x000000000005b160                ARCONTROLLER_Device_New
 *fill*         0x000000000005b6f2        0xe 
 .text.ARCONTROLLER_Device_NotifyAllCallbackInList
                0x000000000005b700       0x3c /home/sunho/bebop_ws/devel/arsdk/out/arsdk-native/build/libARController/obj/gen/Sources/ARCONTROLLER_Device.c.o
                0x000000000005b700                ARCONTROLLER_Device_NotifyAllCallbackInList
 *fill*         0x000000000005b73c        0x4 
 .text.ARCONTROLLER_Device_NotifyAllExtensionCallbackInList
                0x000000000005b740       0x4f /home/sunho/bebop_ws/devel/arsdk/out/arsdk-native/build/libARController/obj/gen/Sources/ARCONTROLLER_Device.c.o
                0x000000000005b740                ARCONTROLLER_Device_NotifyAllExtensionCallbackInList
 *fill*         0x000000000005b78f        0x1 
 .text.ARCONTROLLER_Device_SetState
                0x000000000005b790       0x49 /home/sunho/bebop_ws/devel/arsdk/out/arsdk-native/build/libARController/obj/gen/Sources/ARCONTROLLER_Device.c.o
                0x000000000005b790                ARCONTROLLER_Device_SetState
 *fill*         0x000000000005b7d9        0x7 
 .text.ARCONTROLLER_Device_Start
                0x000000000005b7e0      0x12f /home/sunho/bebop_ws/devel/arsdk/out/arsdk-native/build/libARController/obj/gen/Sources/ARCONTROLLER_Device.c.o
                0x000000000005b7e0                ARCONTROLLER_Device_Start
 *fill*         0x000000000005b90f        0x1 
 .text.ARCONTROLLER_Device_Stop
                0x000000000005b910      0x194 /home/sunho/bebop_ws/devel/arsdk/out/arsdk-native/build/libARController/obj/gen/Sources/ARCONTROLLER_Device.c.o
                0x000000000005b910                ARCONTROLLER_Device_Stop
 *fill*         0x000000000005baa4        0xc 
 .text.ARCONTROLLER_Device_OnDisconnectCallback
                0x000000000005bab0       0x1a /home/sunho/bebop_ws/devel/arsdk/out/arsdk-native/build/libARController/obj/gen/Sources/ARCONTROLLER_Device.c.o
                0x000000000005bab0                ARCONTROLLER_Device_OnDisconnectCallback
 *fill*         0x000000000005baca        0x6 
 .text.ARCONTROLLER_Device_StopRun
                0x000000000005bad0      0x235 /home/sunho/bebop_ws/devel/arsdk/out/arsdk-native/build/libARController/obj/gen/Sources/ARCONTROLLER_Device.c.o
                0x000000000005bad0                ARCONTROLLER_Device_StopRun
 *fill*         0x000000000005bd05        0xb 
 .text.ARCONTROLLER_Device_StartRun
                0x000000000005bd10      0x2e1 /home/sunho/bebop_ws/devel/arsdk/out/arsdk-native/build/libARController/obj/gen/Sources/ARCONTROLLER_Device.c.o
                0x000000000005bd10                ARCONTROLLER_Device_StartRun
 *fill*         0x000000000005bff1        0xf 
 .text.ARCONTROLLER_Device_SetExtensionState
                0x000000000005c000       0x54 /home/sunho/bebop_ws/devel/arsdk/out/arsdk-native/build/libARController/obj/gen/Sources/ARCONTROLLER_Device.c.o
                0x000000000005c000                ARCONTROLLER_Device_SetExtensionState
 *fill*         0x000000000005c054        0xc 
 .text.ARCONTROLLER_Device_ExtensionStopRun
                0x000000000005c060      0x2aa /home/sunho/bebop_ws/devel/arsdk/out/arsdk-native/build/libARController/obj/gen/Sources/ARCONTROLLER_Device.c.o
                0x000000000005c060                ARCONTROLLER_Device_ExtensionStopRun
 *fill*         0x000000000005c30a        0x6 
 .text.ARCONTROLLER_Device_OnSkyControllerConnectionChangedReceived
                0x000000000005c310      0xd2d /home/sunho/bebop_ws/devel/arsdk/out/arsdk-native/build/libARController/obj/gen/Sources/ARCONTROLLER_Device.c.o
                0x000000000005c310                ARCONTROLLER_Device_OnSkyControllerConnectionChangedReceived
 *fill*         0x000000000005d03d        0x3 
 .text.ARCONTROLLER_Device_DictionaryChangedCallback
                0x000000000005d040      0x19e /home/sunho/bebop_ws/devel/arsdk/out/arsdk-native/build/libARController/obj/gen/Sources/ARCONTROLLER_Device.c.o
                0x000000000005d040                ARCONTROLLER_Device_DictionaryChangedCallback
 *fill*         0x000000000005d1de        0x2 
 .text.ARCONTROLLER_Device_ExtensionStartRun
                0x000000000005d1e0      0x2c7 /home/sunho/bebop_ws/devel/arsdk/out/arsdk-native/build/libARController/obj/gen/Sources/ARCONTROLLER_Device.c.o
                0x000000000005d1e0                ARCONTROLLER_Device_ExtensionStartRun
 *fill*         0x000000000005d4a7        0x9 
 .text.ARCONTROLLER_DICTIONARY_Key_GetFeatureFromCommandKey
                0x000000000005d4b0       0xb7 /home/sunho/bebop_ws/devel/arsdk/out/arsdk-native/build/libARController/obj/gen/Sources/ARCONTROLLER_DICTIONARY_Key.c.o
                0x000000000005d4b0                ARCONTROLLER_DICTIONARY_Key_GetFeatureFromCommandKey
 *fill*         0x000000000005d567        0x9 
 .text.ARCONTROLLER_Error_ToString
                0x000000000005d570      0x3d8 /home/sunho/bebop_ws/devel/arsdk/out/arsdk-native/build/libARController/obj/gen/Sources/ARCONTROLLER_Error.c.o
                0x000000000005d570                ARCONTROLLER_Error_ToString
 *fill*         0x000000000005d948        0x8 
 .text.ARCONTROLLER_FEATURE_ARDrone3_SetPilotingPCMDFlag
                0x000000000005d950       0x26 /home/sunho/bebop_ws/devel/arsdk/out/arsdk-native/build/libARController/obj/gen/Sources/ARCONTROLLER_Feature.c.o
                0x000000000005d950                ARCONTROLLER_FEATURE_ARDrone3_SetPilotingPCMDFlag
 *fill*         0x000000000005d976        0xa 
 .text.ARCONTROLLER_FEATURE_ARDrone3_SetPilotingPCMDRoll
                0x000000000005d980       0x2e /home/sunho/bebop_ws/devel/arsdk/out/arsdk-native/build/libARController/obj/gen/Sources/ARCONTROLLER_Feature.c.o
                0x000000000005d980                ARCONTROLLER_FEATURE_ARDrone3_SetPilotingPCMDRoll
 *fill*         0x000000000005d9ae        0x2 
 .text.ARCONTROLLER_FEATURE_ARDrone3_SetPilotingPCMDPitch
                0x000000000005d9b0       0x2e /home/sunho/bebop_ws/devel/arsdk/out/arsdk-native/build/libARController/obj/gen/Sources/ARCONTROLLER_Feature.c.o
                0x000000000005d9b0                ARCONTROLLER_FEATURE_ARDrone3_SetPilotingPCMDPitch
 *fill*         0x000000000005d9de        0x2 
 .text.ARCONTROLLER_FEATURE_ARDrone3_SetPilotingPCMDYaw
                0x000000000005d9e0       0x2e /home/sunho/bebop_ws/devel/arsdk/out/arsdk-native/build/libARController/obj/gen/Sources/ARCONTROLLER_Feature.c.o
                0x000000000005d9e0                ARCONTROLLER_FEATURE_ARDrone3_SetPilotingPCMDYaw
 *fill*         0x000000000005da0e        0x2 
 .text.ARCONTROLLER_FEATURE_ARDrone3_SetPilotingPCMDGaz
                0x000000000005da10       0x2e /home/sunho/bebop_ws/devel/arsdk/out/arsdk-native/build/libARController/obj/gen/Sources/ARCONTROLLER_Feature.c.o
                0x000000000005da10                ARCONTROLLER_FEATURE_ARDrone3_SetPilotingPCMDGaz
 *fill*         0x000000000005da3e        0x2 
 .text.ARCONTROLLER_FEATURE_ARDrone3_SetPilotingPCMDTimestampAndSeqNum
                0x000000000005da40       0x26 /home/sunho/bebop_ws/devel/arsdk/out/arsdk-native/build/libARController/obj/gen/Sources/ARCONTROLLER_Feature.c.o
                0x000000000005da40                ARCONTROLLER_FEATURE_ARDrone3_SetPilotingPCMDTimestampAndSeqNum
 *fill*         0x000000000005da66        0xa 
 .text.ARCONTROLLER_FEATURE_ARDrone3_SetCameraOrientationTilt
                0x000000000005da70       0x26 /home/sunho/bebop_ws/devel/arsdk/out/arsdk-native/build/libARController/obj/gen/Sources/ARCONTROLLER_Feature.c.o
                0x000000000005da70                ARCONTROLLER_FEATURE_ARDrone3_SetCameraOrientationTilt
 *fill*         0x000000000005da96        0xa 
 .text.ARCONTROLLER_FEATURE_ARDrone3_SetCameraOrientationPan
                0x000000000005daa0       0x2e /home/sunho/bebop_ws/devel/arsdk/out/arsdk-native/build/libARController/obj/gen/Sources/ARCONTROLLER_Feature.c.o
                0x000000000005daa0                ARCONTROLLER_FEATURE_ARDrone3_SetCameraOrientationPan
 *fill*         0x000000000005dace        0x2 
 .text.ARCONTROLLER_FEATURE_JumpingSumo_SetPilotingPCMDFlag
                0x000000000005dad0       0x26 /home/sunho/bebop_ws/devel/arsdk/out/arsdk-native/build/libARController/obj/gen/Sources/ARCONTROLLER_Feature.c.o
                0x000000000005dad0                ARCONTROLLER_FEATURE_JumpingSumo_SetPilotingPCMDFlag
 *fill*         0x000000000005daf6        0xa 
 .text.ARCONTROLLER_FEATURE_JumpingSumo_SetPilotingPCMDSpeed
                0x000000000005db00       0x2e /home/sunho/bebop_ws/devel/arsdk/out/arsdk-native/build/libARController/obj/gen/Sources/ARCONTROLLER_Feature.c.o
                0x000000000005db00                ARCONTROLLER_FEATURE_JumpingSumo_SetPilotingPCMDSpeed
 *fill*         0x000000000005db2e        0x2 
 .text.ARCONTROLLER_FEATURE_JumpingSumo_SetPilotingPCMDTurn
                0x000000000005db30       0x2e /home/sunho/bebop_ws/devel/arsdk/out/arsdk-native/build/libARController/obj/gen/Sources/ARCONTROLLER_Feature.c.o
                0x000000000005db30                ARCONTROLLER_FEATURE_JumpingSumo_SetPilotingPCMDTurn
 *fill*         0x000000000005db5e        0x2 
 .text.ARCONTROLLER_FEATURE_MiniDrone_SetPilotingPCMDFlag
                0x000000000005db60       0x26 /home/sunho/bebop_ws/devel/arsdk/out/arsdk-native/build/libARController/obj/gen/Sources/ARCONTROLLER_Feature.c.o
                0x000000000005db60                ARCONTROLLER_FEATURE_MiniDrone_SetPilotingPCMDFlag
 *fill*         0x000000000005db86        0xa 
 .text.ARCONTROLLER_FEATURE_MiniDrone_SetPilotingPCMDRoll
                0x000000000005db90       0x2e /home/sunho/bebop_ws/devel/arsdk/out/arsdk-native/build/libARController/obj/gen/Sources/ARCONTROLLER_Feature.c.o
                0x000000000005db90                ARCONTROLLER_FEATURE_MiniDrone_SetPilotingPCMDRoll
 *fill*         0x000000000005dbbe        0x2 
 .text.ARCONTROLLER_FEATURE_MiniDrone_SetPilotingPCMDPitch
                0x000000000005dbc0       0x2e /home/sunho/bebop_ws/devel/arsdk/out/arsdk-native/build/libARController/obj/gen/Sources/ARCONTROLLER_Feature.c.o
                0x000000000005dbc0                ARCONTROLLER_FEATURE_MiniDrone_SetPilotingPCMDPitch
 *fill*         0x000000000005dbee        0x2 
 .text.ARCONTROLLER_FEATURE_MiniDrone_SetPilotingPCMDYaw
                0x000000000005dbf0       0x2e /home/sunho/bebop_ws/devel/arsdk/out/arsdk-native/build/libARController/obj/gen/Sources/ARCONTROLLER_Feature.c.o
                0x000000000005dbf0                ARCONTROLLER_FEATURE_MiniDrone_SetPilotingPCMDYaw
 *fill*         0x000000000005dc1e        0x2 
 .text.ARCONTROLLER_FEATURE_MiniDrone_SetPilotingPCMDGaz
                0x000000000005dc20       0x2e /home/sunho/bebop_ws/devel/arsdk/out/arsdk-native/build/libARController/obj/gen/Sources/ARCONTROLLER_Feature.c.o
                0x000000000005dc20                ARCONTROLLER_FEATURE_MiniDrone_SetPilotingPCMDGaz
 *fill*         0x000000000005dc4e        0x2 
 .text.ARCONTROLLER_FEATURE_MiniDrone_SetPilotingPCMDTimestamp
                0x000000000005dc50       0x26 /home/sunho/bebop_ws/devel/arsdk/out/arsdk-native/build/libARController/obj/gen/Sources/ARCONTROLLER_Feature.c.o
                0x000000000005dc50                ARCONTROLLER_FEATURE_MiniDrone_SetPilotingPCMDTimestamp
 *fill*         0x000000000005dc76        0xa 
 .text.ARCONTROLLER_FEATURE_Powerup_SetPilotingPCMDFlag
                0x000000000005dc80       0x26 /home/sunho/bebop_ws/devel/arsdk/out/arsdk-native/build/libARController/obj/gen/Sources/ARCONTROLLER_Feature.c.o
                0x000000000005dc80                ARCONTROLLER_FEATURE_Powerup_SetPilotingPCMDFlag
 *fill*         0x000000000005dca6        0xa 
 .text.ARCONTROLLER_FEATURE_Powerup_SetPilotingPCMDThrottle
                0x000000000005dcb0       0x2e /home/sunho/bebop_ws/devel/arsdk/out/arsdk-native/build/libARController/obj/gen/Sources/ARCONTROLLER_Feature.c.o
                0x000000000005dcb0                ARCONTROLLER_FEATURE_Powerup_SetPilotingPCMDThrottle
 *fill*         0x000000000005dcde        0x2 
 .text.ARCONTROLLER_FEATURE_Powerup_SetPilotingPCMDRoll
                0x000000000005dce0       0x2e /home/sunho/bebop_ws/devel/arsdk/out/arsdk-native/build/libARController/obj/gen/Sources/ARCONTROLLER_Feature.c.o
                0x000000000005dce0                ARCONTROLLER_FEATURE_Powerup_SetPilotingPCMDRoll
 *fill*         0x000000000005dd0e        0x2 
 .text.ARCONTROLLER_FEATURE_Generic_SendDefault
                0x000000000005dd10       0xa9 /home/sunho/bebop_ws/devel/arsdk/out/arsdk-native/build/libARController/obj/gen/Sources/ARCONTROLLER_Feature.c.o
                0x000000000005dd10                ARCONTROLLER_FEATURE_Generic_SendDefault
 *fill*         0x000000000005ddb9        0x7 
 .text.ARCONTROLLER_FEATURE_ARDrone3_SendPilotingFlatTrim
                0x000000000005ddc0       0xac /home/sunho/bebop_ws/devel/arsdk/out/arsdk-native/build/libARController/obj/gen/Sources/ARCONTROLLER_Feature.c.o
                0x000000000005ddc0                ARCONTROLLER_FEATURE_ARDrone3_SendPilotingFlatTrim
 *fill*         0x000000000005de6c        0x4 
 .text.ARCONTROLLER_FEATURE_ARDrone3_SendPilotingTakeOff
                0x000000000005de70       0xac /home/sunho/bebop_ws/devel/arsdk/out/arsdk-native/build/libARController/obj/gen/Sources/ARCONTROLLER_Feature.c.o
                0x000000000005de70                ARCONTROLLER_FEATURE_ARDrone3_SendPilotingTakeOff
 *fill*         0x000000000005df1c        0x4 
 .text.ARCONTROLLER_FEATURE_ARDrone3_SendPilotingPCMD
                0x000000000005df20       0xda /home/sunho/bebop_ws/devel/arsdk/out/arsdk-native/build/libARController/obj/gen/Sources/ARCONTROLLER_Feature.c.o
                0x000000000005df20                ARCONTROLLER_FEATURE_ARDrone3_SendPilotingPCMD
 *fill*         0x000000000005dffa        0x6 
 .text.ARCONTROLLER_FEATURE_ARDrone3_SendPilotingLanding
                0x000000000005e000       0xac /home/sunho/bebop_ws/devel/arsdk/out/arsdk-native/build/libARController/obj/gen/Sources/ARCONTROLLER_Feature.c.o
                0x000000000005e000                ARCONTROLLER_FEATURE_ARDrone3_SendPilotingLanding
 *fill*         0x000000000005e0ac        0x4 
 .text.ARCONTROLLER_FEATURE_ARDrone3_SendPilotingEmergency
                0x000000000005e0b0       0xaf /home/sunho/bebop_ws/devel/arsdk/out/arsdk-native/build/libARController/obj/gen/Sources/ARCONTROLLER_Feature.c.o
                0x000000000005e0b0                ARCONTROLLER_FEATURE_ARDrone3_SendPilotingEmergency
 *fill*         0x000000000005e15f        0x1 
 .text.ARCONTROLLER_FEATURE_ARDrone3_SendPilotingNavigateHome
                0x000000000005e160       0xac /home/sunho/bebop_ws/devel/arsdk/out/arsdk-native/build/libARController/obj/gen/Sources/ARCONTROLLER_Feature.c.o
                0x000000000005e160                ARCONTROLLER_FEATURE_ARDrone3_SendPilotingNavigateHome
 *fill*         0x000000000005e20c        0x4 
 .text.ARCONTROLLER_FEATURE_ARDrone3_SendPilotingAutoTakeOffMode
                0x000000000005e210       0xac /home/sunho/bebop_ws/devel/arsdk/out/arsdk-native/build/libARController/obj/gen/Sources/ARCONTROLLER_Feature.c.o
                0x000000000005e210                ARCONTROLLER_FEATURE_ARDrone3_SendPilotingAutoTakeOffMode
 *fill*         0x000000000005e2bc        0x4 
 .text.ARCONTROLLER_FEATURE_ARDrone3_SendPilotingMoveBy
                0x000000000005e2c0       0xac /home/sunho/bebop_ws/devel/arsdk/out/arsdk-native/build/libARController/obj/gen/Sources/ARCONTROLLER_Feature.c.o
                0x000000000005e2c0                ARCONTROLLER_FEATURE_ARDrone3_SendPilotingMoveBy
 *fill*         0x000000000005e36c        0x4 
 .text.ARCONTROLLER_FEATURE_ARDrone3_SendPilotingUserTakeOff
                0x000000000005e370       0xac /home/sunho/bebop_ws/devel/arsdk/out/arsdk-native/build/libARController/obj/gen/Sources/ARCONTROLLER_Feature.c.o
                0x000000000005e370                ARCONTROLLER_FEATURE_ARDrone3_SendPilotingUserTakeOff
 *fill*         0x000000000005e41c        0x4 
 .text.ARCONTROLLER_FEATURE_ARDrone3_SendPilotingCircle
                0x000000000005e420       0xac /home/sunho/bebop_ws/devel/arsdk/out/arsdk-native/build/libARController/obj/gen/Sources/ARCONTROLLER_Feature.c.o
                0x000000000005e420                ARCONTROLLER_FEATURE_ARDrone3_SendPilotingCircle
 *fill*         0x000000000005e4cc        0x4 
 .text.ARCONTROLLER_FEATURE_ARDrone3_SendAnimationsFlip
                0x000000000005e4d0       0xac /home/sunho/bebop_ws/devel/arsdk/out/arsdk-native/build/libARController/obj/gen/Sources/ARCONTROLLER_Feature.c.o
                0x000000000005e4d0                ARCONTROLLER_FEATURE_ARDrone3_SendAnimationsFlip
 *fill*         0x000000000005e57c        0x4 
 .text.ARCONTROLLER_FEATURE_ARDrone3_SendCameraOrientation
                0x000000000005e580       0xba /home/sunho/bebop_ws/devel/arsdk/out/arsdk-native/build/libARController/obj/gen/Sources/ARCONTROLLER_Feature.c.o
                0x000000000005e580                ARCONTROLLER_FEATURE_ARDrone3_SendCameraOrientation
 *fill*         0x000000000005e63a        0x6 
 .text.ARCONTROLLER_FEATURE_ARDrone3_SendMediaRecordPicture
                0x000000000005e640       0xac /home/sunho/bebop_ws/devel/arsdk/out/arsdk-native/build/libARController/obj/gen/Sources/ARCONTROLLER_Feature.c.o
                0x000000000005e640                ARCONTROLLER_FEATURE_ARDrone3_SendMediaRecordPicture
 *fill*         0x000000000005e6ec        0x4 
 .text.ARCONTROLLER_FEATURE_ARDrone3_SendMediaRecordVideo
                0x000000000005e6f0       0xb5 /home/sunho/bebop_ws/devel/arsdk/out/arsdk-native/build/libARController/obj/gen/Sources/ARCONTROLLER_Feature.c.o
                0x000000000005e6f0                ARCONTROLLER_FEATURE_ARDrone3_SendMediaRecordVideo
 *fill*         0x000000000005e7a5        0xb 
 .text.ARCONTROLLER_FEATURE_ARDrone3_SendMediaRecordPictureV2
                0x000000000005e7b0       0xac /home/sunho/bebop_ws/devel/arsdk/out/arsdk-native/build/libARController/obj/gen/Sources/ARCONTROLLER_Feature.c.o
                0x000000000005e7b0                ARCONTROLLER_FEATURE_ARDrone3_SendMediaRecordPictureV2
 *fill*         0x000000000005e85c        0x4 
 .text.ARCONTROLLER_FEATURE_ARDrone3_SendMediaRecordVideoV2
                0x000000000005e860       0xac /home/sunho/bebop_ws/devel/arsdk/out/arsdk-native/build/libARController/obj/gen/Sources/ARCONTROLLER_Feature.c.o
                0x000000000005e860                ARCONTROLLER_FEATURE_ARDrone3_SendMediaRecordVideoV2
 *fill*         0x000000000005e90c        0x4 
 .text.ARCONTROLLER_FEATURE_ARDrone3_SendNetworkWifiScan
                0x000000000005e910       0xac /home/sunho/bebop_ws/devel/arsdk/out/arsdk-native/build/libARController/obj/gen/Sources/ARCONTROLLER_Feature.c.o
                0x000000000005e910                ARCONTROLLER_FEATURE_ARDrone3_SendNetworkWifiScan
 *fill*         0x000000000005e9bc        0x4 
 .text.ARCONTROLLER_FEATURE_ARDrone3_SendNetworkWifiAuthChannel
                0x000000000005e9c0       0xac /home/sunho/bebop_ws/devel/arsdk/out/arsdk-native/build/libARController/obj/gen/Sources/ARCONTROLLER_Feature.c.o
                0x000000000005e9c0                ARCONTROLLER_FEATURE_ARDrone3_SendNetworkWifiAuthChannel
 *fill*         0x000000000005ea6c        0x4 
 .text.ARCONTROLLER_FEATURE_ARDrone3_SendPilotingSettingsMaxAltitude
                0x000000000005ea70       0xac /home/sunho/bebop_ws/devel/arsdk/out/arsdk-native/build/libARController/obj/gen/Sources/ARCONTROLLER_Feature.c.o
                0x000000000005ea70                ARCONTROLLER_FEATURE_ARDrone3_SendPilotingSettingsMaxAltitude
 *fill*         0x000000000005eb1c        0x4 
 .text.ARCONTROLLER_FEATURE_ARDrone3_SendPilotingSettingsMaxTilt
                0x000000000005eb20       0xac /home/sunho/bebop_ws/devel/arsdk/out/arsdk-native/build/libARController/obj/gen/Sources/ARCONTROLLER_Feature.c.o
                0x000000000005eb20                ARCONTROLLER_FEATURE_ARDrone3_SendPilotingSettingsMaxTilt
 *fill*         0x000000000005ebcc        0x4 
 .text.ARCONTROLLER_FEATURE_ARDrone3_SendPilotingSettingsAbsolutControl
                0x000000000005ebd0       0xac /home/sunho/bebop_ws/devel/arsdk/out/arsdk-native/build/libARController/obj/gen/Sources/ARCONTROLLER_Feature.c.o
                0x000000000005ebd0                ARCONTROLLER_FEATURE_ARDrone3_SendPilotingSettingsAbsolutControl
 *fill*         0x000000000005ec7c        0x4 
 .text.ARCONTROLLER_FEATURE_ARDrone3_SendPilotingSettingsMaxDistance
                0x000000000005ec80       0xac /home/sunho/bebop_ws/devel/arsdk/out/arsdk-native/build/libARController/obj/gen/Sources/ARCONTROLLER_Feature.c.o
                0x000000000005ec80                ARCONTROLLER_FEATURE_ARDrone3_SendPilotingSettingsMaxDistance
 *fill*         0x000000000005ed2c        0x4 
 .text.ARCONTROLLER_FEATURE_ARDrone3_SendPilotingSettingsNoFlyOverMaxDistance
                0x000000000005ed30       0xac /home/sunho/bebop_ws/devel/arsdk/out/arsdk-native/build/libARController/obj/gen/Sources/ARCONTROLLER_Feature.c.o
                0x000000000005ed30                ARCONTROLLER_FEATURE_ARDrone3_SendPilotingSettingsNoFlyOverMaxDistance
 *fill*         0x000000000005eddc        0x4 
 .text.ARCONTROLLER_FEATURE_ARDrone3_SendPilotingSettingsSetAutonomousFlightMaxHorizontalSpeed
                0x000000000005ede0       0xac /home/sunho/bebop_ws/devel/arsdk/out/arsdk-native/build/libARController/obj/gen/Sources/ARCONTROLLER_Feature.c.o
                0x000000000005ede0                ARCONTROLLER_FEATURE_ARDrone3_SendPilotingSettingsSetAutonomousFlightMaxHorizontalSpeed
 *fill*         0x000000000005ee8c        0x4 
 .text.ARCONTROLLER_FEATURE_ARDrone3_SendPilotingSettingsSetAutonomousFlightMaxVerticalSpeed
                0x000000000005ee90       0xac /home/sunho/bebop_ws/devel/arsdk/out/arsdk-native/build/libARController/obj/gen/Sources/ARCONTROLLER_Feature.c.o
                0x000000000005ee90                ARCONTROLLER_FEATURE_ARDrone3_SendPilotingSettingsSetAutonomousFlightMaxVerticalSpeed
 *fill*         0x000000000005ef3c        0x4 
 .text.ARCONTROLLER_FEATURE_ARDrone3_SendPilotingSettingsSetAutonomousFlightMaxHorizontalAcceleration
                0x000000000005ef40       0xac /home/sunho/bebop_ws/devel/arsdk/out/arsdk-native/build/libARController/obj/gen/Sources/ARCONTROLLER_Feature.c.o
                0x000000000005ef40                ARCONTROLLER_FEATURE_ARDrone3_SendPilotingSettingsSetAutonomousFlightMaxHorizontalAcceleration
 *fill*         0x000000000005efec        0x4 
 .text.ARCONTROLLER_FEATURE_ARDrone3_SendPilotingSettingsSetAutonomousFlightMaxVerticalAcceleration
                0x000000000005eff0       0xac /home/sunho/bebop_ws/devel/arsdk/out/arsdk-native/build/libARController/obj/gen/Sources/ARCONTROLLER_Feature.c.o
                0x000000000005eff0                ARCONTROLLER_FEATURE_ARDrone3_SendPilotingSettingsSetAutonomousFlightMaxVerticalAcceleration
 *fill*         0x000000000005f09c        0x4 
 .text.ARCONTROLLER_FEATURE_ARDrone3_SendPilotingSettingsSetAutonomousFlightMaxRotationSpeed
                0x000000000005f0a0       0xac /home/sunho/bebop_ws/devel/arsdk/out/arsdk-native/build/libARController/obj/gen/Sources/ARCONTROLLER_Feature.c.o
                0x000000000005f0a0                ARCONTROLLER_FEATURE_ARDrone3_SendPilotingSettingsSetAutonomousFlightMaxRotationSpeed
 *fill*         0x000000000005f14c        0x4 
 .text.ARCONTROLLER_FEATURE_ARDrone3_SendPilotingSettingsBankedTurn
                0x000000000005f150       0xac /home/sunho/bebop_ws/devel/arsdk/out/arsdk-native/build/libARController/obj/gen/Sources/ARCONTROLLER_Feature.c.o
                0x000000000005f150                ARCONTROLLER_FEATURE_ARDrone3_SendPilotingSettingsBankedTurn
 *fill*         0x000000000005f1fc        0x4 
 .text.ARCONTROLLER_FEATURE_ARDrone3_SendPilotingSettingsMinAltitude
                0x000000000005f200       0xac /home/sunho/bebop_ws/devel/arsdk/out/arsdk-native/build/libARController/obj/gen/Sources/ARCONTROLLER_Feature.c.o
                0x000000000005f200                ARCONTROLLER_FEATURE_ARDrone3_SendPilotingSettingsMinAltitude
 *fill*         0x000000000005f2ac        0x4 
 .text.ARCONTROLLER_FEATURE_ARDrone3_SendPilotingSettingsCirclingDirection
                0x000000000005f2b0       0xac /home/sunho/bebop_ws/devel/arsdk/out/arsdk-native/build/libARController/obj/gen/Sources/ARCONTROLLER_Feature.c.o
                0x000000000005f2b0                ARCONTROLLER_FEATURE_ARDrone3_SendPilotingSettingsCirclingDirection
 *fill*         0x000000000005f35c        0x4 
 .text.ARCONTROLLER_FEATURE_ARDrone3_SendPilotingSettingsCirclingRadius
                0x000000000005f360       0xac /home/sunho/bebop_ws/devel/arsdk/out/arsdk-native/build/libARController/obj/gen/Sources/ARCONTROLLER_Feature.c.o
                0x000000000005f360                ARCONTROLLER_FEATURE_ARDrone3_SendPilotingSettingsCirclingRadius
 *fill*         0x000000000005f40c        0x4 
 .text.ARCONTROLLER_FEATURE_ARDrone3_SendPilotingSettingsCirclingAltitude
                0x000000000005f410       0xac /home/sunho/bebop_ws/devel/arsdk/out/arsdk-native/build/libARController/obj/gen/Sources/ARCONTROLLER_Feature.c.o
                0x000000000005f410                ARCONTROLLER_FEATURE_ARDrone3_SendPilotingSettingsCirclingAltitude
 *fill*         0x000000000005f4bc        0x4 
 .text.ARCONTROLLER_FEATURE_ARDrone3_SendPilotingSettingsPitchMode
                0x000000000005f4c0       0xac /home/sunho/bebop_ws/devel/arsdk/out/arsdk-native/build/libARController/obj/gen/Sources/ARCONTROLLER_Feature.c.o
                0x000000000005f4c0                ARCONTROLLER_FEATURE_ARDrone3_SendPilotingSettingsPitchMode
 *fill*         0x000000000005f56c        0x4 
 .text.ARCONTROLLER_FEATURE_ARDrone3_SendSpeedSettingsMaxVerticalSpeed
                0x000000000005f570       0xac /home/sunho/bebop_ws/devel/arsdk/out/arsdk-native/build/libARController/obj/gen/Sources/ARCONTROLLER_Feature.c.o
                0x000000000005f570                ARCONTROLLER_FEATURE_ARDrone3_SendSpeedSettingsMaxVerticalSpeed
 *fill*         0x000000000005f61c        0x4 
 .text.ARCONTROLLER_FEATURE_ARDrone3_SendSpeedSettingsMaxRotationSpeed
                0x000000000005f620       0xac /home/sunho/bebop_ws/devel/arsdk/out/arsdk-native/build/libARController/obj/gen/Sources/ARCONTROLLER_Feature.c.o
                0x000000000005f620                ARCONTROLLER_FEATURE_ARDrone3_SendSpeedSettingsMaxRotationSpeed
 *fill*         0x000000000005f6cc        0x4 
 .text.ARCONTROLLER_FEATURE_ARDrone3_SendSpeedSettingsHullProtection
                0x000000000005f6d0       0xac /home/sunho/bebop_ws/devel/arsdk/out/arsdk-native/build/libARController/obj/gen/Sources/ARCONTROLLER_Feature.c.o
                0x000000000005f6d0                ARCONTROLLER_FEATURE_ARDrone3_SendSpeedSettingsHullProtection
 *fill*         0x000000000005f77c        0x4 
 .text.ARCONTROLLER_FEATURE_ARDrone3_SendSpeedSettingsOutdoor
                0x000000000005f780       0xac /home/sunho/bebop_ws/devel/arsdk/out/arsdk-native/build/libARController/obj/gen/Sources/ARCONTROLLER_Feature.c.o
                0x000000000005f780                ARCONTROLLER_FEATURE_ARDrone3_SendSpeedSettingsOutdoor
 *fill*         0x000000000005f82c        0x4 
 .text.ARCONTROLLER_FEATURE_ARDrone3_SendSpeedSettingsMaxPitchRollRotationSpeed
                0x000000000005f830       0xac /home/sunho/bebop_ws/devel/arsdk/out/arsdk-native/build/libARController/obj/gen/Sources/ARCONTROLLER_Feature.c.o
                0x000000000005f830                ARCONTROLLER_FEATURE_ARDrone3_SendSpeedSettingsMaxPitchRollRotationSpeed
 *fill*         0x000000000005f8dc        0x4 
 .text.ARCONTROLLER_FEATURE_ARDrone3_SendNetworkSettingsWifiSelection
                0x000000000005f8e0       0xb5 /home/sunho/bebop_ws/devel/arsdk/out/arsdk-native/build/libARController/obj/gen/Sources/ARCONTROLLER_Feature.c.o
                0x000000000005f8e0                ARCONTROLLER_FEATURE_ARDrone3_SendNetworkSettingsWifiSelection
 *fill*         0x000000000005f995        0xb 
 .text.ARCONTROLLER_FEATURE_ARDrone3_SendNetworkSettingsWifiSecurity
                0x000000000005f9a0       0xb5 /home/sunho/bebop_ws/devel/arsdk/out/arsdk-native/build/libARController/obj/gen/Sources/ARCONTROLLER_Feature.c.o
                0x000000000005f9a0                ARCONTROLLER_FEATURE_ARDrone3_SendNetworkSettingsWifiSecurity
 *fill*         0x000000000005fa55        0xb 
 .text.ARCONTROLLER_FEATURE_ARDrone3_SendPictureSettingsPictureFormatSelection
                0x000000000005fa60       0xac /home/sunho/bebop_ws/devel/arsdk/out/arsdk-native/build/libARController/obj/gen/Sources/ARCONTROLLER_Feature.c.o
                0x000000000005fa60                ARCONTROLLER_FEATURE_ARDrone3_SendPictureSettingsPictureFormatSelection
 *fill*         0x000000000005fb0c        0x4 
 .text.ARCONTROLLER_FEATURE_ARDrone3_SendPictureSettingsAutoWhiteBalanceSelection
                0x000000000005fb10       0xac /home/sunho/bebop_ws/devel/arsdk/out/arsdk-native/build/libARController/obj/gen/Sources/ARCONTROLLER_Feature.c.o
                0x000000000005fb10                ARCONTROLLER_FEATURE_ARDrone3_SendPictureSettingsAutoWhiteBalanceSelection
 *fill*         0x000000000005fbbc        0x4 
 .text.ARCONTROLLER_FEATURE_ARDrone3_SendPictureSettingsExpositionSelection
                0x000000000005fbc0       0xac /home/sunho/bebop_ws/devel/arsdk/out/arsdk-native/build/libARController/obj/gen/Sources/ARCONTROLLER_Feature.c.o
                0x000000000005fbc0                ARCONTROLLER_FEATURE_ARDrone3_SendPictureSettingsExpositionSelection
 *fill*         0x000000000005fc6c        0x4 
 .text.ARCONTROLLER_FEATURE_ARDrone3_SendPictureSettingsSaturationSelection
                0x000000000005fc70       0xac /home/sunho/bebop_ws/devel/arsdk/out/arsdk-native/build/libARController/obj/gen/Sources/ARCONTROLLER_Feature.c.o
                0x000000000005fc70                ARCONTROLLER_FEATURE_ARDrone3_SendPictureSettingsSaturationSelection
 *fill*         0x000000000005fd1c        0x4 
 .text.ARCONTROLLER_FEATURE_ARDrone3_SendPictureSettingsTimelapseSelection
                0x000000000005fd20       0xac /home/sunho/bebop_ws/devel/arsdk/out/arsdk-native/build/libARController/obj/gen/Sources/ARCONTROLLER_Feature.c.o
                0x000000000005fd20                ARCONTROLLER_FEATURE_ARDrone3_SendPictureSettingsTimelapseSelection
 *fill*         0x000000000005fdcc        0x4 
 .text.ARCONTROLLER_FEATURE_ARDrone3_SendPictureSettingsVideoAutorecordSelection
                0x000000000005fdd0       0xbd /home/sunho/bebop_ws/devel/arsdk/out/arsdk-native/build/libARController/obj/gen/Sources/ARCONTROLLER_Feature.c.o
                0x000000000005fdd0                ARCONTROLLER_FEATURE_ARDrone3_SendPictureSettingsVideoAutorecordSelection
 *fill*         0x000000000005fe8d        0x3 
 .text.ARCONTROLLER_FEATURE_ARDrone3_SendPictureSettingsVideoStabilizationMode
                0x000000000005fe90       0xac /home/sunho/bebop_ws/devel/arsdk/out/arsdk-native/build/libARController/obj/gen/Sources/ARCONTROLLER_Feature.c.o
                0x000000000005fe90                ARCONTROLLER_FEATURE_ARDrone3_SendPictureSettingsVideoStabilizationMode
 *fill*         0x000000000005ff3c        0x4 
 .text.ARCONTROLLER_FEATURE_ARDrone3_SendPictureSettingsVideoRecordingMode
                0x000000000005ff40       0xac /home/sunho/bebop_ws/devel/arsdk/out/arsdk-native/build/libARController/obj/gen/Sources/ARCONTROLLER_Feature.c.o
                0x000000000005ff40                ARCONTROLLER_FEATURE_ARDrone3_SendPictureSettingsVideoRecordingMode
 *fill*         0x000000000005ffec        0x4 
 .text.ARCONTROLLER_FEATURE_ARDrone3_SendPictureSettingsVideoFramerate
                0x000000000005fff0       0xac /home/sunho/bebop_ws/devel/arsdk/out/arsdk-native/build/libARController/obj/gen/Sources/ARCONTROLLER_Feature.c.o
                0x000000000005fff0                ARCONTROLLER_FEATURE_ARDrone3_SendPictureSettingsVideoFramerate
 *fill*         0x000000000006009c        0x4 
 .text.ARCONTROLLER_FEATURE_ARDrone3_SendPictureSettingsVideoResolutions
                0x00000000000600a0       0xac /home/sunho/bebop_ws/devel/arsdk/out/arsdk-native/build/libARController/obj/gen/Sources/ARCONTROLLER_Feature.c.o
                0x00000000000600a0                ARCONTROLLER_FEATURE_ARDrone3_SendPictureSettingsVideoResolutions
 *fill*         0x000000000006014c        0x4 
 .text.ARCONTROLLER_FEATURE_ARDrone3_SendMediaStreamingVideoEnable
                0x0000000000060150       0xac /home/sunho/bebop_ws/devel/arsdk/out/arsdk-native/build/libARController/obj/gen/Sources/ARCONTROLLER_Feature.c.o
                0x0000000000060150                ARCONTROLLER_FEATURE_ARDrone3_SendMediaStreamingVideoEnable
 *fill*         0x00000000000601fc        0x4 
 .text.ARCONTROLLER_FEATURE_ARDrone3_SendMediaStreamingVideoStreamMode
                0x0000000000060200       0xac /home/sunho/bebop_ws/devel/arsdk/out/arsdk-native/build/libARController/obj/gen/Sources/ARCONTROLLER_Feature.c.o
                0x0000000000060200                ARCONTROLLER_FEATURE_ARDrone3_SendMediaStreamingVideoStreamMode
 *fill*         0x00000000000602ac        0x4 
 .text.ARCONTROLLER_FEATURE_ARDrone3_SendGPSSettingsSetHome
                0x00000000000602b0       0xac /home/sunho/bebop_ws/devel/arsdk/out/arsdk-native/build/libARController/obj/gen/Sources/ARCONTROLLER_Feature.c.o
                0x00000000000602b0                ARCONTROLLER_FEATURE_ARDrone3_SendGPSSettingsSetHome
 *fill*         0x000000000006035c        0x4 
 .text.ARCONTROLLER_FEATURE_ARDrone3_SendGPSSettingsResetHome
                0x0000000000060360       0xac /home/sunho/bebop_ws/devel/arsdk/out/arsdk-native/build/libARController/obj/gen/Sources/ARCONTROLLER_Feature.c.o
                0x0000000000060360                ARCONTROLLER_FEATURE_ARDrone3_SendGPSSettingsResetHome
 *fill*         0x000000000006040c        0x4 
 .text.ARCONTROLLER_FEATURE_ARDrone3_SendGPSSettingsSendControllerGPS
                0x0000000000060410       0xac /home/sunho/bebop_ws/devel/arsdk/out/arsdk-native/build/libARController/obj/gen/Sources/ARCONTROLLER_Feature.c.o
                0x0000000000060410                ARCONTROLLER_FEATURE_ARDrone3_SendGPSSettingsSendControllerGPS
 *fill*         0x00000000000604bc        0x4 
 .text.ARCONTROLLER_FEATURE_ARDrone3_SendGPSSettingsHomeType
                0x00000000000604c0       0xac /home/sunho/bebop_ws/devel/arsdk/out/arsdk-native/build/libARController/obj/gen/Sources/ARCONTROLLER_Feature.c.o
                0x00000000000604c0                ARCONTROLLER_FEATURE_ARDrone3_SendGPSSettingsHomeType
 *fill*         0x000000000006056c        0x4 
 .text.ARCONTROLLER_FEATURE_ARDrone3_SendGPSSettingsReturnHomeDelay
                0x0000000000060570       0xac /home/sunho/bebop_ws/devel/arsdk/out/arsdk-native/build/libARController/obj/gen/Sources/ARCONTROLLER_Feature.c.o
                0x0000000000060570                ARCONTROLLER_FEATURE_ARDrone3_SendGPSSettingsReturnHomeDelay
 *fill*         0x000000000006061c        0x4 
 .text.ARCONTROLLER_FEATURE_ARDrone3_SendAntiflickeringElectricFrequency
                0x0000000000060620       0xac /home/sunho/bebop_ws/devel/arsdk/out/arsdk-native/build/libARController/obj/gen/Sources/ARCONTROLLER_Feature.c.o
                0x0000000000060620                ARCONTROLLER_FEATURE_ARDrone3_SendAntiflickeringElectricFrequency
 *fill*         0x00000000000606cc        0x4 
 .text.ARCONTROLLER_FEATURE_ARDrone3_SendAntiflickeringSetMode
                0x00000000000606d0       0xac /home/sunho/bebop_ws/devel/arsdk/out/arsdk-native/build/libARController/obj/gen/Sources/ARCONTROLLER_Feature.c.o
                0x00000000000606d0                ARCONTROLLER_FEATURE_ARDrone3_SendAntiflickeringSetMode
 *fill*         0x000000000006077c        0x4 
 .text.ARCONTROLLER_FEATURE_Common_SendNetworkDisconnect
                0x0000000000060780       0xac /home/sunho/bebop_ws/devel/arsdk/out/arsdk-native/build/libARController/obj/gen/Sources/ARCONTROLLER_Feature.c.o
                0x0000000000060780                ARCONTROLLER_FEATURE_Common_SendNetworkDisconnect
 *fill*         0x000000000006082c        0x4 
 .text.ARCONTROLLER_FEATURE_Common_SendSettingsAllSettings
                0x0000000000060830       0xaf /home/sunho/bebop_ws/devel/arsdk/out/arsdk-native/build/libARController/obj/gen/Sources/ARCONTROLLER_Feature.c.o
                0x0000000000060830                ARCONTROLLER_FEATURE_Common_SendSettingsAllSettings
 *fill*         0x00000000000608df        0x1 
 .text.ARCONTROLLER_FEATURE_Common_SendSettingsReset
                0x00000000000608e0       0xac /home/sunho/bebop_ws/devel/arsdk/out/arsdk-native/build/libARController/obj/gen/Sources/ARCONTROLLER_Feature.c.o
                0x00000000000608e0                ARCONTROLLER_FEATURE_Common_SendSettingsReset
 *fill*         0x000000000006098c        0x4 
 .text.ARCONTROLLER_FEATURE_Common_SendSettingsProductName
                0x0000000000060990       0xac /home/sunho/bebop_ws/devel/arsdk/out/arsdk-native/build/libARController/obj/gen/Sources/ARCONTROLLER_Feature.c.o
                0x0000000000060990                ARCONTROLLER_FEATURE_Common_SendSettingsProductName
 *fill*         0x0000000000060a3c        0x4 
 .text.ARCONTROLLER_FEATURE_Common_SendSettingsCountry
                0x0000000000060a40       0xac /home/sunho/bebop_ws/devel/arsdk/out/arsdk-native/build/libARController/obj/gen/Sources/ARCONTROLLER_Feature.c.o
                0x0000000000060a40                ARCONTROLLER_FEATURE_Common_SendSettingsCountry
 *fill*         0x0000000000060aec        0x4 
 .text.ARCONTROLLER_FEATURE_Common_SendSettingsAutoCountry
                0x0000000000060af0       0xac /home/sunho/bebop_ws/devel/arsdk/out/arsdk-native/build/libARController/obj/gen/Sources/ARCONTROLLER_Feature.c.o
                0x0000000000060af0                ARCONTROLLER_FEATURE_Common_SendSettingsAutoCountry
 *fill*         0x0000000000060b9c        0x4 
 .text.ARCONTROLLER_FEATURE_Common_SendCommonAllStates
                0x0000000000060ba0       0xaf /home/sunho/bebop_ws/devel/arsdk/out/arsdk-native/build/libARController/obj/gen/Sources/ARCONTROLLER_Feature.c.o
                0x0000000000060ba0                ARCONTROLLER_FEATURE_Common_SendCommonAllStates
 *fill*         0x0000000000060c4f        0x1 
 .text.ARCONTROLLER_FEATURE_Common_SendCommonCurrentDate
                0x0000000000060c50       0xac /home/sunho/bebop_ws/devel/arsdk/out/arsdk-native/build/libARController/obj/gen/Sources/ARCONTROLLER_Feature.c.o
                0x0000000000060c50                ARCONTROLLER_FEATURE_Common_SendCommonCurrentDate
 *fill*         0x0000000000060cfc        0x4 
 .text.ARCONTROLLER_FEATURE_Common_SendCommonCurrentTime
                0x0000000000060d00       0xac /home/sunho/bebop_ws/devel/arsdk/out/arsdk-native/build/libARController/obj/gen/Sources/ARCONTROLLER_Feature.c.o
                0x0000000000060d00                ARCONTROLLER_FEATURE_Common_SendCommonCurrentTime
 *fill*         0x0000000000060dac        0x4 
 .text.ARCONTROLLER_FEATURE_Common_SendCommonReboot
                0x0000000000060db0       0xac /home/sunho/bebop_ws/devel/arsdk/out/arsdk-native/build/libARController/obj/gen/Sources/ARCONTROLLER_Feature.c.o
                0x0000000000060db0                ARCONTROLLER_FEATURE_Common_SendCommonReboot
 *fill*         0x0000000000060e5c        0x4 
 .text.ARCONTROLLER_FEATURE_Common_SendOverHeatSwitchOff
                0x0000000000060e60       0xac /home/sunho/bebop_ws/devel/arsdk/out/arsdk-native/build/libARController/obj/gen/Sources/ARCONTROLLER_Feature.c.o
                0x0000000000060e60                ARCONTROLLER_FEATURE_Common_SendOverHeatSwitchOff
 *fill*         0x0000000000060f0c        0x4 
 .text.ARCONTROLLER_FEATURE_Common_SendOverHeatVentilate
                0x0000000000060f10       0xac /home/sunho/bebop_ws/devel/arsdk/out/arsdk-native/build/libARController/obj/gen/Sources/ARCONTROLLER_Feature.c.o
                0x0000000000060f10                ARCONTROLLER_FEATURE_Common_SendOverHeatVentilate
 *fill*         0x0000000000060fbc        0x4 
 .text.ARCONTROLLER_FEATURE_Common_SendControllerIsPiloting
                0x0000000000060fc0       0xac /home/sunho/bebop_ws/devel/arsdk/out/arsdk-native/build/libARController/obj/gen/Sources/ARCONTROLLER_Feature.c.o
                0x0000000000060fc0                ARCONTROLLER_FEATURE_Common_SendControllerIsPiloting
 *fill*         0x000000000006106c        0x4 
 .text.ARCONTROLLER_FEATURE_Common_SendWifiSettingsOutdoorSetting
                0x0000000000061070       0xac /home/sunho/bebop_ws/devel/arsdk/out/arsdk-native/build/libARController/obj/gen/Sources/ARCONTROLLER_Feature.c.o
                0x0000000000061070                ARCONTROLLER_FEATURE_Common_SendWifiSettingsOutdoorSetting
 *fill*         0x000000000006111c        0x4 
 .text.ARCONTROLLER_FEATURE_Common_SendMavlinkStart
                0x0000000000061120       0xb5 /home/sunho/bebop_ws/devel/arsdk/out/arsdk-native/build/libARController/obj/gen/Sources/ARCONTROLLER_Feature.c.o
                0x0000000000061120                ARCONTROLLER_FEATURE_Common_SendMavlinkStart
 *fill*         0x00000000000611d5        0xb 
 .text.ARCONTROLLER_FEATURE_Common_SendMavlinkPause
                0x00000000000611e0       0xac /home/sunho/bebop_ws/devel/arsdk/out/arsdk-native/build/libARController/obj/gen/Sources/ARCONTROLLER_Feature.c.o
                0x00000000000611e0                ARCONTROLLER_FEATURE_Common_SendMavlinkPause
 *fill*         0x000000000006128c        0x4 
 .text.ARCONTROLLER_FEATURE_Common_SendMavlinkStop
                0x0000000000061290       0xac /home/sunho/bebop_ws/devel/arsdk/out/arsdk-native/build/libARController/obj/gen/Sources/ARCONTROLLER_Feature.c.o
                0x0000000000061290                ARCONTROLLER_FEATURE_Common_SendMavlinkStop
 *fill*         0x000000000006133c        0x4 
 .text.ARCONTROLLER_FEATURE_Common_SendCalibrationMagnetoCalibration
                0x0000000000061340       0xac /home/sunho/bebop_ws/devel/arsdk/out/arsdk-native/build/libARController/obj/gen/Sources/ARCONTROLLER_Feature.c.o
                0x0000000000061340                ARCONTROLLER_FEATURE_Common_SendCalibrationMagnetoCalibration
 *fill*         0x00000000000613ec        0x4 
 .text.ARCONTROLLER_FEATURE_Common_SendCalibrationPitotCalibration
                0x00000000000613f0       0xac /home/sunho/bebop_ws/devel/arsdk/out/arsdk-native/build/libARController/obj/gen/Sources/ARCONTROLLER_Feature.c.o
                0x00000000000613f0                ARCONTROLLER_FEATURE_Common_SendCalibrationPitotCalibration
 *fill*         0x000000000006149c        0x4 
 .text.ARCONTROLLER_FEATURE_Common_SendGPSControllerPositionForRun
                0x00000000000614a0       0xac /home/sunho/bebop_ws/devel/arsdk/out/arsdk-native/build/libARController/obj/gen/Sources/ARCONTROLLER_Feature.c.o
                0x00000000000614a0                ARCONTROLLER_FEATURE_Common_SendGPSControllerPositionForRun
 *fill*         0x000000000006154c        0x4 
 .text.ARCONTROLLER_FEATURE_Common_SendAudioControllerReadyForStreaming
                0x0000000000061550       0xac /home/sunho/bebop_ws/devel/arsdk/out/arsdk-native/build/libARController/obj/gen/Sources/ARCONTROLLER_Feature.c.o
                0x0000000000061550                ARCONTROLLER_FEATURE_Common_SendAudioControllerReadyForStreaming
 *fill*         0x00000000000615fc        0x4 
 .text.ARCONTROLLER_FEATURE_Common_SendHeadlightsIntensity
                0x0000000000061600       0xbd /home/sunho/bebop_ws/devel/arsdk/out/arsdk-native/build/libARController/obj/gen/Sources/ARCONTROLLER_Feature.c.o
                0x0000000000061600                ARCONTROLLER_FEATURE_Common_SendHeadlightsIntensity
 *fill*         0x00000000000616bd        0x3 
 .text.ARCONTROLLER_FEATURE_Common_SendAnimationsStartAnimation
                0x00000000000616c0       0xac /home/sunho/bebop_ws/devel/arsdk/out/arsdk-native/build/libARController/obj/gen/Sources/ARCONTROLLER_Feature.c.o
                0x00000000000616c0                ARCONTROLLER_FEATURE_Common_SendAnimationsStartAnimation
 *fill*         0x000000000006176c        0x4 
 .text.ARCONTROLLER_FEATURE_Common_SendAnimationsStopAnimation
                0x0000000000061770       0xac /home/sunho/bebop_ws/devel/arsdk/out/arsdk-native/build/libARController/obj/gen/Sources/ARCONTROLLER_Feature.c.o
                0x0000000000061770                ARCONTROLLER_FEATURE_Common_SendAnimationsStopAnimation
 *fill*         0x000000000006181c        0x4 
 .text.ARCONTROLLER_FEATURE_Common_SendAnimationsStopAllAnimations
                0x0000000000061820       0xac /home/sunho/bebop_ws/devel/arsdk/out/arsdk-native/build/libARController/obj/gen/Sources/ARCONTROLLER_Feature.c.o
                0x0000000000061820                ARCONTROLLER_FEATURE_Common_SendAnimationsStopAllAnimations
 *fill*         0x00000000000618cc        0x4 
 .text.ARCONTROLLER_FEATURE_Common_SendAccessoryConfig
                0x00000000000618d0       0xac /home/sunho/bebop_ws/devel/arsdk/out/arsdk-native/build/libARController/obj/gen/Sources/ARCONTROLLER_Feature.c.o
                0x00000000000618d0                ARCONTROLLER_FEATURE_Common_SendAccessoryConfig
 *fill*         0x000000000006197c        0x4 
 .text.ARCONTROLLER_FEATURE_Common_SendChargerSetMaxChargeRate
                0x0000000000061980       0xac /home/sunho/bebop_ws/devel/arsdk/out/arsdk-native/build/libARController/obj/gen/Sources/ARCONTROLLER_Feature.c.o
                0x0000000000061980                ARCONTROLLER_FEATURE_Common_SendChargerSetMaxChargeRate
 *fill*         0x0000000000061a2c        0x4 
 .text.ARCONTROLLER_FEATURE_ControllerInfo_SendGps
                0x0000000000061a30       0xb9 /home/sunho/bebop_ws/devel/arsdk/out/arsdk-native/build/libARController/obj/gen/Sources/ARCONTROLLER_Feature.c.o
                0x0000000000061a30                ARCONTROLLER_FEATURE_ControllerInfo_SendGps
 *fill*         0x0000000000061ae9        0x7 
 .text.ARCONTROLLER_FEATURE_ControllerInfo_SendBarometer
                0x0000000000061af0       0xa9 /home/sunho/bebop_ws/devel/arsdk/out/arsdk-native/build/libARController/obj/gen/Sources/ARCONTROLLER_Feature.c.o
                0x0000000000061af0                ARCONTROLLER_FEATURE_ControllerInfo_SendBarometer
 *fill*         0x0000000000061b99        0x7 
 .text.ARCONTROLLER_FEATURE_Debug_SendGetAllSettings
                0x0000000000061ba0       0xa9 /home/sunho/bebop_ws/devel/arsdk/out/arsdk-native/build/libARController/obj/gen/Sources/ARCONTROLLER_Feature.c.o
                0x0000000000061ba0                ARCONTROLLER_FEATURE_Debug_SendGetAllSettings
 *fill*         0x0000000000061c49        0x7 
 .text.ARCONTROLLER_FEATURE_Debug_SendSetSetting
                0x0000000000061c50       0xb2 /home/sunho/bebop_ws/devel/arsdk/out/arsdk-native/build/libARController/obj/gen/Sources/ARCONTROLLER_Feature.c.o
                0x0000000000061c50                ARCONTROLLER_FEATURE_Debug_SendSetSetting
 *fill*         0x0000000000061d02        0xe 
 .text.ARCONTROLLER_FEATURE_DroneManager_SendDiscoverDrones
                0x0000000000061d10       0xa9 /home/sunho/bebop_ws/devel/arsdk/out/arsdk-native/build/libARController/obj/gen/Sources/ARCONTROLLER_Feature.c.o
                0x0000000000061d10                ARCONTROLLER_FEATURE_DroneManager_SendDiscoverDrones
 *fill*         0x0000000000061db9        0x7 
 .text.ARCONTROLLER_FEATURE_DroneManager_SendConnect
                0x0000000000061dc0       0xb2 /home/sunho/bebop_ws/devel/arsdk/out/arsdk-native/build/libARController/obj/gen/Sources/ARCONTROLLER_Feature.c.o
                0x0000000000061dc0                ARCONTROLLER_FEATURE_DroneManager_SendConnect
 *fill*         0x0000000000061e72        0xe 
 .text.ARCONTROLLER_FEATURE_DroneManager_SendForget
                0x0000000000061e80       0xa9 /home/sunho/bebop_ws/devel/arsdk/out/arsdk-native/build/libARController/obj/gen/Sources/ARCONTROLLER_Feature.c.o
                0x0000000000061e80                ARCONTROLLER_FEATURE_DroneManager_SendForget
 *fill*         0x0000000000061f29        0x7 
 .text.ARCONTROLLER_FEATURE_JumpingSumo_SendPilotingPCMD
                0x0000000000061f30       0xba /home/sunho/bebop_ws/devel/arsdk/out/arsdk-native/build/libARController/obj/gen/Sources/ARCONTROLLER_Feature.c.o
                0x0000000000061f30                ARCONTROLLER_FEATURE_JumpingSumo_SendPilotingPCMD
 *fill*         0x0000000000061fea        0x6 
 .text.ARCONTROLLER_FEATURE_JumpingSumo_SendPilotingPosture
                0x0000000000061ff0       0xac /home/sunho/bebop_ws/devel/arsdk/out/arsdk-native/build/libARController/obj/gen/Sources/ARCONTROLLER_Feature.c.o
                0x0000000000061ff0                ARCONTROLLER_FEATURE_JumpingSumo_SendPilotingPosture
 *fill*         0x000000000006209c        0x4 
 .text.ARCONTROLLER_FEATURE_JumpingSumo_SendPilotingAddCapOffset
                0x00000000000620a0       0xac /home/sunho/bebop_ws/devel/arsdk/out/arsdk-native/build/libARController/obj/gen/Sources/ARCONTROLLER_Feature.c.o
                0x00000000000620a0                ARCONTROLLER_FEATURE_JumpingSumo_SendPilotingAddCapOffset
 *fill*         0x000000000006214c        0x4 
 .text.ARCONTROLLER_FEATURE_JumpingSumo_SendAnimationsJumpStop
                0x0000000000062150       0xaf /home/sunho/bebop_ws/devel/arsdk/out/arsdk-native/build/libARController/obj/gen/Sources/ARCONTROLLER_Feature.c.o
                0x0000000000062150                ARCONTROLLER_FEATURE_JumpingSumo_SendAnimationsJumpStop
 *fill*         0x00000000000621ff        0x1 
 .text.ARCONTROLLER_FEATURE_JumpingSumo_SendAnimationsJumpCancel
                0x0000000000062200       0xac /home/sunho/bebop_ws/devel/arsdk/out/arsdk-native/build/libARController/obj/gen/Sources/ARCONTROLLER_Feature.c.o
                0x0000000000062200                ARCONTROLLER_FEATURE_JumpingSumo_SendAnimationsJumpCancel
 *fill*         0x00000000000622ac        0x4 
 .text.ARCONTROLLER_FEATURE_JumpingSumo_SendAnimationsJumpLoad
                0x00000000000622b0       0xac /home/sunho/bebop_ws/devel/arsdk/out/arsdk-native/build/libARController/obj/gen/Sources/ARCONTROLLER_Feature.c.o
                0x00000000000622b0                ARCONTROLLER_FEATURE_JumpingSumo_SendAnimationsJumpLoad
 *fill*         0x000000000006235c        0x4 
 .text.ARCONTROLLER_FEATURE_JumpingSumo_SendAnimationsJump
                0x0000000000062360       0xac /home/sunho/bebop_ws/devel/arsdk/out/arsdk-native/build/libARController/obj/gen/Sources/ARCONTROLLER_Feature.c.o
                0x0000000000062360                ARCONTROLLER_FEATURE_JumpingSumo_SendAnimationsJump
 *fill*         0x000000000006240c        0x4 
 .text.ARCONTROLLER_FEATURE_JumpingSumo_SendAnimationsSimpleAnimation
                0x0000000000062410       0xac /home/sunho/bebop_ws/devel/arsdk/out/arsdk-native/build/libARController/obj/gen/Sources/ARCONTROLLER_Feature.c.o
                0x0000000000062410                ARCONTROLLER_FEATURE_JumpingSumo_SendAnimationsSimpleAnimation
 *fill*         0x00000000000624bc        0x4 
 .text.ARCONTROLLER_FEATURE_JumpingSumo_SendMediaRecordPicture
                0x00000000000624c0       0xac /home/sunho/bebop_ws/devel/arsdk/out/arsdk-native/build/libARController/obj/gen/Sources/ARCONTROLLER_Feature.c.o
                0x00000000000624c0                ARCONTROLLER_FEATURE_JumpingSumo_SendMediaRecordPicture
 *fill*         0x000000000006256c        0x4 
 .text.ARCONTROLLER_FEATURE_JumpingSumo_SendMediaRecordVideo
                0x0000000000062570       0xb5 /home/sunho/bebop_ws/devel/arsdk/out/arsdk-native/build/libARController/obj/gen/Sources/ARCONTROLLER_Feature.c.o
                0x0000000000062570                ARCONTROLLER_FEATURE_JumpingSumo_SendMediaRecordVideo
 *fill*         0x0000000000062625        0xb 
 .text.ARCONTROLLER_FEATURE_JumpingSumo_SendMediaRecordPictureV2
                0x0000000000062630       0xac /home/sunho/bebop_ws/devel/arsdk/out/arsdk-native/build/libARController/obj/gen/Sources/ARCONTROLLER_Feature.c.o
                0x0000000000062630                ARCONTROLLER_FEATURE_JumpingSumo_SendMediaRecordPictureV2
 *fill*         0x00000000000626dc        0x4 
 .text.ARCONTROLLER_FEATURE_JumpingSumo_SendMediaRecordVideoV2
                0x00000000000626e0       0xac /home/sunho/bebop_ws/devel/arsdk/out/arsdk-native/build/libARController/obj/gen/Sources/ARCONTROLLER_Feature.c.o
                0x00000000000626e0                ARCONTROLLER_FEATURE_JumpingSumo_SendMediaRecordVideoV2
 *fill*         0x000000000006278c        0x4 
 .text.ARCONTROLLER_FEATURE_JumpingSumo_SendNetworkSettingsWifiSelection
                0x0000000000062790       0xb5 /home/sunho/bebop_ws/devel/arsdk/out/arsdk-native/build/libARController/obj/gen/Sources/ARCONTROLLER_Feature.c.o
                0x0000000000062790                ARCONTROLLER_FEATURE_JumpingSumo_SendNetworkSettingsWifiSelection
 *fill*         0x0000000000062845        0xb 
 .text.ARCONTROLLER_FEATURE_JumpingSumo_SendNetworkWifiScan
                0x0000000000062850       0xac /home/sunho/bebop_ws/devel/arsdk/out/arsdk-native/build/libARController/obj/gen/Sources/ARCONTROLLER_Feature.c.o
                0x0000000000062850                ARCONTROLLER_FEATURE_JumpingSumo_SendNetworkWifiScan
 *fill*         0x00000000000628fc        0x4 
 .text.ARCONTROLLER_FEATURE_JumpingSumo_SendNetworkWifiAuthChannel
                0x0000000000062900       0xac /home/sunho/bebop_ws/devel/arsdk/out/arsdk-native/build/libARController/obj/gen/Sources/ARCONTROLLER_Feature.c.o
                0x0000000000062900                ARCONTROLLER_FEATURE_JumpingSumo_SendNetworkWifiAuthChannel
 *fill*         0x00000000000629ac        0x4 
 .text.ARCONTROLLER_FEATURE_JumpingSumo_SendAudioSettingsMasterVolume
                0x00000000000629b0       0xac /home/sunho/bebop_ws/devel/arsdk/out/arsdk-native/build/libARController/obj/gen/Sources/ARCONTROLLER_Feature.c.o
                0x00000000000629b0                ARCONTROLLER_FEATURE_JumpingSumo_SendAudioSettingsMasterVolume
 *fill*         0x0000000000062a5c        0x4 
 .text.ARCONTROLLER_FEATURE_JumpingSumo_SendAudioSettingsTheme
                0x0000000000062a60       0xac /home/sunho/bebop_ws/devel/arsdk/out/arsdk-native/build/libARController/obj/gen/Sources/ARCONTROLLER_Feature.c.o
                0x0000000000062a60                ARCONTROLLER_FEATURE_JumpingSumo_SendAudioSettingsTheme
 *fill*         0x0000000000062b0c        0x4 
 .text.ARCONTROLLER_FEATURE_JumpingSumo_SendRoadPlanAllScriptsMetadata
                0x0000000000062b10       0xac /home/sunho/bebop_ws/devel/arsdk/out/arsdk-native/build/libARController/obj/gen/Sources/ARCONTROLLER_Feature.c.o
                0x0000000000062b10                ARCONTROLLER_FEATURE_JumpingSumo_SendRoadPlanAllScriptsMetadata
 *fill*         0x0000000000062bbc        0x4 
 .text.ARCONTROLLER_FEATURE_JumpingSumo_SendRoadPlanScriptUploaded
                0x0000000000062bc0       0xb5 /home/sunho/bebop_ws/devel/arsdk/out/arsdk-native/build/libARController/obj/gen/Sources/ARCONTROLLER_Feature.c.o
                0x0000000000062bc0                ARCONTROLLER_FEATURE_JumpingSumo_SendRoadPlanScriptUploaded
 *fill*         0x0000000000062c75        0xb 
 .text.ARCONTROLLER_FEATURE_JumpingSumo_SendRoadPlanScriptDelete
                0x0000000000062c80       0xac /home/sunho/bebop_ws/devel/arsdk/out/arsdk-native/build/libARController/obj/gen/Sources/ARCONTROLLER_Feature.c.o
                0x0000000000062c80                ARCONTROLLER_FEATURE_JumpingSumo_SendRoadPlanScriptDelete
 *fill*         0x0000000000062d2c        0x4 
 .text.ARCONTROLLER_FEATURE_JumpingSumo_SendRoadPlanPlayScript
                0x0000000000062d30       0xac /home/sunho/bebop_ws/devel/arsdk/out/arsdk-native/build/libARController/obj/gen/Sources/ARCONTROLLER_Feature.c.o
                0x0000000000062d30                ARCONTROLLER_FEATURE_JumpingSumo_SendRoadPlanPlayScript
 *fill*         0x0000000000062ddc        0x4 
 .text.ARCONTROLLER_FEATURE_JumpingSumo_SendSpeedSettingsOutdoor
                0x0000000000062de0       0xac /home/sunho/bebop_ws/devel/arsdk/out/arsdk-native/build/libARController/obj/gen/Sources/ARCONTROLLER_Feature.c.o
                0x0000000000062de0                ARCONTROLLER_FEATURE_JumpingSumo_SendSpeedSettingsOutdoor
 *fill*         0x0000000000062e8c        0x4 
 .text.ARCONTROLLER_FEATURE_JumpingSumo_SendMediaStreamingVideoEnable
                0x0000000000062e90       0xac /home/sunho/bebop_ws/devel/arsdk/out/arsdk-native/build/libARController/obj/gen/Sources/ARCONTROLLER_Feature.c.o
                0x0000000000062e90                ARCONTROLLER_FEATURE_JumpingSumo_SendMediaStreamingVideoEnable
 *fill*         0x0000000000062f3c        0x4 
 .text.ARCONTROLLER_FEATURE_JumpingSumo_SendVideoSettingsAutorecord
                0x0000000000062f40       0xac /home/sunho/bebop_ws/devel/arsdk/out/arsdk-native/build/libARController/obj/gen/Sources/ARCONTROLLER_Feature.c.o
                0x0000000000062f40                ARCONTROLLER_FEATURE_JumpingSumo_SendVideoSettingsAutorecord
 *fill*         0x0000000000062fec        0x4 
 .text.ARCONTROLLER_FEATURE_Mapper_SendGrab
                0x0000000000062ff0       0xaa /home/sunho/bebop_ws/devel/arsdk/out/arsdk-native/build/libARController/obj/gen/Sources/ARCONTROLLER_Feature.c.o
                0x0000000000062ff0                ARCONTROLLER_FEATURE_Mapper_SendGrab
 *fill*         0x000000000006309a        0x6 
 .text.ARCONTROLLER_FEATURE_Mapper_SendMapButtonAction
                0x00000000000630a0       0xb2 /home/sunho/bebop_ws/devel/arsdk/out/arsdk-native/build/libARController/obj/gen/Sources/ARCONTROLLER_Feature.c.o
                0x00000000000630a0                ARCONTROLLER_FEATURE_Mapper_SendMapButtonAction
 *fill*         0x0000000000063152        0xe 
 .text.ARCONTROLLER_FEATURE_Mapper_SendMapAxisAction
                0x0000000000063160       0xba /home/sunho/bebop_ws/devel/arsdk/out/arsdk-native/build/libARController/obj/gen/Sources/ARCONTROLLER_Feature.c.o
                0x0000000000063160                ARCONTROLLER_FEATURE_Mapper_SendMapAxisAction
 *fill*         0x000000000006321a        0x6 
 .text.ARCONTROLLER_FEATURE_Mapper_SendResetMapping
                0x0000000000063220       0xa9 /home/sunho/bebop_ws/devel/arsdk/out/arsdk-native/build/libARController/obj/gen/Sources/ARCONTROLLER_Feature.c.o
                0x0000000000063220                ARCONTROLLER_FEATURE_Mapper_SendResetMapping
 *fill*         0x00000000000632c9        0x7 
 .text.ARCONTROLLER_FEATURE_Mapper_SendSetExpo
                0x00000000000632d0       0xb2 /home/sunho/bebop_ws/devel/arsdk/out/arsdk-native/build/libARController/obj/gen/Sources/ARCONTROLLER_Feature.c.o
                0x00000000000632d0                ARCONTROLLER_FEATURE_Mapper_SendSetExpo
 *fill*         0x0000000000063382        0xe 
 .text.ARCONTROLLER_FEATURE_Mapper_SendSetInverted
                0x0000000000063390       0xba /home/sunho/bebop_ws/devel/arsdk/out/arsdk-native/build/libARController/obj/gen/Sources/ARCONTROLLER_Feature.c.o
                0x0000000000063390                ARCONTROLLER_FEATURE_Mapper_SendSetInverted
 *fill*         0x000000000006344a        0x6 
 .text.ARCONTROLLER_FEATURE_MiniDrone_SendPilotingFlatTrim
                0x0000000000063450       0xac /home/sunho/bebop_ws/devel/arsdk/out/arsdk-native/build/libARController/obj/gen/Sources/ARCONTROLLER_Feature.c.o
                0x0000000000063450                ARCONTROLLER_FEATURE_MiniDrone_SendPilotingFlatTrim
 *fill*         0x00000000000634fc        0x4 
 .text.ARCONTROLLER_FEATURE_MiniDrone_SendPilotingTakeOff
                0x0000000000063500       0xac /home/sunho/bebop_ws/devel/arsdk/out/arsdk-native/build/libARController/obj/gen/Sources/ARCONTROLLER_Feature.c.o
                0x0000000000063500                ARCONTROLLER_FEATURE_MiniDrone_SendPilotingTakeOff
 *fill*         0x00000000000635ac        0x4 
 .text.ARCONTROLLER_FEATURE_MiniDrone_SendPilotingPCMD
                0x00000000000635b0       0xda /home/sunho/bebop_ws/devel/arsdk/out/arsdk-native/build/libARController/obj/gen/Sources/ARCONTROLLER_Feature.c.o
                0x00000000000635b0                ARCONTROLLER_FEATURE_MiniDrone_SendPilotingPCMD
 *fill*         0x000000000006368a        0x6 
 .text.ARCONTROLLER_FEATURE_MiniDrone_SendPilotingLanding
                0x0000000000063690       0xac /home/sunho/bebop_ws/devel/arsdk/out/arsdk-native/build/libARController/obj/gen/Sources/ARCONTROLLER_Feature.c.o
                0x0000000000063690                ARCONTROLLER_FEATURE_MiniDrone_SendPilotingLanding
 *fill*         0x000000000006373c        0x4 
 .text.ARCONTROLLER_FEATURE_MiniDrone_SendPilotingEmergency
                0x0000000000063740       0xaf /home/sunho/bebop_ws/devel/arsdk/out/arsdk-native/build/libARController/obj/gen/Sources/ARCONTROLLER_Feature.c.o
                0x0000000000063740                ARCONTROLLER_FEATURE_MiniDrone_SendPilotingEmergency
 *fill*         0x00000000000637ef        0x1 
 .text.ARCONTROLLER_FEATURE_MiniDrone_SendPilotingAutoTakeOffMode
                0x00000000000637f0       0xac /home/sunho/bebop_ws/devel/arsdk/out/arsdk-native/build/libARController/obj/gen/Sources/ARCONTROLLER_Feature.c.o
                0x00000000000637f0                ARCONTROLLER_FEATURE_MiniDrone_SendPilotingAutoTakeOffMode
 *fill*         0x000000000006389c        0x4 
 .text.ARCONTROLLER_FEATURE_MiniDrone_SendPilotingFlyingMode
                0x00000000000638a0       0xac /home/sunho/bebop_ws/devel/arsdk/out/arsdk-native/build/libARController/obj/gen/Sources/ARCONTROLLER_Feature.c.o
                0x00000000000638a0                ARCONTROLLER_FEATURE_MiniDrone_SendPilotingFlyingMode
 *fill*         0x000000000006394c        0x4 
 .text.ARCONTROLLER_FEATURE_MiniDrone_SendPilotingPlaneGearBox
                0x0000000000063950       0xac /home/sunho/bebop_ws/devel/arsdk/out/arsdk-native/build/libARController/obj/gen/Sources/ARCONTROLLER_Feature.c.o
                0x0000000000063950                ARCONTROLLER_FEATURE_MiniDrone_SendPilotingPlaneGearBox
 *fill*         0x00000000000639fc        0x4 
 .text.ARCONTROLLER_FEATURE_MiniDrone_SendAnimationsFlip
                0x0000000000063a00       0xac /home/sunho/bebop_ws/devel/arsdk/out/arsdk-native/build/libARController/obj/gen/Sources/ARCONTROLLER_Feature.c.o
                0x0000000000063a00                ARCONTROLLER_FEATURE_MiniDrone_SendAnimationsFlip
 *fill*         0x0000000000063aac        0x4 
 .text.ARCONTROLLER_FEATURE_MiniDrone_SendAnimationsCap
                0x0000000000063ab0       0xac /home/sunho/bebop_ws/devel/arsdk/out/arsdk-native/build/libARController/obj/gen/Sources/ARCONTROLLER_Feature.c.o
                0x0000000000063ab0                ARCONTROLLER_FEATURE_MiniDrone_SendAnimationsCap
 *fill*         0x0000000000063b5c        0x4 
 .text.ARCONTROLLER_FEATURE_MiniDrone_SendMediaRecordPicture
                0x0000000000063b60       0xac /home/sunho/bebop_ws/devel/arsdk/out/arsdk-native/build/libARController/obj/gen/Sources/ARCONTROLLER_Feature.c.o
                0x0000000000063b60                ARCONTROLLER_FEATURE_MiniDrone_SendMediaRecordPicture
 *fill*         0x0000000000063c0c        0x4 
 .text.ARCONTROLLER_FEATURE_MiniDrone_SendMediaRecordPictureV2
                0x0000000000063c10       0xac /home/sunho/bebop_ws/devel/arsdk/out/arsdk-native/build/libARController/obj/gen/Sources/ARCONTROLLER_Feature.c.o
                0x0000000000063c10                ARCONTROLLER_FEATURE_MiniDrone_SendMediaRecordPictureV2
 *fill*         0x0000000000063cbc        0x4 
 .text.ARCONTROLLER_FEATURE_MiniDrone_SendPilotingSettingsMaxAltitude
                0x0000000000063cc0       0xac /home/sunho/bebop_ws/devel/arsdk/out/arsdk-native/build/libARController/obj/gen/Sources/ARCONTROLLER_Feature.c.o
                0x0000000000063cc0                ARCONTROLLER_FEATURE_MiniDrone_SendPilotingSettingsMaxAltitude
 *fill*         0x0000000000063d6c        0x4 
 .text.ARCONTROLLER_FEATURE_MiniDrone_SendPilotingSettingsMaxTilt
                0x0000000000063d70       0xac /home/sunho/bebop_ws/devel/arsdk/out/arsdk-native/build/libARController/obj/gen/Sources/ARCONTROLLER_Feature.c.o
                0x0000000000063d70                ARCONTROLLER_FEATURE_MiniDrone_SendPilotingSettingsMaxTilt
 *fill*         0x0000000000063e1c        0x4 
 .text.ARCONTROLLER_FEATURE_MiniDrone_SendPilotingSettingsPlaneModePitch
                0x0000000000063e20       0xac /home/sunho/bebop_ws/devel/arsdk/out/arsdk-native/build/libARController/obj/gen/Sources/ARCONTROLLER_Feature.c.o
                0x0000000000063e20                ARCONTROLLER_FEATURE_MiniDrone_SendPilotingSettingsPlaneModePitch
 *fill*         0x0000000000063ecc        0x4 
 .text.ARCONTROLLER_FEATURE_MiniDrone_SendSpeedSettingsMaxVerticalSpeed
                0x0000000000063ed0       0xac /home/sunho/bebop_ws/devel/arsdk/out/arsdk-native/build/libARController/obj/gen/Sources/ARCONTROLLER_Feature.c.o
                0x0000000000063ed0                ARCONTROLLER_FEATURE_MiniDrone_SendSpeedSettingsMaxVerticalSpeed
 *fill*         0x0000000000063f7c        0x4 
 .text.ARCONTROLLER_FEATURE_MiniDrone_SendSpeedSettingsMaxRotationSpeed
                0x0000000000063f80       0xac /home/sunho/bebop_ws/devel/arsdk/out/arsdk-native/build/libARController/obj/gen/Sources/ARCONTROLLER_Feature.c.o
                0x0000000000063f80                ARCONTROLLER_FEATURE_MiniDrone_SendSpeedSettingsMaxRotationSpeed
 *fill*         0x000000000006402c        0x4 
 .text.ARCONTROLLER_FEATURE_MiniDrone_SendSpeedSettingsWheels
                0x0000000000064030       0xac /home/sunho/bebop_ws/devel/arsdk/out/arsdk-native/build/libARController/obj/gen/Sources/ARCONTROLLER_Feature.c.o
                0x0000000000064030                ARCONTROLLER_FEATURE_MiniDrone_SendSpeedSettingsWheels
 *fill*         0x00000000000640dc        0x4 
 .text.ARCONTROLLER_FEATURE_MiniDrone_SendSpeedSettingsMaxHorizontalSpeed
                0x00000000000640e0       0xac /home/sunho/bebop_ws/devel/arsdk/out/arsdk-native/build/libARController/obj/gen/Sources/ARCONTROLLER_Feature.c.o
                0x00000000000640e0                ARCONTROLLER_FEATURE_MiniDrone_SendSpeedSettingsMaxHorizontalSpeed
 *fill*         0x000000000006418c        0x4 
 .text.ARCONTROLLER_FEATURE_MiniDrone_SendSpeedSettingsMaxPlaneModeRotationSpeed
                0x0000000000064190       0xac /home/sunho/bebop_ws/devel/arsdk/out/arsdk-native/build/libARController/obj/gen/Sources/ARCONTROLLER_Feature.c.o
                0x0000000000064190                ARCONTROLLER_FEATURE_MiniDrone_SendSpeedSettingsMaxPlaneModeRotationSpeed
 *fill*         0x000000000006423c        0x4 
 .text.ARCONTROLLER_FEATURE_MiniDrone_SendSettingsCutOutMode
                0x0000000000064240       0xac /home/sunho/bebop_ws/devel/arsdk/out/arsdk-native/build/libARController/obj/gen/Sources/ARCONTROLLER_Feature.c.o
                0x0000000000064240                ARCONTROLLER_FEATURE_MiniDrone_SendSettingsCutOutMode
 *fill*         0x00000000000642ec        0x4 
 .text.ARCONTROLLER_FEATURE_MiniDrone_SendGPSControllerLatitudeForRun
                0x00000000000642f0       0xac /home/sunho/bebop_ws/devel/arsdk/out/arsdk-native/build/libARController/obj/gen/Sources/ARCONTROLLER_Feature.c.o
                0x00000000000642f0                ARCONTROLLER_FEATURE_MiniDrone_SendGPSControllerLatitudeForRun
 *fill*         0x000000000006439c        0x4 
 .text.ARCONTROLLER_FEATURE_MiniDrone_SendGPSControllerLongitudeForRun
                0x00000000000643a0       0xac /home/sunho/bebop_ws/devel/arsdk/out/arsdk-native/build/libARController/obj/gen/Sources/ARCONTROLLER_Feature.c.o
                0x00000000000643a0                ARCONTROLLER_FEATURE_MiniDrone_SendGPSControllerLongitudeForRun
 *fill*         0x000000000006444c        0x4 
 .text.ARCONTROLLER_FEATURE_MiniDrone_SendConfigurationControllerType
                0x0000000000064450       0xac /home/sunho/bebop_ws/devel/arsdk/out/arsdk-native/build/libARController/obj/gen/Sources/ARCONTROLLER_Feature.c.o
                0x0000000000064450                ARCONTROLLER_FEATURE_MiniDrone_SendConfigurationControllerType
 *fill*         0x00000000000644fc        0x4 
 .text.ARCONTROLLER_FEATURE_MiniDrone_SendConfigurationControllerName
                0x0000000000064500       0xac /home/sunho/bebop_ws/devel/arsdk/out/arsdk-native/build/libARController/obj/gen/Sources/ARCONTROLLER_Feature.c.o
                0x0000000000064500                ARCONTROLLER_FEATURE_MiniDrone_SendConfigurationControllerName
 *fill*         0x00000000000645ac        0x4 
 .text.ARCONTROLLER_FEATURE_MiniDrone_SendUsbAccessoryLightControl
                0x00000000000645b0       0xbd /home/sunho/bebop_ws/devel/arsdk/out/arsdk-native/build/libARController/obj/gen/Sources/ARCONTROLLER_Feature.c.o
                0x00000000000645b0                ARCONTROLLER_FEATURE_MiniDrone_SendUsbAccessoryLightControl
 *fill*         0x000000000006466d        0x3 
 .text.ARCONTROLLER_FEATURE_MiniDrone_SendUsbAccessoryClawControl
                0x0000000000064670       0xb5 /home/sunho/bebop_ws/devel/arsdk/out/arsdk-native/build/libARController/obj/gen/Sources/ARCONTROLLER_Feature.c.o
                0x0000000000064670                ARCONTROLLER_FEATURE_MiniDrone_SendUsbAccessoryClawControl
 *fill*         0x0000000000064725        0xb 
 .text.ARCONTROLLER_FEATURE_MiniDrone_SendUsbAccessoryGunControl
                0x0000000000064730       0xb5 /home/sunho/bebop_ws/devel/arsdk/out/arsdk-native/build/libARController/obj/gen/Sources/ARCONTROLLER_Feature.c.o
                0x0000000000064730                ARCONTROLLER_FEATURE_MiniDrone_SendUsbAccessoryGunControl
 *fill*         0x00000000000647e5        0xb 
 .text.ARCONTROLLER_FEATURE_MiniDrone_SendRemoteControllerSetPairedRemote
                0x00000000000647f0       0xbd /home/sunho/bebop_ws/devel/arsdk/out/arsdk-native/build/libARController/obj/gen/Sources/ARCONTROLLER_Feature.c.o
                0x00000000000647f0                ARCONTROLLER_FEATURE_MiniDrone_SendRemoteControllerSetPairedRemote
 *fill*         0x00000000000648ad        0x3 
 .text.ARCONTROLLER_FEATURE_Powerup_SendPilotingPCMD
                0x00000000000648b0       0xba /home/sunho/bebop_ws/devel/arsdk/out/arsdk-native/build/libARController/obj/gen/Sources/ARCONTROLLER_Feature.c.o
                0x00000000000648b0                ARCONTROLLER_FEATURE_Powerup_SendPilotingPCMD
 *fill*         0x000000000006496a        0x6 
 .text.ARCONTROLLER_FEATURE_Powerup_SendPilotingUserTakeOff
                0x0000000000064970       0xac /home/sunho/bebop_ws/devel/arsdk/out/arsdk-native/build/libARController/obj/gen/Sources/ARCONTROLLER_Feature.c.o
                0x0000000000064970                ARCONTROLLER_FEATURE_Powerup_SendPilotingUserTakeOff
 *fill*         0x0000000000064a1c        0x4 
 .text.ARCONTROLLER_FEATURE_Powerup_SendPilotingMotorMode
                0x0000000000064a20       0xac /home/sunho/bebop_ws/devel/arsdk/out/arsdk-native/build/libARController/obj/gen/Sources/ARCONTROLLER_Feature.c.o
                0x0000000000064a20                ARCONTROLLER_FEATURE_Powerup_SendPilotingMotorMode
 *fill*         0x0000000000064acc        0x4 
 .text.ARCONTROLLER_FEATURE_Powerup_SendPilotingSettingsSet
                0x0000000000064ad0       0xac /home/sunho/bebop_ws/devel/arsdk/out/arsdk-native/build/libARController/obj/gen/Sources/ARCONTROLLER_Feature.c.o
                0x0000000000064ad0                ARCONTROLLER_FEATURE_Powerup_SendPilotingSettingsSet
 *fill*         0x0000000000064b7c        0x4 
 .text.ARCONTROLLER_FEATURE_Powerup_SendMediaRecordPictureV2
                0x0000000000064b80       0xac /home/sunho/bebop_ws/devel/arsdk/out/arsdk-native/build/libARController/obj/gen/Sources/ARCONTROLLER_Feature.c.o
                0x0000000000064b80                ARCONTROLLER_FEATURE_Powerup_SendMediaRecordPictureV2
 *fill*         0x0000000000064c2c        0x4 
 .text.ARCONTROLLER_FEATURE_Powerup_SendMediaRecordVideoV2
                0x0000000000064c30       0xac /home/sunho/bebop_ws/devel/arsdk/out/arsdk-native/build/libARController/obj/gen/Sources/ARCONTROLLER_Feature.c.o
                0x0000000000064c30                ARCONTROLLER_FEATURE_Powerup_SendMediaRecordVideoV2
 *fill*         0x0000000000064cdc        0x4 
 .text.ARCONTROLLER_FEATURE_Powerup_SendNetworkSettingsWifiSelection
                0x0000000000064ce0       0xb5 /home/sunho/bebop_ws/devel/arsdk/out/arsdk-native/build/libARController/obj/gen/Sources/ARCONTROLLER_Feature.c.o
                0x0000000000064ce0                ARCONTROLLER_FEATURE_Powerup_SendNetworkSettingsWifiSelection
 *fill*         0x0000000000064d95        0xb 
 .text.ARCONTROLLER_FEATURE_Powerup_SendNetworkWifiScan
                0x0000000000064da0       0xac /home/sunho/bebop_ws/devel/arsdk/out/arsdk-native/build/libARController/obj/gen/Sources/ARCONTROLLER_Feature.c.o
                0x0000000000064da0                ARCONTROLLER_FEATURE_Powerup_SendNetworkWifiScan
 *fill*         0x0000000000064e4c        0x4 
 .text.ARCONTROLLER_FEATURE_Powerup_SendNetworkWifiAuthChannel
                0x0000000000064e50       0xac /home/sunho/bebop_ws/devel/arsdk/out/arsdk-native/build/libARController/obj/gen/Sources/ARCONTROLLER_Feature.c.o
                0x0000000000064e50                ARCONTROLLER_FEATURE_Powerup_SendNetworkWifiAuthChannel
 *fill*         0x0000000000064efc        0x4 
 .text.ARCONTROLLER_FEATURE_Powerup_SendMediaStreamingVideoEnable
                0x0000000000064f00       0xac /home/sunho/bebop_ws/devel/arsdk/out/arsdk-native/build/libARController/obj/gen/Sources/ARCONTROLLER_Feature.c.o
                0x0000000000064f00                ARCONTROLLER_FEATURE_Powerup_SendMediaStreamingVideoEnable
 *fill*         0x0000000000064fac        0x4 
 .text.ARCONTROLLER_FEATURE_Powerup_SendVideoSettingsAutorecord
                0x0000000000064fb0       0xac /home/sunho/bebop_ws/devel/arsdk/out/arsdk-native/build/libARController/obj/gen/Sources/ARCONTROLLER_Feature.c.o
                0x0000000000064fb0                ARCONTROLLER_FEATURE_Powerup_SendVideoSettingsAutorecord
 *fill*         0x000000000006505c        0x4 
 .text.ARCONTROLLER_FEATURE_Powerup_SendVideoSettingsVideoMode
                0x0000000000065060       0xac /home/sunho/bebop_ws/devel/arsdk/out/arsdk-native/build/libARController/obj/gen/Sources/ARCONTROLLER_Feature.c.o
                0x0000000000065060                ARCONTROLLER_FEATURE_Powerup_SendVideoSettingsVideoMode
 *fill*         0x000000000006510c        0x4 
 .text.ARCONTROLLER_FEATURE_Powerup_SendSoundsBuzz
                0x0000000000065110       0xac /home/sunho/bebop_ws/devel/arsdk/out/arsdk-native/build/libARController/obj/gen/Sources/ARCONTROLLER_Feature.c.o
                0x0000000000065110                ARCONTROLLER_FEATURE_Powerup_SendSoundsBuzz
 *fill*         0x00000000000651bc        0x4 
 .text.ARCONTROLLER_FEATURE_Pro_SendProBoughtFeatures
                0x00000000000651c0       0xa9 /home/sunho/bebop_ws/devel/arsdk/out/arsdk-native/build/libARController/obj/gen/Sources/ARCONTROLLER_Feature.c.o
                0x00000000000651c0                ARCONTROLLER_FEATURE_Pro_SendProBoughtFeatures
 *fill*         0x0000000000065269        0x7 
 .text.ARCONTROLLER_FEATURE_Pro_SendProResponse
                0x0000000000065270       0xb2 /home/sunho/bebop_ws/devel/arsdk/out/arsdk-native/build/libARController/obj/gen/Sources/ARCONTROLLER_Feature.c.o
                0x0000000000065270                ARCONTROLLER_FEATURE_Pro_SendProResponse
 *fill*         0x0000000000065322        0xe 
 .text.ARCONTROLLER_FEATURE_Pro_SendProActivateFeatures
                0x0000000000065330       0xa9 /home/sunho/bebop_ws/devel/arsdk/out/arsdk-native/build/libARController/obj/gen/Sources/ARCONTROLLER_Feature.c.o
                0x0000000000065330                ARCONTROLLER_FEATURE_Pro_SendProActivateFeatures
 *fill*         0x00000000000653d9        0x7 
 .text.ARCONTROLLER_FEATURE_Rc_SendMonitorChannels
                0x00000000000653e0       0xa9 /home/sunho/bebop_ws/devel/arsdk/out/arsdk-native/build/libARController/obj/gen/Sources/ARCONTROLLER_Feature.c.o
                0x00000000000653e0                ARCONTROLLER_FEATURE_Rc_SendMonitorChannels
 *fill*         0x0000000000065489        0x7 
 .text.ARCONTROLLER_FEATURE_Rc_SendStartCalibration
                0x0000000000065490       0xaa /home/sunho/bebop_ws/devel/arsdk/out/arsdk-native/build/libARController/obj/gen/Sources/ARCONTROLLER_Feature.c.o
                0x0000000000065490                ARCONTROLLER_FEATURE_Rc_SendStartCalibration
 *fill*         0x000000000006553a        0x6 
 .text.ARCONTROLLER_FEATURE_Rc_SendInvertChannel
                0x0000000000065540       0xb2 /home/sunho/bebop_ws/devel/arsdk/out/arsdk-native/build/libARController/obj/gen/Sources/ARCONTROLLER_Feature.c.o
                0x0000000000065540                ARCONTROLLER_FEATURE_Rc_SendInvertChannel
 *fill*         0x00000000000655f2        0xe 
 .text.ARCONTROLLER_FEATURE_Rc_SendAbortCalibration
                0x0000000000065600       0xa9 /home/sunho/bebop_ws/devel/arsdk/out/arsdk-native/build/libARController/obj/gen/Sources/ARCONTROLLER_Feature.c.o
                0x0000000000065600                ARCONTROLLER_FEATURE_Rc_SendAbortCalibration
 *fill*         0x00000000000656a9        0x7 
 .text.ARCONTROLLER_FEATURE_Rc_SendResetCalibration
                0x00000000000656b0       0xa9 /home/sunho/bebop_ws/devel/arsdk/out/arsdk-native/build/libARController/obj/gen/Sources/ARCONTROLLER_Feature.c.o
                0x00000000000656b0                ARCONTROLLER_FEATURE_Rc_SendResetCalibration
 *fill*         0x0000000000065759        0x7 
 .text.ARCONTROLLER_FEATURE_SkyController_SendWifiRequestWifiList
                0x0000000000065760       0xac /home/sunho/bebop_ws/devel/arsdk/out/arsdk-native/build/libARController/obj/gen/Sources/ARCONTROLLER_Feature.c.o
                0x0000000000065760                ARCONTROLLER_FEATURE_SkyController_SendWifiRequestWifiList
 *fill*         0x000000000006580c        0x4 
 .text.ARCONTROLLER_FEATURE_SkyController_SendWifiRequestCurrentWifi
                0x0000000000065810       0xac /home/sunho/bebop_ws/devel/arsdk/out/arsdk-native/build/libARController/obj/gen/Sources/ARCONTROLLER_Feature.c.o
                0x0000000000065810                ARCONTROLLER_FEATURE_SkyController_SendWifiRequestCurrentWifi
 *fill*         0x00000000000658bc        0x4 
 .text.ARCONTROLLER_FEATURE_SkyController_SendWifiConnectToWifi
                0x00000000000658c0       0xb5 /home/sunho/bebop_ws/devel/arsdk/out/arsdk-native/build/libARController/obj/gen/Sources/ARCONTROLLER_Feature.c.o
                0x00000000000658c0                ARCONTROLLER_FEATURE_SkyController_SendWifiConnectToWifi
 *fill*         0x0000000000065975        0xb 
 .text.ARCONTROLLER_FEATURE_SkyController_SendWifiForgetWifi
                0x0000000000065980       0xac /home/sunho/bebop_ws/devel/arsdk/out/arsdk-native/build/libARController/obj/gen/Sources/ARCONTROLLER_Feature.c.o
                0x0000000000065980                ARCONTROLLER_FEATURE_SkyController_SendWifiForgetWifi
 *fill*         0x0000000000065a2c        0x4 
 .text.ARCONTROLLER_FEATURE_SkyController_SendWifiWifiAuthChannel
                0x0000000000065a30       0xac /home/sunho/bebop_ws/devel/arsdk/out/arsdk-native/build/libARController/obj/gen/Sources/ARCONTROLLER_Feature.c.o
                0x0000000000065a30                ARCONTROLLER_FEATURE_SkyController_SendWifiWifiAuthChannel
 *fill*         0x0000000000065adc        0x4 
 .text.ARCONTROLLER_FEATURE_SkyController_SendDeviceRequestDeviceList
                0x0000000000065ae0       0xac /home/sunho/bebop_ws/devel/arsdk/out/arsdk-native/build/libARController/obj/gen/Sources/ARCONTROLLER_Feature.c.o
                0x0000000000065ae0                ARCONTROLLER_FEATURE_SkyController_SendDeviceRequestDeviceList
 *fill*         0x0000000000065b8c        0x4 
 .text.ARCONTROLLER_FEATURE_SkyController_SendDeviceRequestCurrentDevice
                0x0000000000065b90       0xac /home/sunho/bebop_ws/devel/arsdk/out/arsdk-native/build/libARController/obj/gen/Sources/ARCONTROLLER_Feature.c.o
                0x0000000000065b90                ARCONTROLLER_FEATURE_SkyController_SendDeviceRequestCurrentDevice
 *fill*         0x0000000000065c3c        0x4 
 .text.ARCONTROLLER_FEATURE_SkyController_SendDeviceConnectToDevice
                0x0000000000065c40       0xac /home/sunho/bebop_ws/devel/arsdk/out/arsdk-native/build/libARController/obj/gen/Sources/ARCONTROLLER_Feature.c.o
                0x0000000000065c40                ARCONTROLLER_FEATURE_SkyController_SendDeviceConnectToDevice
 *fill*         0x0000000000065cec        0x4 
 .text.ARCONTROLLER_FEATURE_SkyController_SendSettingsAllSettings
                0x0000000000065cf0       0xaf /home/sunho/bebop_ws/devel/arsdk/out/arsdk-native/build/libARController/obj/gen/Sources/ARCONTROLLER_Feature.c.o
                0x0000000000065cf0                ARCONTROLLER_FEATURE_SkyController_SendSettingsAllSettings
 *fill*         0x0000000000065d9f        0x1 
 .text.ARCONTROLLER_FEATURE_SkyController_SendSettingsReset
                0x0000000000065da0       0xac /home/sunho/bebop_ws/devel/arsdk/out/arsdk-native/build/libARController/obj/gen/Sources/ARCONTROLLER_Feature.c.o
                0x0000000000065da0                ARCONTROLLER_FEATURE_SkyController_SendSettingsReset
 *fill*         0x0000000000065e4c        0x4 
 .text.ARCONTROLLER_FEATURE_SkyController_SendCommonAllStates
                0x0000000000065e50       0xaf /home/sunho/bebop_ws/devel/arsdk/out/arsdk-native/build/libARController/obj/gen/Sources/ARCONTROLLER_Feature.c.o
                0x0000000000065e50                ARCONTROLLER_FEATURE_SkyController_SendCommonAllStates
 *fill*         0x0000000000065eff        0x1 
 .text.ARCONTROLLER_FEATURE_SkyController_SendAccessPointSettingsAccessPointSSID
                0x0000000000065f00       0xac /home/sunho/bebop_ws/devel/arsdk/out/arsdk-native/build/libARController/obj/gen/Sources/ARCONTROLLER_Feature.c.o
                0x0000000000065f00                ARCONTROLLER_FEATURE_SkyController_SendAccessPointSettingsAccessPointSSID
 *fill*         0x0000000000065fac        0x4 
 .text.ARCONTROLLER_FEATURE_SkyController_SendAccessPointSettingsAccessPointChannel
                0x0000000000065fb0       0xac /home/sunho/bebop_ws/devel/arsdk/out/arsdk-native/build/libARController/obj/gen/Sources/ARCONTROLLER_Feature.c.o
                0x0000000000065fb0                ARCONTROLLER_FEATURE_SkyController_SendAccessPointSettingsAccessPointChannel
 *fill*         0x000000000006605c        0x4 
 .text.ARCONTROLLER_FEATURE_SkyController_SendAccessPointSettingsWifiSelection
                0x0000000000066060       0xb5 /home/sunho/bebop_ws/devel/arsdk/out/arsdk-native/build/libARController/obj/gen/Sources/ARCONTROLLER_Feature.c.o
                0x0000000000066060                ARCONTROLLER_FEATURE_SkyController_SendAccessPointSettingsWifiSelection
 *fill*         0x0000000000066115        0xb 
 .text.ARCONTROLLER_FEATURE_SkyController_SendCameraResetOrientation
                0x0000000000066120       0xac /home/sunho/bebop_ws/devel/arsdk/out/arsdk-native/build/libARController/obj/gen/Sources/ARCONTROLLER_Feature.c.o
                0x0000000000066120                ARCONTROLLER_FEATURE_SkyController_SendCameraResetOrientation
 *fill*         0x00000000000661cc        0x4 
 .text.ARCONTROLLER_FEATURE_SkyController_SendGamepadInfosGetGamepadControls
                0x00000000000661d0       0xac /home/sunho/bebop_ws/devel/arsdk/out/arsdk-native/build/libARController/obj/gen/Sources/ARCONTROLLER_Feature.c.o
                0x00000000000661d0                ARCONTROLLER_FEATURE_SkyController_SendGamepadInfosGetGamepadControls
 *fill*         0x000000000006627c        0x4 
 .text.ARCONTROLLER_FEATURE_SkyController_SendButtonMappingsGetCurrentButtonMappings
                0x0000000000066280       0xac /home/sunho/bebop_ws/devel/arsdk/out/arsdk-native/build/libARController/obj/gen/Sources/ARCONTROLLER_Feature.c.o
                0x0000000000066280                ARCONTROLLER_FEATURE_SkyController_SendButtonMappingsGetCurrentButtonMappings
 *fill*         0x000000000006632c        0x4 
 .text.ARCONTROLLER_FEATURE_SkyController_SendButtonMappingsGetAvailableButtonMappings
                0x0000000000066330       0xac /home/sunho/bebop_ws/devel/arsdk/out/arsdk-native/build/libARController/obj/gen/Sources/ARCONTROLLER_Feature.c.o
                0x0000000000066330                ARCONTROLLER_FEATURE_SkyController_SendButtonMappingsGetAvailableButtonMappings
 *fill*         0x00000000000663dc        0x4 
 .text.ARCONTROLLER_FEATURE_SkyController_SendButtonMappingsSetButtonMapping
                0x00000000000663e0       0xad /home/sunho/bebop_ws/devel/arsdk/out/arsdk-native/build/libARController/obj/gen/Sources/ARCONTROLLER_Feature.c.o
                0x00000000000663e0                ARCONTROLLER_FEATURE_SkyController_SendButtonMappingsSetButtonMapping
 *fill*         0x000000000006648d        0x3 
 .text.ARCONTROLLER_FEATURE_SkyController_SendButtonMappingsDefaultButtonMapping
                0x0000000000066490       0xac /home/sunho/bebop_ws/devel/arsdk/out/arsdk-native/build/libARController/obj/gen/Sources/ARCONTROLLER_Feature.c.o
                0x0000000000066490                ARCONTROLLER_FEATURE_SkyController_SendButtonMappingsDefaultButtonMapping
 *fill*         0x000000000006653c        0x4 
 .text.ARCONTROLLER_FEATURE_SkyController_SendAxisMappingsGetCurrentAxisMappings
                0x0000000000066540       0xac /home/sunho/bebop_ws/devel/arsdk/out/arsdk-native/build/libARController/obj/gen/Sources/ARCONTROLLER_Feature.c.o
                0x0000000000066540                ARCONTROLLER_FEATURE_SkyController_SendAxisMappingsGetCurrentAxisMappings
 *fill*         0x00000000000665ec        0x4 
 .text.ARCONTROLLER_FEATURE_SkyController_SendAxisMappingsGetAvailableAxisMappings
                0x00000000000665f0       0xac /home/sunho/bebop_ws/devel/arsdk/out/arsdk-native/build/libARController/obj/gen/Sources/ARCONTROLLER_Feature.c.o
                0x00000000000665f0                ARCONTROLLER_FEATURE_SkyController_SendAxisMappingsGetAvailableAxisMappings
 *fill*         0x000000000006669c        0x4 
 .text.ARCONTROLLER_FEATURE_SkyController_SendAxisMappingsSetAxisMapping
                0x00000000000666a0       0xad /home/sunho/bebop_ws/devel/arsdk/out/arsdk-native/build/libARController/obj/gen/Sources/ARCONTROLLER_Feature.c.o
                0x00000000000666a0                ARCONTROLLER_FEATURE_SkyController_SendAxisMappingsSetAxisMapping
 *fill*         0x000000000006674d        0x3 
 .text.ARCONTROLLER_FEATURE_SkyController_SendAxisMappingsDefaultAxisMapping
                0x0000000000066750       0xac /home/sunho/bebop_ws/devel/arsdk/out/arsdk-native/build/libARController/obj/gen/Sources/ARCONTROLLER_Feature.c.o
                0x0000000000066750                ARCONTROLLER_FEATURE_SkyController_SendAxisMappingsDefaultAxisMapping
 *fill*         0x00000000000667fc        0x4 
 .text.ARCONTROLLER_FEATURE_SkyController_SendAxisFiltersGetCurrentAxisFilters
                0x0000000000066800       0xac /home/sunho/bebop_ws/devel/arsdk/out/arsdk-native/build/libARController/obj/gen/Sources/ARCONTROLLER_Feature.c.o
                0x0000000000066800                ARCONTROLLER_FEATURE_SkyController_SendAxisFiltersGetCurrentAxisFilters
 *fill*         0x00000000000668ac        0x4 
 .text.ARCONTROLLER_FEATURE_SkyController_SendAxisFiltersGetPresetAxisFilters
                0x00000000000668b0       0xac /home/sunho/bebop_ws/devel/arsdk/out/arsdk-native/build/libARController/obj/gen/Sources/ARCONTROLLER_Feature.c.o
                0x00000000000668b0                ARCONTROLLER_FEATURE_SkyController_SendAxisFiltersGetPresetAxisFilters
 *fill*         0x000000000006695c        0x4 
 .text.ARCONTROLLER_FEATURE_SkyController_SendAxisFiltersSetAxisFilter
                0x0000000000066960       0xad /home/sunho/bebop_ws/devel/arsdk/out/arsdk-native/build/libARController/obj/gen/Sources/ARCONTROLLER_Feature.c.o
                0x0000000000066960                ARCONTROLLER_FEATURE_SkyController_SendAxisFiltersSetAxisFilter
 *fill*         0x0000000000066a0d        0x3 
 .text.ARCONTROLLER_FEATURE_SkyController_SendAxisFiltersDefaultAxisFilters
                0x0000000000066a10       0xac /home/sunho/bebop_ws/devel/arsdk/out/arsdk-native/build/libARController/obj/gen/Sources/ARCONTROLLER_Feature.c.o
                0x0000000000066a10                ARCONTROLLER_FEATURE_SkyController_SendAxisFiltersDefaultAxisFilters
 *fill*         0x0000000000066abc        0x4 
 .text.ARCONTROLLER_FEATURE_SkyController_SendCoPilotingSetPilotingSource
                0x0000000000066ac0       0xac /home/sunho/bebop_ws/devel/arsdk/out/arsdk-native/build/libARController/obj/gen/Sources/ARCONTROLLER_Feature.c.o
                0x0000000000066ac0                ARCONTROLLER_FEATURE_SkyController_SendCoPilotingSetPilotingSource
 *fill*         0x0000000000066b6c        0x4 
 .text.ARCONTROLLER_FEATURE_SkyController_SendCalibrationEnableMagnetoCalibrationQualityUpdates
                0x0000000000066b70       0xac /home/sunho/bebop_ws/devel/arsdk/out/arsdk-native/build/libARController/obj/gen/Sources/ARCONTROLLER_Feature.c.o
                0x0000000000066b70                ARCONTROLLER_FEATURE_SkyController_SendCalibrationEnableMagnetoCalibrationQualityUpdates
 *fill*         0x0000000000066c1c        0x4 
 .text.ARCONTROLLER_FEATURE_SkyController_SendFactoryReset
                0x0000000000066c20       0xac /home/sunho/bebop_ws/devel/arsdk/out/arsdk-native/build/libARController/obj/gen/Sources/ARCONTROLLER_Feature.c.o
                0x0000000000066c20                ARCONTROLLER_FEATURE_SkyController_SendFactoryReset
 *fill*         0x0000000000066ccc        0x4 
 .text.ARCONTROLLER_FEATURE_UnknownFeature1_SendGeographicRun
                0x0000000000066cd0       0xc2 /home/sunho/bebop_ws/devel/arsdk/out/arsdk-native/build/libARController/obj/gen/Sources/ARCONTROLLER_Feature.c.o
                0x0000000000066cd0                ARCONTROLLER_FEATURE_UnknownFeature1_SendGeographicRun
 *fill*         0x0000000000066d92        0xe 
 .text.ARCONTROLLER_FEATURE_UnknownFeature1_SendRelativeRun
                0x0000000000066da0       0xc2 /home/sunho/bebop_ws/devel/arsdk/out/arsdk-native/build/libARController/obj/gen/Sources/ARCONTROLLER_Feature.c.o
                0x0000000000066da0                ARCONTROLLER_FEATURE_UnknownFeature1_SendRelativeRun
 *fill*         0x0000000000066e62        0xe 
 .text.ARCONTROLLER_FEATURE_UnknownFeature1_SendLookAtRun
                0x0000000000066e70       0xa9 /home/sunho/bebop_ws/devel/arsdk/out/arsdk-native/build/libARController/obj/gen/Sources/ARCONTROLLER_Feature.c.o
                0x0000000000066e70                ARCONTROLLER_FEATURE_UnknownFeature1_SendLookAtRun
 *fill*         0x0000000000066f19        0x7 
 .text.ARCONTROLLER_FEATURE_UnknownFeature1_SendSpiralAnimRun
                0x0000000000066f20       0xc2 /home/sunho/bebop_ws/devel/arsdk/out/arsdk-native/build/libARController/obj/gen/Sources/ARCONTROLLER_Feature.c.o
                0x0000000000066f20                ARCONTROLLER_FEATURE_UnknownFeature1_SendSpiralAnimRun
 *fill*         0x0000000000066fe2        0xe 
 .text.ARCONTROLLER_FEATURE_UnknownFeature1_SendSwingAnimRun
                0x0000000000066ff0       0xba /home/sunho/bebop_ws/devel/arsdk/out/arsdk-native/build/libARController/obj/gen/Sources/ARCONTROLLER_Feature.c.o
                0x0000000000066ff0                ARCONTROLLER_FEATURE_UnknownFeature1_SendSwingAnimRun
 *fill*         0x00000000000670aa        0x6 
 .text.ARCONTROLLER_FEATURE_UnknownFeature1_SendBoomerangAnimRun
                0x00000000000670b0       0xba /home/sunho/bebop_ws/devel/arsdk/out/arsdk-native/build/libARController/obj/gen/Sources/ARCONTROLLER_Feature.c.o
                0x00000000000670b0                ARCONTROLLER_FEATURE_UnknownFeature1_SendBoomerangAnimRun
 *fill*         0x000000000006716a        0x6 
 .text.ARCONTROLLER_FEATURE_UnknownFeature1_SendCandleAnimRun
                0x0000000000067170       0xba /home/sunho/bebop_ws/devel/arsdk/out/arsdk-native/build/libARController/obj/gen/Sources/ARCONTROLLER_Feature.c.o
                0x0000000000067170                ARCONTROLLER_FEATURE_UnknownFeature1_SendCandleAnimRun
 *fill*         0x000000000006722a        0x6 
 .text.ARCONTROLLER_FEATURE_UnknownFeature1_SendDollySlideAnimRun
                0x0000000000067230       0xc2 /home/sunho/bebop_ws/devel/arsdk/out/arsdk-native/build/libARController/obj/gen/Sources/ARCONTROLLER_Feature.c.o
                0x0000000000067230                ARCONTROLLER_FEATURE_UnknownFeature1_SendDollySlideAnimRun
 *fill*         0x00000000000672f2        0xe 
 .text.ARCONTROLLER_FEATURE_UnknownFeature1_SendUserFramingPosition
                0x0000000000067300       0xba /home/sunho/bebop_ws/devel/arsdk/out/arsdk-native/build/libARController/obj/gen/Sources/ARCONTROLLER_Feature.c.o
                0x0000000000067300                ARCONTROLLER_FEATURE_UnknownFeature1_SendUserFramingPosition
 *fill*         0x00000000000673ba        0x6 
 .text.ARCONTROLLER_FEATURE_UnknownFeature1_SendUserGPSData
                0x00000000000673c0       0xb9 /home/sunho/bebop_ws/devel/arsdk/out/arsdk-native/build/libARController/obj/gen/Sources/ARCONTROLLER_Feature.c.o
                0x00000000000673c0                ARCONTROLLER_FEATURE_UnknownFeature1_SendUserGPSData
 *fill*         0x0000000000067479        0x7 
 .text.ARCONTROLLER_FEATURE_UnknownFeature1_SendUserBaroData
                0x0000000000067480       0xa9 /home/sunho/bebop_ws/devel/arsdk/out/arsdk-native/build/libARController/obj/gen/Sources/ARCONTROLLER_Feature.c.o
                0x0000000000067480                ARCONTROLLER_FEATURE_UnknownFeature1_SendUserBaroData
 *fill*         0x0000000000067529        0x7 
 .text.ARCONTROLLER_FEATURE_UnknownFeature1_SendLynxDetection
                0x0000000000067530       0xba /home/sunho/bebop_ws/devel/arsdk/out/arsdk-native/build/libARController/obj/gen/Sources/ARCONTROLLER_Feature.c.o
                0x0000000000067530                ARCONTROLLER_FEATURE_UnknownFeature1_SendLynxDetection
 *fill*         0x00000000000675ea        0x6 
 .text.ARCONTROLLER_FEATURE_Wifi_SendScan
                0x00000000000675f0       0xa9 /home/sunho/bebop_ws/devel/arsdk/out/arsdk-native/build/libARController/obj/gen/Sources/ARCONTROLLER_Feature.c.o
                0x00000000000675f0                ARCONTROLLER_FEATURE_Wifi_SendScan
 *fill*         0x0000000000067699        0x7 
 .text.ARCONTROLLER_FEATURE_Wifi_SendUpdateAuthorizedChannels
                0x00000000000676a0       0xa9 /home/sunho/bebop_ws/devel/arsdk/out/arsdk-native/build/libARController/obj/gen/Sources/ARCONTROLLER_Feature.c.o
                0x00000000000676a0                ARCONTROLLER_FEATURE_Wifi_SendUpdateAuthorizedChannels
 *fill*         0x0000000000067749        0x7 
 .text.ARCONTROLLER_FEATURE_Wifi_SendSetApChannel
                0x0000000000067750       0xb2 /home/sunho/bebop_ws/devel/arsdk/out/arsdk-native/build/libARController/obj/gen/Sources/ARCONTROLLER_Feature.c.o
                0x0000000000067750                ARCONTROLLER_FEATURE_Wifi_SendSetApChannel
 *fill*         0x0000000000067802        0xe 
 .text.ARCONTROLLER_FEATURE_Wifi_SendSetSecurity
                0x0000000000067810       0xb2 /home/sunho/bebop_ws/devel/arsdk/out/arsdk-native/build/libARController/obj/gen/Sources/ARCONTROLLER_Feature.c.o
                0x0000000000067810                ARCONTROLLER_FEATURE_Wifi_SendSetSecurity
 *fill*         0x00000000000678c2        0xe 
 .text.ARCONTROLLER_FEATURE_Wifi_SendSetCountry
                0x00000000000678d0       0xaa /home/sunho/bebop_ws/devel/arsdk/out/arsdk-native/build/libARController/obj/gen/Sources/ARCONTROLLER_Feature.c.o
                0x00000000000678d0                ARCONTROLLER_FEATURE_Wifi_SendSetCountry
 *fill*         0x000000000006797a        0x6 
 .text.ARCONTROLLER_FEATURE_Wifi_SendSetEnvironment
                0x0000000000067980       0xa9 /home/sunho/bebop_ws/devel/arsdk/out/arsdk-native/build/libARController/obj/gen/Sources/ARCONTROLLER_Feature.c.o
                0x0000000000067980                ARCONTROLLER_FEATURE_Wifi_SendSetEnvironment
 *fill*         0x0000000000067a29        0x7 
 .text.ARCONTROLLER_FEATURE_ARDrone3_SetPilotingPCMD
                0x0000000000067a30       0x76 /home/sunho/bebop_ws/devel/arsdk/out/arsdk-native/build/libARController/obj/gen/Sources/ARCONTROLLER_Feature.c.o
                0x0000000000067a30                ARCONTROLLER_FEATURE_ARDrone3_SetPilotingPCMD
 *fill*         0x0000000000067aa6        0xa 
 .text.ARCONTROLLER_FEATURE_ARDrone3_SetCameraOrientation
                0x0000000000067ab0       0x36 /home/sunho/bebop_ws/devel/arsdk/out/arsdk-native/build/libARController/obj/gen/Sources/ARCONTROLLER_Feature.c.o
                0x0000000000067ab0                ARCONTROLLER_FEATURE_ARDrone3_SetCameraOrientation
 *fill*         0x0000000000067ae6        0xa 
 .text.ARCONTROLLER_FEATURE_JumpingSumo_SetPilotingPCMD
                0x0000000000067af0       0x46 /home/sunho/bebop_ws/devel/arsdk/out/arsdk-native/build/libARController/obj/gen/Sources/ARCONTROLLER_Feature.c.o
                0x0000000000067af0                ARCONTROLLER_FEATURE_JumpingSumo_SetPilotingPCMD
 *fill*         0x0000000000067b36        0xa 
 .text.ARCONTROLLER_FEATURE_MiniDrone_SetPilotingPCMD
                0x0000000000067b40       0x76 /home/sunho/bebop_ws/devel/arsdk/out/arsdk-native/build/libARController/obj/gen/Sources/ARCONTROLLER_Feature.c.o
                0x0000000000067b40                ARCONTROLLER_FEATURE_MiniDrone_SetPilotingPCMD
 *fill*         0x0000000000067bb6        0xa 
 .text.ARCONTROLLER_FEATURE_Powerup_SetPilotingPCMD
                0x0000000000067bc0       0x46 /home/sunho/bebop_ws/devel/arsdk/out/arsdk-native/build/libARController/obj/gen/Sources/ARCONTROLLER_Feature.c.o
                0x0000000000067bc0                ARCONTROLLER_FEATURE_Powerup_SetPilotingPCMD
 *fill*         0x0000000000067c06        0xa 
 .text.ARCONTROLLER_Feature_NewCommandsElement
                0x0000000000067c10       0x39 /home/sunho/bebop_ws/devel/arsdk/out/arsdk-native/build/libARController/obj/gen/Sources/ARCONTROLLER_Feature.c.o
                0x0000000000067c10                ARCONTROLLER_Feature_NewCommandsElement
 *fill*         0x0000000000067c49        0x7 
 .text.ARCONTROLLER_Feature_DeleteArgumentsDictionary
                0x0000000000067c50      0x1a8 /home/sunho/bebop_ws/devel/arsdk/out/arsdk-native/build/libARController/obj/gen/Sources/ARCONTROLLER_Feature.c.o
                0x0000000000067c50                ARCONTROLLER_Feature_DeleteArgumentsDictionary
 *fill*         0x0000000000067df8        0x8 
 .text.ARCONTROLLER_Feature_DeleteCommandsDictionary
                0x0000000000067e00      0x2e8 /home/sunho/bebop_ws/devel/arsdk/out/arsdk-native/build/libARController/obj/gen/Sources/ARCONTROLLER_Feature.c.o
                0x0000000000067e00                ARCONTROLLER_Feature_DeleteCommandsDictionary
 *fill*         0x00000000000680e8        0x8 
 .text.ARCONTROLLER_Feature_DeleteElement
                0x00000000000680f0       0x4f /home/sunho/bebop_ws/devel/arsdk/out/arsdk-native/build/libARController/obj/gen/Sources/ARCONTROLLER_Feature.c.o
                0x00000000000680f0                ARCONTROLLER_Feature_DeleteElement
 *fill*         0x000000000006813f        0x1 
 .text.ARCONTROLLER_Feature_DeleteCommandsElement
                0x0000000000068140      0x1d7 /home/sunho/bebop_ws/devel/arsdk/out/arsdk-native/build/libARController/obj/gen/Sources/ARCONTROLLER_Feature.c.o
                0x0000000000068140                ARCONTROLLER_Feature_DeleteCommandsElement
 *fill*         0x0000000000068317        0x9 
 .text.ARCONTROLLER_Feature_AddElement
                0x0000000000068320     0x1316 /home/sunho/bebop_ws/devel/arsdk/out/arsdk-native/build/libARController/obj/gen/Sources/ARCONTROLLER_Feature.c.o
                0x0000000000068320                ARCONTROLLER_Feature_AddElement
 *fill*         0x0000000000069636        0xa 
 .text.ARCONTROLLER_FEATURE_Generic_Delete
                0x0000000000069640       0x79 /home/sunho/bebop_ws/devel/arsdk/out/arsdk-native/build/libARController/obj/gen/Sources/ARCONTROLLER_Feature.c.o
                0x0000000000069640                ARCONTROLLER_FEATURE_Generic_Delete
 *fill*         0x00000000000696b9        0x7 
 .text.ARCONTROLLER_FEATURE_Generic_New
                0x00000000000696c0       0x9c /home/sunho/bebop_ws/devel/arsdk/out/arsdk-native/build/libARController/obj/gen/Sources/ARCONTROLLER_Feature.c.o
                0x00000000000696c0                ARCONTROLLER_FEATURE_Generic_New
 *fill*         0x000000000006975c        0x4 
 .text.ARCONTROLLER_FEATURE_Generic_GetDictionary
                0x0000000000069760       0x39 /home/sunho/bebop_ws/devel/arsdk/out/arsdk-native/build/libARController/obj/gen/Sources/ARCONTROLLER_Feature.c.o
                0x0000000000069760                ARCONTROLLER_FEATURE_Generic_GetDictionary
 *fill*         0x0000000000069799        0x7 
 .text.ARCONTROLLER_FEATURE_Generic_AddCallback
                0x00000000000697a0       0x26 /home/sunho/bebop_ws/devel/arsdk/out/arsdk-native/build/libARController/obj/gen/Sources/ARCONTROLLER_Feature.c.o
                0x00000000000697a0                ARCONTROLLER_FEATURE_Generic_AddCallback
 *fill*         0x00000000000697c6        0xa 
 .text.ARCONTROLLER_FEATURE_Generic_RemoveCallback
                0x00000000000697d0       0x26 /home/sunho/bebop_ws/devel/arsdk/out/arsdk-native/build/libARController/obj/gen/Sources/ARCONTROLLER_Feature.c.o
                0x00000000000697d0                ARCONTROLLER_FEATURE_Generic_RemoveCallback
 *fill*         0x00000000000697f6        0xa 
 .text.ARCONTROLLER_FEATURE_Generic_RegisterARCommands
                0x0000000000069800       0x2e /home/sunho/bebop_ws/devel/arsdk/out/arsdk-native/build/libARController/obj/gen/Sources/ARCONTROLLER_Feature.c.o
                0x0000000000069800                ARCONTROLLER_FEATURE_Generic_RegisterARCommands
 *fill*         0x000000000006982e        0x2 
 .text.ARCONTROLLER_FEATURE_Generic_UnregisterARCommands
                0x0000000000069830       0x2e /home/sunho/bebop_ws/devel/arsdk/out/arsdk-native/build/libARController/obj/gen/Sources/ARCONTROLLER_Feature.c.o
                0x0000000000069830                ARCONTROLLER_FEATURE_Generic_UnregisterARCommands
 *fill*         0x000000000006985e        0x2 
 .text.ARCONTROLLER_FEATURE_Generic_SetNetworkController
                0x0000000000069860       0x1e /home/sunho/bebop_ws/devel/arsdk/out/arsdk-native/build/libARController/obj/gen/Sources/ARCONTROLLER_Feature.c.o
                0x0000000000069860                ARCONTROLLER_FEATURE_Generic_SetNetworkController
 *fill*         0x000000000006987e        0x2 
 .text.ARCONTROLLER_Generic_GetCommandElements
                0x0000000000069880      0x190 /home/sunho/bebop_ws/devel/arsdk/out/arsdk-native/build/libARController/obj/gen/Sources/ARCONTROLLER_Feature.c.o
                0x0000000000069880                ARCONTROLLER_Generic_GetCommandElements
 .text.ARCONTROLLER_FEATURE_ARDrone3_Delete
                0x0000000000069a10       0xeb /home/sunho/bebop_ws/devel/arsdk/out/arsdk-native/build/libARController/obj/gen/Sources/ARCONTROLLER_Feature.c.o
                0x0000000000069a10                ARCONTROLLER_FEATURE_ARDrone3_Delete
 *fill*         0x0000000000069afb        0x5 
 .text.ARCONTROLLER_FEATURE_ARDrone3_New
                0x0000000000069b00      0x48f /home/sunho/bebop_ws/devel/arsdk/out/arsdk-native/build/libARController/obj/gen/Sources/ARCONTROLLER_Feature.c.o
                0x0000000000069b00                ARCONTROLLER_FEATURE_ARDrone3_New
 *fill*         0x0000000000069f8f        0x1 
 .text.ARCONTROLLER_FEATURE_ARDrone3_GetDictionary
                0x0000000000069f90       0x39 /home/sunho/bebop_ws/devel/arsdk/out/arsdk-native/build/libARController/obj/gen/Sources/ARCONTROLLER_Feature.c.o
                0x0000000000069f90                ARCONTROLLER_FEATURE_ARDrone3_GetDictionary
 *fill*         0x0000000000069fc9        0x7 
 .text.ARCONTROLLER_FEATURE_ARDrone3_AddCallback
                0x0000000000069fd0       0x26 /home/sunho/bebop_ws/devel/arsdk/out/arsdk-native/build/libARController/obj/gen/Sources/ARCONTROLLER_Feature.c.o
                0x0000000000069fd0                ARCONTROLLER_FEATURE_ARDrone3_AddCallback
 *fill*         0x0000000000069ff6        0xa 
 .text.ARCONTROLLER_FEATURE_ARDrone3_RemoveCallback
                0x000000000006a000       0x26 /home/sunho/bebop_ws/devel/arsdk/out/arsdk-native/build/libARController/obj/gen/Sources/ARCONTROLLER_Feature.c.o
                0x000000000006a000                ARCONTROLLER_FEATURE_ARDrone3_RemoveCallback
 *fill*         0x000000000006a026        0xa 
 .text.ARCONTROLLER_FEATURE_ARDrone3_RegisterARCommands
                0x000000000006a030      0x917 /home/sunho/bebop_ws/devel/arsdk/out/arsdk-native/build/libARController/obj/gen/Sources/ARCONTROLLER_Feature.c.o
                0x000000000006a030                ARCONTROLLER_FEATURE_ARDrone3_RegisterARCommands
 *fill*         0x000000000006a947        0x9 
 .text.ARCONTROLLER_FEATURE_ARDrone3_UnregisterARCommands
                0x000000000006a950      0x72f /home/sunho/bebop_ws/devel/arsdk/out/arsdk-native/build/libARController/obj/gen/Sources/ARCONTROLLER_Feature.c.o
                0x000000000006a950                ARCONTROLLER_FEATURE_ARDrone3_UnregisterARCommands
 *fill*         0x000000000006b07f        0x1 
 .text.ARCONTROLLER_ARDrone3_SendPilotingPCMDStruct
                0x000000000006b080      0x196 /home/sunho/bebop_ws/devel/arsdk/out/arsdk-native/build/libARController/obj/gen/Sources/ARCONTROLLER_Feature.c.o
                0x000000000006b080                ARCONTROLLER_ARDrone3_SendPilotingPCMDStruct
 *fill*         0x000000000006b216        0xa 
 .text.ARCONTROLLER_ARDrone3_SendCameraOrientationStruct
                0x000000000006b220      0x176 /home/sunho/bebop_ws/devel/arsdk/out/arsdk-native/build/libARController/obj/gen/Sources/ARCONTROLLER_Feature.c.o
                0x000000000006b220                ARCONTROLLER_ARDrone3_SendCameraOrientationStruct
 *fill*         0x000000000006b396        0xa 
 .text.ARCONTROLLER_ARDrone3_NewCmdElementMediaRecordStatePictureStateChanged
                0x000000000006b3a0      0xb28 /home/sunho/bebop_ws/devel/arsdk/out/arsdk-native/build/libARController/obj/gen/Sources/ARCONTROLLER_Feature.c.o
                0x000000000006b3a0                ARCONTROLLER_ARDrone3_NewCmdElementMediaRecordStatePictureStateChanged
 *fill*         0x000000000006bec8        0x8 
 .text.ARCONTROLLER_FEATURE_ARDrone3_MediaRecordStatePictureStateChangedCallback
                0x000000000006bed0      0x585 /home/sunho/bebop_ws/devel/arsdk/out/arsdk-native/build/libARController/obj/gen/Sources/ARCONTROLLER_Feature.c.o
                0x000000000006bed0                ARCONTROLLER_FEATURE_ARDrone3_MediaRecordStatePictureStateChangedCallback
 *fill*         0x000000000006c455        0xb 
 .text.ARCONTROLLER_ARDrone3_NewCmdElementMediaRecordStateVideoStateChanged
                0x000000000006c460      0xb28 /home/sunho/bebop_ws/devel/arsdk/out/arsdk-native/build/libARController/obj/gen/Sources/ARCONTROLLER_Feature.c.o
                0x000000000006c460                ARCONTROLLER_ARDrone3_NewCmdElementMediaRecordStateVideoStateChanged
 *fill*         0x000000000006cf88        0x8 
 .text.ARCONTROLLER_FEATURE_ARDrone3_MediaRecordStateVideoStateChangedCallback
                0x000000000006cf90      0x585 /home/sunho/bebop_ws/devel/arsdk/out/arsdk-native/build/libARController/obj/gen/Sources/ARCONTROLLER_Feature.c.o
                0x000000000006cf90                ARCONTROLLER_FEATURE_ARDrone3_MediaRecordStateVideoStateChangedCallback
 *fill*         0x000000000006d515        0xb 
 .text.ARCONTROLLER_ARDrone3_NewCmdElementMediaRecordStatePictureStateChangedV2
                0x000000000006d520      0xb28 /home/sunho/bebop_ws/devel/arsdk/out/arsdk-native/build/libARController/obj/gen/Sources/ARCONTROLLER_Feature.c.o
                0x000000000006d520                ARCONTROLLER_ARDrone3_NewCmdElementMediaRecordStatePictureStateChangedV2
 *fill*         0x000000000006e048        0x8 
 .text.ARCONTROLLER_FEATURE_ARDrone3_MediaRecordStatePictureStateChangedV2Callback
                0x000000000006e050      0x585 /home/sunho/bebop_ws/devel/arsdk/out/arsdk-native/build/libARController/obj/gen/Sources/ARCONTROLLER_Feature.c.o
                0x000000000006e050                ARCONTROLLER_FEATURE_ARDrone3_MediaRecordStatePictureStateChangedV2Callback
 *fill*         0x000000000006e5d5        0xb 
 .text.ARCONTROLLER_ARDrone3_NewCmdElementMediaRecordStateVideoStateChangedV2
                0x000000000006e5e0      0xb28 /home/sunho/bebop_ws/devel/arsdk/out/arsdk-native/build/libARController/obj/gen/Sources/ARCONTROLLER_Feature.c.o
                0x000000000006e5e0                ARCONTROLLER_ARDrone3_NewCmdElementMediaRecordStateVideoStateChangedV2
 *fill*         0x000000000006f108        0x8 
 .text.ARCONTROLLER_FEATURE_ARDrone3_MediaRecordStateVideoStateChangedV2Callback
                0x000000000006f110      0x585 /home/sunho/bebop_ws/devel/arsdk/out/arsdk-native/build/libARController/obj/gen/Sources/ARCONTROLLER_Feature.c.o
                0x000000000006f110                ARCONTROLLER_FEATURE_ARDrone3_MediaRecordStateVideoStateChangedV2Callback
 *fill*         0x000000000006f695        0xb 
 .text.ARCONTROLLER_ARDrone3_NewCmdElementMediaRecordStateVideoResolutionState
                0x000000000006f6a0      0xb28 /home/sunho/bebop_ws/devel/arsdk/out/arsdk-native/build/libARController/obj/gen/Sources/ARCONTROLLER_Feature.c.o
                0x000000000006f6a0                ARCONTROLLER_ARDrone3_NewCmdElementMediaRecordStateVideoResolutionState
 *fill*         0x00000000000701c8        0x8 
 .text.ARCONTROLLER_FEATURE_ARDrone3_MediaRecordStateVideoResolutionStateCallback
                0x00000000000701d0      0x585 /home/sunho/bebop_ws/devel/arsdk/out/arsdk-native/build/libARController/obj/gen/Sources/ARCONTROLLER_Feature.c.o
                0x00000000000701d0                ARCONTROLLER_FEATURE_ARDrone3_MediaRecordStateVideoResolutionStateCallback
 *fill*         0x0000000000070755        0xb 
 .text.ARCONTROLLER_ARDrone3_NewCmdElementMediaRecordEventPictureEventChanged
                0x0000000000070760      0xb28 /home/sunho/bebop_ws/devel/arsdk/out/arsdk-native/build/libARController/obj/gen/Sources/ARCONTROLLER_Feature.c.o
                0x0000000000070760                ARCONTROLLER_ARDrone3_NewCmdElementMediaRecordEventPictureEventChanged
 *fill*         0x0000000000071288        0x8 
 .text.ARCONTROLLER_FEATURE_ARDrone3_MediaRecordEventPictureEventChangedCallback
                0x0000000000071290      0x585 /home/sunho/bebop_ws/devel/arsdk/out/arsdk-native/build/libARController/obj/gen/Sources/ARCONTROLLER_Feature.c.o
                0x0000000000071290                ARCONTROLLER_FEATURE_ARDrone3_MediaRecordEventPictureEventChangedCallback
 *fill*         0x0000000000071815        0xb 
 .text.ARCONTROLLER_ARDrone3_NewCmdElementMediaRecordEventVideoEventChanged
                0x0000000000071820      0xb28 /home/sunho/bebop_ws/devel/arsdk/out/arsdk-native/build/libARController/obj/gen/Sources/ARCONTROLLER_Feature.c.o
                0x0000000000071820                ARCONTROLLER_ARDrone3_NewCmdElementMediaRecordEventVideoEventChanged
 *fill*         0x0000000000072348        0x8 
 .text.ARCONTROLLER_FEATURE_ARDrone3_MediaRecordEventVideoEventChangedCallback
                0x0000000000072350      0x585 /home/sunho/bebop_ws/devel/arsdk/out/arsdk-native/build/libARController/obj/gen/Sources/ARCONTROLLER_Feature.c.o
                0x0000000000072350                ARCONTROLLER_FEATURE_ARDrone3_MediaRecordEventVideoEventChangedCallback
 *fill*         0x00000000000728d5        0xb 
 .text.ARCONTROLLER_ARDrone3_NewCmdElementPilotingStateFlatTrimChanged
                0x00000000000728e0       0xc9 /home/sunho/bebop_ws/devel/arsdk/out/arsdk-native/build/libARController/obj/gen/Sources/ARCONTROLLER_Feature.c.o
                0x00000000000728e0                ARCONTROLLER_ARDrone3_NewCmdElementPilotingStateFlatTrimChanged
 *fill*         0x00000000000729a9        0x7 
 .text.ARCONTROLLER_FEATURE_ARDrone3_PilotingStateFlatTrimChangedCallback
                0x00000000000729b0      0x55d /home/sunho/bebop_ws/devel/arsdk/out/arsdk-native/build/libARController/obj/gen/Sources/ARCONTROLLER_Feature.c.o
                0x00000000000729b0                ARCONTROLLER_FEATURE_ARDrone3_PilotingStateFlatTrimChangedCallback
 *fill*         0x0000000000072f0d        0x3 
 .text.ARCONTROLLER_ARDrone3_NewCmdElementPilotingStateFlyingStateChanged
                0x0000000000072f10      0x5b8 /home/sunho/bebop_ws/devel/arsdk/out/arsdk-native/build/libARController/obj/gen/Sources/ARCONTROLLER_Feature.c.o
                0x0000000000072f10                ARCONTROLLER_ARDrone3_NewCmdElementPilotingStateFlyingStateChanged
 *fill*         0x00000000000734c8        0x8 
 .text.ARCONTROLLER_FEATURE_ARDrone3_PilotingStateFlyingStateChangedCallback
                0x00000000000734d0      0x565 /home/sunho/bebop_ws/devel/arsdk/out/arsdk-native/build/libARController/obj/gen/Sources/ARCONTROLLER_Feature.c.o
                0x00000000000734d0                ARCONTROLLER_FEATURE_ARDrone3_PilotingStateFlyingStateChangedCallback
 *fill*         0x0000000000073a35        0xb 
 .text.ARCONTROLLER_ARDrone3_NewCmdElementPilotingStateAlertStateChanged
                0x0000000000073a40      0x5b8 /home/sunho/bebop_ws/devel/arsdk/out/arsdk-native/build/libARController/obj/gen/Sources/ARCONTROLLER_Feature.c.o
                0x0000000000073a40                ARCONTROLLER_ARDrone3_NewCmdElementPilotingStateAlertStateChanged
 *fill*         0x0000000000073ff8        0x8 
 .text.ARCONTROLLER_FEATURE_ARDrone3_PilotingStateAlertStateChangedCallback
                0x0000000000074000      0x565 /home/sunho/bebop_ws/devel/arsdk/out/arsdk-native/build/libARController/obj/gen/Sources/ARCONTROLLER_Feature.c.o
                0x0000000000074000                ARCONTROLLER_FEATURE_ARDrone3_PilotingStateAlertStateChangedCallback
 *fill*         0x0000000000074565        0xb 
 .text.ARCONTROLLER_ARDrone3_NewCmdElementPilotingStateNavigateHomeStateChanged
                0x0000000000074570      0xb28 /home/sunho/bebop_ws/devel/arsdk/out/arsdk-native/build/libARController/obj/gen/Sources/ARCONTROLLER_Feature.c.o
                0x0000000000074570                ARCONTROLLER_ARDrone3_NewCmdElementPilotingStateNavigateHomeStateChanged
 *fill*         0x0000000000075098        0x8 
 .text.ARCONTROLLER_FEATURE_ARDrone3_PilotingStateNavigateHomeStateChangedCallback
                0x00000000000750a0      0x585 /home/sunho/bebop_ws/devel/arsdk/out/arsdk-native/build/libARController/obj/gen/Sources/ARCONTROLLER_Feature.c.o
                0x00000000000750a0                ARCONTROLLER_FEATURE_ARDrone3_PilotingStateNavigateHomeStateChangedCallback
 *fill*         0x0000000000075625        0xb 
 .text.ARCONTROLLER_ARDrone3_NewCmdElementPilotingStatePositionChanged
                0x0000000000075630      0xffc /home/sunho/bebop_ws/devel/arsdk/out/arsdk-native/build/libARController/obj/gen/Sources/ARCONTROLLER_Feature.c.o
                0x0000000000075630                ARCONTROLLER_ARDrone3_NewCmdElementPilotingStatePositionChanged
 *fill*         0x000000000007662c        0x4 
 .text.ARCONTROLLER_FEATURE_ARDrone3_PilotingStatePositionChangedCallback
                0x0000000000076630      0x57d /home/sunho/bebop_ws/devel/arsdk/out/arsdk-native/build/libARController/obj/gen/Sources/ARCONTROLLER_Feature.c.o
                0x0000000000076630                ARCONTROLLER_FEATURE_ARDrone3_PilotingStatePositionChangedCallback
 *fill*         0x0000000000076bad        0x3 
 .text.ARCONTROLLER_ARDrone3_NewCmdElementPilotingStateSpeedChanged
                0x0000000000076bb0      0xffc /home/sunho/bebop_ws/devel/arsdk/out/arsdk-native/build/libARController/obj/gen/Sources/ARCONTROLLER_Feature.c.o
                0x0000000000076bb0                ARCONTROLLER_ARDrone3_NewCmdElementPilotingStateSpeedChanged
 *fill*         0x0000000000077bac        0x4 
 .text.ARCONTROLLER_FEATURE_ARDrone3_PilotingStateSpeedChangedCallback
                0x0000000000077bb0      0x57d /home/sunho/bebop_ws/devel/arsdk/out/arsdk-native/build/libARController/obj/gen/Sources/ARCONTROLLER_Feature.c.o
                0x0000000000077bb0                ARCONTROLLER_FEATURE_ARDrone3_PilotingStateSpeedChangedCallback
 *fill*         0x000000000007812d        0x3 
 .text.ARCONTROLLER_ARDrone3_NewCmdElementPilotingStateAttitudeChanged
                0x0000000000078130      0xffc /home/sunho/bebop_ws/devel/arsdk/out/arsdk-native/build/libARController/obj/gen/Sources/ARCONTROLLER_Feature.c.o
                0x0000000000078130                ARCONTROLLER_ARDrone3_NewCmdElementPilotingStateAttitudeChanged
 *fill*         0x000000000007912c        0x4 
 .text.ARCONTROLLER_FEATURE_ARDrone3_PilotingStateAttitudeChangedCallback
                0x0000000000079130      0x57d /home/sunho/bebop_ws/devel/arsdk/out/arsdk-native/build/libARController/obj/gen/Sources/ARCONTROLLER_Feature.c.o
                0x0000000000079130                ARCONTROLLER_FEATURE_ARDrone3_PilotingStateAttitudeChangedCallback
 *fill*         0x00000000000796ad        0x3 
 .text.ARCONTROLLER_ARDrone3_NewCmdElementPilotingStateAutoTakeOffModeChanged
                0x00000000000796b0      0x5b8 /home/sunho/bebop_ws/devel/arsdk/out/arsdk-native/build/libARController/obj/gen/Sources/ARCONTROLLER_Feature.c.o
                0x00000000000796b0                ARCONTROLLER_ARDrone3_NewCmdElementPilotingStateAutoTakeOffModeChanged
 *fill*         0x0000000000079c68        0x8 
 .text.ARCONTROLLER_FEATURE_ARDrone3_PilotingStateAutoTakeOffModeChangedCallback
                0x0000000000079c70      0x565 /home/sunho/bebop_ws/devel/arsdk/out/arsdk-native/build/libARController/obj/gen/Sources/ARCONTROLLER_Feature.c.o
                0x0000000000079c70                ARCONTROLLER_FEATURE_ARDrone3_PilotingStateAutoTakeOffModeChangedCallback
 *fill*         0x000000000007a1d5        0xb 
 .text.ARCONTROLLER_ARDrone3_NewCmdElementPilotingStateAltitudeChanged
                0x000000000007a1e0      0x5cc /home/sunho/bebop_ws/devel/arsdk/out/arsdk-native/build/libARController/obj/gen/Sources/ARCONTROLLER_Feature.c.o
                0x000000000007a1e0                ARCONTROLLER_ARDrone3_NewCmdElementPilotingStateAltitudeChanged
 *fill*         0x000000000007a7ac        0x4 
 .text.ARCONTROLLER_FEATURE_ARDrone3_PilotingStateAltitudeChangedCallback
                0x000000000007a7b0      0x57d /home/sunho/bebop_ws/devel/arsdk/out/arsdk-native/build/libARController/obj/gen/Sources/ARCONTROLLER_Feature.c.o
                0x000000000007a7b0                ARCONTROLLER_FEATURE_ARDrone3_PilotingStateAltitudeChangedCallback
 *fill*         0x000000000007ad2d        0x3 
 .text.ARCONTROLLER_ARDrone3_NewCmdElementPilotingStateGpsLocationChanged
                0x000000000007ad30     0x1efe /home/sunho/bebop_ws/devel/arsdk/out/arsdk-native/build/libARController/obj/gen/Sources/ARCONTROLLER_Feature.c.o
                0x000000000007ad30                ARCONTROLLER_ARDrone3_NewCmdElementPilotingStateGpsLocationChanged
 *fill*         0x000000000007cc2e        0x2 
 .text.ARCONTROLLER_FEATURE_ARDrone3_PilotingStateGpsLocationChangedCallback
                0x000000000007cc30      0x5b6 /home/sunho/bebop_ws/devel/arsdk/out/arsdk-native/build/libARController/obj/gen/Sources/ARCONTROLLER_Feature.c.o
                0x000000000007cc30                ARCONTROLLER_FEATURE_ARDrone3_PilotingStateGpsLocationChangedCallback
 *fill*         0x000000000007d1e6        0xa 
 .text.ARCONTROLLER_ARDrone3_NewCmdElementPilotingStateLandingStateChanged
                0x000000000007d1f0      0x5b8 /home/sunho/bebop_ws/devel/arsdk/out/arsdk-native/build/libARController/obj/gen/Sources/ARCONTROLLER_Feature.c.o
                0x000000000007d1f0                ARCONTROLLER_ARDrone3_NewCmdElementPilotingStateLandingStateChanged
 *fill*         0x000000000007d7a8        0x8 
 .text.ARCONTROLLER_FEATURE_ARDrone3_PilotingStateLandingStateChangedCallback
                0x000000000007d7b0      0x565 /home/sunho/bebop_ws/devel/arsdk/out/arsdk-native/build/libARController/obj/gen/Sources/ARCONTROLLER_Feature.c.o
                0x000000000007d7b0                ARCONTROLLER_FEATURE_ARDrone3_PilotingStateLandingStateChangedCallback
 *fill*         0x000000000007dd15        0xb 
 .text.ARCONTROLLER_ARDrone3_NewCmdElementPilotingEventMoveByEnd
                0x000000000007dd20     0x1a39 /home/sunho/bebop_ws/devel/arsdk/out/arsdk-native/build/libARController/obj/gen/Sources/ARCONTROLLER_Feature.c.o
                0x000000000007dd20                ARCONTROLLER_ARDrone3_NewCmdElementPilotingEventMoveByEnd
 *fill*         0x000000000007f759        0x7 
 .text.ARCONTROLLER_FEATURE_ARDrone3_PilotingEventMoveByEndCallback
                0x000000000007f760      0x5a5 /home/sunho/bebop_ws/devel/arsdk/out/arsdk-native/build/libARController/obj/gen/Sources/ARCONTROLLER_Feature.c.o
                0x000000000007f760                ARCONTROLLER_FEATURE_ARDrone3_PilotingEventMoveByEndCallback
 *fill*         0x000000000007fd05        0xb 
 .text.ARCONTROLLER_ARDrone3_NewCmdElementNetworkStateWifiScanListChanged
                0x000000000007fd10     0x156e /home/sunho/bebop_ws/devel/arsdk/out/arsdk-native/build/libARController/obj/gen/Sources/ARCONTROLLER_Feature.c.o
                0x000000000007fd10                ARCONTROLLER_ARDrone3_NewCmdElementNetworkStateWifiScanListChanged
 *fill*         0x000000000008127e        0x2 
 .text.ARCONTROLLER_FEATURE_ARDrone3_NetworkStateWifiScanListChangedCallback
                0x0000000000081280      0x596 /home/sunho/bebop_ws/devel/arsdk/out/arsdk-native/build/libARController/obj/gen/Sources/ARCONTROLLER_Feature.c.o
                0x0000000000081280                ARCONTROLLER_FEATURE_ARDrone3_NetworkStateWifiScanListChangedCallback
 *fill*         0x0000000000081816        0xa 
 .text.ARCONTROLLER_ARDrone3_NewCmdElementNetworkStateAllWifiScanChanged
                0x0000000000081820       0xc9 /home/sunho/bebop_ws/devel/arsdk/out/arsdk-native/build/libARController/obj/gen/Sources/ARCONTROLLER_Feature.c.o
                0x0000000000081820                ARCONTROLLER_ARDrone3_NewCmdElementNetworkStateAllWifiScanChanged
 *fill*         0x00000000000818e9        0x7 
 .text.ARCONTROLLER_FEATURE_ARDrone3_NetworkStateAllWifiScanChangedCallback
                0x00000000000818f0      0x55d /home/sunho/bebop_ws/devel/arsdk/out/arsdk-native/build/libARController/obj/gen/Sources/ARCONTROLLER_Feature.c.o
                0x00000000000818f0                ARCONTROLLER_FEATURE_ARDrone3_NetworkStateAllWifiScanChangedCallback
 *fill*         0x0000000000081e4d        0x3 
 .text.ARCONTROLLER_ARDrone3_NewCmdElementNetworkStateWifiAuthChannelListChanged
                0x0000000000081e50     0x10b9 /home/sunho/bebop_ws/devel/arsdk/out/arsdk-native/build/libARController/obj/gen/Sources/ARCONTROLLER_Feature.c.o
                0x0000000000081e50                ARCONTROLLER_ARDrone3_NewCmdElementNetworkStateWifiAuthChannelListChanged
 *fill*         0x0000000000082f09        0x7 
 .text.ARCONTROLLER_FEATURE_ARDrone3_NetworkStateWifiAuthChannelListChangedCallback
                0x0000000000082f10      0x5bf /home/sunho/bebop_ws/devel/arsdk/out/arsdk-native/build/libARController/obj/gen/Sources/ARCONTROLLER_Feature.c.o
                0x0000000000082f10                ARCONTROLLER_FEATURE_ARDrone3_NetworkStateWifiAuthChannelListChangedCallback
 *fill*         0x00000000000834cf        0x1 
 .text.ARCONTROLLER_ARDrone3_NewCmdElementNetworkStateAllWifiAuthChannelChanged
                0x00000000000834d0       0xc9 /home/sunho/bebop_ws/devel/arsdk/out/arsdk-native/build/libARController/obj/gen/Sources/ARCONTROLLER_Feature.c.o
                0x00000000000834d0                ARCONTROLLER_ARDrone3_NewCmdElementNetworkStateAllWifiAuthChannelChanged
 *fill*         0x0000000000083599        0x7 
 .text.ARCONTROLLER_FEATURE_ARDrone3_NetworkStateAllWifiAuthChannelChangedCallback
                0x00000000000835a0      0x55d /home/sunho/bebop_ws/devel/arsdk/out/arsdk-native/build/libARController/obj/gen/Sources/ARCONTROLLER_Feature.c.o
                0x00000000000835a0                ARCONTROLLER_FEATURE_ARDrone3_NetworkStateAllWifiAuthChannelChangedCallback
 *fill*         0x0000000000083afd        0x3 
 .text.ARCONTROLLER_ARDrone3_NewCmdElementPilotingSettingsStateMaxAltitudeChanged
                0x0000000000083b00      0xffc /home/sunho/bebop_ws/devel/arsdk/out/arsdk-native/build/libARController/obj/gen/Sources/ARCONTROLLER_Feature.c.o
                0x0000000000083b00                ARCONTROLLER_ARDrone3_NewCmdElementPilotingSettingsStateMaxAltitudeChanged
 *fill*         0x0000000000084afc        0x4 
 .text.ARCONTROLLER_FEATURE_ARDrone3_PilotingSettingsStateMaxAltitudeChangedCallback
                0x0000000000084b00      0x57d /home/sunho/bebop_ws/devel/arsdk/out/arsdk-native/build/libARController/obj/gen/Sources/ARCONTROLLER_Feature.c.o
                0x0000000000084b00                ARCONTROLLER_FEATURE_ARDrone3_PilotingSettingsStateMaxAltitudeChangedCallback
 *fill*         0x000000000008507d        0x3 
 .text.ARCONTROLLER_ARDrone3_NewCmdElementPilotingSettingsStateMaxTiltChanged
                0x0000000000085080      0xffc /home/sunho/bebop_ws/devel/arsdk/out/arsdk-native/build/libARController/obj/gen/Sources/ARCONTROLLER_Feature.c.o
                0x0000000000085080                ARCONTROLLER_ARDrone3_NewCmdElementPilotingSettingsStateMaxTiltChanged
 *fill*         0x000000000008607c        0x4 
 .text.ARCONTROLLER_FEATURE_ARDrone3_PilotingSettingsStateMaxTiltChangedCallback
                0x0000000000086080      0x57d /home/sunho/bebop_ws/devel/arsdk/out/arsdk-native/build/libARController/obj/gen/Sources/ARCONTROLLER_Feature.c.o
                0x0000000000086080                ARCONTROLLER_FEATURE_ARDrone3_PilotingSettingsStateMaxTiltChangedCallback
 *fill*         0x00000000000865fd        0x3 
 .text.ARCONTROLLER_ARDrone3_NewCmdElementPilotingSettingsStateAbsolutControlChanged
                0x0000000000086600      0x5b8 /home/sunho/bebop_ws/devel/arsdk/out/arsdk-native/build/libARController/obj/gen/Sources/ARCONTROLLER_Feature.c.o
                0x0000000000086600                ARCONTROLLER_ARDrone3_NewCmdElementPilotingSettingsStateAbsolutControlChanged
 *fill*         0x0000000000086bb8        0x8 
 .text.ARCONTROLLER_FEATURE_ARDrone3_PilotingSettingsStateAbsolutControlChangedCallback
                0x0000000000086bc0      0x565 /home/sunho/bebop_ws/devel/arsdk/out/arsdk-native/build/libARController/obj/gen/Sources/ARCONTROLLER_Feature.c.o
                0x0000000000086bc0                ARCONTROLLER_FEATURE_ARDrone3_PilotingSettingsStateAbsolutControlChangedCallback
 *fill*         0x0000000000087125        0xb 
 .text.ARCONTROLLER_ARDrone3_NewCmdElementPilotingSettingsStateMaxDistanceChanged
                0x0000000000087130      0xffc /home/sunho/bebop_ws/devel/arsdk/out/arsdk-native/build/libARController/obj/gen/Sources/ARCONTROLLER_Feature.c.o
                0x0000000000087130                ARCONTROLLER_ARDrone3_NewCmdElementPilotingSettingsStateMaxDistanceChanged
 *fill*         0x000000000008812c        0x4 
 .text.ARCONTROLLER_FEATURE_ARDrone3_PilotingSettingsStateMaxDistanceChangedCallback
                0x0000000000088130      0x57d /home/sunho/bebop_ws/devel/arsdk/out/arsdk-native/build/libARController/obj/gen/Sources/ARCONTROLLER_Feature.c.o
                0x0000000000088130                ARCONTROLLER_FEATURE_ARDrone3_PilotingSettingsStateMaxDistanceChangedCallback
 *fill*         0x00000000000886ad        0x3 
 .text.ARCONTROLLER_ARDrone3_NewCmdElementPilotingSettingsStateNoFlyOverMaxDistanceChanged
                0x00000000000886b0      0x5b8 /home/sunho/bebop_ws/devel/arsdk/out/arsdk-native/build/libARController/obj/gen/Sources/ARCONTROLLER_Feature.c.o
                0x00000000000886b0                ARCONTROLLER_ARDrone3_NewCmdElementPilotingSettingsStateNoFlyOverMaxDistanceChanged
 *fill*         0x0000000000088c68        0x8 
 .text.ARCONTROLLER_FEATURE_ARDrone3_PilotingSettingsStateNoFlyOverMaxDistanceChangedCallback
                0x0000000000088c70      0x565 /home/sunho/bebop_ws/devel/arsdk/out/arsdk-native/build/libARController/obj/gen/Sources/ARCONTROLLER_Feature.c.o
                0x0000000000088c70                ARCONTROLLER_FEATURE_ARDrone3_PilotingSettingsStateNoFlyOverMaxDistanceChangedCallback
 *fill*         0x00000000000891d5        0xb 
 .text.ARCONTROLLER_ARDrone3_NewCmdElementPilotingSettingsStateAutonomousFlightMaxHorizontalSpeed
                0x00000000000891e0      0x5cc /home/sunho/bebop_ws/devel/arsdk/out/arsdk-native/build/libARController/obj/gen/Sources/ARCONTROLLER_Feature.c.o
                0x00000000000891e0                ARCONTROLLER_ARDrone3_NewCmdElementPilotingSettingsStateAutonomousFlightMaxHorizontalSpeed
 *fill*         0x00000000000897ac        0x4 
 .text.ARCONTROLLER_FEATURE_ARDrone3_PilotingSettingsStateAutonomousFlightMaxHorizontalSpeedCallback
                0x00000000000897b0      0x57d /home/sunho/bebop_ws/devel/arsdk/out/arsdk-native/build/libARController/obj/gen/Sources/ARCONTROLLER_Feature.c.o
                0x00000000000897b0                ARCONTROLLER_FEATURE_ARDrone3_PilotingSettingsStateAutonomousFlightMaxHorizontalSpeedCallback
 *fill*         0x0000000000089d2d        0x3 
 .text.ARCONTROLLER_ARDrone3_NewCmdElementPilotingSettingsStateAutonomousFlightMaxVerticalSpeed
                0x0000000000089d30      0x5cc /home/sunho/bebop_ws/devel/arsdk/out/arsdk-native/build/libARController/obj/gen/Sources/ARCONTROLLER_Feature.c.o
                0x0000000000089d30                ARCONTROLLER_ARDrone3_NewCmdElementPilotingSettingsStateAutonomousFlightMaxVerticalSpeed
 *fill*         0x000000000008a2fc        0x4 
 .text.ARCONTROLLER_FEATURE_ARDrone3_PilotingSettingsStateAutonomousFlightMaxVerticalSpeedCallback
                0x000000000008a300      0x57d /home/sunho/bebop_ws/devel/arsdk/out/arsdk-native/build/libARController/obj/gen/Sources/ARCONTROLLER_Feature.c.o
                0x000000000008a300                ARCONTROLLER_FEATURE_ARDrone3_PilotingSettingsStateAutonomousFlightMaxVerticalSpeedCallback
 *fill*         0x000000000008a87d        0x3 
 .text.ARCONTROLLER_ARDrone3_NewCmdElementPilotingSettingsStateAutonomousFlightMaxHorizontalAcceleration
                0x000000000008a880      0x5cc /home/sunho/bebop_ws/devel/arsdk/out/arsdk-native/build/libARController/obj/gen/Sources/ARCONTROLLER_Feature.c.o
                0x000000000008a880                ARCONTROLLER_ARDrone3_NewCmdElementPilotingSettingsStateAutonomousFlightMaxHorizontalAcceleration
 *fill*         0x000000000008ae4c        0x4 
 .text.ARCONTROLLER_FEATURE_ARDrone3_PilotingSettingsStateAutonomousFlightMaxHorizontalAccelerationCallback
                0x000000000008ae50      0x57d /home/sunho/bebop_ws/devel/arsdk/out/arsdk-native/build/libARController/obj/gen/Sources/ARCONTROLLER_Feature.c.o
                0x000000000008ae50                ARCONTROLLER_FEATURE_ARDrone3_PilotingSettingsStateAutonomousFlightMaxHorizontalAccelerationCallback
 *fill*         0x000000000008b3cd        0x3 
 .text.ARCONTROLLER_ARDrone3_NewCmdElementPilotingSettingsStateAutonomousFlightMaxVerticalAcceleration
                0x000000000008b3d0      0x5cc /home/sunho/bebop_ws/devel/arsdk/out/arsdk-native/build/libARController/obj/gen/Sources/ARCONTROLLER_Feature.c.o
                0x000000000008b3d0                ARCONTROLLER_ARDrone3_NewCmdElementPilotingSettingsStateAutonomousFlightMaxVerticalAcceleration
 *fill*         0x000000000008b99c        0x4 
 .text.ARCONTROLLER_FEATURE_ARDrone3_PilotingSettingsStateAutonomousFlightMaxVerticalAccelerationCallback
                0x000000000008b9a0      0x57d /home/sunho/bebop_ws/devel/arsdk/out/arsdk-native/build/libARController/obj/gen/Sources/ARCONTROLLER_Feature.c.o
                0x000000000008b9a0                ARCONTROLLER_FEATURE_ARDrone3_PilotingSettingsStateAutonomousFlightMaxVerticalAccelerationCallback
 *fill*         0x000000000008bf1d        0x3 
 .text.ARCONTROLLER_ARDrone3_NewCmdElementPilotingSettingsStateAutonomousFlightMaxRotationSpeed
                0x000000000008bf20      0x5cc /home/sunho/bebop_ws/devel/arsdk/out/arsdk-native/build/libARController/obj/gen/Sources/ARCONTROLLER_Feature.c.o
                0x000000000008bf20                ARCONTROLLER_ARDrone3_NewCmdElementPilotingSettingsStateAutonomousFlightMaxRotationSpeed
 *fill*         0x000000000008c4ec        0x4 
 .text.ARCONTROLLER_FEATURE_ARDrone3_PilotingSettingsStateAutonomousFlightMaxRotationSpeedCallback
                0x000000000008c4f0      0x57d /home/sunho/bebop_ws/devel/arsdk/out/arsdk-native/build/libARController/obj/gen/Sources/ARCONTROLLER_Feature.c.o
                0x000000000008c4f0                ARCONTROLLER_FEATURE_ARDrone3_PilotingSettingsStateAutonomousFlightMaxRotationSpeedCallback
 *fill*         0x000000000008ca6d        0x3 
 .text.ARCONTROLLER_ARDrone3_NewCmdElementPilotingSettingsStateBankedTurnChanged
                0x000000000008ca70      0x5b8 /home/sunho/bebop_ws/devel/arsdk/out/arsdk-native/build/libARController/obj/gen/Sources/ARCONTROLLER_Feature.c.o
                0x000000000008ca70                ARCONTROLLER_ARDrone3_NewCmdElementPilotingSettingsStateBankedTurnChanged
 *fill*         0x000000000008d028        0x8 
 .text.ARCONTROLLER_FEATURE_ARDrone3_PilotingSettingsStateBankedTurnChangedCallback
                0x000000000008d030      0x565 /home/sunho/bebop_ws/devel/arsdk/out/arsdk-native/build/libARController/obj/gen/Sources/ARCONTROLLER_Feature.c.o
                0x000000000008d030                ARCONTROLLER_FEATURE_ARDrone3_PilotingSettingsStateBankedTurnChangedCallback
 *fill*         0x000000000008d595        0xb 
 .text.ARCONTROLLER_ARDrone3_NewCmdElementPilotingSettingsStateMinAltitudeChanged
                0x000000000008d5a0      0xffc /home/sunho/bebop_ws/devel/arsdk/out/arsdk-native/build/libARController/obj/gen/Sources/ARCONTROLLER_Feature.c.o
                0x000000000008d5a0                ARCONTROLLER_ARDrone3_NewCmdElementPilotingSettingsStateMinAltitudeChanged
 *fill*         0x000000000008e59c        0x4 
 .text.ARCONTROLLER_FEATURE_ARDrone3_PilotingSettingsStateMinAltitudeChangedCallback
                0x000000000008e5a0      0x57d /home/sunho/bebop_ws/devel/arsdk/out/arsdk-native/build/libARController/obj/gen/Sources/ARCONTROLLER_Feature.c.o
                0x000000000008e5a0                ARCONTROLLER_FEATURE_ARDrone3_PilotingSettingsStateMinAltitudeChangedCallback
 *fill*         0x000000000008eb1d        0x3 
 .text.ARCONTROLLER_ARDrone3_NewCmdElementPilotingSettingsStateCirclingDirectionChanged
                0x000000000008eb20      0x5b8 /home/sunho/bebop_ws/devel/arsdk/out/arsdk-native/build/libARController/obj/gen/Sources/ARCONTROLLER_Feature.c.o
                0x000000000008eb20                ARCONTROLLER_ARDrone3_NewCmdElementPilotingSettingsStateCirclingDirectionChanged
 *fill*         0x000000000008f0d8        0x8 
 .text.ARCONTROLLER_FEATURE_ARDrone3_PilotingSettingsStateCirclingDirectionChangedCallback
                0x000000000008f0e0      0x565 /home/sunho/bebop_ws/devel/arsdk/out/arsdk-native/build/libARController/obj/gen/Sources/ARCONTROLLER_Feature.c.o
                0x000000000008f0e0                ARCONTROLLER_FEATURE_ARDrone3_PilotingSettingsStateCirclingDirectionChangedCallback
 *fill*         0x000000000008f645        0xb 
 .text.ARCONTROLLER_ARDrone3_NewCmdElementPilotingSettingsStateCirclingRadiusChanged
                0x000000000008f650     0x1032 /home/sunho/bebop_ws/devel/arsdk/out/arsdk-native/build/libARController/obj/gen/Sources/ARCONTROLLER_Feature.c.o
                0x000000000008f650                ARCONTROLLER_ARDrone3_NewCmdElementPilotingSettingsStateCirclingRadiusChanged
 *fill*         0x0000000000090682        0xe 
 .text.ARCONTROLLER_FEATURE_ARDrone3_PilotingSettingsStateCirclingRadiusChangedCallback
                0x0000000000090690      0x596 /home/sunho/bebop_ws/devel/arsdk/out/arsdk-native/build/libARController/obj/gen/Sources/ARCONTROLLER_Feature.c.o
                0x0000000000090690                ARCONTROLLER_FEATURE_ARDrone3_PilotingSettingsStateCirclingRadiusChangedCallback
 *fill*         0x0000000000090c26        0xa 
 .text.ARCONTROLLER_ARDrone3_NewCmdElementPilotingSettingsStateCirclingAltitudeChanged
                0x0000000000090c30     0x1032 /home/sunho/bebop_ws/devel/arsdk/out/arsdk-native/build/libARController/obj/gen/Sources/ARCONTROLLER_Feature.c.o
                0x0000000000090c30                ARCONTROLLER_ARDrone3_NewCmdElementPilotingSettingsStateCirclingAltitudeChanged
 *fill*         0x0000000000091c62        0xe 
 .text.ARCONTROLLER_FEATURE_ARDrone3_PilotingSettingsStateCirclingAltitudeChangedCallback
                0x0000000000091c70      0x596 /home/sunho/bebop_ws/devel/arsdk/out/arsdk-native/build/libARController/obj/gen/Sources/ARCONTROLLER_Feature.c.o
                0x0000000000091c70                ARCONTROLLER_FEATURE_ARDrone3_PilotingSettingsStateCirclingAltitudeChangedCallback
 *fill*         0x0000000000092206        0xa 
 .text.ARCONTROLLER_ARDrone3_NewCmdElementPilotingSettingsStatePitchModeChanged
                0x0000000000092210      0x5b8 /home/sunho/bebop_ws/devel/arsdk/out/arsdk-native/build/libARController/obj/gen/Sources/ARCONTROLLER_Feature.c.o
                0x0000000000092210                ARCONTROLLER_ARDrone3_NewCmdElementPilotingSettingsStatePitchModeChanged
 *fill*         0x00000000000927c8        0x8 
 .text.ARCONTROLLER_FEATURE_ARDrone3_PilotingSettingsStatePitchModeChangedCallback
                0x00000000000927d0      0x565 /home/sunho/bebop_ws/devel/arsdk/out/arsdk-native/build/libARController/obj/gen/Sources/ARCONTROLLER_Feature.c.o
                0x00000000000927d0                ARCONTROLLER_FEATURE_ARDrone3_PilotingSettingsStatePitchModeChangedCallback
 *fill*         0x0000000000092d35        0xb 
 .text.ARCONTROLLER_ARDrone3_NewCmdElementSpeedSettingsStateMaxVerticalSpeedChanged
                0x0000000000092d40      0xffc /home/sunho/bebop_ws/devel/arsdk/out/arsdk-native/build/libARController/obj/gen/Sources/ARCONTROLLER_Feature.c.o
                0x0000000000092d40                ARCONTROLLER_ARDrone3_NewCmdElementSpeedSettingsStateMaxVerticalSpeedChanged
 *fill*         0x0000000000093d3c        0x4 
 .text.ARCONTROLLER_FEATURE_ARDrone3_SpeedSettingsStateMaxVerticalSpeedChangedCallback
                0x0000000000093d40      0x57d /home/sunho/bebop_ws/devel/arsdk/out/arsdk-native/build/libARController/obj/gen/Sources/ARCONTROLLER_Feature.c.o
                0x0000000000093d40                ARCONTROLLER_FEATURE_ARDrone3_SpeedSettingsStateMaxVerticalSpeedChangedCallback
 *fill*         0x00000000000942bd        0x3 
 .text.ARCONTROLLER_ARDrone3_NewCmdElementSpeedSettingsStateMaxRotationSpeedChanged
                0x00000000000942c0      0xffc /home/sunho/bebop_ws/devel/arsdk/out/arsdk-native/build/libARController/obj/gen/Sources/ARCONTROLLER_Feature.c.o
                0x00000000000942c0                ARCONTROLLER_ARDrone3_NewCmdElementSpeedSettingsStateMaxRotationSpeedChanged
 *fill*         0x00000000000952bc        0x4 
 .text.ARCONTROLLER_FEATURE_ARDrone3_SpeedSettingsStateMaxRotationSpeedChangedCallback
                0x00000000000952c0      0x57d /home/sunho/bebop_ws/devel/arsdk/out/arsdk-native/build/libARController/obj/gen/Sources/ARCONTROLLER_Feature.c.o
                0x00000000000952c0                ARCONTROLLER_FEATURE_ARDrone3_SpeedSettingsStateMaxRotationSpeedChangedCallback
 *fill*         0x000000000009583d        0x3 
 .text.ARCONTROLLER_ARDrone3_NewCmdElementSpeedSettingsStateHullProtectionChanged
                0x0000000000095840      0x5b8 /home/sunho/bebop_ws/devel/arsdk/out/arsdk-native/build/libARController/obj/gen/Sources/ARCONTROLLER_Feature.c.o
                0x0000000000095840                ARCONTROLLER_ARDrone3_NewCmdElementSpeedSettingsStateHullProtectionChanged
 *fill*         0x0000000000095df8        0x8 
 .text.ARCONTROLLER_FEATURE_ARDrone3_SpeedSettingsStateHullProtectionChangedCallback
                0x0000000000095e00      0x565 /home/sunho/bebop_ws/devel/arsdk/out/arsdk-native/build/libARController/obj/gen/Sources/ARCONTROLLER_Feature.c.o
                0x0000000000095e00                ARCONTROLLER_FEATURE_ARDrone3_SpeedSettingsStateHullProtectionChangedCallback
 *fill*         0x0000000000096365        0xb 
 .text.ARCONTROLLER_ARDrone3_NewCmdElementSpeedSettingsStateOutdoorChanged
                0x0000000000096370      0x5b8 /home/sunho/bebop_ws/devel/arsdk/out/arsdk-native/build/libARController/obj/gen/Sources/ARCONTROLLER_Feature.c.o
                0x0000000000096370                ARCONTROLLER_ARDrone3_NewCmdElementSpeedSettingsStateOutdoorChanged
 *fill*         0x0000000000096928        0x8 
 .text.ARCONTROLLER_FEATURE_ARDrone3_SpeedSettingsStateOutdoorChangedCallback
                0x0000000000096930      0x565 /home/sunho/bebop_ws/devel/arsdk/out/arsdk-native/build/libARController/obj/gen/Sources/ARCONTROLLER_Feature.c.o
                0x0000000000096930                ARCONTROLLER_FEATURE_ARDrone3_SpeedSettingsStateOutdoorChangedCallback
 *fill*         0x0000000000096e95        0xb 
 .text.ARCONTROLLER_ARDrone3_NewCmdElementSpeedSettingsStateMaxPitchRollRotationSpeedChanged
                0x0000000000096ea0      0xffc /home/sunho/bebop_ws/devel/arsdk/out/arsdk-native/build/libARController/obj/gen/Sources/ARCONTROLLER_Feature.c.o
                0x0000000000096ea0                ARCONTROLLER_ARDrone3_NewCmdElementSpeedSettingsStateMaxPitchRollRotationSpeedChanged
 *fill*         0x0000000000097e9c        0x4 
 .text.ARCONTROLLER_FEATURE_ARDrone3_SpeedSettingsStateMaxPitchRollRotationSpeedChangedCallback
                0x0000000000097ea0      0x57d /home/sunho/bebop_ws/devel/arsdk/out/arsdk-native/build/libARController/obj/gen/Sources/ARCONTROLLER_Feature.c.o
                0x0000000000097ea0                ARCONTROLLER_FEATURE_ARDrone3_SpeedSettingsStateMaxPitchRollRotationSpeedChangedCallback
 *fill*         0x000000000009841d        0x3 
 .text.ARCONTROLLER_ARDrone3_NewCmdElementNetworkSettingsStateWifiSelectionChanged
                0x0000000000098420     0x1032 /home/sunho/bebop_ws/devel/arsdk/out/arsdk-native/build/libARController/obj/gen/Sources/ARCONTROLLER_Feature.c.o
                0x0000000000098420                ARCONTROLLER_ARDrone3_NewCmdElementNetworkSettingsStateWifiSelectionChanged
 *fill*         0x0000000000099452        0xe 
 .text.ARCONTROLLER_FEATURE_ARDrone3_NetworkSettingsStateWifiSelectionChangedCallback
                0x0000000000099460      0x596 /home/sunho/bebop_ws/devel/arsdk/out/arsdk-native/build/libARController/obj/gen/Sources/ARCONTROLLER_Feature.c.o
                0x0000000000099460                ARCONTROLLER_FEATURE_ARDrone3_NetworkSettingsStateWifiSelectionChangedCallback
 *fill*         0x00000000000999f6        0xa 
 .text.ARCONTROLLER_ARDrone3_NewCmdElementNetworkSettingsStateWifiSecurityChanged
                0x0000000000099a00      0x5b8 /home/sunho/bebop_ws/devel/arsdk/out/arsdk-native/build/libARController/obj/gen/Sources/ARCONTROLLER_Feature.c.o
                0x0000000000099a00                ARCONTROLLER_ARDrone3_NewCmdElementNetworkSettingsStateWifiSecurityChanged
 *fill*         0x0000000000099fb8        0x8 
 .text.ARCONTROLLER_FEATURE_ARDrone3_NetworkSettingsStateWifiSecurityChangedCallback
                0x0000000000099fc0      0x565 /home/sunho/bebop_ws/devel/arsdk/out/arsdk-native/build/libARController/obj/gen/Sources/ARCONTROLLER_Feature.c.o
                0x0000000000099fc0                ARCONTROLLER_FEATURE_ARDrone3_NetworkSettingsStateWifiSecurityChangedCallback
 *fill*         0x000000000009a525        0xb 
 .text.ARCONTROLLER_ARDrone3_NewCmdElementNetworkSettingsStateWifiSecurity
                0x000000000009a530     0x10bc /home/sunho/bebop_ws/devel/arsdk/out/arsdk-native/build/libARController/obj/gen/Sources/ARCONTROLLER_Feature.c.o
                0x000000000009a530                ARCONTROLLER_ARDrone3_NewCmdElementNetworkSettingsStateWifiSecurity
 *fill*         0x000000000009b5ec        0x4 
 .text.ARCONTROLLER_FEATURE_ARDrone3_NetworkSettingsStateWifiSecurityCallback
                0x000000000009b5f0      0x596 /home/sunho/bebop_ws/devel/arsdk/out/arsdk-native/build/libARController/obj/gen/Sources/ARCONTROLLER_Feature.c.o
                0x000000000009b5f0                ARCONTROLLER_FEATURE_ARDrone3_NetworkSettingsStateWifiSecurityCallback
 *fill*         0x000000000009bb86        0xa 
 .text.ARCONTROLLER_ARDrone3_NewCmdElementSettingsStateProductMotorVersionListChanged
                0x000000000009bb90     0x1698 /home/sunho/bebop_ws/devel/arsdk/out/arsdk-native/build/libARController/obj/gen/Sources/ARCONTROLLER_Feature.c.o
                0x000000000009bb90                ARCONTROLLER_ARDrone3_NewCmdElementSettingsStateProductMotorVersionListChanged
 *fill*         0x000000000009d228        0x8 
 .text.ARCONTROLLER_FEATURE_ARDrone3_SettingsStateProductMotorVersionListChangedCallback
                0x000000000009d230      0x596 /home/sunho/bebop_ws/devel/arsdk/out/arsdk-native/build/libARController/obj/gen/Sources/ARCONTROLLER_Feature.c.o
                0x000000000009d230                ARCONTROLLER_FEATURE_ARDrone3_SettingsStateProductMotorVersionListChangedCallback
 *fill*         0x000000000009d7c6        0xa 
 .text.ARCONTROLLER_ARDrone3_NewCmdElementSettingsStateProductGPSVersionChanged
                0x000000000009d7d0      0xc27 /home/sunho/bebop_ws/devel/arsdk/out/arsdk-native/build/libARController/obj/gen/Sources/ARCONTROLLER_Feature.c.o
                0x000000000009d7d0                ARCONTROLLER_ARDrone3_NewCmdElementSettingsStateProductGPSVersionChanged
 *fill*         0x000000000009e3f7        0x9 
 .text.ARCONTROLLER_FEATURE_ARDrone3_SettingsStateProductGPSVersionChangedCallback
                0x000000000009e400      0x585 /home/sunho/bebop_ws/devel/arsdk/out/arsdk-native/build/libARController/obj/gen/Sources/ARCONTROLLER_Feature.c.o
                0x000000000009e400                ARCONTROLLER_FEATURE_ARDrone3_SettingsStateProductGPSVersionChangedCallback
 *fill*         0x000000000009e985        0xb 
 .text.ARCONTROLLER_ARDrone3_NewCmdElementSettingsStateMotorErrorStateChanged
                0x000000000009e990      0xb28 /home/sunho/bebop_ws/devel/arsdk/out/arsdk-native/build/libARController/obj/gen/Sources/ARCONTROLLER_Feature.c.o
                0x000000000009e990                ARCONTROLLER_ARDrone3_NewCmdElementSettingsStateMotorErrorStateChanged
 *fill*         0x000000000009f4b8        0x8 
 .text.ARCONTROLLER_FEATURE_ARDrone3_SettingsStateMotorErrorStateChangedCallback
                0x000000000009f4c0      0x585 /home/sunho/bebop_ws/devel/arsdk/out/arsdk-native/build/libARController/obj/gen/Sources/ARCONTROLLER_Feature.c.o
                0x000000000009f4c0                ARCONTROLLER_FEATURE_ARDrone3_SettingsStateMotorErrorStateChangedCallback
 *fill*         0x000000000009fa45        0xb 
 .text.ARCONTROLLER_ARDrone3_NewCmdElementSettingsStateMotorSoftwareVersionChanged
                0x000000000009fa50      0x63f /home/sunho/bebop_ws/devel/arsdk/out/arsdk-native/build/libARController/obj/gen/Sources/ARCONTROLLER_Feature.c.o
                0x000000000009fa50                ARCONTROLLER_ARDrone3_NewCmdElementSettingsStateMotorSoftwareVersionChanged
 *fill*         0x00000000000a008f        0x1 
 .text.ARCONTROLLER_FEATURE_ARDrone3_SettingsStateMotorSoftwareVersionChangedCallback
                0x00000000000a0090      0x565 /home/sunho/bebop_ws/devel/arsdk/out/arsdk-native/build/libARController/obj/gen/Sources/ARCONTROLLER_Feature.c.o
                0x00000000000a0090                ARCONTROLLER_FEATURE_ARDrone3_SettingsStateMotorSoftwareVersionChangedCallback
 *fill*         0x00000000000a05f5        0xb 
 .text.ARCONTROLLER_ARDrone3_NewCmdElementSettingsStateMotorFlightsStatusChanged
                0x00000000000a0600     0x1032 /home/sunho/bebop_ws/devel/arsdk/out/arsdk-native/build/libARController/obj/gen/Sources/ARCONTROLLER_Feature.c.o
                0x00000000000a0600                ARCONTROLLER_ARDrone3_NewCmdElementSettingsStateMotorFlightsStatusChanged
 *fill*         0x00000000000a1632        0xe 
 .text.ARCONTROLLER_FEATURE_ARDrone3_SettingsStateMotorFlightsStatusChangedCallback
                0x00000000000a1640      0x596 /home/sunho/bebop_ws/devel/arsdk/out/arsdk-native/build/libARController/obj/gen/Sources/ARCONTROLLER_Feature.c.o
                0x00000000000a1640                ARCONTROLLER_FEATURE_ARDrone3_SettingsStateMotorFlightsStatusChangedCallback
 *fill*         0x00000000000a1bd6        0xa 
 .text.ARCONTROLLER_ARDrone3_NewCmdElementSettingsStateMotorErrorLastErrorChanged
                0x00000000000a1be0      0x5b8 /home/sunho/bebop_ws/devel/arsdk/out/arsdk-native/build/libARController/obj/gen/Sources/ARCONTROLLER_Feature.c.o
                0x00000000000a1be0                ARCONTROLLER_ARDrone3_NewCmdElementSettingsStateMotorErrorLastErrorChanged
 *fill*         0x00000000000a2198        0x8 
 .text.ARCONTROLLER_FEATURE_ARDrone3_SettingsStateMotorErrorLastErrorChangedCallback
                0x00000000000a21a0      0x565 /home/sunho/bebop_ws/devel/arsdk/out/arsdk-native/build/libARController/obj/gen/Sources/ARCONTROLLER_Feature.c.o
                0x00000000000a21a0                ARCONTROLLER_FEATURE_ARDrone3_SettingsStateMotorErrorLastErrorChangedCallback
 *fill*         0x00000000000a2705        0xb 
 .text.ARCONTROLLER_ARDrone3_NewCmdElementSettingsStateP7ID
                0x00000000000a2710      0x63f /home/sunho/bebop_ws/devel/arsdk/out/arsdk-native/build/libARController/obj/gen/Sources/ARCONTROLLER_Feature.c.o
                0x00000000000a2710                ARCONTROLLER_ARDrone3_NewCmdElementSettingsStateP7ID
 *fill*         0x00000000000a2d4f        0x1 
 .text.ARCONTROLLER_FEATURE_ARDrone3_SettingsStateP7IDCallback
                0x00000000000a2d50      0x565 /home/sunho/bebop_ws/devel/arsdk/out/arsdk-native/build/libARController/obj/gen/Sources/ARCONTROLLER_Feature.c.o
                0x00000000000a2d50                ARCONTROLLER_FEATURE_ARDrone3_SettingsStateP7IDCallback
 *fill*         0x00000000000a32b5        0xb 
 .text.ARCONTROLLER_ARDrone3_NewCmdElementSettingsStateCPUID
                0x00000000000a32c0      0x63f /home/sunho/bebop_ws/devel/arsdk/out/arsdk-native/build/libARController/obj/gen/Sources/ARCONTROLLER_Feature.c.o
                0x00000000000a32c0                ARCONTROLLER_ARDrone3_NewCmdElementSettingsStateCPUID
 *fill*         0x00000000000a38ff        0x1 
 .text.ARCONTROLLER_FEATURE_ARDrone3_SettingsStateCPUIDCallback
                0x00000000000a3900      0x565 /home/sunho/bebop_ws/devel/arsdk/out/arsdk-native/build/libARController/obj/gen/Sources/ARCONTROLLER_Feature.c.o
                0x00000000000a3900                ARCONTROLLER_FEATURE_ARDrone3_SettingsStateCPUIDCallback
 *fill*         0x00000000000a3e65        0xb 
 .text.ARCONTROLLER_ARDrone3_NewCmdElementPictureSettingsStatePictureFormatChanged
                0x00000000000a3e70      0x5b8 /home/sunho/bebop_ws/devel/arsdk/out/arsdk-native/build/libARController/obj/gen/Sources/ARCONTROLLER_Feature.c.o
                0x00000000000a3e70                ARCONTROLLER_ARDrone3_NewCmdElementPictureSettingsStatePictureFormatChanged
 *fill*         0x00000000000a4428        0x8 
 .text.ARCONTROLLER_FEATURE_ARDrone3_PictureSettingsStatePictureFormatChangedCallback
                0x00000000000a4430      0x565 /home/sunho/bebop_ws/devel/arsdk/out/arsdk-native/build/libARController/obj/gen/Sources/ARCONTROLLER_Feature.c.o
                0x00000000000a4430                ARCONTROLLER_FEATURE_ARDrone3_PictureSettingsStatePictureFormatChangedCallback
 *fill*         0x00000000000a4995        0xb 
 .text.ARCONTROLLER_ARDrone3_NewCmdElementPictureSettingsStateAutoWhiteBalanceChanged
                0x00000000000a49a0      0x5b8 /home/sunho/bebop_ws/devel/arsdk/out/arsdk-native/build/libARController/obj/gen/Sources/ARCONTROLLER_Feature.c.o
                0x00000000000a49a0                ARCONTROLLER_ARDrone3_NewCmdElementPictureSettingsStateAutoWhiteBalanceChanged
 *fill*         0x00000000000a4f58        0x8 
 .text.ARCONTROLLER_FEATURE_ARDrone3_PictureSettingsStateAutoWhiteBalanceChangedCallback
                0x00000000000a4f60      0x565 /home/sunho/bebop_ws/devel/arsdk/out/arsdk-native/build/libARController/obj/gen/Sources/ARCONTROLLER_Feature.c.o
                0x00000000000a4f60                ARCONTROLLER_FEATURE_ARDrone3_PictureSettingsStateAutoWhiteBalanceChangedCallback
 *fill*         0x00000000000a54c5        0xb 
 .text.ARCONTROLLER_ARDrone3_NewCmdElementPictureSettingsStateExpositionChanged
                0x00000000000a54d0      0xffc /home/sunho/bebop_ws/devel/arsdk/out/arsdk-native/build/libARController/obj/gen/Sources/ARCONTROLLER_Feature.c.o
                0x00000000000a54d0                ARCONTROLLER_ARDrone3_NewCmdElementPictureSettingsStateExpositionChanged
 *fill*         0x00000000000a64cc        0x4 
 .text.ARCONTROLLER_FEATURE_ARDrone3_PictureSettingsStateExpositionChangedCallback
                0x00000000000a64d0      0x57d /home/sunho/bebop_ws/devel/arsdk/out/arsdk-native/build/libARController/obj/gen/Sources/ARCONTROLLER_Feature.c.o
                0x00000000000a64d0                ARCONTROLLER_FEATURE_ARDrone3_PictureSettingsStateExpositionChangedCallback
 *fill*         0x00000000000a6a4d        0x3 
 .text.ARCONTROLLER_ARDrone3_NewCmdElementPictureSettingsStateSaturationChanged
                0x00000000000a6a50      0xffc /home/sunho/bebop_ws/devel/arsdk/out/arsdk-native/build/libARController/obj/gen/Sources/ARCONTROLLER_Feature.c.o
                0x00000000000a6a50                ARCONTROLLER_ARDrone3_NewCmdElementPictureSettingsStateSaturationChanged
 *fill*         0x00000000000a7a4c        0x4 
 .text.ARCONTROLLER_FEATURE_ARDrone3_PictureSettingsStateSaturationChangedCallback
                0x00000000000a7a50      0x57d /home/sunho/bebop_ws/devel/arsdk/out/arsdk-native/build/libARController/obj/gen/Sources/ARCONTROLLER_Feature.c.o
                0x00000000000a7a50                ARCONTROLLER_FEATURE_ARDrone3_PictureSettingsStateSaturationChangedCallback
 *fill*         0x00000000000a7fcd        0x3 
 .text.ARCONTROLLER_ARDrone3_NewCmdElementPictureSettingsStateTimelapseChanged
                0x00000000000a7fd0     0x15a4 /home/sunho/bebop_ws/devel/arsdk/out/arsdk-native/build/libARController/obj/gen/Sources/ARCONTROLLER_Feature.c.o
                0x00000000000a7fd0                ARCONTROLLER_ARDrone3_NewCmdElementPictureSettingsStateTimelapseChanged
 *fill*         0x00000000000a9574        0xc 
 .text.ARCONTROLLER_FEATURE_ARDrone3_PictureSettingsStateTimelapseChangedCallback
                0x00000000000a9580      0x5a5 /home/sunho/bebop_ws/devel/arsdk/out/arsdk-native/build/libARController/obj/gen/Sources/ARCONTROLLER_Feature.c.o
                0x00000000000a9580                ARCONTROLLER_FEATURE_ARDrone3_PictureSettingsStateTimelapseChangedCallback
 *fill*         0x00000000000a9b25        0xb 
 .text.ARCONTROLLER_ARDrone3_NewCmdElementPictureSettingsStateVideoAutorecordChanged
                0x00000000000a9b30      0xb28 /home/sunho/bebop_ws/devel/arsdk/out/arsdk-native/build/libARController/obj/gen/Sources/ARCONTROLLER_Feature.c.o
                0x00000000000a9b30                ARCONTROLLER_ARDrone3_NewCmdElementPictureSettingsStateVideoAutorecordChanged
 *fill*         0x00000000000aa658        0x8 
 .text.ARCONTROLLER_FEATURE_ARDrone3_PictureSettingsStateVideoAutorecordChangedCallback
                0x00000000000aa660      0x585 /home/sunho/bebop_ws/devel/arsdk/out/arsdk-native/build/libARController/obj/gen/Sources/ARCONTROLLER_Feature.c.o
                0x00000000000aa660                ARCONTROLLER_FEATURE_ARDrone3_PictureSettingsStateVideoAutorecordChangedCallback
 *fill*         0x00000000000aabe5        0xb 
 .text.ARCONTROLLER_ARDrone3_NewCmdElementPictureSettingsStateVideoStabilizationModeChanged
                0x00000000000aabf0      0x5b8 /home/sunho/bebop_ws/devel/arsdk/out/arsdk-native/build/libARController/obj/gen/Sources/ARCONTROLLER_Feature.c.o
                0x00000000000aabf0                ARCONTROLLER_ARDrone3_NewCmdElementPictureSettingsStateVideoStabilizationModeChanged
 *fill*         0x00000000000ab1a8        0x8 
 .text.ARCONTROLLER_FEATURE_ARDrone3_PictureSettingsStateVideoStabilizationModeChangedCallback
                0x00000000000ab1b0      0x565 /home/sunho/bebop_ws/devel/arsdk/out/arsdk-native/build/libARController/obj/gen/Sources/ARCONTROLLER_Feature.c.o
                0x00000000000ab1b0                ARCONTROLLER_FEATURE_ARDrone3_PictureSettingsStateVideoStabilizationModeChangedCallback
 *fill*         0x00000000000ab715        0xb 
 .text.ARCONTROLLER_ARDrone3_NewCmdElementPictureSettingsStateVideoRecordingModeChanged
                0x00000000000ab720      0x5b8 /home/sunho/bebop_ws/devel/arsdk/out/arsdk-native/build/libARController/obj/gen/Sources/ARCONTROLLER_Feature.c.o
                0x00000000000ab720                ARCONTROLLER_ARDrone3_NewCmdElementPictureSettingsStateVideoRecordingModeChanged
 *fill*         0x00000000000abcd8        0x8 
 .text.ARCONTROLLER_FEATURE_ARDrone3_PictureSettingsStateVideoRecordingModeChangedCallback
                0x00000000000abce0      0x565 /home/sunho/bebop_ws/devel/arsdk/out/arsdk-native/build/libARController/obj/gen/Sources/ARCONTROLLER_Feature.c.o
                0x00000000000abce0                ARCONTROLLER_FEATURE_ARDrone3_PictureSettingsStateVideoRecordingModeChangedCallback
 *fill*         0x00000000000ac245        0xb 
 .text.ARCONTROLLER_ARDrone3_NewCmdElementPictureSettingsStateVideoFramerateChanged
                0x00000000000ac250      0x5b8 /home/sunho/bebop_ws/devel/arsdk/out/arsdk-native/build/libARController/obj/gen/Sources/ARCONTROLLER_Feature.c.o
                0x00000000000ac250                ARCONTROLLER_ARDrone3_NewCmdElementPictureSettingsStateVideoFramerateChanged
 *fill*         0x00000000000ac808        0x8 
 .text.ARCONTROLLER_FEATURE_ARDrone3_PictureSettingsStateVideoFramerateChangedCallback
                0x00000000000ac810      0x565 /home/sunho/bebop_ws/devel/arsdk/out/arsdk-native/build/libARController/obj/gen/Sources/ARCONTROLLER_Feature.c.o
                0x00000000000ac810                ARCONTROLLER_FEATURE_ARDrone3_PictureSettingsStateVideoFramerateChangedCallback
 *fill*         0x00000000000acd75        0xb 
 .text.ARCONTROLLER_ARDrone3_NewCmdElementPictureSettingsStateVideoResolutionsChanged
                0x00000000000acd80      0x5b8 /home/sunho/bebop_ws/devel/arsdk/out/arsdk-native/build/libARController/obj/gen/Sources/ARCONTROLLER_Feature.c.o
                0x00000000000acd80                ARCONTROLLER_ARDrone3_NewCmdElementPictureSettingsStateVideoResolutionsChanged
 *fill*         0x00000000000ad338        0x8 
 .text.ARCONTROLLER_FEATURE_ARDrone3_PictureSettingsStateVideoResolutionsChangedCallback
                0x00000000000ad340      0x565 /home/sunho/bebop_ws/devel/arsdk/out/arsdk-native/build/libARController/obj/gen/Sources/ARCONTROLLER_Feature.c.o
                0x00000000000ad340                ARCONTROLLER_FEATURE_ARDrone3_PictureSettingsStateVideoResolutionsChangedCallback
 *fill*         0x00000000000ad8a5        0xb 
 .text.ARCONTROLLER_ARDrone3_NewCmdElementMediaStreamingStateVideoEnableChanged
                0x00000000000ad8b0      0x5b8 /home/sunho/bebop_ws/devel/arsdk/out/arsdk-native/build/libARController/obj/gen/Sources/ARCONTROLLER_Feature.c.o
                0x00000000000ad8b0                ARCONTROLLER_ARDrone3_NewCmdElementMediaStreamingStateVideoEnableChanged
 *fill*         0x00000000000ade68        0x8 
 .text.ARCONTROLLER_FEATURE_ARDrone3_MediaStreamingStateVideoEnableChangedCallback
                0x00000000000ade70      0x565 /home/sunho/bebop_ws/devel/arsdk/out/arsdk-native/build/libARController/obj/gen/Sources/ARCONTROLLER_Feature.c.o
                0x00000000000ade70                ARCONTROLLER_FEATURE_ARDrone3_MediaStreamingStateVideoEnableChangedCallback
 *fill*         0x00000000000ae3d5        0xb 
 .text.ARCONTROLLER_ARDrone3_NewCmdElementMediaStreamingStateVideoStreamModeChanged
                0x00000000000ae3e0      0x5b8 /home/sunho/bebop_ws/devel/arsdk/out/arsdk-native/build/libARController/obj/gen/Sources/ARCONTROLLER_Feature.c.o
                0x00000000000ae3e0                ARCONTROLLER_ARDrone3_NewCmdElementMediaStreamingStateVideoStreamModeChanged
 *fill*         0x00000000000ae998        0x8 
 .text.ARCONTROLLER_FEATURE_ARDrone3_MediaStreamingStateVideoStreamModeChangedCallback
                0x00000000000ae9a0      0x565 /home/sunho/bebop_ws/devel/arsdk/out/arsdk-native/build/libARController/obj/gen/Sources/ARCONTROLLER_Feature.c.o
                0x00000000000ae9a0                ARCONTROLLER_FEATURE_ARDrone3_MediaStreamingStateVideoStreamModeChangedCallback
 *fill*         0x00000000000aef05        0xb 
 .text.ARCONTROLLER_ARDrone3_NewCmdElementGPSSettingsStateHomeChanged
                0x00000000000aef10      0xffc /home/sunho/bebop_ws/devel/arsdk/out/arsdk-native/build/libARController/obj/gen/Sources/ARCONTROLLER_Feature.c.o
                0x00000000000aef10                ARCONTROLLER_ARDrone3_NewCmdElementGPSSettingsStateHomeChanged
 *fill*         0x00000000000aff0c        0x4 
 .text.ARCONTROLLER_FEATURE_ARDrone3_GPSSettingsStateHomeChangedCallback
                0x00000000000aff10      0x57d /home/sunho/bebop_ws/devel/arsdk/out/arsdk-native/build/libARController/obj/gen/Sources/ARCONTROLLER_Feature.c.o
                0x00000000000aff10                ARCONTROLLER_FEATURE_ARDrone3_GPSSettingsStateHomeChangedCallback
 *fill*         0x00000000000b048d        0x3 
 .text.ARCONTROLLER_ARDrone3_NewCmdElementGPSSettingsStateResetHomeChanged
                0x00000000000b0490      0xffc /home/sunho/bebop_ws/devel/arsdk/out/arsdk-native/build/libARController/obj/gen/Sources/ARCONTROLLER_Feature.c.o
                0x00000000000b0490                ARCONTROLLER_ARDrone3_NewCmdElementGPSSettingsStateResetHomeChanged
 *fill*         0x00000000000b148c        0x4 
 .text.ARCONTROLLER_FEATURE_ARDrone3_GPSSettingsStateResetHomeChangedCallback
                0x00000000000b1490      0x57d /home/sunho/bebop_ws/devel/arsdk/out/arsdk-native/build/libARController/obj/gen/Sources/ARCONTROLLER_Feature.c.o
                0x00000000000b1490                ARCONTROLLER_FEATURE_ARDrone3_GPSSettingsStateResetHomeChangedCallback
 *fill*         0x00000000000b1a0d        0x3 
 .text.ARCONTROLLER_ARDrone3_NewCmdElementGPSSettingsStateGPSFixStateChanged
                0x00000000000b1a10      0x5b8 /home/sunho/bebop_ws/devel/arsdk/out/arsdk-native/build/libARController/obj/gen/Sources/ARCONTROLLER_Feature.c.o
                0x00000000000b1a10                ARCONTROLLER_ARDrone3_NewCmdElementGPSSettingsStateGPSFixStateChanged
 *fill*         0x00000000000b1fc8        0x8 
 .text.ARCONTROLLER_FEATURE_ARDrone3_GPSSettingsStateGPSFixStateChangedCallback
                0x00000000000b1fd0      0x565 /home/sunho/bebop_ws/devel/arsdk/out/arsdk-native/build/libARController/obj/gen/Sources/ARCONTROLLER_Feature.c.o
                0x00000000000b1fd0                ARCONTROLLER_FEATURE_ARDrone3_GPSSettingsStateGPSFixStateChangedCallback
 *fill*         0x00000000000b2535        0xb 
 .text.ARCONTROLLER_ARDrone3_NewCmdElementGPSSettingsStateGPSUpdateStateChanged
                0x00000000000b2540      0x5b8 /home/sunho/bebop_ws/devel/arsdk/out/arsdk-native/build/libARController/obj/gen/Sources/ARCONTROLLER_Feature.c.o
                0x00000000000b2540                ARCONTROLLER_ARDrone3_NewCmdElementGPSSettingsStateGPSUpdateStateChanged
 *fill*         0x00000000000b2af8        0x8 
 .text.ARCONTROLLER_FEATURE_ARDrone3_GPSSettingsStateGPSUpdateStateChangedCallback
                0x00000000000b2b00      0x565 /home/sunho/bebop_ws/devel/arsdk/out/arsdk-native/build/libARController/obj/gen/Sources/ARCONTROLLER_Feature.c.o
                0x00000000000b2b00                ARCONTROLLER_FEATURE_ARDrone3_GPSSettingsStateGPSUpdateStateChangedCallback
 *fill*         0x00000000000b3065        0xb 
 .text.ARCONTROLLER_ARDrone3_NewCmdElementGPSSettingsStateHomeTypeChanged
                0x00000000000b3070      0x5b8 /home/sunho/bebop_ws/devel/arsdk/out/arsdk-native/build/libARController/obj/gen/Sources/ARCONTROLLER_Feature.c.o
                0x00000000000b3070                ARCONTROLLER_ARDrone3_NewCmdElementGPSSettingsStateHomeTypeChanged
 *fill*         0x00000000000b3628        0x8 
 .text.ARCONTROLLER_FEATURE_ARDrone3_GPSSettingsStateHomeTypeChangedCallback
                0x00000000000b3630      0x565 /home/sunho/bebop_ws/devel/arsdk/out/arsdk-native/build/libARController/obj/gen/Sources/ARCONTROLLER_Feature.c.o
                0x00000000000b3630                ARCONTROLLER_FEATURE_ARDrone3_GPSSettingsStateHomeTypeChangedCallback
 *fill*         0x00000000000b3b95        0xb 
 .text.ARCONTROLLER_ARDrone3_NewCmdElementGPSSettingsStateReturnHomeDelayChanged
                0x00000000000b3ba0      0x5b8 /home/sunho/bebop_ws/devel/arsdk/out/arsdk-native/build/libARController/obj/gen/Sources/ARCONTROLLER_Feature.c.o
                0x00000000000b3ba0                ARCONTROLLER_ARDrone3_NewCmdElementGPSSettingsStateReturnHomeDelayChanged
 *fill*         0x00000000000b4158        0x8 
 .text.ARCONTROLLER_FEATURE_ARDrone3_GPSSettingsStateReturnHomeDelayChangedCallback
                0x00000000000b4160      0x565 /home/sunho/bebop_ws/devel/arsdk/out/arsdk-native/build/libARController/obj/gen/Sources/ARCONTROLLER_Feature.c.o
                0x00000000000b4160                ARCONTROLLER_FEATURE_ARDrone3_GPSSettingsStateReturnHomeDelayChangedCallback
 *fill*         0x00000000000b46c5        0xb 
 .text.ARCONTROLLER_ARDrone3_NewCmdElementCameraStateOrientation
                0x00000000000b46d0      0xb28 /home/sunho/bebop_ws/devel/arsdk/out/arsdk-native/build/libARController/obj/gen/Sources/ARCONTROLLER_Feature.c.o
                0x00000000000b46d0                ARCONTROLLER_ARDrone3_NewCmdElementCameraStateOrientation
 *fill*         0x00000000000b51f8        0x8 
 .text.ARCONTROLLER_FEATURE_ARDrone3_CameraStateOrientationCallback
                0x00000000000b5200      0x585 /home/sunho/bebop_ws/devel/arsdk/out/arsdk-native/build/libARController/obj/gen/Sources/ARCONTROLLER_Feature.c.o
                0x00000000000b5200                ARCONTROLLER_FEATURE_ARDrone3_CameraStateOrientationCallback
 *fill*         0x00000000000b5785        0xb 
 .text.ARCONTROLLER_ARDrone3_NewCmdElementCameraStateDefaultCameraOrientation
                0x00000000000b5790      0xb28 /home/sunho/bebop_ws/devel/arsdk/out/arsdk-native/build/libARController/obj/gen/Sources/ARCONTROLLER_Feature.c.o
                0x00000000000b5790                ARCONTROLLER_ARDrone3_NewCmdElementCameraStateDefaultCameraOrientation
 *fill*         0x00000000000b62b8        0x8 
 .text.ARCONTROLLER_FEATURE_ARDrone3_CameraStateDefaultCameraOrientationCallback
                0x00000000000b62c0      0x585 /home/sunho/bebop_ws/devel/arsdk/out/arsdk-native/build/libARController/obj/gen/Sources/ARCONTROLLER_Feature.c.o
                0x00000000000b62c0                ARCONTROLLER_FEATURE_ARDrone3_CameraStateDefaultCameraOrientationCallback
 *fill*         0x00000000000b6845        0xb 
 .text.ARCONTROLLER_ARDrone3_NewCmdElementAntiflickeringStateElectricFrequencyChanged
                0x00000000000b6850      0x5b8 /home/sunho/bebop_ws/devel/arsdk/out/arsdk-native/build/libARController/obj/gen/Sources/ARCONTROLLER_Feature.c.o
                0x00000000000b6850                ARCONTROLLER_ARDrone3_NewCmdElementAntiflickeringStateElectricFrequencyChanged
 *fill*         0x00000000000b6e08        0x8 
 .text.ARCONTROLLER_FEATURE_ARDrone3_AntiflickeringStateElectricFrequencyChangedCallback
                0x00000000000b6e10      0x565 /home/sunho/bebop_ws/devel/arsdk/out/arsdk-native/build/libARController/obj/gen/Sources/ARCONTROLLER_Feature.c.o
                0x00000000000b6e10                ARCONTROLLER_FEATURE_ARDrone3_AntiflickeringStateElectricFrequencyChangedCallback
 *fill*         0x00000000000b7375        0xb 
 .text.ARCONTROLLER_ARDrone3_NewCmdElementAntiflickeringStateModeChanged
                0x00000000000b7380      0x5b8 /home/sunho/bebop_ws/devel/arsdk/out/arsdk-native/build/libARController/obj/gen/Sources/ARCONTROLLER_Feature.c.o
                0x00000000000b7380                ARCONTROLLER_ARDrone3_NewCmdElementAntiflickeringStateModeChanged
 *fill*         0x00000000000b7938        0x8 
 .text.ARCONTROLLER_FEATURE_ARDrone3_AntiflickeringStateModeChangedCallback
                0x00000000000b7940      0x565 /home/sunho/bebop_ws/devel/arsdk/out/arsdk-native/build/libARController/obj/gen/Sources/ARCONTROLLER_Feature.c.o
                0x00000000000b7940                ARCONTROLLER_FEATURE_ARDrone3_AntiflickeringStateModeChangedCallback
 *fill*         0x00000000000b7ea5        0xb 
 .text.ARCONTROLLER_ARDrone3_NewCmdElementGPSStateNumberOfSatelliteChanged
                0x00000000000b7eb0      0x5b8 /home/sunho/bebop_ws/devel/arsdk/out/arsdk-native/build/libARController/obj/gen/Sources/ARCONTROLLER_Feature.c.o
                0x00000000000b7eb0                ARCONTROLLER_ARDrone3_NewCmdElementGPSStateNumberOfSatelliteChanged
 *fill*         0x00000000000b8468        0x8 
 .text.ARCONTROLLER_FEATURE_ARDrone3_GPSStateNumberOfSatelliteChangedCallback
                0x00000000000b8470      0x565 /home/sunho/bebop_ws/devel/arsdk/out/arsdk-native/build/libARController/obj/gen/Sources/ARCONTROLLER_Feature.c.o
                0x00000000000b8470                ARCONTROLLER_FEATURE_ARDrone3_GPSStateNumberOfSatelliteChangedCallback
 *fill*         0x00000000000b89d5        0xb 
 .text.ARCONTROLLER_ARDrone3_NewCmdElementGPSStateHomeTypeAvailabilityChanged
                0x00000000000b89e0      0xb18 /home/sunho/bebop_ws/devel/arsdk/out/arsdk-native/build/libARController/obj/gen/Sources/ARCONTROLLER_Feature.c.o
                0x00000000000b89e0                ARCONTROLLER_ARDrone3_NewCmdElementGPSStateHomeTypeAvailabilityChanged
 *fill*         0x00000000000b94f8        0x8 
 .text.ARCONTROLLER_FEATURE_ARDrone3_GPSStateHomeTypeAvailabilityChangedCallback
                0x00000000000b9500      0x585 /home/sunho/bebop_ws/devel/arsdk/out/arsdk-native/build/libARController/obj/gen/Sources/ARCONTROLLER_Feature.c.o
                0x00000000000b9500                ARCONTROLLER_FEATURE_ARDrone3_GPSStateHomeTypeAvailabilityChangedCallback
 *fill*         0x00000000000b9a85        0xb 
 .text.ARCONTROLLER_ARDrone3_NewCmdElementGPSStateHomeTypeChosenChanged
                0x00000000000b9a90      0x5b8 /home/sunho/bebop_ws/devel/arsdk/out/arsdk-native/build/libARController/obj/gen/Sources/ARCONTROLLER_Feature.c.o
                0x00000000000b9a90                ARCONTROLLER_ARDrone3_NewCmdElementGPSStateHomeTypeChosenChanged
 *fill*         0x00000000000ba048        0x8 
 .text.ARCONTROLLER_FEATURE_ARDrone3_GPSStateHomeTypeChosenChangedCallback
                0x00000000000ba050      0x565 /home/sunho/bebop_ws/devel/arsdk/out/arsdk-native/build/libARController/obj/gen/Sources/ARCONTROLLER_Feature.c.o
                0x00000000000ba050                ARCONTROLLER_FEATURE_ARDrone3_GPSStateHomeTypeChosenChangedCallback
 *fill*         0x00000000000ba5b5        0xb 
 .text.ARCONTROLLER_ARDrone3_NewCmdElementPROStateFeatures
                0x00000000000ba5c0      0x5b8 /home/sunho/bebop_ws/devel/arsdk/out/arsdk-native/build/libARController/obj/gen/Sources/ARCONTROLLER_Feature.c.o
                0x00000000000ba5c0                ARCONTROLLER_ARDrone3_NewCmdElementPROStateFeatures
 *fill*         0x00000000000bab78        0x8 
 .text.ARCONTROLLER_FEATURE_ARDrone3_PROStateFeaturesCallback
                0x00000000000bab80      0x565 /home/sunho/bebop_ws/devel/arsdk/out/arsdk-native/build/libARController/obj/gen/Sources/ARCONTROLLER_Feature.c.o
                0x00000000000bab80                ARCONTROLLER_FEATURE_ARDrone3_PROStateFeaturesCallback
 *fill*         0x00000000000bb0e5        0xb 
 .text.ARCONTROLLER_FEATURE_ARDrone3_SetNetworkController
                0x00000000000bb0f0       0x26 /home/sunho/bebop_ws/devel/arsdk/out/arsdk-native/build/libARController/obj/gen/Sources/ARCONTROLLER_Feature.c.o
                0x00000000000bb0f0                ARCONTROLLER_FEATURE_ARDrone3_SetNetworkController
 *fill*         0x00000000000bb116        0xa 
 .text.ARCONTROLLER_ARDrone3_GetCommandElements
                0x00000000000bb120      0x1a0 /home/sunho/bebop_ws/devel/arsdk/out/arsdk-native/build/libARController/obj/gen/Sources/ARCONTROLLER_Feature.c.o
                0x00000000000bb120                ARCONTROLLER_ARDrone3_GetCommandElements
 .text.ARCONTROLLER_FEATURE_Common_Delete
                0x00000000000bb2c0       0x88 /home/sunho/bebop_ws/devel/arsdk/out/arsdk-native/build/libARController/obj/gen/Sources/ARCONTROLLER_Feature.c.o
                0x00000000000bb2c0                ARCONTROLLER_FEATURE_Common_Delete
 *fill*         0x00000000000bb348        0x8 
 .text.ARCONTROLLER_FEATURE_Common_New
                0x00000000000bb350      0x1dc /home/sunho/bebop_ws/devel/arsdk/out/arsdk-native/build/libARController/obj/gen/Sources/ARCONTROLLER_Feature.c.o
                0x00000000000bb350                ARCONTROLLER_FEATURE_Common_New
 *fill*         0x00000000000bb52c        0x4 
 .text.ARCONTROLLER_FEATURE_Common_GetDictionary
                0x00000000000bb530       0x39 /home/sunho/bebop_ws/devel/arsdk/out/arsdk-native/build/libARController/obj/gen/Sources/ARCONTROLLER_Feature.c.o
                0x00000000000bb530                ARCONTROLLER_FEATURE_Common_GetDictionary
 *fill*         0x00000000000bb569        0x7 
 .text.ARCONTROLLER_FEATURE_Common_AddCallback
                0x00000000000bb570       0x26 /home/sunho/bebop_ws/devel/arsdk/out/arsdk-native/build/libARController/obj/gen/Sources/ARCONTROLLER_Feature.c.o
                0x00000000000bb570                ARCONTROLLER_FEATURE_Common_AddCallback
 *fill*         0x00000000000bb596        0xa 
 .text.ARCONTROLLER_FEATURE_Common_RemoveCallback
                0x00000000000bb5a0       0x26 /home/sunho/bebop_ws/devel/arsdk/out/arsdk-native/build/libARController/obj/gen/Sources/ARCONTROLLER_Feature.c.o
                0x00000000000bb5a0                ARCONTROLLER_FEATURE_Common_RemoveCallback
 *fill*         0x00000000000bb5c6        0xa 
 .text.ARCONTROLLER_FEATURE_Common_RegisterARCommands
                0x00000000000bb5d0      0x607 /home/sunho/bebop_ws/devel/arsdk/out/arsdk-native/build/libARController/obj/gen/Sources/ARCONTROLLER_Feature.c.o
                0x00000000000bb5d0                ARCONTROLLER_FEATURE_Common_RegisterARCommands
 *fill*         0x00000000000bbbd7        0x9 
 .text.ARCONTROLLER_FEATURE_Common_UnregisterARCommands
                0x00000000000bbbe0      0x4c7 /home/sunho/bebop_ws/devel/arsdk/out/arsdk-native/build/libARController/obj/gen/Sources/ARCONTROLLER_Feature.c.o
                0x00000000000bbbe0                ARCONTROLLER_FEATURE_Common_UnregisterARCommands
 *fill*         0x00000000000bc0a7        0x9 
 .text.ARCONTROLLER_Common_NewCmdElementNetworkEventDisconnection
                0x00000000000bc0b0      0x5b8 /home/sunho/bebop_ws/devel/arsdk/out/arsdk-native/build/libARController/obj/gen/Sources/ARCONTROLLER_Feature.c.o
                0x00000000000bc0b0                ARCONTROLLER_Common_NewCmdElementNetworkEventDisconnection
 *fill*         0x00000000000bc668        0x8 
 .text.ARCONTROLLER_FEATURE_Common_NetworkEventDisconnectionCallback
                0x00000000000bc670      0x565 /home/sunho/bebop_ws/devel/arsdk/out/arsdk-native/build/libARController/obj/gen/Sources/ARCONTROLLER_Feature.c.o
                0x00000000000bc670                ARCONTROLLER_FEATURE_Common_NetworkEventDisconnectionCallback
 *fill*         0x00000000000bcbd5        0xb 
 .text.ARCONTROLLER_Common_NewCmdElementSettingsStateAllSettingsChanged
                0x00000000000bcbe0       0xc9 /home/sunho/bebop_ws/devel/arsdk/out/arsdk-native/build/libARController/obj/gen/Sources/ARCONTROLLER_Feature.c.o
                0x00000000000bcbe0                ARCONTROLLER_Common_NewCmdElementSettingsStateAllSettingsChanged
 *fill*         0x00000000000bcca9        0x7 
 .text.ARCONTROLLER_FEATURE_Common_SettingsStateAllSettingsChangedCallback
                0x00000000000bccb0      0x55d /home/sunho/bebop_ws/devel/arsdk/out/arsdk-native/build/libARController/obj/gen/Sources/ARCONTROLLER_Feature.c.o
                0x00000000000bccb0                ARCONTROLLER_FEATURE_Common_SettingsStateAllSettingsChangedCallback
 *fill*         0x00000000000bd20d        0x3 
 .text.ARCONTROLLER_Common_NewCmdElementSettingsStateResetChanged
                0x00000000000bd210       0xc9 /home/sunho/bebop_ws/devel/arsdk/out/arsdk-native/build/libARController/obj/gen/Sources/ARCONTROLLER_Feature.c.o
                0x00000000000bd210                ARCONTROLLER_Common_NewCmdElementSettingsStateResetChanged
 *fill*         0x00000000000bd2d9        0x7 
 .text.ARCONTROLLER_FEATURE_Common_SettingsStateResetChangedCallback
                0x00000000000bd2e0      0x55d /home/sunho/bebop_ws/devel/arsdk/out/arsdk-native/build/libARController/obj/gen/Sources/ARCONTROLLER_Feature.c.o
                0x00000000000bd2e0                ARCONTROLLER_FEATURE_Common_SettingsStateResetChangedCallback
 *fill*         0x00000000000bd83d        0x3 
 .text.ARCONTROLLER_Common_NewCmdElementSettingsStateProductNameChanged
                0x00000000000bd840      0x63f /home/sunho/bebop_ws/devel/arsdk/out/arsdk-native/build/libARController/obj/gen/Sources/ARCONTROLLER_Feature.c.o
                0x00000000000bd840                ARCONTROLLER_Common_NewCmdElementSettingsStateProductNameChanged
 *fill*         0x00000000000bde7f        0x1 
 .text.ARCONTROLLER_FEATURE_Common_SettingsStateProductNameChangedCallback
                0x00000000000bde80      0x565 /home/sunho/bebop_ws/devel/arsdk/out/arsdk-native/build/libARController/obj/gen/Sources/ARCONTROLLER_Feature.c.o
                0x00000000000bde80                ARCONTROLLER_FEATURE_Common_SettingsStateProductNameChangedCallback
 *fill*         0x00000000000be3e5        0xb 
 .text.ARCONTROLLER_Common_NewCmdElementSettingsStateProductVersionChanged
                0x00000000000be3f0      0xc27 /home/sunho/bebop_ws/devel/arsdk/out/arsdk-native/build/libARController/obj/gen/Sources/ARCONTROLLER_Feature.c.o
                0x00000000000be3f0                ARCONTROLLER_Common_NewCmdElementSettingsStateProductVersionChanged
 *fill*         0x00000000000bf017        0x9 
 .text.ARCONTROLLER_FEATURE_Common_SettingsStateProductVersionChangedCallback
                0x00000000000bf020      0x585 /home/sunho/bebop_ws/devel/arsdk/out/arsdk-native/build/libARController/obj/gen/Sources/ARCONTROLLER_Feature.c.o
                0x00000000000bf020                ARCONTROLLER_FEATURE_Common_SettingsStateProductVersionChangedCallback
 *fill*         0x00000000000bf5a5        0xb 
 .text.ARCONTROLLER_Common_NewCmdElementSettingsStateProductSerialHighChanged
                0x00000000000bf5b0      0x63f /home/sunho/bebop_ws/devel/arsdk/out/arsdk-native/build/libARController/obj/gen/Sources/ARCONTROLLER_Feature.c.o
                0x00000000000bf5b0                ARCONTROLLER_Common_NewCmdElementSettingsStateProductSerialHighChanged
 *fill*         0x00000000000bfbef        0x1 
 .text.ARCONTROLLER_FEATURE_Common_SettingsStateProductSerialHighChangedCallback
                0x00000000000bfbf0      0x565 /home/sunho/bebop_ws/devel/arsdk/out/arsdk-native/build/libARController/obj/gen/Sources/ARCONTROLLER_Feature.c.o
                0x00000000000bfbf0                ARCONTROLLER_FEATURE_Common_SettingsStateProductSerialHighChangedCallback
 *fill*         0x00000000000c0155        0xb 
 .text.ARCONTROLLER_Common_NewCmdElementSettingsStateProductSerialLowChanged
                0x00000000000c0160      0x63f /home/sunho/bebop_ws/devel/arsdk/out/arsdk-native/build/libARController/obj/gen/Sources/ARCONTROLLER_Feature.c.o
                0x00000000000c0160                ARCONTROLLER_Common_NewCmdElementSettingsStateProductSerialLowChanged
 *fill*         0x00000000000c079f        0x1 
 .text.ARCONTROLLER_FEATURE_Common_SettingsStateProductSerialLowChangedCallback
                0x00000000000c07a0      0x565 /home/sunho/bebop_ws/devel/arsdk/out/arsdk-native/build/libARController/obj/gen/Sources/ARCONTROLLER_Feature.c.o
                0x00000000000c07a0                ARCONTROLLER_FEATURE_Common_SettingsStateProductSerialLowChangedCallback
 *fill*         0x00000000000c0d05        0xb 
 .text.ARCONTROLLER_Common_NewCmdElementSettingsStateCountryChanged
                0x00000000000c0d10      0x63f /home/sunho/bebop_ws/devel/arsdk/out/arsdk-native/build/libARController/obj/gen/Sources/ARCONTROLLER_Feature.c.o
                0x00000000000c0d10                ARCONTROLLER_Common_NewCmdElementSettingsStateCountryChanged
 *fill*         0x00000000000c134f        0x1 
 .text.ARCONTROLLER_FEATURE_Common_SettingsStateCountryChangedCallback
                0x00000000000c1350      0x565 /home/sunho/bebop_ws/devel/arsdk/out/arsdk-native/build/libARController/obj/gen/Sources/ARCONTROLLER_Feature.c.o
                0x00000000000c1350                ARCONTROLLER_FEATURE_Common_SettingsStateCountryChangedCallback
 *fill*         0x00000000000c18b5        0xb 
 .text.ARCONTROLLER_Common_NewCmdElementSettingsStateAutoCountryChanged
                0x00000000000c18c0      0x5b8 /home/sunho/bebop_ws/devel/arsdk/out/arsdk-native/build/libARController/obj/gen/Sources/ARCONTROLLER_Feature.c.o
                0x00000000000c18c0                ARCONTROLLER_Common_NewCmdElementSettingsStateAutoCountryChanged
 *fill*         0x00000000000c1e78        0x8 
 .text.ARCONTROLLER_FEATURE_Common_SettingsStateAutoCountryChangedCallback
                0x00000000000c1e80      0x565 /home/sunho/bebop_ws/devel/arsdk/out/arsdk-native/build/libARController/obj/gen/Sources/ARCONTROLLER_Feature.c.o
                0x00000000000c1e80                ARCONTROLLER_FEATURE_Common_SettingsStateAutoCountryChangedCallback
 *fill*         0x00000000000c23e5        0xb 
 .text.ARCONTROLLER_Common_NewCmdElementCommonStateAllStatesChanged
                0x00000000000c23f0       0xc9 /home/sunho/bebop_ws/devel/arsdk/out/arsdk-native/build/libARController/obj/gen/Sources/ARCONTROLLER_Feature.c.o
                0x00000000000c23f0                ARCONTROLLER_Common_NewCmdElementCommonStateAllStatesChanged
 *fill*         0x00000000000c24b9        0x7 
 .text.ARCONTROLLER_FEATURE_Common_CommonStateAllStatesChangedCallback
                0x00000000000c24c0      0x55d /home/sunho/bebop_ws/devel/arsdk/out/arsdk-native/build/libARController/obj/gen/Sources/ARCONTROLLER_Feature.c.o
                0x00000000000c24c0                ARCONTROLLER_FEATURE_Common_CommonStateAllStatesChangedCallback
 *fill*         0x00000000000c2a1d        0x3 
 .text.ARCONTROLLER_Common_NewCmdElementCommonStateBatteryStateChanged
                0x00000000000c2a20      0x5b8 /home/sunho/bebop_ws/devel/arsdk/out/arsdk-native/build/libARController/obj/gen/Sources/ARCONTROLLER_Feature.c.o
                0x00000000000c2a20                ARCONTROLLER_Common_NewCmdElementCommonStateBatteryStateChanged
 *fill*         0x00000000000c2fd8        0x8 
 .text.ARCONTROLLER_FEATURE_Common_CommonStateBatteryStateChangedCallback
                0x00000000000c2fe0      0x565 /home/sunho/bebop_ws/devel/arsdk/out/arsdk-native/build/libARController/obj/gen/Sources/ARCONTROLLER_Feature.c.o
                0x00000000000c2fe0                ARCONTROLLER_FEATURE_Common_CommonStateBatteryStateChangedCallback
 *fill*         0x00000000000c3545        0xb 
 .text.ARCONTROLLER_Common_NewCmdElementCommonStateMassStorageStateListChanged
                0x00000000000c3550      0xc10 /home/sunho/bebop_ws/devel/arsdk/out/arsdk-native/build/libARController/obj/gen/Sources/ARCONTROLLER_Feature.c.o
                0x00000000000c3550                ARCONTROLLER_Common_NewCmdElementCommonStateMassStorageStateListChanged
 .text.ARCONTROLLER_FEATURE_Common_CommonStateMassStorageStateListChangedCallback
                0x00000000000c4160      0x585 /home/sunho/bebop_ws/devel/arsdk/out/arsdk-native/build/libARController/obj/gen/Sources/ARCONTROLLER_Feature.c.o
                0x00000000000c4160                ARCONTROLLER_FEATURE_Common_CommonStateMassStorageStateListChangedCallback
 *fill*         0x00000000000c46e5        0xb 
 .text.ARCONTROLLER_Common_NewCmdElementCommonStateMassStorageInfoStateListChanged
                0x00000000000c46f0     0x1f9f /home/sunho/bebop_ws/devel/arsdk/out/arsdk-native/build/libARController/obj/gen/Sources/ARCONTROLLER_Feature.c.o
                0x00000000000c46f0                ARCONTROLLER_Common_NewCmdElementCommonStateMassStorageInfoStateListChanged
 *fill*         0x00000000000c668f        0x1 
 .text.ARCONTROLLER_FEATURE_Common_CommonStateMassStorageInfoStateListChangedCallback
                0x00000000000c6690      0x5c6 /home/sunho/bebop_ws/devel/arsdk/out/arsdk-native/build/libARController/obj/gen/Sources/ARCONTROLLER_Feature.c.o
                0x00000000000c6690                ARCONTROLLER_FEATURE_Common_CommonStateMassStorageInfoStateListChangedCallback
 *fill*         0x00000000000c6c56        0xa 
 .text.ARCONTROLLER_Common_NewCmdElementCommonStateCurrentDateChanged
                0x00000000000c6c60      0x63f /home/sunho/bebop_ws/devel/arsdk/out/arsdk-native/build/libARController/obj/gen/Sources/ARCONTROLLER_Feature.c.o
                0x00000000000c6c60                ARCONTROLLER_Common_NewCmdElementCommonStateCurrentDateChanged
 *fill*         0x00000000000c729f        0x1 
 .text.ARCONTROLLER_FEATURE_Common_CommonStateCurrentDateChangedCallback
                0x00000000000c72a0      0x565 /home/sunho/bebop_ws/devel/arsdk/out/arsdk-native/build/libARController/obj/gen/Sources/ARCONTROLLER_Feature.c.o
                0x00000000000c72a0                ARCONTROLLER_FEATURE_Common_CommonStateCurrentDateChangedCallback
 *fill*         0x00000000000c7805        0xb 
 .text.ARCONTROLLER_Common_NewCmdElementCommonStateCurrentTimeChanged
                0x00000000000c7810      0x63f /home/sunho/bebop_ws/devel/arsdk/out/arsdk-native/build/libARController/obj/gen/Sources/ARCONTROLLER_Feature.c.o
                0x00000000000c7810                ARCONTROLLER_Common_NewCmdElementCommonStateCurrentTimeChanged
 *fill*         0x00000000000c7e4f        0x1 
 .text.ARCONTROLLER_FEATURE_Common_CommonStateCurrentTimeChangedCallback
                0x00000000000c7e50      0x565 /home/sunho/bebop_ws/devel/arsdk/out/arsdk-native/build/libARController/obj/gen/Sources/ARCONTROLLER_Feature.c.o
                0x00000000000c7e50                ARCONTROLLER_FEATURE_Common_CommonStateCurrentTimeChangedCallback
 *fill*         0x00000000000c83b5        0xb 
 .text.ARCONTROLLER_Common_NewCmdElementCommonStateMassStorageInfoRemainingListChanged
                0x00000000000c83c0     0x10b9 /home/sunho/bebop_ws/devel/arsdk/out/arsdk-native/build/libARController/obj/gen/Sources/ARCONTROLLER_Feature.c.o
                0x00000000000c83c0                ARCONTROLLER_Common_NewCmdElementCommonStateMassStorageInfoRemainingListChanged
 *fill*         0x00000000000c9479        0x7 
 .text.ARCONTROLLER_FEATURE_Common_CommonStateMassStorageInfoRemainingListChangedCallback
                0x00000000000c9480      0x5bf /home/sunho/bebop_ws/devel/arsdk/out/arsdk-native/build/libARController/obj/gen/Sources/ARCONTROLLER_Feature.c.o
                0x00000000000c9480                ARCONTROLLER_FEATURE_Common_CommonStateMassStorageInfoRemainingListChangedCallback
 *fill*         0x00000000000c9a3f        0x1 
 .text.ARCONTROLLER_Common_NewCmdElementCommonStateWifiSignalChanged
                0x00000000000c9a40      0x5b8 /home/sunho/bebop_ws/devel/arsdk/out/arsdk-native/build/libARController/obj/gen/Sources/ARCONTROLLER_Feature.c.o
                0x00000000000c9a40                ARCONTROLLER_Common_NewCmdElementCommonStateWifiSignalChanged
 *fill*         0x00000000000c9ff8        0x8 
 .text.ARCONTROLLER_FEATURE_Common_CommonStateWifiSignalChangedCallback
                0x00000000000ca000      0x565 /home/sunho/bebop_ws/devel/arsdk/out/arsdk-native/build/libARController/obj/gen/Sources/ARCONTROLLER_Feature.c.o
                0x00000000000ca000                ARCONTROLLER_FEATURE_Common_CommonStateWifiSignalChangedCallback
 *fill*         0x00000000000ca565        0xb 
 .text.ARCONTROLLER_Common_NewCmdElementCommonStateSensorsStatesListChanged
                0x00000000000ca570      0xb18 /home/sunho/bebop_ws/devel/arsdk/out/arsdk-native/build/libARController/obj/gen/Sources/ARCONTROLLER_Feature.c.o
                0x00000000000ca570                ARCONTROLLER_Common_NewCmdElementCommonStateSensorsStatesListChanged
 *fill*         0x00000000000cb088        0x8 
 .text.ARCONTROLLER_FEATURE_Common_CommonStateSensorsStatesListChangedCallback
                0x00000000000cb090      0x585 /home/sunho/bebop_ws/devel/arsdk/out/arsdk-native/build/libARController/obj/gen/Sources/ARCONTROLLER_Feature.c.o
                0x00000000000cb090                ARCONTROLLER_FEATURE_Common_CommonStateSensorsStatesListChangedCallback
 *fill*         0x00000000000cb615        0xb 
 .text.ARCONTROLLER_Common_NewCmdElementCommonStateProductModel
                0x00000000000cb620      0x5b8 /home/sunho/bebop_ws/devel/arsdk/out/arsdk-native/build/libARController/obj/gen/Sources/ARCONTROLLER_Feature.c.o
                0x00000000000cb620                ARCONTROLLER_Common_NewCmdElementCommonStateProductModel
 *fill*         0x00000000000cbbd8        0x8 
 .text.ARCONTROLLER_FEATURE_Common_CommonStateProductModelCallback
                0x00000000000cbbe0      0x565 /home/sunho/bebop_ws/devel/arsdk/out/arsdk-native/build/libARController/obj/gen/Sources/ARCONTROLLER_Feature.c.o
                0x00000000000cbbe0                ARCONTROLLER_FEATURE_Common_CommonStateProductModelCallback
 *fill*         0x00000000000cc145        0xb 
 .text.ARCONTROLLER_Common_NewCmdElementCommonStateCountryListKnown
                0x00000000000cc150      0xbc9 /home/sunho/bebop_ws/devel/arsdk/out/arsdk-native/build/libARController/obj/gen/Sources/ARCONTROLLER_Feature.c.o
                0x00000000000cc150                ARCONTROLLER_Common_NewCmdElementCommonStateCountryListKnown
 *fill*         0x00000000000ccd19        0x7 
 .text.ARCONTROLLER_FEATURE_Common_CommonStateCountryListKnownCallback
                0x00000000000ccd20      0x5ad /home/sunho/bebop_ws/devel/arsdk/out/arsdk-native/build/libARController/obj/gen/Sources/ARCONTROLLER_Feature.c.o
                0x00000000000ccd20                ARCONTROLLER_FEATURE_Common_CommonStateCountryListKnownCallback
 *fill*         0x00000000000cd2cd        0x3 
 .text.ARCONTROLLER_Common_NewCmdElementCommonStateDeprecatedMassStorageContentChanged
                0x00000000000cd2d0     0x1a93 /home/sunho/bebop_ws/devel/arsdk/out/arsdk-native/build/libARController/obj/gen/Sources/ARCONTROLLER_Feature.c.o
                0x00000000000cd2d0                ARCONTROLLER_Common_NewCmdElementCommonStateDeprecatedMassStorageContentChanged
 *fill*         0x00000000000ced63        0xd 
 .text.ARCONTROLLER_FEATURE_Common_CommonStateDeprecatedMassStorageContentChangedCallback
                0x00000000000ced70      0x5a6 /home/sunho/bebop_ws/devel/arsdk/out/arsdk-native/build/libARController/obj/gen/Sources/ARCONTROLLER_Feature.c.o
                0x00000000000ced70                ARCONTROLLER_FEATURE_Common_CommonStateDeprecatedMassStorageContentChangedCallback
 *fill*         0x00000000000cf316        0xa 
 .text.ARCONTROLLER_Common_NewCmdElementCommonStateMassStorageContent
                0x00000000000cf320     0x1f9f /home/sunho/bebop_ws/devel/arsdk/out/arsdk-native/build/libARController/obj/gen/Sources/ARCONTROLLER_Feature.c.o
                0x00000000000cf320                ARCONTROLLER_Common_NewCmdElementCommonStateMassStorageContent
 *fill*         0x00000000000d12bf        0x1 
 .text.ARCONTROLLER_FEATURE_Common_CommonStateMassStorageContentCallback
                0x00000000000d12c0      0x5c6 /home/sunho/bebop_ws/devel/arsdk/out/arsdk-native/build/libARController/obj/gen/Sources/ARCONTROLLER_Feature.c.o
                0x00000000000d12c0                ARCONTROLLER_FEATURE_Common_CommonStateMassStorageContentCallback
 *fill*         0x00000000000d1886        0xa 
 .text.ARCONTROLLER_Common_NewCmdElementCommonStateMassStorageContentForCurrentRun
                0x00000000000d1890     0x15f2 /home/sunho/bebop_ws/devel/arsdk/out/arsdk-native/build/libARController/obj/gen/Sources/ARCONTROLLER_Feature.c.o
                0x00000000000d1890                ARCONTROLLER_Common_NewCmdElementCommonStateMassStorageContentForCurrentRun
 *fill*         0x00000000000d2e82        0xe 
 .text.ARCONTROLLER_FEATURE_Common_CommonStateMassStorageContentForCurrentRunCallback
                0x00000000000d2e90      0x596 /home/sunho/bebop_ws/devel/arsdk/out/arsdk-native/build/libARController/obj/gen/Sources/ARCONTROLLER_Feature.c.o
                0x00000000000d2e90                ARCONTROLLER_FEATURE_Common_CommonStateMassStorageContentForCurrentRunCallback
 *fill*         0x00000000000d3426        0xa 
 .text.ARCONTROLLER_Common_NewCmdElementOverHeatStateOverHeatChanged
                0x00000000000d3430       0xc9 /home/sunho/bebop_ws/devel/arsdk/out/arsdk-native/build/libARController/obj/gen/Sources/ARCONTROLLER_Feature.c.o
                0x00000000000d3430                ARCONTROLLER_Common_NewCmdElementOverHeatStateOverHeatChanged
 *fill*         0x00000000000d34f9        0x7 
 .text.ARCONTROLLER_FEATURE_Common_OverHeatStateOverHeatChangedCallback
                0x00000000000d3500      0x55d /home/sunho/bebop_ws/devel/arsdk/out/arsdk-native/build/libARController/obj/gen/Sources/ARCONTROLLER_Feature.c.o
                0x00000000000d3500                ARCONTROLLER_FEATURE_Common_OverHeatStateOverHeatChangedCallback
 *fill*         0x00000000000d3a5d        0x3 
 .text.ARCONTROLLER_Common_NewCmdElementOverHeatStateOverHeatRegulationChanged
                0x00000000000d3a60      0x5b8 /home/sunho/bebop_ws/devel/arsdk/out/arsdk-native/build/libARController/obj/gen/Sources/ARCONTROLLER_Feature.c.o
                0x00000000000d3a60                ARCONTROLLER_Common_NewCmdElementOverHeatStateOverHeatRegulationChanged
 *fill*         0x00000000000d4018        0x8 
 .text.ARCONTROLLER_FEATURE_Common_OverHeatStateOverHeatRegulationChangedCallback
                0x00000000000d4020      0x565 /home/sunho/bebop_ws/devel/arsdk/out/arsdk-native/build/libARController/obj/gen/Sources/ARCONTROLLER_Feature.c.o
                0x00000000000d4020                ARCONTROLLER_FEATURE_Common_OverHeatStateOverHeatRegulationChangedCallback
 *fill*         0x00000000000d4585        0xb 
 .text.ARCONTROLLER_Common_NewCmdElementWifiSettingsStateOutdoorSettingsChanged
                0x00000000000d4590      0x5b8 /home/sunho/bebop_ws/devel/arsdk/out/arsdk-native/build/libARController/obj/gen/Sources/ARCONTROLLER_Feature.c.o
                0x00000000000d4590                ARCONTROLLER_Common_NewCmdElementWifiSettingsStateOutdoorSettingsChanged
 *fill*         0x00000000000d4b48        0x8 
 .text.ARCONTROLLER_FEATURE_Common_WifiSettingsStateOutdoorSettingsChangedCallback
                0x00000000000d4b50      0x565 /home/sunho/bebop_ws/devel/arsdk/out/arsdk-native/build/libARController/obj/gen/Sources/ARCONTROLLER_Feature.c.o
                0x00000000000d4b50                ARCONTROLLER_FEATURE_Common_WifiSettingsStateOutdoorSettingsChangedCallback
 *fill*         0x00000000000d50b5        0xb 
 .text.ARCONTROLLER_Common_NewCmdElementMavlinkStateMavlinkFilePlayingStateChanged
                0x00000000000d50c0     0x10bc /home/sunho/bebop_ws/devel/arsdk/out/arsdk-native/build/libARController/obj/gen/Sources/ARCONTROLLER_Feature.c.o
                0x00000000000d50c0                ARCONTROLLER_Common_NewCmdElementMavlinkStateMavlinkFilePlayingStateChanged
 *fill*         0x00000000000d617c        0x4 
 .text.ARCONTROLLER_FEATURE_Common_MavlinkStateMavlinkFilePlayingStateChangedCallback
                0x00000000000d6180      0x596 /home/sunho/bebop_ws/devel/arsdk/out/arsdk-native/build/libARController/obj/gen/Sources/ARCONTROLLER_Feature.c.o
                0x00000000000d6180                ARCONTROLLER_FEATURE_Common_MavlinkStateMavlinkFilePlayingStateChangedCallback
 *fill*         0x00000000000d6716        0xa 
 .text.ARCONTROLLER_Common_NewCmdElementMavlinkStateMavlinkPlayErrorStateChanged
                0x00000000000d6720      0x5b8 /home/sunho/bebop_ws/devel/arsdk/out/arsdk-native/build/libARController/obj/gen/Sources/ARCONTROLLER_Feature.c.o
                0x00000000000d6720                ARCONTROLLER_Common_NewCmdElementMavlinkStateMavlinkPlayErrorStateChanged
 *fill*         0x00000000000d6cd8        0x8 
 .text.ARCONTROLLER_FEATURE_Common_MavlinkStateMavlinkPlayErrorStateChangedCallback
                0x00000000000d6ce0      0x565 /home/sunho/bebop_ws/devel/arsdk/out/arsdk-native/build/libARController/obj/gen/Sources/ARCONTROLLER_Feature.c.o
                0x00000000000d6ce0                ARCONTROLLER_FEATURE_Common_MavlinkStateMavlinkPlayErrorStateChangedCallback
 *fill*         0x00000000000d7245        0xb 
 .text.ARCONTROLLER_Common_NewCmdElementCalibrationStateMagnetoCalibrationStateChanged
                0x00000000000d7250     0x1528 /home/sunho/bebop_ws/devel/arsdk/out/arsdk-native/build/libARController/obj/gen/Sources/ARCONTROLLER_Feature.c.o
                0x00000000000d7250                ARCONTROLLER_Common_NewCmdElementCalibrationStateMagnetoCalibrationStateChanged
 *fill*         0x00000000000d8778        0x8 
 .text.ARCONTROLLER_FEATURE_Common_CalibrationStateMagnetoCalibrationStateChangedCallback
                0x00000000000d8780      0x596 /home/sunho/bebop_ws/devel/arsdk/out/arsdk-native/build/libARController/obj/gen/Sources/ARCONTROLLER_Feature.c.o
                0x00000000000d8780                ARCONTROLLER_FEATURE_Common_CalibrationStateMagnetoCalibrationStateChangedCallback
 *fill*         0x00000000000d8d16        0xa 
 .text.ARCONTROLLER_Common_NewCmdElementCalibrationStateMagnetoCalibrationRequiredState
                0x00000000000d8d20      0x5b8 /home/sunho/bebop_ws/devel/arsdk/out/arsdk-native/build/libARController/obj/gen/Sources/ARCONTROLLER_Feature.c.o
                0x00000000000d8d20                ARCONTROLLER_Common_NewCmdElementCalibrationStateMagnetoCalibrationRequiredState
 *fill*         0x00000000000d92d8        0x8 
 .text.ARCONTROLLER_FEATURE_Common_CalibrationStateMagnetoCalibrationRequiredStateCallback
                0x00000000000d92e0      0x565 /home/sunho/bebop_ws/devel/arsdk/out/arsdk-native/build/libARController/obj/gen/Sources/ARCONTROLLER_Feature.c.o
                0x00000000000d92e0                ARCONTROLLER_FEATURE_Common_CalibrationStateMagnetoCalibrationRequiredStateCallback
 *fill*         0x00000000000d9845        0xb 
 .text.ARCONTROLLER_Common_NewCmdElementCalibrationStateMagnetoCalibrationAxisToCalibrateChanged
                0x00000000000d9850      0x5b8 /home/sunho/bebop_ws/devel/arsdk/out/arsdk-native/build/libARController/obj/gen/Sources/ARCONTROLLER_Feature.c.o
                0x00000000000d9850                ARCONTROLLER_Common_NewCmdElementCalibrationStateMagnetoCalibrationAxisToCalibrateChanged
 *fill*         0x00000000000d9e08        0x8 
 .text.ARCONTROLLER_FEATURE_Common_CalibrationStateMagnetoCalibrationAxisToCalibrateChangedCallback
                0x00000000000d9e10      0x565 /home/sunho/bebop_ws/devel/arsdk/out/arsdk-native/build/libARController/obj/gen/Sources/ARCONTROLLER_Feature.c.o
                0x00000000000d9e10                ARCONTROLLER_FEATURE_Common_CalibrationStateMagnetoCalibrationAxisToCalibrateChangedCallback
 *fill*         0x00000000000da375        0xb 
 .text.ARCONTROLLER_Common_NewCmdElementCalibrationStateMagnetoCalibrationStartedChanged
                0x00000000000da380      0x5b8 /home/sunho/bebop_ws/devel/arsdk/out/arsdk-native/build/libARController/obj/gen/Sources/ARCONTROLLER_Feature.c.o
                0x00000000000da380                ARCONTROLLER_Common_NewCmdElementCalibrationStateMagnetoCalibrationStartedChanged
 *fill*         0x00000000000da938        0x8 
 .text.ARCONTROLLER_FEATURE_Common_CalibrationStateMagnetoCalibrationStartedChangedCallback
                0x00000000000da940      0x565 /home/sunho/bebop_ws/devel/arsdk/out/arsdk-native/build/libARController/obj/gen/Sources/ARCONTROLLER_Feature.c.o
                0x00000000000da940                ARCONTROLLER_FEATURE_Common_CalibrationStateMagnetoCalibrationStartedChangedCallback
 *fill*         0x00000000000daea5        0xb 
 .text.ARCONTROLLER_Common_NewCmdElementCalibrationStatePitotCalibrationStateChanged
                0x00000000000daeb0      0xb28 /home/sunho/bebop_ws/devel/arsdk/out/arsdk-native/build/libARController/obj/gen/Sources/ARCONTROLLER_Feature.c.o
                0x00000000000daeb0                ARCONTROLLER_Common_NewCmdElementCalibrationStatePitotCalibrationStateChanged
 *fill*         0x00000000000db9d8        0x8 
 .text.ARCONTROLLER_FEATURE_Common_CalibrationStatePitotCalibrationStateChangedCallback
                0x00000000000db9e0      0x585 /home/sunho/bebop_ws/devel/arsdk/out/arsdk-native/build/libARController/obj/gen/Sources/ARCONTROLLER_Feature.c.o
                0x00000000000db9e0                ARCONTROLLER_FEATURE_Common_CalibrationStatePitotCalibrationStateChangedCallback
 *fill*         0x00000000000dbf65        0xb 
 .text.ARCONTROLLER_Common_NewCmdElementCameraSettingsStateCameraSettingsChanged
                0x00000000000dbf70     0x1ad4 /home/sunho/bebop_ws/devel/arsdk/out/arsdk-native/build/libARController/obj/gen/Sources/ARCONTROLLER_Feature.c.o
                0x00000000000dbf70                ARCONTROLLER_Common_NewCmdElementCameraSettingsStateCameraSettingsChanged
 *fill*         0x00000000000dda44        0xc 
 .text.ARCONTROLLER_FEATURE_Common_CameraSettingsStateCameraSettingsChangedCallback
                0x00000000000dda50      0x59d /home/sunho/bebop_ws/devel/arsdk/out/arsdk-native/build/libARController/obj/gen/Sources/ARCONTROLLER_Feature.c.o
                0x00000000000dda50                ARCONTROLLER_FEATURE_Common_CameraSettingsStateCameraSettingsChangedCallback
 *fill*         0x00000000000ddfed        0x3 
 .text.ARCONTROLLER_Common_NewCmdElementFlightPlanStateAvailabilityStateChanged
                0x00000000000ddff0      0x5b8 /home/sunho/bebop_ws/devel/arsdk/out/arsdk-native/build/libARController/obj/gen/Sources/ARCONTROLLER_Feature.c.o
                0x00000000000ddff0                ARCONTROLLER_Common_NewCmdElementFlightPlanStateAvailabilityStateChanged
 *fill*         0x00000000000de5a8        0x8 
 .text.ARCONTROLLER_FEATURE_Common_FlightPlanStateAvailabilityStateChangedCallback
                0x00000000000de5b0      0x565 /home/sunho/bebop_ws/devel/arsdk/out/arsdk-native/build/libARController/obj/gen/Sources/ARCONTROLLER_Feature.c.o
                0x00000000000de5b0                ARCONTROLLER_FEATURE_Common_FlightPlanStateAvailabilityStateChangedCallback
 *fill*         0x00000000000deb15        0xb 
 .text.ARCONTROLLER_Common_NewCmdElementFlightPlanStateComponentStateListChanged
                0x00000000000deb20      0xb18 /home/sunho/bebop_ws/devel/arsdk/out/arsdk-native/build/libARController/obj/gen/Sources/ARCONTROLLER_Feature.c.o
                0x00000000000deb20                ARCONTROLLER_Common_NewCmdElementFlightPlanStateComponentStateListChanged
 *fill*         0x00000000000df638        0x8 
 .text.ARCONTROLLER_FEATURE_Common_FlightPlanStateComponentStateListChangedCallback
                0x00000000000df640      0x585 /home/sunho/bebop_ws/devel/arsdk/out/arsdk-native/build/libARController/obj/gen/Sources/ARCONTROLLER_Feature.c.o
                0x00000000000df640                ARCONTROLLER_FEATURE_Common_FlightPlanStateComponentStateListChangedCallback
 *fill*         0x00000000000dfbc5        0xb 
 .text.ARCONTROLLER_Common_NewCmdElementFlightPlanStateLockStateChanged
                0x00000000000dfbd0      0x5b8 /home/sunho/bebop_ws/devel/arsdk/out/arsdk-native/build/libARController/obj/gen/Sources/ARCONTROLLER_Feature.c.o
                0x00000000000dfbd0                ARCONTROLLER_Common_NewCmdElementFlightPlanStateLockStateChanged
 *fill*         0x00000000000e0188        0x8 
 .text.ARCONTROLLER_FEATURE_Common_FlightPlanStateLockStateChangedCallback
                0x00000000000e0190      0x565 /home/sunho/bebop_ws/devel/arsdk/out/arsdk-native/build/libARController/obj/gen/Sources/ARCONTROLLER_Feature.c.o
                0x00000000000e0190                ARCONTROLLER_FEATURE_Common_FlightPlanStateLockStateChangedCallback
 *fill*         0x00000000000e06f5        0xb 
 .text.ARCONTROLLER_Common_NewCmdElementFlightPlanEventStartingErrorEvent
                0x00000000000e0700       0xc9 /home/sunho/bebop_ws/devel/arsdk/out/arsdk-native/build/libARController/obj/gen/Sources/ARCONTROLLER_Feature.c.o
                0x00000000000e0700                ARCONTROLLER_Common_NewCmdElementFlightPlanEventStartingErrorEvent
 *fill*         0x00000000000e07c9        0x7 
 .text.ARCONTROLLER_FEATURE_Common_FlightPlanEventStartingErrorEventCallback
                0x00000000000e07d0      0x55d /home/sunho/bebop_ws/devel/arsdk/out/arsdk-native/build/libARController/obj/gen/Sources/ARCONTROLLER_Feature.c.o
                0x00000000000e07d0                ARCONTROLLER_FEATURE_Common_FlightPlanEventStartingErrorEventCallback
 *fill*         0x00000000000e0d2d        0x3 
 .text.ARCONTROLLER_Common_NewCmdElementFlightPlanEventSpeedBridleEvent
                0x00000000000e0d30       0xc9 /home/sunho/bebop_ws/devel/arsdk/out/arsdk-native/build/libARController/obj/gen/Sources/ARCONTROLLER_Feature.c.o
                0x00000000000e0d30                ARCONTROLLER_Common_NewCmdElementFlightPlanEventSpeedBridleEvent
 *fill*         0x00000000000e0df9        0x7 
 .text.ARCONTROLLER_FEATURE_Common_FlightPlanEventSpeedBridleEventCallback
                0x00000000000e0e00      0x55d /home/sunho/bebop_ws/devel/arsdk/out/arsdk-native/build/libARController/obj/gen/Sources/ARCONTROLLER_Feature.c.o
                0x00000000000e0e00                ARCONTROLLER_FEATURE_Common_FlightPlanEventSpeedBridleEventCallback
 *fill*         0x00000000000e135d        0x3 
 .text.ARCONTROLLER_Common_NewCmdElementARLibsVersionsStateControllerLibARCommandsVersion
                0x00000000000e1360      0x63f /home/sunho/bebop_ws/devel/arsdk/out/arsdk-native/build/libARController/obj/gen/Sources/ARCONTROLLER_Feature.c.o
                0x00000000000e1360                ARCONTROLLER_Common_NewCmdElementARLibsVersionsStateControllerLibARCommandsVersion
 *fill*         0x00000000000e199f        0x1 
 .text.ARCONTROLLER_FEATURE_Common_ARLibsVersionsStateControllerLibARCommandsVersionCallback
                0x00000000000e19a0      0x565 /home/sunho/bebop_ws/devel/arsdk/out/arsdk-native/build/libARController/obj/gen/Sources/ARCONTROLLER_Feature.c.o
                0x00000000000e19a0                ARCONTROLLER_FEATURE_Common_ARLibsVersionsStateControllerLibARCommandsVersionCallback
 *fill*         0x00000000000e1f05        0xb 
 .text.ARCONTROLLER_Common_NewCmdElementARLibsVersionsStateSkyControllerLibARCommandsVersion
                0x00000000000e1f10      0x63f /home/sunho/bebop_ws/devel/arsdk/out/arsdk-native/build/libARController/obj/gen/Sources/ARCONTROLLER_Feature.c.o
                0x00000000000e1f10                ARCONTROLLER_Common_NewCmdElementARLibsVersionsStateSkyControllerLibARCommandsVersion
 *fill*         0x00000000000e254f        0x1 
 .text.ARCONTROLLER_FEATURE_Common_ARLibsVersionsStateSkyControllerLibARCommandsVersionCallback
                0x00000000000e2550      0x565 /home/sunho/bebop_ws/devel/arsdk/out/arsdk-native/build/libARController/obj/gen/Sources/ARCONTROLLER_Feature.c.o
                0x00000000000e2550                ARCONTROLLER_FEATURE_Common_ARLibsVersionsStateSkyControllerLibARCommandsVersionCallback
 *fill*         0x00000000000e2ab5        0xb 
 .text.ARCONTROLLER_Common_NewCmdElementARLibsVersionsStateDeviceLibARCommandsVersion
                0x00000000000e2ac0      0x63f /home/sunho/bebop_ws/devel/arsdk/out/arsdk-native/build/libARController/obj/gen/Sources/ARCONTROLLER_Feature.c.o
                0x00000000000e2ac0                ARCONTROLLER_Common_NewCmdElementARLibsVersionsStateDeviceLibARCommandsVersion
 *fill*         0x00000000000e30ff        0x1 
 .text.ARCONTROLLER_FEATURE_Common_ARLibsVersionsStateDeviceLibARCommandsVersionCallback
                0x00000000000e3100      0x565 /home/sunho/bebop_ws/devel/arsdk/out/arsdk-native/build/libARController/obj/gen/Sources/ARCONTROLLER_Feature.c.o
                0x00000000000e3100                ARCONTROLLER_FEATURE_Common_ARLibsVersionsStateDeviceLibARCommandsVersionCallback
 *fill*         0x00000000000e3665        0xb 
 .text.ARCONTROLLER_Common_NewCmdElementAudioStateAudioStreamingRunning
                0x00000000000e3670      0x5b8 /home/sunho/bebop_ws/devel/arsdk/out/arsdk-native/build/libARController/obj/gen/Sources/ARCONTROLLER_Feature.c.o
                0x00000000000e3670                ARCONTROLLER_Common_NewCmdElementAudioStateAudioStreamingRunning
 *fill*         0x00000000000e3c28        0x8 
 .text.ARCONTROLLER_FEATURE_Common_AudioStateAudioStreamingRunningCallback
                0x00000000000e3c30      0x565 /home/sunho/bebop_ws/devel/arsdk/out/arsdk-native/build/libARController/obj/gen/Sources/ARCONTROLLER_Feature.c.o
                0x00000000000e3c30                ARCONTROLLER_FEATURE_Common_AudioStateAudioStreamingRunningCallback
 *fill*         0x00000000000e4195        0xb 
 .text.ARCONTROLLER_Common_NewCmdElementHeadlightsStateIntensityChanged
                0x00000000000e41a0      0xb28 /home/sunho/bebop_ws/devel/arsdk/out/arsdk-native/build/libARController/obj/gen/Sources/ARCONTROLLER_Feature.c.o
                0x00000000000e41a0                ARCONTROLLER_Common_NewCmdElementHeadlightsStateIntensityChanged
 *fill*         0x00000000000e4cc8        0x8 
 .text.ARCONTROLLER_FEATURE_Common_HeadlightsStateIntensityChangedCallback
                0x00000000000e4cd0      0x585 /home/sunho/bebop_ws/devel/arsdk/out/arsdk-native/build/libARController/obj/gen/Sources/ARCONTROLLER_Feature.c.o
                0x00000000000e4cd0                ARCONTROLLER_FEATURE_Common_HeadlightsStateIntensityChangedCallback
 *fill*         0x00000000000e5255        0xb 
 .text.ARCONTROLLER_Common_NewCmdElementAnimationsStateList
                0x00000000000e5260     0x108c /home/sunho/bebop_ws/devel/arsdk/out/arsdk-native/build/libARController/obj/gen/Sources/ARCONTROLLER_Feature.c.o
                0x00000000000e5260                ARCONTROLLER_Common_NewCmdElementAnimationsStateList
 *fill*         0x00000000000e62ec        0x4 
 .text.ARCONTROLLER_FEATURE_Common_AnimationsStateListCallback
                0x00000000000e62f0      0x596 /home/sunho/bebop_ws/devel/arsdk/out/arsdk-native/build/libARController/obj/gen/Sources/ARCONTROLLER_Feature.c.o
                0x00000000000e62f0                ARCONTROLLER_FEATURE_Common_AnimationsStateListCallback
 *fill*         0x00000000000e6886        0xa 
 .text.ARCONTROLLER_Common_NewCmdElementAccessoryStateSupportedAccessoriesListChanged
                0x00000000000e6890      0x61f /home/sunho/bebop_ws/devel/arsdk/out/arsdk-native/build/libARController/obj/gen/Sources/ARCONTROLLER_Feature.c.o
                0x00000000000e6890                ARCONTROLLER_Common_NewCmdElementAccessoryStateSupportedAccessoriesListChanged
 *fill*         0x00000000000e6eaf        0x1 
 .text.ARCONTROLLER_FEATURE_Common_AccessoryStateSupportedAccessoriesListChangedCallback
                0x00000000000e6eb0      0x565 /home/sunho/bebop_ws/devel/arsdk/out/arsdk-native/build/libARController/obj/gen/Sources/ARCONTROLLER_Feature.c.o
                0x00000000000e6eb0                ARCONTROLLER_FEATURE_Common_AccessoryStateSupportedAccessoriesListChangedCallback
 *fill*         0x00000000000e7415        0xb 
 .text.ARCONTROLLER_Common_NewCmdElementAccessoryStateAccessoryConfigChanged
                0x00000000000e7420      0xb28 /home/sunho/bebop_ws/devel/arsdk/out/arsdk-native/build/libARController/obj/gen/Sources/ARCONTROLLER_Feature.c.o
                0x00000000000e7420                ARCONTROLLER_Common_NewCmdElementAccessoryStateAccessoryConfigChanged
 *fill*         0x00000000000e7f48        0x8 
 .text.ARCONTROLLER_FEATURE_Common_AccessoryStateAccessoryConfigChangedCallback
                0x00000000000e7f50      0x585 /home/sunho/bebop_ws/devel/arsdk/out/arsdk-native/build/libARController/obj/gen/Sources/ARCONTROLLER_Feature.c.o
                0x00000000000e7f50                ARCONTROLLER_FEATURE_Common_AccessoryStateAccessoryConfigChangedCallback
 *fill*         0x00000000000e84d5        0xb 
 .text.ARCONTROLLER_Common_NewCmdElementAccessoryStateAccessoryConfigModificationEnabled
                0x00000000000e84e0      0x5b8 /home/sunho/bebop_ws/devel/arsdk/out/arsdk-native/build/libARController/obj/gen/Sources/ARCONTROLLER_Feature.c.o
                0x00000000000e84e0                ARCONTROLLER_Common_NewCmdElementAccessoryStateAccessoryConfigModificationEnabled
 *fill*         0x00000000000e8a98        0x8 
 .text.ARCONTROLLER_FEATURE_Common_AccessoryStateAccessoryConfigModificationEnabledCallback
                0x00000000000e8aa0      0x565 /home/sunho/bebop_ws/devel/arsdk/out/arsdk-native/build/libARController/obj/gen/Sources/ARCONTROLLER_Feature.c.o
                0x00000000000e8aa0                ARCONTROLLER_FEATURE_Common_AccessoryStateAccessoryConfigModificationEnabledCallback
 *fill*         0x00000000000e9005        0xb 
 .text.ARCONTROLLER_Common_NewCmdElementChargerStateMaxChargeRateChanged
                0x00000000000e9010      0x5b8 /home/sunho/bebop_ws/devel/arsdk/out/arsdk-native/build/libARController/obj/gen/Sources/ARCONTROLLER_Feature.c.o
                0x00000000000e9010                ARCONTROLLER_Common_NewCmdElementChargerStateMaxChargeRateChanged
 *fill*         0x00000000000e95c8        0x8 
 .text.ARCONTROLLER_FEATURE_Common_ChargerStateMaxChargeRateChangedCallback
                0x00000000000e95d0      0x565 /home/sunho/bebop_ws/devel/arsdk/out/arsdk-native/build/libARController/obj/gen/Sources/ARCONTROLLER_Feature.c.o
                0x00000000000e95d0                ARCONTROLLER_FEATURE_Common_ChargerStateMaxChargeRateChangedCallback
 *fill*         0x00000000000e9b35        0xb 
 .text.ARCONTROLLER_Common_NewCmdElementChargerStateCurrentChargeStateChanged
                0x00000000000e9b40      0xb28 /home/sunho/bebop_ws/devel/arsdk/out/arsdk-native/build/libARController/obj/gen/Sources/ARCONTROLLER_Feature.c.o
                0x00000000000e9b40                ARCONTROLLER_Common_NewCmdElementChargerStateCurrentChargeStateChanged
 *fill*         0x00000000000ea668        0x8 
 .text.ARCONTROLLER_FEATURE_Common_ChargerStateCurrentChargeStateChangedCallback
                0x00000000000ea670      0x585 /home/sunho/bebop_ws/devel/arsdk/out/arsdk-native/build/libARController/obj/gen/Sources/ARCONTROLLER_Feature.c.o
                0x00000000000ea670                ARCONTROLLER_FEATURE_Common_ChargerStateCurrentChargeStateChangedCallback
 *fill*         0x00000000000eabf5        0xb 
 .text.ARCONTROLLER_Common_NewCmdElementChargerStateLastChargeRateChanged
                0x00000000000eac00      0x5b8 /home/sunho/bebop_ws/devel/arsdk/out/arsdk-native/build/libARController/obj/gen/Sources/ARCONTROLLER_Feature.c.o
                0x00000000000eac00                ARCONTROLLER_Common_NewCmdElementChargerStateLastChargeRateChanged
 *fill*         0x00000000000eb1b8        0x8 
 .text.ARCONTROLLER_FEATURE_Common_ChargerStateLastChargeRateChangedCallback
                0x00000000000eb1c0      0x565 /home/sunho/bebop_ws/devel/arsdk/out/arsdk-native/build/libARController/obj/gen/Sources/ARCONTROLLER_Feature.c.o
                0x00000000000eb1c0                ARCONTROLLER_FEATURE_Common_ChargerStateLastChargeRateChangedCallback
 *fill*         0x00000000000eb725        0xb 
 .text.ARCONTROLLER_Common_NewCmdElementChargerStateChargingInfo
                0x00000000000eb730     0x1528 /home/sunho/bebop_ws/devel/arsdk/out/arsdk-native/build/libARController/obj/gen/Sources/ARCONTROLLER_Feature.c.o
                0x00000000000eb730                ARCONTROLLER_Common_NewCmdElementChargerStateChargingInfo
 *fill*         0x00000000000ecc58        0x8 
 .text.ARCONTROLLER_FEATURE_Common_ChargerStateChargingInfoCallback
                0x00000000000ecc60      0x596 /home/sunho/bebop_ws/devel/arsdk/out/arsdk-native/build/libARController/obj/gen/Sources/ARCONTROLLER_Feature.c.o
                0x00000000000ecc60                ARCONTROLLER_FEATURE_Common_ChargerStateChargingInfoCallback
 *fill*         0x00000000000ed1f6        0xa 
 .text.ARCONTROLLER_Common_NewCmdElementRunStateRunIdChanged
                0x00000000000ed200      0x63f /home/sunho/bebop_ws/devel/arsdk/out/arsdk-native/build/libARController/obj/gen/Sources/ARCONTROLLER_Feature.c.o
                0x00000000000ed200                ARCONTROLLER_Common_NewCmdElementRunStateRunIdChanged
 *fill*         0x00000000000ed83f        0x1 
 .text.ARCONTROLLER_FEATURE_Common_RunStateRunIdChangedCallback
                0x00000000000ed840      0x565 /home/sunho/bebop_ws/devel/arsdk/out/arsdk-native/build/libARController/obj/gen/Sources/ARCONTROLLER_Feature.c.o
                0x00000000000ed840                ARCONTROLLER_FEATURE_Common_RunStateRunIdChangedCallback
 *fill*         0x00000000000edda5        0xb 
 .text.ARCONTROLLER_FEATURE_Common_SetNetworkController
                0x00000000000eddb0       0x26 /home/sunho/bebop_ws/devel/arsdk/out/arsdk-native/build/libARController/obj/gen/Sources/ARCONTROLLER_Feature.c.o
                0x00000000000eddb0                ARCONTROLLER_FEATURE_Common_SetNetworkController
 *fill*         0x00000000000eddd6        0xa 
 .text.ARCONTROLLER_Common_GetCommandElements
                0x00000000000edde0      0x1a0 /home/sunho/bebop_ws/devel/arsdk/out/arsdk-native/build/libARController/obj/gen/Sources/ARCONTROLLER_Feature.c.o
                0x00000000000edde0                ARCONTROLLER_Common_GetCommandElements
 .text.ARCONTROLLER_FEATURE_ControllerInfo_Delete
                0x00000000000edf80       0x79 /home/sunho/bebop_ws/devel/arsdk/out/arsdk-native/build/libARController/obj/gen/Sources/ARCONTROLLER_Feature.c.o
                0x00000000000edf80                ARCONTROLLER_FEATURE_ControllerInfo_Delete
 *fill*         0x00000000000edff9        0x7 
 .text.ARCONTROLLER_FEATURE_ControllerInfo_New
                0x00000000000ee000       0xa4 /home/sunho/bebop_ws/devel/arsdk/out/arsdk-native/build/libARController/obj/gen/Sources/ARCONTROLLER_Feature.c.o
                0x00000000000ee000                ARCONTROLLER_FEATURE_ControllerInfo_New
 *fill*         0x00000000000ee0a4        0xc 
 .text.ARCONTROLLER_FEATURE_ControllerInfo_GetDictionary
                0x00000000000ee0b0       0x39 /home/sunho/bebop_ws/devel/arsdk/out/arsdk-native/build/libARController/obj/gen/Sources/ARCONTROLLER_Feature.c.o
                0x00000000000ee0b0                ARCONTROLLER_FEATURE_ControllerInfo_GetDictionary
 *fill*         0x00000000000ee0e9        0x7 
 .text.ARCONTROLLER_FEATURE_ControllerInfo_AddCallback
                0x00000000000ee0f0       0x26 /home/sunho/bebop_ws/devel/arsdk/out/arsdk-native/build/libARController/obj/gen/Sources/ARCONTROLLER_Feature.c.o
                0x00000000000ee0f0                ARCONTROLLER_FEATURE_ControllerInfo_AddCallback
 *fill*         0x00000000000ee116        0xa 
 .text.ARCONTROLLER_FEATURE_ControllerInfo_RemoveCallback
                0x00000000000ee120       0x26 /home/sunho/bebop_ws/devel/arsdk/out/arsdk-native/build/libARController/obj/gen/Sources/ARCONTROLLER_Feature.c.o
                0x00000000000ee120                ARCONTROLLER_FEATURE_ControllerInfo_RemoveCallback
 *fill*         0x00000000000ee146        0xa 
 .text.ARCONTROLLER_FEATURE_ControllerInfo_RegisterARCommands
                0x00000000000ee150       0x2e /home/sunho/bebop_ws/devel/arsdk/out/arsdk-native/build/libARController/obj/gen/Sources/ARCONTROLLER_Feature.c.o
                0x00000000000ee150                ARCONTROLLER_FEATURE_ControllerInfo_RegisterARCommands
 *fill*         0x00000000000ee17e        0x2 
 .text.ARCONTROLLER_FEATURE_ControllerInfo_UnregisterARCommands
                0x00000000000ee180       0x2e /home/sunho/bebop_ws/devel/arsdk/out/arsdk-native/build/libARController/obj/gen/Sources/ARCONTROLLER_Feature.c.o
                0x00000000000ee180                ARCONTROLLER_FEATURE_ControllerInfo_UnregisterARCommands
 *fill*         0x00000000000ee1ae        0x2 
 .text.ARCONTROLLER_FEATURE_ControllerInfo_SetNetworkController
                0x00000000000ee1b0       0x1e /home/sunho/bebop_ws/devel/arsdk/out/arsdk-native/build/libARController/obj/gen/Sources/ARCONTROLLER_Feature.c.o
                0x00000000000ee1b0                ARCONTROLLER_FEATURE_ControllerInfo_SetNetworkController
 *fill*         0x00000000000ee1ce        0x2 
 .text.ARCONTROLLER_ControllerInfo_GetCommandElements
                0x00000000000ee1d0      0x190 /home/sunho/bebop_ws/devel/arsdk/out/arsdk-native/build/libARController/obj/gen/Sources/ARCONTROLLER_Feature.c.o
                0x00000000000ee1d0                ARCONTROLLER_ControllerInfo_GetCommandElements
 .text.ARCONTROLLER_FEATURE_Debug_Delete
                0x00000000000ee360       0x79 /home/sunho/bebop_ws/devel/arsdk/out/arsdk-native/build/libARController/obj/gen/Sources/ARCONTROLLER_Feature.c.o
                0x00000000000ee360                ARCONTROLLER_FEATURE_Debug_Delete
 *fill*         0x00000000000ee3d9        0x7 
 .text.ARCONTROLLER_FEATURE_Debug_New
                0x00000000000ee3e0       0xa4 /home/sunho/bebop_ws/devel/arsdk/out/arsdk-native/build/libARController/obj/gen/Sources/ARCONTROLLER_Feature.c.o
                0x00000000000ee3e0                ARCONTROLLER_FEATURE_Debug_New
 *fill*         0x00000000000ee484        0xc 
 .text.ARCONTROLLER_FEATURE_Debug_GetDictionary
                0x00000000000ee490       0x39 /home/sunho/bebop_ws/devel/arsdk/out/arsdk-native/build/libARController/obj/gen/Sources/ARCONTROLLER_Feature.c.o
                0x00000000000ee490                ARCONTROLLER_FEATURE_Debug_GetDictionary
 *fill*         0x00000000000ee4c9        0x7 
 .text.ARCONTROLLER_FEATURE_Debug_AddCallback
                0x00000000000ee4d0       0x26 /home/sunho/bebop_ws/devel/arsdk/out/arsdk-native/build/libARController/obj/gen/Sources/ARCONTROLLER_Feature.c.o
                0x00000000000ee4d0                ARCONTROLLER_FEATURE_Debug_AddCallback
 *fill*         0x00000000000ee4f6        0xa 
 .text.ARCONTROLLER_FEATURE_Debug_RemoveCallback
                0x00000000000ee500       0x26 /home/sunho/bebop_ws/devel/arsdk/out/arsdk-native/build/libARController/obj/gen/Sources/ARCONTROLLER_Feature.c.o
                0x00000000000ee500                ARCONTROLLER_FEATURE_Debug_RemoveCallback
 *fill*         0x00000000000ee526        0xa 
 .text.ARCONTROLLER_FEATURE_Debug_RegisterARCommands
                0x00000000000ee530       0x57 /home/sunho/bebop_ws/devel/arsdk/out/arsdk-native/build/libARController/obj/gen/Sources/ARCONTROLLER_Feature.c.o
                0x00000000000ee530                ARCONTROLLER_FEATURE_Debug_RegisterARCommands
 *fill*         0x00000000000ee587        0x9 
 .text.ARCONTROLLER_FEATURE_Debug_UnregisterARCommands
                0x00000000000ee590       0x4f /home/sunho/bebop_ws/devel/arsdk/out/arsdk-native/build/libARController/obj/gen/Sources/ARCONTROLLER_Feature.c.o
                0x00000000000ee590                ARCONTROLLER_FEATURE_Debug_UnregisterARCommands
 *fill*         0x00000000000ee5df        0x1 
 .text.ARCONTROLLER_Debug_NewCmdElementSettingsInfo
                0x00000000000ee5e0     0x2fd0 /home/sunho/bebop_ws/devel/arsdk/out/arsdk-native/build/libARController/obj/gen/Sources/ARCONTROLLER_Feature.c.o
                0x00000000000ee5e0                ARCONTROLLER_Debug_NewCmdElementSettingsInfo
 .text.ARCONTROLLER_FEATURE_Debug_SettingsInfoCallback
                0x00000000000f15b0      0x605 /home/sunho/bebop_ws/devel/arsdk/out/arsdk-native/build/libARController/obj/gen/Sources/ARCONTROLLER_Feature.c.o
                0x00000000000f15b0                ARCONTROLLER_FEATURE_Debug_SettingsInfoCallback
 *fill*         0x00000000000f1bb5        0xb 
 .text.ARCONTROLLER_Debug_NewCmdElementSettingsList
                0x00000000000f1bc0      0xb92 /home/sunho/bebop_ws/devel/arsdk/out/arsdk-native/build/libARController/obj/gen/Sources/ARCONTROLLER_Feature.c.o
                0x00000000000f1bc0                ARCONTROLLER_Debug_NewCmdElementSettingsList
 *fill*         0x00000000000f2752        0xe 
 .text.ARCONTROLLER_FEATURE_Debug_SettingsListCallback
                0x00000000000f2760      0x56c /home/sunho/bebop_ws/devel/arsdk/out/arsdk-native/build/libARController/obj/gen/Sources/ARCONTROLLER_Feature.c.o
                0x00000000000f2760                ARCONTROLLER_FEATURE_Debug_SettingsListCallback
 *fill*         0x00000000000f2ccc        0x4 
 .text.ARCONTROLLER_FEATURE_Debug_SetNetworkController
                0x00000000000f2cd0       0x1e /home/sunho/bebop_ws/devel/arsdk/out/arsdk-native/build/libARController/obj/gen/Sources/ARCONTROLLER_Feature.c.o
                0x00000000000f2cd0                ARCONTROLLER_FEATURE_Debug_SetNetworkController
 *fill*         0x00000000000f2cee        0x2 
 .text.ARCONTROLLER_Debug_GetCommandElements
                0x00000000000f2cf0      0x190 /home/sunho/bebop_ws/devel/arsdk/out/arsdk-native/build/libARController/obj/gen/Sources/ARCONTROLLER_Feature.c.o
                0x00000000000f2cf0                ARCONTROLLER_Debug_GetCommandElements
 .text.ARCONTROLLER_FEATURE_DroneManager_Delete
                0x00000000000f2e80       0x79 /home/sunho/bebop_ws/devel/arsdk/out/arsdk-native/build/libARController/obj/gen/Sources/ARCONTROLLER_Feature.c.o
                0x00000000000f2e80                ARCONTROLLER_FEATURE_DroneManager_Delete
 *fill*         0x00000000000f2ef9        0x7 
 .text.ARCONTROLLER_FEATURE_DroneManager_New
                0x00000000000f2f00       0xac /home/sunho/bebop_ws/devel/arsdk/out/arsdk-native/build/libARController/obj/gen/Sources/ARCONTROLLER_Feature.c.o
                0x00000000000f2f00                ARCONTROLLER_FEATURE_DroneManager_New
 *fill*         0x00000000000f2fac        0x4 
 .text.ARCONTROLLER_FEATURE_DroneManager_GetDictionary
                0x00000000000f2fb0       0x39 /home/sunho/bebop_ws/devel/arsdk/out/arsdk-native/build/libARController/obj/gen/Sources/ARCONTROLLER_Feature.c.o
                0x00000000000f2fb0                ARCONTROLLER_FEATURE_DroneManager_GetDictionary
 *fill*         0x00000000000f2fe9        0x7 
 .text.ARCONTROLLER_FEATURE_DroneManager_AddCallback
                0x00000000000f2ff0       0x26 /home/sunho/bebop_ws/devel/arsdk/out/arsdk-native/build/libARController/obj/gen/Sources/ARCONTROLLER_Feature.c.o
                0x00000000000f2ff0                ARCONTROLLER_FEATURE_DroneManager_AddCallback
 *fill*         0x00000000000f3016        0xa 
 .text.ARCONTROLLER_FEATURE_DroneManager_RemoveCallback
                0x00000000000f3020       0x26 /home/sunho/bebop_ws/devel/arsdk/out/arsdk-native/build/libARController/obj/gen/Sources/ARCONTROLLER_Feature.c.o
                0x00000000000f3020                ARCONTROLLER_FEATURE_DroneManager_RemoveCallback
 *fill*         0x00000000000f3046        0xa 
 .text.ARCONTROLLER_FEATURE_DroneManager_RegisterARCommands
                0x00000000000f3050       0x87 /home/sunho/bebop_ws/devel/arsdk/out/arsdk-native/build/libARController/obj/gen/Sources/ARCONTROLLER_Feature.c.o
                0x00000000000f3050                ARCONTROLLER_FEATURE_DroneManager_RegisterARCommands
 *fill*         0x00000000000f30d7        0x9 
 .text.ARCONTROLLER_FEATURE_DroneManager_UnregisterARCommands
                0x00000000000f30e0       0x77 /home/sunho/bebop_ws/devel/arsdk/out/arsdk-native/build/libARController/obj/gen/Sources/ARCONTROLLER_Feature.c.o
                0x00000000000f30e0                ARCONTROLLER_FEATURE_DroneManager_UnregisterARCommands
 *fill*         0x00000000000f3157        0x9 
 .text.ARCONTROLLER_DroneManager_NewCmdElementDroneListItem
                0x00000000000f3160     0x2e37 /home/sunho/bebop_ws/devel/arsdk/out/arsdk-native/build/libARController/obj/gen/Sources/ARCONTROLLER_Feature.c.o
                0x00000000000f3160                ARCONTROLLER_DroneManager_NewCmdElementDroneListItem
 *fill*         0x00000000000f5f97        0x9 
 .text.ARCONTROLLER_FEATURE_DroneManager_DroneListItemCallback
                0x00000000000f5fa0      0xbde /home/sunho/bebop_ws/devel/arsdk/out/arsdk-native/build/libARController/obj/gen/Sources/ARCONTROLLER_Feature.c.o
                0x00000000000f5fa0                ARCONTROLLER_FEATURE_DroneManager_DroneListItemCallback
 *fill*         0x00000000000f6b7e        0x2 
 .text.ARCONTROLLER_DroneManager_NewCmdElementConnectionState
                0x00000000000f6b80     0x161a /home/sunho/bebop_ws/devel/arsdk/out/arsdk-native/build/libARController/obj/gen/Sources/ARCONTROLLER_Feature.c.o
                0x00000000000f6b80                ARCONTROLLER_DroneManager_NewCmdElementConnectionState
 *fill*         0x00000000000f819a        0x6 
 .text.ARCONTROLLER_FEATURE_DroneManager_ConnectionStateCallback
                0x00000000000f81a0      0x58d /home/sunho/bebop_ws/devel/arsdk/out/arsdk-native/build/libARController/obj/gen/Sources/ARCONTROLLER_Feature.c.o
                0x00000000000f81a0                ARCONTROLLER_FEATURE_DroneManager_ConnectionStateCallback
 *fill*         0x00000000000f872d        0x3 
 .text.ARCONTROLLER_DroneManager_NewCmdElementAuthenticationFailed
                0x00000000000f8730     0x10e6 /home/sunho/bebop_ws/devel/arsdk/out/arsdk-native/build/libARController/obj/gen/Sources/ARCONTROLLER_Feature.c.o
                0x00000000000f8730                ARCONTROLLER_DroneManager_NewCmdElementAuthenticationFailed
 *fill*         0x00000000000f9816        0xa 
 .text.ARCONTROLLER_FEATURE_DroneManager_AuthenticationFailedCallback
                0x00000000000f9820      0x57d /home/sunho/bebop_ws/devel/arsdk/out/arsdk-native/build/libARController/obj/gen/Sources/ARCONTROLLER_Feature.c.o
                0x00000000000f9820                ARCONTROLLER_FEATURE_DroneManager_AuthenticationFailedCallback
 *fill*         0x00000000000f9d9d        0x3 
 .text.ARCONTROLLER_DroneManager_NewCmdElementConnectionRefused
                0x00000000000f9da0     0x10e6 /home/sunho/bebop_ws/devel/arsdk/out/arsdk-native/build/libARController/obj/gen/Sources/ARCONTROLLER_Feature.c.o
                0x00000000000f9da0                ARCONTROLLER_DroneManager_NewCmdElementConnectionRefused
 *fill*         0x00000000000fae86        0xa 
 .text.ARCONTROLLER_FEATURE_DroneManager_ConnectionRefusedCallback
                0x00000000000fae90      0x57d /home/sunho/bebop_ws/devel/arsdk/out/arsdk-native/build/libARController/obj/gen/Sources/ARCONTROLLER_Feature.c.o
                0x00000000000fae90                ARCONTROLLER_FEATURE_DroneManager_ConnectionRefusedCallback
 *fill*         0x00000000000fb40d        0x3 
 .text.ARCONTROLLER_FEATURE_DroneManager_SetNetworkController
                0x00000000000fb410       0x1e /home/sunho/bebop_ws/devel/arsdk/out/arsdk-native/build/libARController/obj/gen/Sources/ARCONTROLLER_Feature.c.o
                0x00000000000fb410                ARCONTROLLER_FEATURE_DroneManager_SetNetworkController
 *fill*         0x00000000000fb42e        0x2 
 .text.ARCONTROLLER_DroneManager_GetCommandElements
                0x00000000000fb430      0x190 /home/sunho/bebop_ws/devel/arsdk/out/arsdk-native/build/libARController/obj/gen/Sources/ARCONTROLLER_Feature.c.o
                0x00000000000fb430                ARCONTROLLER_DroneManager_GetCommandElements
 .text.ARCONTROLLER_FEATURE_JumpingSumo_Delete
                0x00000000000fb5c0       0xc1 /home/sunho/bebop_ws/devel/arsdk/out/arsdk-native/build/libARController/obj/gen/Sources/ARCONTROLLER_Feature.c.o
                0x00000000000fb5c0                ARCONTROLLER_FEATURE_JumpingSumo_Delete
 *fill*         0x00000000000fb681        0xf 
 .text.ARCONTROLLER_FEATURE_JumpingSumo_New
                0x00000000000fb690      0x21f /home/sunho/bebop_ws/devel/arsdk/out/arsdk-native/build/libARController/obj/gen/Sources/ARCONTROLLER_Feature.c.o
                0x00000000000fb690                ARCONTROLLER_FEATURE_JumpingSumo_New
 *fill*         0x00000000000fb8af        0x1 
 .text.ARCONTROLLER_FEATURE_JumpingSumo_GetDictionary
                0x00000000000fb8b0       0x39 /home/sunho/bebop_ws/devel/arsdk/out/arsdk-native/build/libARController/obj/gen/Sources/ARCONTROLLER_Feature.c.o
                0x00000000000fb8b0                ARCONTROLLER_FEATURE_JumpingSumo_GetDictionary
 *fill*         0x00000000000fb8e9        0x7 
 .text.ARCONTROLLER_FEATURE_JumpingSumo_AddCallback
                0x00000000000fb8f0       0x26 /home/sunho/bebop_ws/devel/arsdk/out/arsdk-native/build/libARController/obj/gen/Sources/ARCONTROLLER_Feature.c.o
                0x00000000000fb8f0                ARCONTROLLER_FEATURE_JumpingSumo_AddCallback
 *fill*         0x00000000000fb916        0xa 
 .text.ARCONTROLLER_FEATURE_JumpingSumo_RemoveCallback
                0x00000000000fb920       0x26 /home/sunho/bebop_ws/devel/arsdk/out/arsdk-native/build/libARController/obj/gen/Sources/ARCONTROLLER_Feature.c.o
                0x00000000000fb920                ARCONTROLLER_FEATURE_JumpingSumo_RemoveCallback
 *fill*         0x00000000000fb946        0xa 
 .text.ARCONTROLLER_FEATURE_JumpingSumo_RegisterARCommands
                0x00000000000fb950      0x367 /home/sunho/bebop_ws/devel/arsdk/out/arsdk-native/build/libARController/obj/gen/Sources/ARCONTROLLER_Feature.c.o
                0x00000000000fb950                ARCONTROLLER_FEATURE_JumpingSumo_RegisterARCommands
 *fill*         0x00000000000fbcb7        0x9 
 .text.ARCONTROLLER_FEATURE_JumpingSumo_UnregisterARCommands
                0x00000000000fbcc0      0x2b7 /home/sunho/bebop_ws/devel/arsdk/out/arsdk-native/build/libARController/obj/gen/Sources/ARCONTROLLER_Feature.c.o
                0x00000000000fbcc0                ARCONTROLLER_FEATURE_JumpingSumo_UnregisterARCommands
 *fill*         0x00000000000fbf77        0x9 
 .text.ARCONTROLLER_JumpingSumo_SendPilotingPCMDStruct
                0x00000000000fbf80      0x176 /home/sunho/bebop_ws/devel/arsdk/out/arsdk-native/build/libARController/obj/gen/Sources/ARCONTROLLER_Feature.c.o
                0x00000000000fbf80                ARCONTROLLER_JumpingSumo_SendPilotingPCMDStruct
 *fill*         0x00000000000fc0f6        0xa 
 .text.ARCONTROLLER_JumpingSumo_NewCmdElementPilotingStatePostureChanged
                0x00000000000fc100      0x5b8 /home/sunho/bebop_ws/devel/arsdk/out/arsdk-native/build/libARController/obj/gen/Sources/ARCONTROLLER_Feature.c.o
                0x00000000000fc100                ARCONTROLLER_JumpingSumo_NewCmdElementPilotingStatePostureChanged
 *fill*         0x00000000000fc6b8        0x8 
 .text.ARCONTROLLER_FEATURE_JumpingSumo_PilotingStatePostureChangedCallback
                0x00000000000fc6c0      0x565 /home/sunho/bebop_ws/devel/arsdk/out/arsdk-native/build/libARController/obj/gen/Sources/ARCONTROLLER_Feature.c.o
                0x00000000000fc6c0                ARCONTROLLER_FEATURE_JumpingSumo_PilotingStatePostureChangedCallback
 *fill*         0x00000000000fcc25        0xb 
 .text.ARCONTROLLER_JumpingSumo_NewCmdElementPilotingStateAlertStateChanged
                0x00000000000fcc30      0x5b8 /home/sunho/bebop_ws/devel/arsdk/out/arsdk-native/build/libARController/obj/gen/Sources/ARCONTROLLER_Feature.c.o
                0x00000000000fcc30                ARCONTROLLER_JumpingSumo_NewCmdElementPilotingStateAlertStateChanged
 *fill*         0x00000000000fd1e8        0x8 
 .text.ARCONTROLLER_FEATURE_JumpingSumo_PilotingStateAlertStateChangedCallback
                0x00000000000fd1f0      0x565 /home/sunho/bebop_ws/devel/arsdk/out/arsdk-native/build/libARController/obj/gen/Sources/ARCONTROLLER_Feature.c.o
                0x00000000000fd1f0                ARCONTROLLER_FEATURE_JumpingSumo_PilotingStateAlertStateChangedCallback
 *fill*         0x00000000000fd755        0xb 
 .text.ARCONTROLLER_JumpingSumo_NewCmdElementPilotingStateSpeedChanged
                0x00000000000fd760      0xb28 /home/sunho/bebop_ws/devel/arsdk/out/arsdk-native/build/libARController/obj/gen/Sources/ARCONTROLLER_Feature.c.o
                0x00000000000fd760                ARCONTROLLER_JumpingSumo_NewCmdElementPilotingStateSpeedChanged
 *fill*         0x00000000000fe288        0x8 
 .text.ARCONTROLLER_FEATURE_JumpingSumo_PilotingStateSpeedChangedCallback
                0x00000000000fe290      0x585 /home/sunho/bebop_ws/devel/arsdk/out/arsdk-native/build/libARController/obj/gen/Sources/ARCONTROLLER_Feature.c.o
                0x00000000000fe290                ARCONTROLLER_FEATURE_JumpingSumo_PilotingStateSpeedChangedCallback
 *fill*         0x00000000000fe815        0xb 
 .text.ARCONTROLLER_JumpingSumo_NewCmdElementAnimationsStateJumpLoadChanged
                0x00000000000fe820      0x5b8 /home/sunho/bebop_ws/devel/arsdk/out/arsdk-native/build/libARController/obj/gen/Sources/ARCONTROLLER_Feature.c.o
                0x00000000000fe820                ARCONTROLLER_JumpingSumo_NewCmdElementAnimationsStateJumpLoadChanged
 *fill*         0x00000000000fedd8        0x8 
 .text.ARCONTROLLER_FEATURE_JumpingSumo_AnimationsStateJumpLoadChangedCallback
                0x00000000000fede0      0x565 /home/sunho/bebop_ws/devel/arsdk/out/arsdk-native/build/libARController/obj/gen/Sources/ARCONTROLLER_Feature.c.o
                0x00000000000fede0                ARCONTROLLER_FEATURE_JumpingSumo_AnimationsStateJumpLoadChangedCallback
 *fill*         0x00000000000ff345        0xb 
 .text.ARCONTROLLER_JumpingSumo_NewCmdElementAnimationsStateJumpTypeChanged
                0x00000000000ff350      0x5b8 /home/sunho/bebop_ws/devel/arsdk/out/arsdk-native/build/libARController/obj/gen/Sources/ARCONTROLLER_Feature.c.o
                0x00000000000ff350                ARCONTROLLER_JumpingSumo_NewCmdElementAnimationsStateJumpTypeChanged
 *fill*         0x00000000000ff908        0x8 
 .text.ARCONTROLLER_FEATURE_JumpingSumo_AnimationsStateJumpTypeChangedCallback
                0x00000000000ff910      0x565 /home/sunho/bebop_ws/devel/arsdk/out/arsdk-native/build/libARController/obj/gen/Sources/ARCONTROLLER_Feature.c.o
                0x00000000000ff910                ARCONTROLLER_FEATURE_JumpingSumo_AnimationsStateJumpTypeChangedCallback
 *fill*         0x00000000000ffe75        0xb 
 .text.ARCONTROLLER_JumpingSumo_NewCmdElementAnimationsStateJumpMotorProblemChanged
                0x00000000000ffe80      0x5b8 /home/sunho/bebop_ws/devel/arsdk/out/arsdk-native/build/libARController/obj/gen/Sources/ARCONTROLLER_Feature.c.o
                0x00000000000ffe80                ARCONTROLLER_JumpingSumo_NewCmdElementAnimationsStateJumpMotorProblemChanged
 *fill*         0x0000000000100438        0x8 
 .text.ARCONTROLLER_FEATURE_JumpingSumo_AnimationsStateJumpMotorProblemChangedCallback
                0x0000000000100440      0x565 /home/sunho/bebop_ws/devel/arsdk/out/arsdk-native/build/libARController/obj/gen/Sources/ARCONTROLLER_Feature.c.o
                0x0000000000100440                ARCONTROLLER_FEATURE_JumpingSumo_AnimationsStateJumpMotorProblemChangedCallback
 *fill*         0x00000000001009a5        0xb 
 .text.ARCONTROLLER_JumpingSumo_NewCmdElementSettingsStateProductGPSVersionChanged
                0x00000000001009b0      0xc27 /home/sunho/bebop_ws/devel/arsdk/out/arsdk-native/build/libARController/obj/gen/Sources/ARCONTROLLER_Feature.c.o
                0x00000000001009b0                ARCONTROLLER_JumpingSumo_NewCmdElementSettingsStateProductGPSVersionChanged
 *fill*         0x00000000001015d7        0x9 
 .text.ARCONTROLLER_FEATURE_JumpingSumo_SettingsStateProductGPSVersionChangedCallback
                0x00000000001015e0      0x585 /home/sunho/bebop_ws/devel/arsdk/out/arsdk-native/build/libARController/obj/gen/Sources/ARCONTROLLER_Feature.c.o
                0x00000000001015e0                ARCONTROLLER_FEATURE_JumpingSumo_SettingsStateProductGPSVersionChangedCallback
 *fill*         0x0000000000101b65        0xb 
 .text.ARCONTROLLER_JumpingSumo_NewCmdElementMediaRecordStatePictureStateChanged
                0x0000000000101b70      0xb28 /home/sunho/bebop_ws/devel/arsdk/out/arsdk-native/build/libARController/obj/gen/Sources/ARCONTROLLER_Feature.c.o
                0x0000000000101b70                ARCONTROLLER_JumpingSumo_NewCmdElementMediaRecordStatePictureStateChanged
 *fill*         0x0000000000102698        0x8 
 .text.ARCONTROLLER_FEATURE_JumpingSumo_MediaRecordStatePictureStateChangedCallback
                0x00000000001026a0      0x585 /home/sunho/bebop_ws/devel/arsdk/out/arsdk-native/build/libARController/obj/gen/Sources/ARCONTROLLER_Feature.c.o
                0x00000000001026a0                ARCONTROLLER_FEATURE_JumpingSumo_MediaRecordStatePictureStateChangedCallback
 *fill*         0x0000000000102c25        0xb 
 .text.ARCONTROLLER_JumpingSumo_NewCmdElementMediaRecordStateVideoStateChanged
                0x0000000000102c30      0xb28 /home/sunho/bebop_ws/devel/arsdk/out/arsdk-native/build/libARController/obj/gen/Sources/ARCONTROLLER_Feature.c.o
                0x0000000000102c30                ARCONTROLLER_JumpingSumo_NewCmdElementMediaRecordStateVideoStateChanged
 *fill*         0x0000000000103758        0x8 
 .text.ARCONTROLLER_FEATURE_JumpingSumo_MediaRecordStateVideoStateChangedCallback
                0x0000000000103760      0x585 /home/sunho/bebop_ws/devel/arsdk/out/arsdk-native/build/libARController/obj/gen/Sources/ARCONTROLLER_Feature.c.o
                0x0000000000103760                ARCONTROLLER_FEATURE_JumpingSumo_MediaRecordStateVideoStateChangedCallback
 *fill*         0x0000000000103ce5        0xb 
 .text.ARCONTROLLER_JumpingSumo_NewCmdElementMediaRecordStatePictureStateChangedV2
                0x0000000000103cf0      0xb28 /home/sunho/bebop_ws/devel/arsdk/out/arsdk-native/build/libARController/obj/gen/Sources/ARCONTROLLER_Feature.c.o
                0x0000000000103cf0                ARCONTROLLER_JumpingSumo_NewCmdElementMediaRecordStatePictureStateChangedV2
 *fill*         0x0000000000104818        0x8 
 .text.ARCONTROLLER_FEATURE_JumpingSumo_MediaRecordStatePictureStateChangedV2Callback
                0x0000000000104820      0x585 /home/sunho/bebop_ws/devel/arsdk/out/arsdk-native/build/libARController/obj/gen/Sources/ARCONTROLLER_Feature.c.o
                0x0000000000104820                ARCONTROLLER_FEATURE_JumpingSumo_MediaRecordStatePictureStateChangedV2Callback
 *fill*         0x0000000000104da5        0xb 
 .text.ARCONTROLLER_JumpingSumo_NewCmdElementMediaRecordStateVideoStateChangedV2
                0x0000000000104db0      0xb28 /home/sunho/bebop_ws/devel/arsdk/out/arsdk-native/build/libARController/obj/gen/Sources/ARCONTROLLER_Feature.c.o
                0x0000000000104db0                ARCONTROLLER_JumpingSumo_NewCmdElementMediaRecordStateVideoStateChangedV2
 *fill*         0x00000000001058d8        0x8 
 .text.ARCONTROLLER_FEATURE_JumpingSumo_MediaRecordStateVideoStateChangedV2Callback
                0x00000000001058e0      0x585 /home/sunho/bebop_ws/devel/arsdk/out/arsdk-native/build/libARController/obj/gen/Sources/ARCONTROLLER_Feature.c.o
                0x00000000001058e0                ARCONTROLLER_FEATURE_JumpingSumo_MediaRecordStateVideoStateChangedV2Callback
 *fill*         0x0000000000105e65        0xb 
 .text.ARCONTROLLER_JumpingSumo_NewCmdElementMediaRecordEventPictureEventChanged
                0x0000000000105e70      0xb28 /home/sunho/bebop_ws/devel/arsdk/out/arsdk-native/build/libARController/obj/gen/Sources/ARCONTROLLER_Feature.c.o
                0x0000000000105e70                ARCONTROLLER_JumpingSumo_NewCmdElementMediaRecordEventPictureEventChanged
 *fill*         0x0000000000106998        0x8 
 .text.ARCONTROLLER_FEATURE_JumpingSumo_MediaRecordEventPictureEventChangedCallback
                0x00000000001069a0      0x585 /home/sunho/bebop_ws/devel/arsdk/out/arsdk-native/build/libARController/obj/gen/Sources/ARCONTROLLER_Feature.c.o
                0x00000000001069a0                ARCONTROLLER_FEATURE_JumpingSumo_MediaRecordEventPictureEventChangedCallback
 *fill*         0x0000000000106f25        0xb 
 .text.ARCONTROLLER_JumpingSumo_NewCmdElementMediaRecordEventVideoEventChanged
                0x0000000000106f30      0xb28 /home/sunho/bebop_ws/devel/arsdk/out/arsdk-native/build/libARController/obj/gen/Sources/ARCONTROLLER_Feature.c.o
                0x0000000000106f30                ARCONTROLLER_JumpingSumo_NewCmdElementMediaRecordEventVideoEventChanged
 *fill*         0x0000000000107a58        0x8 
 .text.ARCONTROLLER_FEATURE_JumpingSumo_MediaRecordEventVideoEventChangedCallback
                0x0000000000107a60      0x585 /home/sunho/bebop_ws/devel/arsdk/out/arsdk-native/build/libARController/obj/gen/Sources/ARCONTROLLER_Feature.c.o
                0x0000000000107a60                ARCONTROLLER_FEATURE_JumpingSumo_MediaRecordEventVideoEventChangedCallback
 *fill*         0x0000000000107fe5        0xb 
 .text.ARCONTROLLER_JumpingSumo_NewCmdElementNetworkSettingsStateWifiSelectionChanged
                0x0000000000107ff0     0x1032 /home/sunho/bebop_ws/devel/arsdk/out/arsdk-native/build/libARController/obj/gen/Sources/ARCONTROLLER_Feature.c.o
                0x0000000000107ff0                ARCONTROLLER_JumpingSumo_NewCmdElementNetworkSettingsStateWifiSelectionChanged
 *fill*         0x0000000000109022        0xe 
 .text.ARCONTROLLER_FEATURE_JumpingSumo_NetworkSettingsStateWifiSelectionChangedCallback
                0x0000000000109030      0x596 /home/sunho/bebop_ws/devel/arsdk/out/arsdk-native/build/libARController/obj/gen/Sources/ARCONTROLLER_Feature.c.o
                0x0000000000109030                ARCONTROLLER_FEATURE_JumpingSumo_NetworkSettingsStateWifiSelectionChangedCallback
 *fill*         0x00000000001095c6        0xa 
 .text.ARCONTROLLER_JumpingSumo_NewCmdElementNetworkStateWifiScanListChanged
                0x00000000001095d0     0x156e /home/sunho/bebop_ws/devel/arsdk/out/arsdk-native/build/libARController/obj/gen/Sources/ARCONTROLLER_Feature.c.o
                0x00000000001095d0                ARCONTROLLER_JumpingSumo_NewCmdElementNetworkStateWifiScanListChanged
 *fill*         0x000000000010ab3e        0x2 
 .text.ARCONTROLLER_FEATURE_JumpingSumo_NetworkStateWifiScanListChangedCallback
                0x000000000010ab40      0x596 /home/sunho/bebop_ws/devel/arsdk/out/arsdk-native/build/libARController/obj/gen/Sources/ARCONTROLLER_Feature.c.o
                0x000000000010ab40                ARCONTROLLER_FEATURE_JumpingSumo_NetworkStateWifiScanListChangedCallback
 *fill*         0x000000000010b0d6        0xa 
 .text.ARCONTROLLER_JumpingSumo_NewCmdElementNetworkStateAllWifiScanChanged
                0x000000000010b0e0       0xc9 /home/sunho/bebop_ws/devel/arsdk/out/arsdk-native/build/libARController/obj/gen/Sources/ARCONTROLLER_Feature.c.o
                0x000000000010b0e0                ARCONTROLLER_JumpingSumo_NewCmdElementNetworkStateAllWifiScanChanged
 *fill*         0x000000000010b1a9        0x7 
 .text.ARCONTROLLER_FEATURE_JumpingSumo_NetworkStateAllWifiScanChangedCallback
                0x000000000010b1b0      0x55d /home/sunho/bebop_ws/devel/arsdk/out/arsdk-native/build/libARController/obj/gen/Sources/ARCONTROLLER_Feature.c.o
                0x000000000010b1b0                ARCONTROLLER_FEATURE_JumpingSumo_NetworkStateAllWifiScanChangedCallback
 *fill*         0x000000000010b70d        0x3 
 .text.ARCONTROLLER_JumpingSumo_NewCmdElementNetworkStateWifiAuthChannelListChanged
                0x000000000010b710     0x10b9 /home/sunho/bebop_ws/devel/arsdk/out/arsdk-native/build/libARController/obj/gen/Sources/ARCONTROLLER_Feature.c.o
                0x000000000010b710                ARCONTROLLER_JumpingSumo_NewCmdElementNetworkStateWifiAuthChannelListChanged
 *fill*         0x000000000010c7c9        0x7 
 .text.ARCONTROLLER_FEATURE_JumpingSumo_NetworkStateWifiAuthChannelListChangedCallback
                0x000000000010c7d0      0x5bf /home/sunho/bebop_ws/devel/arsdk/out/arsdk-native/build/libARController/obj/gen/Sources/ARCONTROLLER_Feature.c.o
                0x000000000010c7d0                ARCONTROLLER_FEATURE_JumpingSumo_NetworkStateWifiAuthChannelListChangedCallback
 *fill*         0x000000000010cd8f        0x1 
 .text.ARCONTROLLER_JumpingSumo_NewCmdElementNetworkStateAllWifiAuthChannelChanged
                0x000000000010cd90       0xc9 /home/sunho/bebop_ws/devel/arsdk/out/arsdk-native/build/libARController/obj/gen/Sources/ARCONTROLLER_Feature.c.o
                0x000000000010cd90                ARCONTROLLER_JumpingSumo_NewCmdElementNetworkStateAllWifiAuthChannelChanged
 *fill*         0x000000000010ce59        0x7 
 .text.ARCONTROLLER_FEATURE_JumpingSumo_NetworkStateAllWifiAuthChannelChangedCallback
                0x000000000010ce60      0x55d /home/sunho/bebop_ws/devel/arsdk/out/arsdk-native/build/libARController/obj/gen/Sources/ARCONTROLLER_Feature.c.o
                0x000000000010ce60                ARCONTROLLER_FEATURE_JumpingSumo_NetworkStateAllWifiAuthChannelChangedCallback
 *fill*         0x000000000010d3bd        0x3 
 .text.ARCONTROLLER_JumpingSumo_NewCmdElementNetworkStateLinkQualityChanged
                0x000000000010d3c0      0x5b8 /home/sunho/bebop_ws/devel/arsdk/out/arsdk-native/build/libARController/obj/gen/Sources/ARCONTROLLER_Feature.c.o
                0x000000000010d3c0                ARCONTROLLER_JumpingSumo_NewCmdElementNetworkStateLinkQualityChanged
 *fill*         0x000000000010d978        0x8 
 .text.ARCONTROLLER_FEATURE_JumpingSumo_NetworkStateLinkQualityChangedCallback
                0x000000000010d980      0x565 /home/sunho/bebop_ws/devel/arsdk/out/arsdk-native/build/libARController/obj/gen/Sources/ARCONTROLLER_Feature.c.o
                0x000000000010d980                ARCONTROLLER_FEATURE_JumpingSumo_NetworkStateLinkQualityChangedCallback
 *fill*         0x000000000010dee5        0xb 
 .text.ARCONTROLLER_JumpingSumo_NewCmdElementAudioSettingsStateMasterVolumeChanged
                0x000000000010def0      0x5b8 /home/sunho/bebop_ws/devel/arsdk/out/arsdk-native/build/libARController/obj/gen/Sources/ARCONTROLLER_Feature.c.o
                0x000000000010def0                ARCONTROLLER_JumpingSumo_NewCmdElementAudioSettingsStateMasterVolumeChanged
 *fill*         0x000000000010e4a8        0x8 
 .text.ARCONTROLLER_FEATURE_JumpingSumo_AudioSettingsStateMasterVolumeChangedCallback
                0x000000000010e4b0      0x565 /home/sunho/bebop_ws/devel/arsdk/out/arsdk-native/build/libARController/obj/gen/Sources/ARCONTROLLER_Feature.c.o
                0x000000000010e4b0                ARCONTROLLER_FEATURE_JumpingSumo_AudioSettingsStateMasterVolumeChangedCallback
 *fill*         0x000000000010ea15        0xb 
 .text.ARCONTROLLER_JumpingSumo_NewCmdElementAudioSettingsStateThemeChanged
                0x000000000010ea20      0x5b8 /home/sunho/bebop_ws/devel/arsdk/out/arsdk-native/build/libARController/obj/gen/Sources/ARCONTROLLER_Feature.c.o
                0x000000000010ea20                ARCONTROLLER_JumpingSumo_NewCmdElementAudioSettingsStateThemeChanged
 *fill*         0x000000000010efd8        0x8 
 .text.ARCONTROLLER_FEATURE_JumpingSumo_AudioSettingsStateThemeChangedCallback
                0x000000000010efe0      0x565 /home/sunho/bebop_ws/devel/arsdk/out/arsdk-native/build/libARController/obj/gen/Sources/ARCONTROLLER_Feature.c.o
                0x000000000010efe0                ARCONTROLLER_FEATURE_JumpingSumo_AudioSettingsStateThemeChangedCallback
 *fill*         0x000000000010f545        0xb 
 .text.ARCONTROLLER_JumpingSumo_NewCmdElementRoadPlanStateScriptMetadataListChanged
                0x000000000010f550     0x1ade /home/sunho/bebop_ws/devel/arsdk/out/arsdk-native/build/libARController/obj/gen/Sources/ARCONTROLLER_Feature.c.o
                0x000000000010f550                ARCONTROLLER_JumpingSumo_NewCmdElementRoadPlanStateScriptMetadataListChanged
 *fill*         0x000000000011102e        0x2 
 .text.ARCONTROLLER_FEATURE_JumpingSumo_RoadPlanStateScriptMetadataListChangedCallback
                0x0000000000111030      0x5a6 /home/sunho/bebop_ws/devel/arsdk/out/arsdk-native/build/libARController/obj/gen/Sources/ARCONTROLLER_Feature.c.o
                0x0000000000111030                ARCONTROLLER_FEATURE_JumpingSumo_RoadPlanStateScriptMetadataListChangedCallback
 *fill*         0x00000000001115d6        0xa 
 .text.ARCONTROLLER_JumpingSumo_NewCmdElementRoadPlanStateAllScriptsMetadataChanged
                0x00000000001115e0       0xc9 /home/sunho/bebop_ws/devel/arsdk/out/arsdk-native/build/libARController/obj/gen/Sources/ARCONTROLLER_Feature.c.o
                0x00000000001115e0                ARCONTROLLER_JumpingSumo_NewCmdElementRoadPlanStateAllScriptsMetadataChanged
 *fill*         0x00000000001116a9        0x7 
 .text.ARCONTROLLER_FEATURE_JumpingSumo_RoadPlanStateAllScriptsMetadataChangedCallback
                0x00000000001116b0      0x55d /home/sunho/bebop_ws/devel/arsdk/out/arsdk-native/build/libARController/obj/gen/Sources/ARCONTROLLER_Feature.c.o
                0x00000000001116b0                ARCONTROLLER_FEATURE_JumpingSumo_RoadPlanStateAllScriptsMetadataChangedCallback
 *fill*         0x0000000000111c0d        0x3 
 .text.ARCONTROLLER_JumpingSumo_NewCmdElementRoadPlanStateScriptUploadChanged
                0x0000000000111c10      0x5b8 /home/sunho/bebop_ws/devel/arsdk/out/arsdk-native/build/libARController/obj/gen/Sources/ARCONTROLLER_Feature.c.o
                0x0000000000111c10                ARCONTROLLER_JumpingSumo_NewCmdElementRoadPlanStateScriptUploadChanged
 *fill*         0x00000000001121c8        0x8 
 .text.ARCONTROLLER_FEATURE_JumpingSumo_RoadPlanStateScriptUploadChangedCallback
                0x00000000001121d0      0x565 /home/sunho/bebop_ws/devel/arsdk/out/arsdk-native/build/libARController/obj/gen/Sources/ARCONTROLLER_Feature.c.o
                0x00000000001121d0                ARCONTROLLER_FEATURE_JumpingSumo_RoadPlanStateScriptUploadChangedCallback
 *fill*         0x0000000000112735        0xb 
 .text.ARCONTROLLER_JumpingSumo_NewCmdElementRoadPlanStateScriptDeleteChanged
                0x0000000000112740      0x5b8 /home/sunho/bebop_ws/devel/arsdk/out/arsdk-native/build/libARController/obj/gen/Sources/ARCONTROLLER_Feature.c.o
                0x0000000000112740                ARCONTROLLER_JumpingSumo_NewCmdElementRoadPlanStateScriptDeleteChanged
 *fill*         0x0000000000112cf8        0x8 
 .text.ARCONTROLLER_FEATURE_JumpingSumo_RoadPlanStateScriptDeleteChangedCallback
                0x0000000000112d00      0x565 /home/sunho/bebop_ws/devel/arsdk/out/arsdk-native/build/libARController/obj/gen/Sources/ARCONTROLLER_Feature.c.o
                0x0000000000112d00                ARCONTROLLER_FEATURE_JumpingSumo_RoadPlanStateScriptDeleteChangedCallback
 *fill*         0x0000000000113265        0xb 
 .text.ARCONTROLLER_JumpingSumo_NewCmdElementRoadPlanStatePlayScriptChanged
                0x0000000000113270      0x5b8 /home/sunho/bebop_ws/devel/arsdk/out/arsdk-native/build/libARController/obj/gen/Sources/ARCONTROLLER_Feature.c.o
                0x0000000000113270                ARCONTROLLER_JumpingSumo_NewCmdElementRoadPlanStatePlayScriptChanged
 *fill*         0x0000000000113828        0x8 
 .text.ARCONTROLLER_FEATURE_JumpingSumo_RoadPlanStatePlayScriptChangedCallback
                0x0000000000113830      0x565 /home/sunho/bebop_ws/devel/arsdk/out/arsdk-native/build/libARController/obj/gen/Sources/ARCONTROLLER_Feature.c.o
                0x0000000000113830                ARCONTROLLER_FEATURE_JumpingSumo_RoadPlanStatePlayScriptChangedCallback
 *fill*         0x0000000000113d95        0xb 
 .text.ARCONTROLLER_JumpingSumo_NewCmdElementSpeedSettingsStateOutdoorChanged
                0x0000000000113da0      0x5b8 /home/sunho/bebop_ws/devel/arsdk/out/arsdk-native/build/libARController/obj/gen/Sources/ARCONTROLLER_Feature.c.o
                0x0000000000113da0                ARCONTROLLER_JumpingSumo_NewCmdElementSpeedSettingsStateOutdoorChanged
 *fill*         0x0000000000114358        0x8 
 .text.ARCONTROLLER_FEATURE_JumpingSumo_SpeedSettingsStateOutdoorChangedCallback
                0x0000000000114360      0x565 /home/sunho/bebop_ws/devel/arsdk/out/arsdk-native/build/libARController/obj/gen/Sources/ARCONTROLLER_Feature.c.o
                0x0000000000114360                ARCONTROLLER_FEATURE_JumpingSumo_SpeedSettingsStateOutdoorChangedCallback
 *fill*         0x00000000001148c5        0xb 
 .text.ARCONTROLLER_JumpingSumo_NewCmdElementMediaStreamingStateVideoEnableChanged
                0x00000000001148d0      0x5b8 /home/sunho/bebop_ws/devel/arsdk/out/arsdk-native/build/libARController/obj/gen/Sources/ARCONTROLLER_Feature.c.o
                0x00000000001148d0                ARCONTROLLER_JumpingSumo_NewCmdElementMediaStreamingStateVideoEnableChanged
 *fill*         0x0000000000114e88        0x8 
 .text.ARCONTROLLER_FEATURE_JumpingSumo_MediaStreamingStateVideoEnableChangedCallback
                0x0000000000114e90      0x565 /home/sunho/bebop_ws/devel/arsdk/out/arsdk-native/build/libARController/obj/gen/Sources/ARCONTROLLER_Feature.c.o
                0x0000000000114e90                ARCONTROLLER_FEATURE_JumpingSumo_MediaStreamingStateVideoEnableChangedCallback
 *fill*         0x00000000001153f5        0xb 
 .text.ARCONTROLLER_JumpingSumo_NewCmdElementVideoSettingsStateAutorecordChanged
                0x0000000000115400      0x5b8 /home/sunho/bebop_ws/devel/arsdk/out/arsdk-native/build/libARController/obj/gen/Sources/ARCONTROLLER_Feature.c.o
                0x0000000000115400                ARCONTROLLER_JumpingSumo_NewCmdElementVideoSettingsStateAutorecordChanged
 *fill*         0x00000000001159b8        0x8 
 .text.ARCONTROLLER_FEATURE_JumpingSumo_VideoSettingsStateAutorecordChangedCallback
                0x00000000001159c0      0x565 /home/sunho/bebop_ws/devel/arsdk/out/arsdk-native/build/libARController/obj/gen/Sources/ARCONTROLLER_Feature.c.o
                0x00000000001159c0                ARCONTROLLER_FEATURE_JumpingSumo_VideoSettingsStateAutorecordChangedCallback
 *fill*         0x0000000000115f25        0xb 
 .text.ARCONTROLLER_FEATURE_JumpingSumo_SetNetworkController
                0x0000000000115f30       0x26 /home/sunho/bebop_ws/devel/arsdk/out/arsdk-native/build/libARController/obj/gen/Sources/ARCONTROLLER_Feature.c.o
                0x0000000000115f30                ARCONTROLLER_FEATURE_JumpingSumo_SetNetworkController
 *fill*         0x0000000000115f56        0xa 
 .text.ARCONTROLLER_JumpingSumo_GetCommandElements
                0x0000000000115f60      0x1a0 /home/sunho/bebop_ws/devel/arsdk/out/arsdk-native/build/libARController/obj/gen/Sources/ARCONTROLLER_Feature.c.o
                0x0000000000115f60                ARCONTROLLER_JumpingSumo_GetCommandElements
 .text.ARCONTROLLER_FEATURE_Mapper_Delete
                0x0000000000116100       0x79 /home/sunho/bebop_ws/devel/arsdk/out/arsdk-native/build/libARController/obj/gen/Sources/ARCONTROLLER_Feature.c.o
                0x0000000000116100                ARCONTROLLER_FEATURE_Mapper_Delete
 *fill*         0x0000000000116179        0x7 
 .text.ARCONTROLLER_FEATURE_Mapper_New
                0x0000000000116180       0xcc /home/sunho/bebop_ws/devel/arsdk/out/arsdk-native/build/libARController/obj/gen/Sources/ARCONTROLLER_Feature.c.o
                0x0000000000116180                ARCONTROLLER_FEATURE_Mapper_New
 *fill*         0x000000000011624c        0x4 
 .text.ARCONTROLLER_FEATURE_Mapper_GetDictionary
                0x0000000000116250       0x39 /home/sunho/bebop_ws/devel/arsdk/out/arsdk-native/build/libARController/obj/gen/Sources/ARCONTROLLER_Feature.c.o
                0x0000000000116250                ARCONTROLLER_FEATURE_Mapper_GetDictionary
 *fill*         0x0000000000116289        0x7 
 .text.ARCONTROLLER_FEATURE_Mapper_AddCallback
                0x0000000000116290       0x26 /home/sunho/bebop_ws/devel/arsdk/out/arsdk-native/build/libARController/obj/gen/Sources/ARCONTROLLER_Feature.c.o
                0x0000000000116290                ARCONTROLLER_FEATURE_Mapper_AddCallback
 *fill*         0x00000000001162b6        0xa 
 .text.ARCONTROLLER_FEATURE_Mapper_RemoveCallback
                0x00000000001162c0       0x26 /home/sunho/bebop_ws/devel/arsdk/out/arsdk-native/build/libARController/obj/gen/Sources/ARCONTROLLER_Feature.c.o
                0x00000000001162c0                ARCONTROLLER_FEATURE_Mapper_RemoveCallback
 *fill*         0x00000000001162e6        0xa 
 .text.ARCONTROLLER_FEATURE_Mapper_RegisterARCommands
                0x00000000001162f0      0x117 /home/sunho/bebop_ws/devel/arsdk/out/arsdk-native/build/libARController/obj/gen/Sources/ARCONTROLLER_Feature.c.o
                0x00000000001162f0                ARCONTROLLER_FEATURE_Mapper_RegisterARCommands
 *fill*         0x0000000000116407        0x9 
 .text.ARCONTROLLER_FEATURE_Mapper_UnregisterARCommands
                0x0000000000116410       0xe7 /home/sunho/bebop_ws/devel/arsdk/out/arsdk-native/build/libARController/obj/gen/Sources/ARCONTROLLER_Feature.c.o
                0x0000000000116410                ARCONTROLLER_FEATURE_Mapper_UnregisterARCommands
 *fill*         0x00000000001164f7        0x9 
 .text.ARCONTROLLER_Mapper_NewCmdElementGrabState
                0x0000000000116500     0x1032 /home/sunho/bebop_ws/devel/arsdk/out/arsdk-native/build/libARController/obj/gen/Sources/ARCONTROLLER_Feature.c.o
                0x0000000000116500                ARCONTROLLER_Mapper_NewCmdElementGrabState
 *fill*         0x0000000000117532        0xe 
 .text.ARCONTROLLER_FEATURE_Mapper_GrabStateCallback
                0x0000000000117540      0x57d /home/sunho/bebop_ws/devel/arsdk/out/arsdk-native/build/libARController/obj/gen/Sources/ARCONTROLLER_Feature.c.o
                0x0000000000117540                ARCONTROLLER_FEATURE_Mapper_GrabStateCallback
 *fill*         0x0000000000117abd        0x3 
 .text.ARCONTROLLER_Mapper_NewCmdElementGrabButtonEvent
                0x0000000000117ac0      0xb28 /home/sunho/bebop_ws/devel/arsdk/out/arsdk-native/build/libARController/obj/gen/Sources/ARCONTROLLER_Feature.c.o
                0x0000000000117ac0                ARCONTROLLER_Mapper_NewCmdElementGrabButtonEvent
 *fill*         0x00000000001185e8        0x8 
 .text.ARCONTROLLER_FEATURE_Mapper_GrabButtonEventCallback
                0x00000000001185f0      0x56c /home/sunho/bebop_ws/devel/arsdk/out/arsdk-native/build/libARController/obj/gen/Sources/ARCONTROLLER_Feature.c.o
                0x00000000001185f0                ARCONTROLLER_FEATURE_Mapper_GrabButtonEventCallback
 *fill*         0x0000000000118b5c        0x4 
 .text.ARCONTROLLER_Mapper_NewCmdElementGrabAxisEvent
                0x0000000000118b60      0xb28 /home/sunho/bebop_ws/devel/arsdk/out/arsdk-native/build/libARController/obj/gen/Sources/ARCONTROLLER_Feature.c.o
                0x0000000000118b60                ARCONTROLLER_Mapper_NewCmdElementGrabAxisEvent
 *fill*         0x0000000000119688        0x8 
 .text.ARCONTROLLER_FEATURE_Mapper_GrabAxisEventCallback
                0x0000000000119690      0x56c /home/sunho/bebop_ws/devel/arsdk/out/arsdk-native/build/libARController/obj/gen/Sources/ARCONTROLLER_Feature.c.o
                0x0000000000119690                ARCONTROLLER_FEATURE_Mapper_GrabAxisEventCallback
 *fill*         0x0000000000119bfc        0x4 
 .text.ARCONTROLLER_Mapper_NewCmdElementButtonMappingItem
                0x0000000000119c00     0x14d6 /home/sunho/bebop_ws/devel/arsdk/out/arsdk-native/build/libARController/obj/gen/Sources/ARCONTROLLER_Feature.c.o
                0x0000000000119c00                ARCONTROLLER_Mapper_NewCmdElementButtonMappingItem
 *fill*         0x000000000011b0d6        0xa 
 .text.ARCONTROLLER_FEATURE_Mapper_ButtonMappingItemCallback
                0x000000000011b0e0      0xc21 /home/sunho/bebop_ws/devel/arsdk/out/arsdk-native/build/libARController/obj/gen/Sources/ARCONTROLLER_Feature.c.o
                0x000000000011b0e0                ARCONTROLLER_FEATURE_Mapper_ButtonMappingItemCallback
 *fill*         0x000000000011bd01        0xf 
 .text.ARCONTROLLER_Mapper_NewCmdElementAxisMappingItem
                0x000000000011bd10     0x1a83 /home/sunho/bebop_ws/devel/arsdk/out/arsdk-native/build/libARController/obj/gen/Sources/ARCONTROLLER_Feature.c.o
                0x000000000011bd10                ARCONTROLLER_Mapper_NewCmdElementAxisMappingItem
 *fill*         0x000000000011d793        0xd 
 .text.ARCONTROLLER_FEATURE_Mapper_AxisMappingItemCallback
                0x000000000011d7a0      0xc51 /home/sunho/bebop_ws/devel/arsdk/out/arsdk-native/build/libARController/obj/gen/Sources/ARCONTROLLER_Feature.c.o
                0x000000000011d7a0                ARCONTROLLER_FEATURE_Mapper_AxisMappingItemCallback
 *fill*         0x000000000011e3f1        0xf 
 .text.ARCONTROLLER_Mapper_NewCmdElementApplicationAxisEvent
                0x000000000011e400      0xb28 /home/sunho/bebop_ws/devel/arsdk/out/arsdk-native/build/libARController/obj/gen/Sources/ARCONTROLLER_Feature.c.o
                0x000000000011e400                ARCONTROLLER_Mapper_NewCmdElementApplicationAxisEvent
 *fill*         0x000000000011ef28        0x8 
 .text.ARCONTROLLER_FEATURE_Mapper_ApplicationAxisEventCallback
                0x000000000011ef30      0x56c /home/sunho/bebop_ws/devel/arsdk/out/arsdk-native/build/libARController/obj/gen/Sources/ARCONTROLLER_Feature.c.o
                0x000000000011ef30                ARCONTROLLER_FEATURE_Mapper_ApplicationAxisEventCallback
 *fill*         0x000000000011f49c        0x4 
 .text.ARCONTROLLER_Mapper_NewCmdElementApplicationButtonEvent
                0x000000000011f4a0      0x5b8 /home/sunho/bebop_ws/devel/arsdk/out/arsdk-native/build/libARController/obj/gen/Sources/ARCONTROLLER_Feature.c.o
                0x000000000011f4a0                ARCONTROLLER_Mapper_NewCmdElementApplicationButtonEvent
 *fill*         0x000000000011fa58        0x8 
 .text.ARCONTROLLER_FEATURE_Mapper_ApplicationButtonEventCallback
                0x000000000011fa60      0x55c /home/sunho/bebop_ws/devel/arsdk/out/arsdk-native/build/libARController/obj/gen/Sources/ARCONTROLLER_Feature.c.o
                0x000000000011fa60                ARCONTROLLER_FEATURE_Mapper_ApplicationButtonEventCallback
 *fill*         0x000000000011ffbc        0x4 
 .text.ARCONTROLLER_Mapper_NewCmdElementExpoMapItem
                0x000000000011ffc0     0x14d6 /home/sunho/bebop_ws/devel/arsdk/out/arsdk-native/build/libARController/obj/gen/Sources/ARCONTROLLER_Feature.c.o
                0x000000000011ffc0                ARCONTROLLER_Mapper_NewCmdElementExpoMapItem
 *fill*         0x0000000000121496        0xa 
 .text.ARCONTROLLER_FEATURE_Mapper_ExpoMapItemCallback
                0x00000000001214a0      0xc21 /home/sunho/bebop_ws/devel/arsdk/out/arsdk-native/build/libARController/obj/gen/Sources/ARCONTROLLER_Feature.c.o
                0x00000000001214a0                ARCONTROLLER_FEATURE_Mapper_ExpoMapItemCallback
 *fill*         0x00000000001220c1        0xf 
 .text.ARCONTROLLER_Mapper_NewCmdElementInvertedMapItem
                0x00000000001220d0     0x14d6 /home/sunho/bebop_ws/devel/arsdk/out/arsdk-native/build/libARController/obj/gen/Sources/ARCONTROLLER_Feature.c.o
                0x00000000001220d0                ARCONTROLLER_Mapper_NewCmdElementInvertedMapItem
 *fill*         0x00000000001235a6        0xa 
 .text.ARCONTROLLER_FEATURE_Mapper_InvertedMapItemCallback
                0x00000000001235b0      0xc21 /home/sunho/bebop_ws/devel/arsdk/out/arsdk-native/build/libARController/obj/gen/Sources/ARCONTROLLER_Feature.c.o
                0x00000000001235b0                ARCONTROLLER_FEATURE_Mapper_InvertedMapItemCallback
 *fill*         0x00000000001241d1        0xf 
 .text.ARCONTROLLER_FEATURE_Mapper_SetNetworkController
                0x00000000001241e0       0x1e /home/sunho/bebop_ws/devel/arsdk/out/arsdk-native/build/libARController/obj/gen/Sources/ARCONTROLLER_Feature.c.o
                0x00000000001241e0                ARCONTROLLER_FEATURE_Mapper_SetNetworkController
 *fill*         0x00000000001241fe        0x2 
 .text.ARCONTROLLER_Mapper_GetCommandElements
                0x0000000000124200      0x190 /home/sunho/bebop_ws/devel/arsdk/out/arsdk-native/build/libARController/obj/gen/Sources/ARCONTROLLER_Feature.c.o
                0x0000000000124200                ARCONTROLLER_Mapper_GetCommandElements
 .text.ARCONTROLLER_FEATURE_MiniDrone_Delete
                0x0000000000124390       0xc1 /home/sunho/bebop_ws/devel/arsdk/out/arsdk-native/build/libARController/obj/gen/Sources/ARCONTROLLER_Feature.c.o
                0x0000000000124390                ARCONTROLLER_FEATURE_MiniDrone_Delete
 *fill*         0x0000000000124451        0xf 
 .text.ARCONTROLLER_FEATURE_MiniDrone_New
                0x0000000000124460      0x28f /home/sunho/bebop_ws/devel/arsdk/out/arsdk-native/build/libARController/obj/gen/Sources/ARCONTROLLER_Feature.c.o
                0x0000000000124460                ARCONTROLLER_FEATURE_MiniDrone_New
 *fill*         0x00000000001246ef        0x1 
 .text.ARCONTROLLER_FEATURE_MiniDrone_GetDictionary
                0x00000000001246f0       0x39 /home/sunho/bebop_ws/devel/arsdk/out/arsdk-native/build/libARController/obj/gen/Sources/ARCONTROLLER_Feature.c.o
                0x00000000001246f0                ARCONTROLLER_FEATURE_MiniDrone_GetDictionary
 *fill*         0x0000000000124729        0x7 
 .text.ARCONTROLLER_FEATURE_MiniDrone_AddCallback
                0x0000000000124730       0x26 /home/sunho/bebop_ws/devel/arsdk/out/arsdk-native/build/libARController/obj/gen/Sources/ARCONTROLLER_Feature.c.o
                0x0000000000124730                ARCONTROLLER_FEATURE_MiniDrone_AddCallback
 *fill*         0x0000000000124756        0xa 
 .text.ARCONTROLLER_FEATURE_MiniDrone_RemoveCallback
                0x0000000000124760       0x26 /home/sunho/bebop_ws/devel/arsdk/out/arsdk-native/build/libARController/obj/gen/Sources/ARCONTROLLER_Feature.c.o
                0x0000000000124760                ARCONTROLLER_FEATURE_MiniDrone_RemoveCallback
 *fill*         0x0000000000124786        0xa 
 .text.ARCONTROLLER_FEATURE_MiniDrone_RegisterARCommands
                0x0000000000124790      0x2f7 /home/sunho/bebop_ws/devel/arsdk/out/arsdk-native/build/libARController/obj/gen/Sources/ARCONTROLLER_Feature.c.o
                0x0000000000124790                ARCONTROLLER_FEATURE_MiniDrone_RegisterARCommands
 *fill*         0x0000000000124a87        0x9 
 .text.ARCONTROLLER_FEATURE_MiniDrone_UnregisterARCommands
                0x0000000000124a90      0x25f /home/sunho/bebop_ws/devel/arsdk/out/arsdk-native/build/libARController/obj/gen/Sources/ARCONTROLLER_Feature.c.o
                0x0000000000124a90                ARCONTROLLER_FEATURE_MiniDrone_UnregisterARCommands
 *fill*         0x0000000000124cef        0x1 
 .text.ARCONTROLLER_MiniDrone_SendPilotingPCMDStruct
                0x0000000000124cf0      0x196 /home/sunho/bebop_ws/devel/arsdk/out/arsdk-native/build/libARController/obj/gen/Sources/ARCONTROLLER_Feature.c.o
                0x0000000000124cf0                ARCONTROLLER_MiniDrone_SendPilotingPCMDStruct
 *fill*         0x0000000000124e86        0xa 
 .text.ARCONTROLLER_MiniDrone_NewCmdElementPilotingStateFlatTrimChanged
                0x0000000000124e90       0xc9 /home/sunho/bebop_ws/devel/arsdk/out/arsdk-native/build/libARController/obj/gen/Sources/ARCONTROLLER_Feature.c.o
                0x0000000000124e90                ARCONTROLLER_MiniDrone_NewCmdElementPilotingStateFlatTrimChanged
 *fill*         0x0000000000124f59        0x7 
 .text.ARCONTROLLER_FEATURE_MiniDrone_PilotingStateFlatTrimChangedCallback
                0x0000000000124f60      0x55d /home/sunho/bebop_ws/devel/arsdk/out/arsdk-native/build/libARController/obj/gen/Sources/ARCONTROLLER_Feature.c.o
                0x0000000000124f60                ARCONTROLLER_FEATURE_MiniDrone_PilotingStateFlatTrimChangedCallback
 *fill*         0x00000000001254bd        0x3 
 .text.ARCONTROLLER_MiniDrone_NewCmdElementPilotingStateFlyingStateChanged
                0x00000000001254c0      0x5b8 /home/sunho/bebop_ws/devel/arsdk/out/arsdk-native/build/libARController/obj/gen/Sources/ARCONTROLLER_Feature.c.o
                0x00000000001254c0                ARCONTROLLER_MiniDrone_NewCmdElementPilotingStateFlyingStateChanged
 *fill*         0x0000000000125a78        0x8 
 .text.ARCONTROLLER_FEATURE_MiniDrone_PilotingStateFlyingStateChangedCallback
                0x0000000000125a80      0x565 /home/sunho/bebop_ws/devel/arsdk/out/arsdk-native/build/libARController/obj/gen/Sources/ARCONTROLLER_Feature.c.o
                0x0000000000125a80                ARCONTROLLER_FEATURE_MiniDrone_PilotingStateFlyingStateChangedCallback
 *fill*         0x0000000000125fe5        0xb 
 .text.ARCONTROLLER_MiniDrone_NewCmdElementPilotingStateAlertStateChanged
                0x0000000000125ff0      0x5b8 /home/sunho/bebop_ws/devel/arsdk/out/arsdk-native/build/libARController/obj/gen/Sources/ARCONTROLLER_Feature.c.o
                0x0000000000125ff0                ARCONTROLLER_MiniDrone_NewCmdElementPilotingStateAlertStateChanged
 *fill*         0x00000000001265a8        0x8 
 .text.ARCONTROLLER_FEATURE_MiniDrone_PilotingStateAlertStateChangedCallback
                0x00000000001265b0      0x565 /home/sunho/bebop_ws/devel/arsdk/out/arsdk-native/build/libARController/obj/gen/Sources/ARCONTROLLER_Feature.c.o
                0x00000000001265b0                ARCONTROLLER_FEATURE_MiniDrone_PilotingStateAlertStateChangedCallback
 *fill*         0x0000000000126b15        0xb 
 .text.ARCONTROLLER_MiniDrone_NewCmdElementPilotingStateAutoTakeOffModeChanged
                0x0000000000126b20      0x5b8 /home/sunho/bebop_ws/devel/arsdk/out/arsdk-native/build/libARController/obj/gen/Sources/ARCONTROLLER_Feature.c.o
                0x0000000000126b20                ARCONTROLLER_MiniDrone_NewCmdElementPilotingStateAutoTakeOffModeChanged
 *fill*         0x00000000001270d8        0x8 
 .text.ARCONTROLLER_FEATURE_MiniDrone_PilotingStateAutoTakeOffModeChangedCallback
                0x00000000001270e0      0x565 /home/sunho/bebop_ws/devel/arsdk/out/arsdk-native/build/libARController/obj/gen/Sources/ARCONTROLLER_Feature.c.o
                0x00000000001270e0                ARCONTROLLER_FEATURE_MiniDrone_PilotingStateAutoTakeOffModeChangedCallback
 *fill*         0x0000000000127645        0xb 
 .text.ARCONTROLLER_MiniDrone_NewCmdElementPilotingStateFlyingModeChanged
                0x0000000000127650      0x5b8 /home/sunho/bebop_ws/devel/arsdk/out/arsdk-native/build/libARController/obj/gen/Sources/ARCONTROLLER_Feature.c.o
                0x0000000000127650                ARCONTROLLER_MiniDrone_NewCmdElementPilotingStateFlyingModeChanged
 *fill*         0x0000000000127c08        0x8 
 .text.ARCONTROLLER_FEATURE_MiniDrone_PilotingStateFlyingModeChangedCallback
                0x0000000000127c10      0x565 /home/sunho/bebop_ws/devel/arsdk/out/arsdk-native/build/libARController/obj/gen/Sources/ARCONTROLLER_Feature.c.o
                0x0000000000127c10                ARCONTROLLER_FEATURE_MiniDrone_PilotingStateFlyingModeChangedCallback
 *fill*         0x0000000000128175        0xb 
 .text.ARCONTROLLER_MiniDrone_NewCmdElementPilotingStatePlaneGearBoxChanged
                0x0000000000128180      0x5b8 /home/sunho/bebop_ws/devel/arsdk/out/arsdk-native/build/libARController/obj/gen/Sources/ARCONTROLLER_Feature.c.o
                0x0000000000128180                ARCONTROLLER_MiniDrone_NewCmdElementPilotingStatePlaneGearBoxChanged
 *fill*         0x0000000000128738        0x8 
 .text.ARCONTROLLER_FEATURE_MiniDrone_PilotingStatePlaneGearBoxChangedCallback
                0x0000000000128740      0x565 /home/sunho/bebop_ws/devel/arsdk/out/arsdk-native/build/libARController/obj/gen/Sources/ARCONTROLLER_Feature.c.o
                0x0000000000128740                ARCONTROLLER_FEATURE_MiniDrone_PilotingStatePlaneGearBoxChangedCallback
 *fill*         0x0000000000128ca5        0xb 
 .text.ARCONTROLLER_MiniDrone_NewCmdElementMediaRecordStatePictureStateChanged
                0x0000000000128cb0      0xb28 /home/sunho/bebop_ws/devel/arsdk/out/arsdk-native/build/libARController/obj/gen/Sources/ARCONTROLLER_Feature.c.o
                0x0000000000128cb0                ARCONTROLLER_MiniDrone_NewCmdElementMediaRecordStatePictureStateChanged
 *fill*         0x00000000001297d8        0x8 
 .text.ARCONTROLLER_FEATURE_MiniDrone_MediaRecordStatePictureStateChangedCallback
                0x00000000001297e0      0x585 /home/sunho/bebop_ws/devel/arsdk/out/arsdk-native/build/libARController/obj/gen/Sources/ARCONTROLLER_Feature.c.o
                0x00000000001297e0                ARCONTROLLER_FEATURE_MiniDrone_MediaRecordStatePictureStateChangedCallback
 *fill*         0x0000000000129d65        0xb 
 .text.ARCONTROLLER_MiniDrone_NewCmdElementMediaRecordStatePictureStateChangedV2
                0x0000000000129d70      0xb28 /home/sunho/bebop_ws/devel/arsdk/out/arsdk-native/build/libARController/obj/gen/Sources/ARCONTROLLER_Feature.c.o
                0x0000000000129d70                ARCONTROLLER_MiniDrone_NewCmdElementMediaRecordStatePictureStateChangedV2
 *fill*         0x000000000012a898        0x8 
 .text.ARCONTROLLER_FEATURE_MiniDrone_MediaRecordStatePictureStateChangedV2Callback
                0x000000000012a8a0      0x585 /home/sunho/bebop_ws/devel/arsdk/out/arsdk-native/build/libARController/obj/gen/Sources/ARCONTROLLER_Feature.c.o
                0x000000000012a8a0                ARCONTROLLER_FEATURE_MiniDrone_MediaRecordStatePictureStateChangedV2Callback
 *fill*         0x000000000012ae25        0xb 
 .text.ARCONTROLLER_MiniDrone_NewCmdElementMediaRecordEventPictureEventChanged
                0x000000000012ae30      0xb28 /home/sunho/bebop_ws/devel/arsdk/out/arsdk-native/build/libARController/obj/gen/Sources/ARCONTROLLER_Feature.c.o
                0x000000000012ae30                ARCONTROLLER_MiniDrone_NewCmdElementMediaRecordEventPictureEventChanged
 *fill*         0x000000000012b958        0x8 
 .text.ARCONTROLLER_FEATURE_MiniDrone_MediaRecordEventPictureEventChangedCallback
                0x000000000012b960      0x585 /home/sunho/bebop_ws/devel/arsdk/out/arsdk-native/build/libARController/obj/gen/Sources/ARCONTROLLER_Feature.c.o
                0x000000000012b960                ARCONTROLLER_FEATURE_MiniDrone_MediaRecordEventPictureEventChangedCallback
 *fill*         0x000000000012bee5        0xb 
 .text.ARCONTROLLER_MiniDrone_NewCmdElementPilotingSettingsStateMaxAltitudeChanged
                0x000000000012bef0      0xffc /home/sunho/bebop_ws/devel/arsdk/out/arsdk-native/build/libARController/obj/gen/Sources/ARCONTROLLER_Feature.c.o
                0x000000000012bef0                ARCONTROLLER_MiniDrone_NewCmdElementPilotingSettingsStateMaxAltitudeChanged
 *fill*         0x000000000012ceec        0x4 
 .text.ARCONTROLLER_FEATURE_MiniDrone_PilotingSettingsStateMaxAltitudeChangedCallback
                0x000000000012cef0      0x57d /home/sunho/bebop_ws/devel/arsdk/out/arsdk-native/build/libARController/obj/gen/Sources/ARCONTROLLER_Feature.c.o
                0x000000000012cef0                ARCONTROLLER_FEATURE_MiniDrone_PilotingSettingsStateMaxAltitudeChangedCallback
 *fill*         0x000000000012d46d        0x3 
 .text.ARCONTROLLER_MiniDrone_NewCmdElementPilotingSettingsStateMaxTiltChanged
                0x000000000012d470      0xffc /home/sunho/bebop_ws/devel/arsdk/out/arsdk-native/build/libARController/obj/gen/Sources/ARCONTROLLER_Feature.c.o
                0x000000000012d470                ARCONTROLLER_MiniDrone_NewCmdElementPilotingSettingsStateMaxTiltChanged
 *fill*         0x000000000012e46c        0x4 
 .text.ARCONTROLLER_FEATURE_MiniDrone_PilotingSettingsStateMaxTiltChangedCallback
                0x000000000012e470      0x57d /home/sunho/bebop_ws/devel/arsdk/out/arsdk-native/build/libARController/obj/gen/Sources/ARCONTROLLER_Feature.c.o
                0x000000000012e470                ARCONTROLLER_FEATURE_MiniDrone_PilotingSettingsStateMaxTiltChangedCallback
 *fill*         0x000000000012e9ed        0x3 
 .text.ARCONTROLLER_MiniDrone_NewCmdElementPilotingSettingsStatePlaneModePitchChanged
                0x000000000012e9f0      0xffc /home/sunho/bebop_ws/devel/arsdk/out/arsdk-native/build/libARController/obj/gen/Sources/ARCONTROLLER_Feature.c.o
                0x000000000012e9f0                ARCONTROLLER_MiniDrone_NewCmdElementPilotingSettingsStatePlaneModePitchChanged
 *fill*         0x000000000012f9ec        0x4 
 .text.ARCONTROLLER_FEATURE_MiniDrone_PilotingSettingsStatePlaneModePitchChangedCallback
                0x000000000012f9f0      0x57d /home/sunho/bebop_ws/devel/arsdk/out/arsdk-native/build/libARController/obj/gen/Sources/ARCONTROLLER_Feature.c.o
                0x000000000012f9f0                ARCONTROLLER_FEATURE_MiniDrone_PilotingSettingsStatePlaneModePitchChangedCallback
 *fill*         0x000000000012ff6d        0x3 
 .text.ARCONTROLLER_MiniDrone_NewCmdElementSpeedSettingsStateMaxVerticalSpeedChanged
                0x000000000012ff70      0xffc /home/sunho/bebop_ws/devel/arsdk/out/arsdk-native/build/libARController/obj/gen/Sources/ARCONTROLLER_Feature.c.o
                0x000000000012ff70                ARCONTROLLER_MiniDrone_NewCmdElementSpeedSettingsStateMaxVerticalSpeedChanged
 *fill*         0x0000000000130f6c        0x4 
 .text.ARCONTROLLER_FEATURE_MiniDrone_SpeedSettingsStateMaxVerticalSpeedChangedCallback
                0x0000000000130f70      0x57d /home/sunho/bebop_ws/devel/arsdk/out/arsdk-native/build/libARController/obj/gen/Sources/ARCONTROLLER_Feature.c.o
                0x0000000000130f70                ARCONTROLLER_FEATURE_MiniDrone_SpeedSettingsStateMaxVerticalSpeedChangedCallback
 *fill*         0x00000000001314ed        0x3 
 .text.ARCONTROLLER_MiniDrone_NewCmdElementSpeedSettingsStateMaxRotationSpeedChanged
                0x00000000001314f0      0xffc /home/sunho/bebop_ws/devel/arsdk/out/arsdk-native/build/libARController/obj/gen/Sources/ARCONTROLLER_Feature.c.o
                0x00000000001314f0                ARCONTROLLER_MiniDrone_NewCmdElementSpeedSettingsStateMaxRotationSpeedChanged
 *fill*         0x00000000001324ec        0x4 
 .text.ARCONTROLLER_FEATURE_MiniDrone_SpeedSettingsStateMaxRotationSpeedChangedCallback
                0x00000000001324f0      0x57d /home/sunho/bebop_ws/devel/arsdk/out/arsdk-native/build/libARController/obj/gen/Sources/ARCONTROLLER_Feature.c.o
                0x00000000001324f0                ARCONTROLLER_FEATURE_MiniDrone_SpeedSettingsStateMaxRotationSpeedChangedCallback
 *fill*         0x0000000000132a6d        0x3 
 .text.ARCONTROLLER_MiniDrone_NewCmdElementSpeedSettingsStateWheelsChanged
                0x0000000000132a70      0x5b8 /home/sunho/bebop_ws/devel/arsdk/out/arsdk-native/build/libARController/obj/gen/Sources/ARCONTROLLER_Feature.c.o
                0x0000000000132a70                ARCONTROLLER_MiniDrone_NewCmdElementSpeedSettingsStateWheelsChanged
 *fill*         0x0000000000133028        0x8 
 .text.ARCONTROLLER_FEATURE_MiniDrone_SpeedSettingsStateWheelsChangedCallback
                0x0000000000133030      0x565 /home/sunho/bebop_ws/devel/arsdk/out/arsdk-native/build/libARController/obj/gen/Sources/ARCONTROLLER_Feature.c.o
                0x0000000000133030                ARCONTROLLER_FEATURE_MiniDrone_SpeedSettingsStateWheelsChangedCallback
 *fill*         0x0000000000133595        0xb 
 .text.ARCONTROLLER_MiniDrone_NewCmdElementSpeedSettingsStateMaxHorizontalSpeedChanged
                0x00000000001335a0      0xffc /home/sunho/bebop_ws/devel/arsdk/out/arsdk-native/build/libARController/obj/gen/Sources/ARCONTROLLER_Feature.c.o
                0x00000000001335a0                ARCONTROLLER_MiniDrone_NewCmdElementSpeedSettingsStateMaxHorizontalSpeedChanged
 *fill*         0x000000000013459c        0x4 
 .text.ARCONTROLLER_FEATURE_MiniDrone_SpeedSettingsStateMaxHorizontalSpeedChangedCallback
                0x00000000001345a0      0x57d /home/sunho/bebop_ws/devel/arsdk/out/arsdk-native/build/libARController/obj/gen/Sources/ARCONTROLLER_Feature.c.o
                0x00000000001345a0                ARCONTROLLER_FEATURE_MiniDrone_SpeedSettingsStateMaxHorizontalSpeedChangedCallback
 *fill*         0x0000000000134b1d        0x3 
 .text.ARCONTROLLER_MiniDrone_NewCmdElementSpeedSettingsStateMaxPlaneModeRotationSpeedChanged
                0x0000000000134b20      0xffc /home/sunho/bebop_ws/devel/arsdk/out/arsdk-native/build/libARController/obj/gen/Sources/ARCONTROLLER_Feature.c.o
                0x0000000000134b20                ARCONTROLLER_MiniDrone_NewCmdElementSpeedSettingsStateMaxPlaneModeRotationSpeedChanged
 *fill*         0x0000000000135b1c        0x4 
 .text.ARCONTROLLER_FEATURE_MiniDrone_SpeedSettingsStateMaxPlaneModeRotationSpeedChangedCallback
                0x0000000000135b20      0x57d /home/sunho/bebop_ws/devel/arsdk/out/arsdk-native/build/libARController/obj/gen/Sources/ARCONTROLLER_Feature.c.o
                0x0000000000135b20                ARCONTROLLER_FEATURE_MiniDrone_SpeedSettingsStateMaxPlaneModeRotationSpeedChangedCallback
 *fill*         0x000000000013609d        0x3 
 .text.ARCONTROLLER_MiniDrone_NewCmdElementSettingsStateProductMotorsVersionChanged
                0x00000000001360a0     0x1671 /home/sunho/bebop_ws/devel/arsdk/out/arsdk-native/build/libARController/obj/gen/Sources/ARCONTROLLER_Feature.c.o
                0x00000000001360a0                ARCONTROLLER_MiniDrone_NewCmdElementSettingsStateProductMotorsVersionChanged
 *fill*         0x0000000000137711        0xf 
 .text.ARCONTROLLER_FEATURE_MiniDrone_SettingsStateProductMotorsVersionChangedCallback
                0x0000000000137720      0x596 /home/sunho/bebop_ws/devel/arsdk/out/arsdk-native/build/libARController/obj/gen/Sources/ARCONTROLLER_Feature.c.o
                0x0000000000137720                ARCONTROLLER_FEATURE_MiniDrone_SettingsStateProductMotorsVersionChangedCallback
 *fill*         0x0000000000137cb6        0xa 
 .text.ARCONTROLLER_MiniDrone_NewCmdElementSettingsStateProductInertialVersionChanged
                0x0000000000137cc0      0xc27 /home/sunho/bebop_ws/devel/arsdk/out/arsdk-native/build/libARController/obj/gen/Sources/ARCONTROLLER_Feature.c.o
                0x0000000000137cc0                ARCONTROLLER_MiniDrone_NewCmdElementSettingsStateProductInertialVersionChanged
 *fill*         0x00000000001388e7        0x9 
 .text.ARCONTROLLER_FEATURE_MiniDrone_SettingsStateProductInertialVersionChangedCallback
                0x00000000001388f0      0x585 /home/sunho/bebop_ws/devel/arsdk/out/arsdk-native/build/libARController/obj/gen/Sources/ARCONTROLLER_Feature.c.o
                0x00000000001388f0                ARCONTROLLER_FEATURE_MiniDrone_SettingsStateProductInertialVersionChangedCallback
 *fill*         0x0000000000138e75        0xb 
 .text.ARCONTROLLER_MiniDrone_NewCmdElementSettingsStateCutOutModeChanged
                0x0000000000138e80      0x5b8 /home/sunho/bebop_ws/devel/arsdk/out/arsdk-native/build/libARController/obj/gen/Sources/ARCONTROLLER_Feature.c.o
                0x0000000000138e80                ARCONTROLLER_MiniDrone_NewCmdElementSettingsStateCutOutModeChanged
 *fill*         0x0000000000139438        0x8 
 .text.ARCONTROLLER_FEATURE_MiniDrone_SettingsStateCutOutModeChangedCallback
                0x0000000000139440      0x565 /home/sunho/bebop_ws/devel/arsdk/out/arsdk-native/build/libARController/obj/gen/Sources/ARCONTROLLER_Feature.c.o
                0x0000000000139440                ARCONTROLLER_FEATURE_MiniDrone_SettingsStateCutOutModeChangedCallback
 *fill*         0x00000000001399a5        0xb 
 .text.ARCONTROLLER_MiniDrone_NewCmdElementFloodControlStateFloodControlChanged
                0x00000000001399b0      0x5b8 /home/sunho/bebop_ws/devel/arsdk/out/arsdk-native/build/libARController/obj/gen/Sources/ARCONTROLLER_Feature.c.o
                0x00000000001399b0                ARCONTROLLER_MiniDrone_NewCmdElementFloodControlStateFloodControlChanged
 *fill*         0x0000000000139f68        0x8 
 .text.ARCONTROLLER_FEATURE_MiniDrone_FloodControlStateFloodControlChangedCallback
                0x0000000000139f70      0x565 /home/sunho/bebop_ws/devel/arsdk/out/arsdk-native/build/libARController/obj/gen/Sources/ARCONTROLLER_Feature.c.o
                0x0000000000139f70                ARCONTROLLER_FEATURE_MiniDrone_FloodControlStateFloodControlChangedCallback
 *fill*         0x000000000013a4d5        0xb 
 .text.ARCONTROLLER_MiniDrone_NewCmdElementUsbAccessoryStateLightState
                0x000000000013a4e0     0x108c /home/sunho/bebop_ws/devel/arsdk/out/arsdk-native/build/libARController/obj/gen/Sources/ARCONTROLLER_Feature.c.o
                0x000000000013a4e0                ARCONTROLLER_MiniDrone_NewCmdElementUsbAccessoryStateLightState
 *fill*         0x000000000013b56c        0x4 
 .text.ARCONTROLLER_FEATURE_MiniDrone_UsbAccessoryStateLightStateCallback
                0x000000000013b570      0xc42 /home/sunho/bebop_ws/devel/arsdk/out/arsdk-native/build/libARController/obj/gen/Sources/ARCONTROLLER_Feature.c.o
                0x000000000013b570                ARCONTROLLER_FEATURE_MiniDrone_UsbAccessoryStateLightStateCallback
 *fill*         0x000000000013c1b2        0xe 
 .text.ARCONTROLLER_MiniDrone_NewCmdElementUsbAccessoryStateClawState
                0x000000000013c1c0      0xb28 /home/sunho/bebop_ws/devel/arsdk/out/arsdk-native/build/libARController/obj/gen/Sources/ARCONTROLLER_Feature.c.o
                0x000000000013c1c0                ARCONTROLLER_MiniDrone_NewCmdElementUsbAccessoryStateClawState
 *fill*         0x000000000013cce8        0x8 
 .text.ARCONTROLLER_FEATURE_MiniDrone_UsbAccessoryStateClawStateCallback
                0x000000000013ccf0      0xc42 /home/sunho/bebop_ws/devel/arsdk/out/arsdk-native/build/libARController/obj/gen/Sources/ARCONTROLLER_Feature.c.o
                0x000000000013ccf0                ARCONTROLLER_FEATURE_MiniDrone_UsbAccessoryStateClawStateCallback
 *fill*         0x000000000013d932        0xe 
 .text.ARCONTROLLER_MiniDrone_NewCmdElementUsbAccessoryStateGunState
                0x000000000013d940      0xb28 /home/sunho/bebop_ws/devel/arsdk/out/arsdk-native/build/libARController/obj/gen/Sources/ARCONTROLLER_Feature.c.o
                0x000000000013d940                ARCONTROLLER_MiniDrone_NewCmdElementUsbAccessoryStateGunState
 *fill*         0x000000000013e468        0x8 
 .text.ARCONTROLLER_FEATURE_MiniDrone_UsbAccessoryStateGunStateCallback
                0x000000000013e470      0xc42 /home/sunho/bebop_ws/devel/arsdk/out/arsdk-native/build/libARController/obj/gen/Sources/ARCONTROLLER_Feature.c.o
                0x000000000013e470                ARCONTROLLER_FEATURE_MiniDrone_UsbAccessoryStateGunStateCallback
 *fill*         0x000000000013f0b2        0xe 
 .text.ARCONTROLLER_MiniDrone_NewCmdElementNavigationDataStateDronePosition
                0x000000000013f0c0     0x1a03 /home/sunho/bebop_ws/devel/arsdk/out/arsdk-native/build/libARController/obj/gen/Sources/ARCONTROLLER_Feature.c.o
                0x000000000013f0c0                ARCONTROLLER_MiniDrone_NewCmdElementNavigationDataStateDronePosition
 *fill*         0x0000000000140ac3        0xd 
 .text.ARCONTROLLER_FEATURE_MiniDrone_NavigationDataStateDronePositionCallback
                0x0000000000140ad0      0x5a6 /home/sunho/bebop_ws/devel/arsdk/out/arsdk-native/build/libARController/obj/gen/Sources/ARCONTROLLER_Feature.c.o
                0x0000000000140ad0                ARCONTROLLER_FEATURE_MiniDrone_NavigationDataStateDronePositionCallback
 *fill*         0x0000000000141076        0xa 
 .text.ARCONTROLLER_FEATURE_MiniDrone_SetNetworkController
                0x0000000000141080       0x26 /home/sunho/bebop_ws/devel/arsdk/out/arsdk-native/build/libARController/obj/gen/Sources/ARCONTROLLER_Feature.c.o
                0x0000000000141080                ARCONTROLLER_FEATURE_MiniDrone_SetNetworkController
 *fill*         0x00000000001410a6        0xa 
 .text.ARCONTROLLER_MiniDrone_GetCommandElements
                0x00000000001410b0      0x1a0 /home/sunho/bebop_ws/devel/arsdk/out/arsdk-native/build/libARController/obj/gen/Sources/ARCONTROLLER_Feature.c.o
                0x00000000001410b0                ARCONTROLLER_MiniDrone_GetCommandElements
 .text.ARCONTROLLER_FEATURE_Powerup_Delete
                0x0000000000141250       0xc1 /home/sunho/bebop_ws/devel/arsdk/out/arsdk-native/build/libARController/obj/gen/Sources/ARCONTROLLER_Feature.c.o
                0x0000000000141250                ARCONTROLLER_FEATURE_Powerup_Delete
 *fill*         0x0000000000141311        0xf 
 .text.ARCONTROLLER_FEATURE_Powerup_New
                0x0000000000141320      0x17f /home/sunho/bebop_ws/devel/arsdk/out/arsdk-native/build/libARController/obj/gen/Sources/ARCONTROLLER_Feature.c.o
                0x0000000000141320                ARCONTROLLER_FEATURE_Powerup_New
 *fill*         0x000000000014149f        0x1 
 .text.ARCONTROLLER_FEATURE_Powerup_GetDictionary
                0x00000000001414a0       0x39 /home/sunho/bebop_ws/devel/arsdk/out/arsdk-native/build/libARController/obj/gen/Sources/ARCONTROLLER_Feature.c.o
                0x00000000001414a0                ARCONTROLLER_FEATURE_Powerup_GetDictionary
 *fill*         0x00000000001414d9        0x7 
 .text.ARCONTROLLER_FEATURE_Powerup_AddCallback
                0x00000000001414e0       0x26 /home/sunho/bebop_ws/devel/arsdk/out/arsdk-native/build/libARController/obj/gen/Sources/ARCONTROLLER_Feature.c.o
                0x00000000001414e0                ARCONTROLLER_FEATURE_Powerup_AddCallback
 *fill*         0x0000000000141506        0xa 
 .text.ARCONTROLLER_FEATURE_Powerup_RemoveCallback
                0x0000000000141510       0x26 /home/sunho/bebop_ws/devel/arsdk/out/arsdk-native/build/libARController/obj/gen/Sources/ARCONTROLLER_Feature.c.o
                0x0000000000141510                ARCONTROLLER_FEATURE_Powerup_RemoveCallback
 *fill*         0x0000000000141536        0xa 
 .text.ARCONTROLLER_FEATURE_Powerup_RegisterARCommands
                0x0000000000141540      0x267 /home/sunho/bebop_ws/devel/arsdk/out/arsdk-native/build/libARController/obj/gen/Sources/ARCONTROLLER_Feature.c.o
                0x0000000000141540                ARCONTROLLER_FEATURE_Powerup_RegisterARCommands
 *fill*         0x00000000001417a7        0x9 
 .text.ARCONTROLLER_FEATURE_Powerup_UnregisterARCommands
                0x00000000001417b0      0x1ef /home/sunho/bebop_ws/devel/arsdk/out/arsdk-native/build/libARController/obj/gen/Sources/ARCONTROLLER_Feature.c.o
                0x00000000001417b0                ARCONTROLLER_FEATURE_Powerup_UnregisterARCommands
 *fill*         0x000000000014199f        0x1 
 .text.ARCONTROLLER_Powerup_SendPilotingPCMDStruct
                0x00000000001419a0      0x176 /home/sunho/bebop_ws/devel/arsdk/out/arsdk-native/build/libARController/obj/gen/Sources/ARCONTROLLER_Feature.c.o
                0x00000000001419a0                ARCONTROLLER_Powerup_SendPilotingPCMDStruct
 *fill*         0x0000000000141b16        0xa 
 .text.ARCONTROLLER_Powerup_NewCmdElementPilotingStateAlertStateChanged
                0x0000000000141b20      0x5b8 /home/sunho/bebop_ws/devel/arsdk/out/arsdk-native/build/libARController/obj/gen/Sources/ARCONTROLLER_Feature.c.o
                0x0000000000141b20                ARCONTROLLER_Powerup_NewCmdElementPilotingStateAlertStateChanged
 *fill*         0x00000000001420d8        0x8 
 .text.ARCONTROLLER_FEATURE_Powerup_PilotingStateAlertStateChangedCallback
                0x00000000001420e0      0x565 /home/sunho/bebop_ws/devel/arsdk/out/arsdk-native/build/libARController/obj/gen/Sources/ARCONTROLLER_Feature.c.o
                0x00000000001420e0                ARCONTROLLER_FEATURE_Powerup_PilotingStateAlertStateChangedCallback
 *fill*         0x0000000000142645        0xb 
 .text.ARCONTROLLER_Powerup_NewCmdElementPilotingStateFlyingStateChanged
                0x0000000000142650      0x5b8 /home/sunho/bebop_ws/devel/arsdk/out/arsdk-native/build/libARController/obj/gen/Sources/ARCONTROLLER_Feature.c.o
                0x0000000000142650                ARCONTROLLER_Powerup_NewCmdElementPilotingStateFlyingStateChanged
 *fill*         0x0000000000142c08        0x8 
 .text.ARCONTROLLER_FEATURE_Powerup_PilotingStateFlyingStateChangedCallback
                0x0000000000142c10      0x565 /home/sunho/bebop_ws/devel/arsdk/out/arsdk-native/build/libARController/obj/gen/Sources/ARCONTROLLER_Feature.c.o
                0x0000000000142c10                ARCONTROLLER_FEATURE_Powerup_PilotingStateFlyingStateChangedCallback
 *fill*         0x0000000000143175        0xb 
 .text.ARCONTROLLER_Powerup_NewCmdElementPilotingStateMotorModeChanged
                0x0000000000143180      0x5b8 /home/sunho/bebop_ws/devel/arsdk/out/arsdk-native/build/libARController/obj/gen/Sources/ARCONTROLLER_Feature.c.o
                0x0000000000143180                ARCONTROLLER_Powerup_NewCmdElementPilotingStateMotorModeChanged
 *fill*         0x0000000000143738        0x8 
 .text.ARCONTROLLER_FEATURE_Powerup_PilotingStateMotorModeChangedCallback
                0x0000000000143740      0x565 /home/sunho/bebop_ws/devel/arsdk/out/arsdk-native/build/libARController/obj/gen/Sources/ARCONTROLLER_Feature.c.o
                0x0000000000143740                ARCONTROLLER_FEATURE_Powerup_PilotingStateMotorModeChangedCallback
 *fill*         0x0000000000143ca5        0xb 
 .text.ARCONTROLLER_Powerup_NewCmdElementPilotingStateAttitudeChanged
                0x0000000000143cb0      0xffc /home/sunho/bebop_ws/devel/arsdk/out/arsdk-native/build/libARController/obj/gen/Sources/ARCONTROLLER_Feature.c.o
                0x0000000000143cb0                ARCONTROLLER_Powerup_NewCmdElementPilotingStateAttitudeChanged
 *fill*         0x0000000000144cac        0x4 
 .text.ARCONTROLLER_FEATURE_Powerup_PilotingStateAttitudeChangedCallback
                0x0000000000144cb0      0x57d /home/sunho/bebop_ws/devel/arsdk/out/arsdk-native/build/libARController/obj/gen/Sources/ARCONTROLLER_Feature.c.o
                0x0000000000144cb0                ARCONTROLLER_FEATURE_Powerup_PilotingStateAttitudeChangedCallback
 *fill*         0x000000000014522d        0x3 
 .text.ARCONTROLLER_Powerup_NewCmdElementPilotingStateAltitudeChanged
                0x0000000000145230      0x5cc /home/sunho/bebop_ws/devel/arsdk/out/arsdk-native/build/libARController/obj/gen/Sources/ARCONTROLLER_Feature.c.o
                0x0000000000145230                ARCONTROLLER_Powerup_NewCmdElementPilotingStateAltitudeChanged
 *fill*         0x00000000001457fc        0x4 
 .text.ARCONTROLLER_FEATURE_Powerup_PilotingStateAltitudeChangedCallback
                0x0000000000145800      0x57d /home/sunho/bebop_ws/devel/arsdk/out/arsdk-native/build/libARController/obj/gen/Sources/ARCONTROLLER_Feature.c.o
                0x0000000000145800                ARCONTROLLER_FEATURE_Powerup_PilotingStateAltitudeChangedCallback
 *fill*         0x0000000000145d7d        0x3 
 .text.ARCONTROLLER_Powerup_NewCmdElementPilotingSettingsStateSettingChanged
                0x0000000000145d80     0x162f /home/sunho/bebop_ws/devel/arsdk/out/arsdk-native/build/libARController/obj/gen/Sources/ARCONTROLLER_Feature.c.o
                0x0000000000145d80                ARCONTROLLER_Powerup_NewCmdElementPilotingSettingsStateSettingChanged
 *fill*         0x00000000001473af        0x1 
 .text.ARCONTROLLER_FEATURE_Powerup_PilotingSettingsStateSettingChangedCallback
                0x00000000001473b0      0xc11 /home/sunho/bebop_ws/devel/arsdk/out/arsdk-native/build/libARController/obj/gen/Sources/ARCONTROLLER_Feature.c.o
                0x00000000001473b0                ARCONTROLLER_FEATURE_Powerup_PilotingSettingsStateSettingChangedCallback
 *fill*         0x0000000000147fc1        0xf 
 .text.ARCONTROLLER_Powerup_NewCmdElementMediaRecordStatePictureStateChangedV2
                0x0000000000147fd0      0xb28 /home/sunho/bebop_ws/devel/arsdk/out/arsdk-native/build/libARController/obj/gen/Sources/ARCONTROLLER_Feature.c.o
                0x0000000000147fd0                ARCONTROLLER_Powerup_NewCmdElementMediaRecordStatePictureStateChangedV2
 *fill*         0x0000000000148af8        0x8 
 .text.ARCONTROLLER_FEATURE_Powerup_MediaRecordStatePictureStateChangedV2Callback
                0x0000000000148b00      0x585 /home/sunho/bebop_ws/devel/arsdk/out/arsdk-native/build/libARController/obj/gen/Sources/ARCONTROLLER_Feature.c.o
                0x0000000000148b00                ARCONTROLLER_FEATURE_Powerup_MediaRecordStatePictureStateChangedV2Callback
 *fill*         0x0000000000149085        0xb 
 .text.ARCONTROLLER_Powerup_NewCmdElementMediaRecordStateVideoStateChangedV2
                0x0000000000149090      0xb28 /home/sunho/bebop_ws/devel/arsdk/out/arsdk-native/build/libARController/obj/gen/Sources/ARCONTROLLER_Feature.c.o
                0x0000000000149090                ARCONTROLLER_Powerup_NewCmdElementMediaRecordStateVideoStateChangedV2
 *fill*         0x0000000000149bb8        0x8 
 .text.ARCONTROLLER_FEATURE_Powerup_MediaRecordStateVideoStateChangedV2Callback
                0x0000000000149bc0      0x585 /home/sunho/bebop_ws/devel/arsdk/out/arsdk-native/build/libARController/obj/gen/Sources/ARCONTROLLER_Feature.c.o
                0x0000000000149bc0                ARCONTROLLER_FEATURE_Powerup_MediaRecordStateVideoStateChangedV2Callback
 *fill*         0x000000000014a145        0xb 
 .text.ARCONTROLLER_Powerup_NewCmdElementMediaRecordEventPictureEventChanged
                0x000000000014a150      0xb28 /home/sunho/bebop_ws/devel/arsdk/out/arsdk-native/build/libARController/obj/gen/Sources/ARCONTROLLER_Feature.c.o
                0x000000000014a150                ARCONTROLLER_Powerup_NewCmdElementMediaRecordEventPictureEventChanged
 *fill*         0x000000000014ac78        0x8 
 .text.ARCONTROLLER_FEATURE_Powerup_MediaRecordEventPictureEventChangedCallback
                0x000000000014ac80      0x585 /home/sunho/bebop_ws/devel/arsdk/out/arsdk-native/build/libARController/obj/gen/Sources/ARCONTROLLER_Feature.c.o
                0x000000000014ac80                ARCONTROLLER_FEATURE_Powerup_MediaRecordEventPictureEventChangedCallback
 *fill*         0x000000000014b205        0xb 
 .text.ARCONTROLLER_Powerup_NewCmdElementMediaRecordEventVideoEventChanged
                0x000000000014b210      0xb28 /home/sunho/bebop_ws/devel/arsdk/out/arsdk-native/build/libARController/obj/gen/Sources/ARCONTROLLER_Feature.c.o
                0x000000000014b210                ARCONTROLLER_Powerup_NewCmdElementMediaRecordEventVideoEventChanged
 *fill*         0x000000000014bd38        0x8 
 .text.ARCONTROLLER_FEATURE_Powerup_MediaRecordEventVideoEventChangedCallback
                0x000000000014bd40      0x585 /home/sunho/bebop_ws/devel/arsdk/out/arsdk-native/build/libARController/obj/gen/Sources/ARCONTROLLER_Feature.c.o
                0x000000000014bd40                ARCONTROLLER_FEATURE_Powerup_MediaRecordEventVideoEventChangedCallback
 *fill*         0x000000000014c2c5        0xb 
 .text.ARCONTROLLER_Powerup_NewCmdElementNetworkSettingsStateWifiSelectionChanged
                0x000000000014c2d0     0x1032 /home/sunho/bebop_ws/devel/arsdk/out/arsdk-native/build/libARController/obj/gen/Sources/ARCONTROLLER_Feature.c.o
                0x000000000014c2d0                ARCONTROLLER_Powerup_NewCmdElementNetworkSettingsStateWifiSelectionChanged
 *fill*         0x000000000014d302        0xe 
 .text.ARCONTROLLER_FEATURE_Powerup_NetworkSettingsStateWifiSelectionChangedCallback
                0x000000000014d310      0x596 /home/sunho/bebop_ws/devel/arsdk/out/arsdk-native/build/libARController/obj/gen/Sources/ARCONTROLLER_Feature.c.o
                0x000000000014d310                ARCONTROLLER_FEATURE_Powerup_NetworkSettingsStateWifiSelectionChangedCallback
 *fill*         0x000000000014d8a6        0xa 
 .text.ARCONTROLLER_Powerup_NewCmdElementNetworkStateWifiScanListChanged
                0x000000000014d8b0     0x156e /home/sunho/bebop_ws/devel/arsdk/out/arsdk-native/build/libARController/obj/gen/Sources/ARCONTROLLER_Feature.c.o
                0x000000000014d8b0                ARCONTROLLER_Powerup_NewCmdElementNetworkStateWifiScanListChanged
 *fill*         0x000000000014ee1e        0x2 
 .text.ARCONTROLLER_FEATURE_Powerup_NetworkStateWifiScanListChangedCallback
                0x000000000014ee20      0x596 /home/sunho/bebop_ws/devel/arsdk/out/arsdk-native/build/libARController/obj/gen/Sources/ARCONTROLLER_Feature.c.o
                0x000000000014ee20                ARCONTROLLER_FEATURE_Powerup_NetworkStateWifiScanListChangedCallback
 *fill*         0x000000000014f3b6        0xa 
 .text.ARCONTROLLER_Powerup_NewCmdElementNetworkStateAllWifiScanChanged
                0x000000000014f3c0       0xc9 /home/sunho/bebop_ws/devel/arsdk/out/arsdk-native/build/libARController/obj/gen/Sources/ARCONTROLLER_Feature.c.o
                0x000000000014f3c0                ARCONTROLLER_Powerup_NewCmdElementNetworkStateAllWifiScanChanged
 *fill*         0x000000000014f489        0x7 
 .text.ARCONTROLLER_FEATURE_Powerup_NetworkStateAllWifiScanChangedCallback
                0x000000000014f490      0x55d /home/sunho/bebop_ws/devel/arsdk/out/arsdk-native/build/libARController/obj/gen/Sources/ARCONTROLLER_Feature.c.o
                0x000000000014f490                ARCONTROLLER_FEATURE_Powerup_NetworkStateAllWifiScanChangedCallback
 *fill*         0x000000000014f9ed        0x3 
 .text.ARCONTROLLER_Powerup_NewCmdElementNetworkStateWifiAuthChannelListChanged
                0x000000000014f9f0     0x10b9 /home/sunho/bebop_ws/devel/arsdk/out/arsdk-native/build/libARController/obj/gen/Sources/ARCONTROLLER_Feature.c.o
                0x000000000014f9f0                ARCONTROLLER_Powerup_NewCmdElementNetworkStateWifiAuthChannelListChanged
 *fill*         0x0000000000150aa9        0x7 
 .text.ARCONTROLLER_FEATURE_Powerup_NetworkStateWifiAuthChannelListChangedCallback
                0x0000000000150ab0      0x5bf /home/sunho/bebop_ws/devel/arsdk/out/arsdk-native/build/libARController/obj/gen/Sources/ARCONTROLLER_Feature.c.o
                0x0000000000150ab0                ARCONTROLLER_FEATURE_Powerup_NetworkStateWifiAuthChannelListChangedCallback
 *fill*         0x000000000015106f        0x1 
 .text.ARCONTROLLER_Powerup_NewCmdElementNetworkStateAllWifiAuthChannelChanged
                0x0000000000151070       0xc9 /home/sunho/bebop_ws/devel/arsdk/out/arsdk-native/build/libARController/obj/gen/Sources/ARCONTROLLER_Feature.c.o
                0x0000000000151070                ARCONTROLLER_Powerup_NewCmdElementNetworkStateAllWifiAuthChannelChanged
 *fill*         0x0000000000151139        0x7 
 .text.ARCONTROLLER_FEATURE_Powerup_NetworkStateAllWifiAuthChannelChangedCallback
                0x0000000000151140      0x55d /home/sunho/bebop_ws/devel/arsdk/out/arsdk-native/build/libARController/obj/gen/Sources/ARCONTROLLER_Feature.c.o
                0x0000000000151140                ARCONTROLLER_FEATURE_Powerup_NetworkStateAllWifiAuthChannelChangedCallback
 *fill*         0x000000000015169d        0x3 
 .text.ARCONTROLLER_Powerup_NewCmdElementNetworkStateLinkQualityChanged
                0x00000000001516a0      0x5b8 /home/sunho/bebop_ws/devel/arsdk/out/arsdk-native/build/libARController/obj/gen/Sources/ARCONTROLLER_Feature.c.o
                0x00000000001516a0                ARCONTROLLER_Powerup_NewCmdElementNetworkStateLinkQualityChanged
 *fill*         0x0000000000151c58        0x8 
 .text.ARCONTROLLER_FEATURE_Powerup_NetworkStateLinkQualityChangedCallback
                0x0000000000151c60      0x565 /home/sunho/bebop_ws/devel/arsdk/out/arsdk-native/build/libARController/obj/gen/Sources/ARCONTROLLER_Feature.c.o
                0x0000000000151c60                ARCONTROLLER_FEATURE_Powerup_NetworkStateLinkQualityChangedCallback
 *fill*         0x00000000001521c5        0xb 
 .text.ARCONTROLLER_Powerup_NewCmdElementMediaStreamingStateVideoEnableChanged
                0x00000000001521d0      0x5b8 /home/sunho/bebop_ws/devel/arsdk/out/arsdk-native/build/libARController/obj/gen/Sources/ARCONTROLLER_Feature.c.o
                0x00000000001521d0                ARCONTROLLER_Powerup_NewCmdElementMediaStreamingStateVideoEnableChanged
 *fill*         0x0000000000152788        0x8 
 .text.ARCONTROLLER_FEATURE_Powerup_MediaStreamingStateVideoEnableChangedCallback
                0x0000000000152790      0x565 /home/sunho/bebop_ws/devel/arsdk/out/arsdk-native/build/libARController/obj/gen/Sources/ARCONTROLLER_Feature.c.o
                0x0000000000152790                ARCONTROLLER_FEATURE_Powerup_MediaStreamingStateVideoEnableChangedCallback
 *fill*         0x0000000000152cf5        0xb 
 .text.ARCONTROLLER_Powerup_NewCmdElementVideoSettingsStateAutorecordChanged
                0x0000000000152d00      0x5b8 /home/sunho/bebop_ws/devel/arsdk/out/arsdk-native/build/libARController/obj/gen/Sources/ARCONTROLLER_Feature.c.o
                0x0000000000152d00                ARCONTROLLER_Powerup_NewCmdElementVideoSettingsStateAutorecordChanged
 *fill*         0x00000000001532b8        0x8 
 .text.ARCONTROLLER_FEATURE_Powerup_VideoSettingsStateAutorecordChangedCallback
                0x00000000001532c0      0x565 /home/sunho/bebop_ws/devel/arsdk/out/arsdk-native/build/libARController/obj/gen/Sources/ARCONTROLLER_Feature.c.o
                0x00000000001532c0                ARCONTROLLER_FEATURE_Powerup_VideoSettingsStateAutorecordChangedCallback
 *fill*         0x0000000000153825        0xb 
 .text.ARCONTROLLER_Powerup_NewCmdElementVideoSettingsStateVideoModeChanged
                0x0000000000153830      0x5b8 /home/sunho/bebop_ws/devel/arsdk/out/arsdk-native/build/libARController/obj/gen/Sources/ARCONTROLLER_Feature.c.o
                0x0000000000153830                ARCONTROLLER_Powerup_NewCmdElementVideoSettingsStateVideoModeChanged
 *fill*         0x0000000000153de8        0x8 
 .text.ARCONTROLLER_FEATURE_Powerup_VideoSettingsStateVideoModeChangedCallback
                0x0000000000153df0      0x565 /home/sunho/bebop_ws/devel/arsdk/out/arsdk-native/build/libARController/obj/gen/Sources/ARCONTROLLER_Feature.c.o
                0x0000000000153df0                ARCONTROLLER_FEATURE_Powerup_VideoSettingsStateVideoModeChangedCallback
 *fill*         0x0000000000154355        0xb 
 .text.ARCONTROLLER_Powerup_NewCmdElementSoundsStateBuzzChanged
                0x0000000000154360      0x5b8 /home/sunho/bebop_ws/devel/arsdk/out/arsdk-native/build/libARController/obj/gen/Sources/ARCONTROLLER_Feature.c.o
                0x0000000000154360                ARCONTROLLER_Powerup_NewCmdElementSoundsStateBuzzChanged
 *fill*         0x0000000000154918        0x8 
 .text.ARCONTROLLER_FEATURE_Powerup_SoundsStateBuzzChangedCallback
                0x0000000000154920      0x565 /home/sunho/bebop_ws/devel/arsdk/out/arsdk-native/build/libARController/obj/gen/Sources/ARCONTROLLER_Feature.c.o
                0x0000000000154920                ARCONTROLLER_FEATURE_Powerup_SoundsStateBuzzChangedCallback
 *fill*         0x0000000000154e85        0xb 
 .text.ARCONTROLLER_FEATURE_Powerup_SetNetworkController
                0x0000000000154e90       0x26 /home/sunho/bebop_ws/devel/arsdk/out/arsdk-native/build/libARController/obj/gen/Sources/ARCONTROLLER_Feature.c.o
                0x0000000000154e90                ARCONTROLLER_FEATURE_Powerup_SetNetworkController
 *fill*         0x0000000000154eb6        0xa 
 .text.ARCONTROLLER_Powerup_GetCommandElements
                0x0000000000154ec0      0x1a0 /home/sunho/bebop_ws/devel/arsdk/out/arsdk-native/build/libARController/obj/gen/Sources/ARCONTROLLER_Feature.c.o
                0x0000000000154ec0                ARCONTROLLER_Powerup_GetCommandElements
 .text.ARCONTROLLER_FEATURE_Pro_Delete
                0x0000000000155060       0x79 /home/sunho/bebop_ws/devel/arsdk/out/arsdk-native/build/libARController/obj/gen/Sources/ARCONTROLLER_Feature.c.o
                0x0000000000155060                ARCONTROLLER_FEATURE_Pro_Delete
 *fill*         0x00000000001550d9        0x7 
 .text.ARCONTROLLER_FEATURE_Pro_New
                0x00000000001550e0       0xac /home/sunho/bebop_ws/devel/arsdk/out/arsdk-native/build/libARController/obj/gen/Sources/ARCONTROLLER_Feature.c.o
                0x00000000001550e0                ARCONTROLLER_FEATURE_Pro_New
 *fill*         0x000000000015518c        0x4 
 .text.ARCONTROLLER_FEATURE_Pro_GetDictionary
                0x0000000000155190       0x39 /home/sunho/bebop_ws/devel/arsdk/out/arsdk-native/build/libARController/obj/gen/Sources/ARCONTROLLER_Feature.c.o
                0x0000000000155190                ARCONTROLLER_FEATURE_Pro_GetDictionary
 *fill*         0x00000000001551c9        0x7 
 .text.ARCONTROLLER_FEATURE_Pro_AddCallback
                0x00000000001551d0       0x26 /home/sunho/bebop_ws/devel/arsdk/out/arsdk-native/build/libARController/obj/gen/Sources/ARCONTROLLER_Feature.c.o
                0x00000000001551d0                ARCONTROLLER_FEATURE_Pro_AddCallback
 *fill*         0x00000000001551f6        0xa 
 .text.ARCONTROLLER_FEATURE_Pro_RemoveCallback
                0x0000000000155200       0x26 /home/sunho/bebop_ws/devel/arsdk/out/arsdk-native/build/libARController/obj/gen/Sources/ARCONTROLLER_Feature.c.o
                0x0000000000155200                ARCONTROLLER_FEATURE_Pro_RemoveCallback
 *fill*         0x0000000000155226        0xa 
 .text.ARCONTROLLER_FEATURE_Pro_RegisterARCommands
                0x0000000000155230       0x77 /home/sunho/bebop_ws/devel/arsdk/out/arsdk-native/build/libARController/obj/gen/Sources/ARCONTROLLER_Feature.c.o
                0x0000000000155230                ARCONTROLLER_FEATURE_Pro_RegisterARCommands
 *fill*         0x00000000001552a7        0x9 
 .text.ARCONTROLLER_FEATURE_Pro_UnregisterARCommands
                0x00000000001552b0       0x5f /home/sunho/bebop_ws/devel/arsdk/out/arsdk-native/build/libARController/obj/gen/Sources/ARCONTROLLER_Feature.c.o
                0x00000000001552b0                ARCONTROLLER_FEATURE_Pro_UnregisterARCommands
 *fill*         0x000000000015530f        0x1 
 .text.ARCONTROLLER_Pro_NewCmdElementProStateSupportedFeatures
                0x0000000000155310      0xb28 /home/sunho/bebop_ws/devel/arsdk/out/arsdk-native/build/libARController/obj/gen/Sources/ARCONTROLLER_Feature.c.o
                0x0000000000155310                ARCONTROLLER_Pro_NewCmdElementProStateSupportedFeatures
 *fill*         0x0000000000155e38        0x8 
 .text.ARCONTROLLER_FEATURE_Pro_ProStateSupportedFeaturesCallback
                0x0000000000155e40      0x56c /home/sunho/bebop_ws/devel/arsdk/out/arsdk-native/build/libARController/obj/gen/Sources/ARCONTROLLER_Feature.c.o
                0x0000000000155e40                ARCONTROLLER_FEATURE_Pro_ProStateSupportedFeaturesCallback
 *fill*         0x00000000001563ac        0x4 
 .text.ARCONTROLLER_Pro_NewCmdElementProStateFeaturesActivated
                0x00000000001563b0      0x5b8 /home/sunho/bebop_ws/devel/arsdk/out/arsdk-native/build/libARController/obj/gen/Sources/ARCONTROLLER_Feature.c.o
                0x00000000001563b0                ARCONTROLLER_Pro_NewCmdElementProStateFeaturesActivated
 *fill*         0x0000000000156968        0x8 
 .text.ARCONTROLLER_FEATURE_Pro_ProStateFeaturesActivatedCallback
                0x0000000000156970      0x55c /home/sunho/bebop_ws/devel/arsdk/out/arsdk-native/build/libARController/obj/gen/Sources/ARCONTROLLER_Feature.c.o
                0x0000000000156970                ARCONTROLLER_FEATURE_Pro_ProStateFeaturesActivatedCallback
 *fill*         0x0000000000156ecc        0x4 
 .text.ARCONTROLLER_Pro_NewCmdElementProEventChallengeEvent
                0x0000000000156ed0      0x63f /home/sunho/bebop_ws/devel/arsdk/out/arsdk-native/build/libARController/obj/gen/Sources/ARCONTROLLER_Feature.c.o
                0x0000000000156ed0                ARCONTROLLER_Pro_NewCmdElementProEventChallengeEvent
 *fill*         0x000000000015750f        0x1 
 .text.ARCONTROLLER_FEATURE_Pro_ProEventChallengeEventCallback
                0x0000000000157510      0x55c /home/sunho/bebop_ws/devel/arsdk/out/arsdk-native/build/libARController/obj/gen/Sources/ARCONTROLLER_Feature.c.o
                0x0000000000157510                ARCONTROLLER_FEATURE_Pro_ProEventChallengeEventCallback
 *fill*         0x0000000000157a6c        0x4 
 .text.ARCONTROLLER_FEATURE_Pro_SetNetworkController
                0x0000000000157a70       0x1e /home/sunho/bebop_ws/devel/arsdk/out/arsdk-native/build/libARController/obj/gen/Sources/ARCONTROLLER_Feature.c.o
                0x0000000000157a70                ARCONTROLLER_FEATURE_Pro_SetNetworkController
 *fill*         0x0000000000157a8e        0x2 
 .text.ARCONTROLLER_Pro_GetCommandElements
                0x0000000000157a90      0x190 /home/sunho/bebop_ws/devel/arsdk/out/arsdk-native/build/libARController/obj/gen/Sources/ARCONTROLLER_Feature.c.o
                0x0000000000157a90                ARCONTROLLER_Pro_GetCommandElements
 .text.ARCONTROLLER_FEATURE_Rc_Delete
                0x0000000000157c20       0x79 /home/sunho/bebop_ws/devel/arsdk/out/arsdk-native/build/libARController/obj/gen/Sources/ARCONTROLLER_Feature.c.o
                0x0000000000157c20                ARCONTROLLER_FEATURE_Rc_Delete
 *fill*         0x0000000000157c99        0x7 
 .text.ARCONTROLLER_FEATURE_Rc_New
                0x0000000000157ca0       0xc4 /home/sunho/bebop_ws/devel/arsdk/out/arsdk-native/build/libARController/obj/gen/Sources/ARCONTROLLER_Feature.c.o
                0x0000000000157ca0                ARCONTROLLER_FEATURE_Rc_New
 *fill*         0x0000000000157d64        0xc 
 .text.ARCONTROLLER_FEATURE_Rc_GetDictionary
                0x0000000000157d70       0x39 /home/sunho/bebop_ws/devel/arsdk/out/arsdk-native/build/libARController/obj/gen/Sources/ARCONTROLLER_Feature.c.o
                0x0000000000157d70                ARCONTROLLER_FEATURE_Rc_GetDictionary
 *fill*         0x0000000000157da9        0x7 
 .text.ARCONTROLLER_FEATURE_Rc_AddCallback
                0x0000000000157db0       0x26 /home/sunho/bebop_ws/devel/arsdk/out/arsdk-native/build/libARController/obj/gen/Sources/ARCONTROLLER_Feature.c.o
                0x0000000000157db0                ARCONTROLLER_FEATURE_Rc_AddCallback
 *fill*         0x0000000000157dd6        0xa 
 .text.ARCONTROLLER_FEATURE_Rc_RemoveCallback
                0x0000000000157de0       0x26 /home/sunho/bebop_ws/devel/arsdk/out/arsdk-native/build/libARController/obj/gen/Sources/ARCONTROLLER_Feature.c.o
                0x0000000000157de0                ARCONTROLLER_FEATURE_Rc_RemoveCallback
 *fill*         0x0000000000157e06        0xa 
 .text.ARCONTROLLER_FEATURE_Rc_RegisterARCommands
                0x0000000000157e10       0xaf /home/sunho/bebop_ws/devel/arsdk/out/arsdk-native/build/libARController/obj/gen/Sources/ARCONTROLLER_Feature.c.o
                0x0000000000157e10                ARCONTROLLER_FEATURE_Rc_RegisterARCommands
 *fill*         0x0000000000157ebf        0x1 
 .text.ARCONTROLLER_FEATURE_Rc_UnregisterARCommands
                0x0000000000157ec0       0x87 /home/sunho/bebop_ws/devel/arsdk/out/arsdk-native/build/libARController/obj/gen/Sources/ARCONTROLLER_Feature.c.o
                0x0000000000157ec0                ARCONTROLLER_FEATURE_Rc_UnregisterARCommands
 *fill*         0x0000000000157f47        0x9 
 .text.ARCONTROLLER_Rc_NewCmdElementReceiverState
                0x0000000000157f50      0xb92 /home/sunho/bebop_ws/devel/arsdk/out/arsdk-native/build/libARController/obj/gen/Sources/ARCONTROLLER_Feature.c.o
                0x0000000000157f50                ARCONTROLLER_Rc_NewCmdElementReceiverState
 *fill*         0x0000000000158ae2        0xe 
 .text.ARCONTROLLER_FEATURE_Rc_ReceiverStateCallback
                0x0000000000158af0      0x56c /home/sunho/bebop_ws/devel/arsdk/out/arsdk-native/build/libARController/obj/gen/Sources/ARCONTROLLER_Feature.c.o
                0x0000000000158af0                ARCONTROLLER_FEATURE_Rc_ReceiverStateCallback
 *fill*         0x000000000015905c        0x4 
 .text.ARCONTROLLER_Rc_NewCmdElementChannelsMonitorState
                0x0000000000159060      0x5b8 /home/sunho/bebop_ws/devel/arsdk/out/arsdk-native/build/libARController/obj/gen/Sources/ARCONTROLLER_Feature.c.o
                0x0000000000159060                ARCONTROLLER_Rc_NewCmdElementChannelsMonitorState
 *fill*         0x0000000000159618        0x8 
 .text.ARCONTROLLER_FEATURE_Rc_ChannelsMonitorStateCallback
                0x0000000000159620      0x55c /home/sunho/bebop_ws/devel/arsdk/out/arsdk-native/build/libARController/obj/gen/Sources/ARCONTROLLER_Feature.c.o
                0x0000000000159620                ARCONTROLLER_FEATURE_Rc_ChannelsMonitorStateCallback
 *fill*         0x0000000000159b7c        0x4 
 .text.ARCONTROLLER_Rc_NewCmdElementChannelValue
                0x0000000000159b80     0x108c /home/sunho/bebop_ws/devel/arsdk/out/arsdk-native/build/libARController/obj/gen/Sources/ARCONTROLLER_Feature.c.o
                0x0000000000159b80                ARCONTROLLER_Rc_NewCmdElementChannelValue
 *fill*         0x000000000015ac0c        0x4 
 .text.ARCONTROLLER_FEATURE_Rc_ChannelValueCallback
                0x000000000015ac10      0xc2f /home/sunho/bebop_ws/devel/arsdk/out/arsdk-native/build/libARController/obj/gen/Sources/ARCONTROLLER_Feature.c.o
                0x000000000015ac10                ARCONTROLLER_FEATURE_Rc_ChannelValueCallback
 *fill*         0x000000000015b83f        0x1 
 .text.ARCONTROLLER_Rc_NewCmdElementCalibrationState
                0x000000000015b840     0x232f /home/sunho/bebop_ws/devel/arsdk/out/arsdk-native/build/libARController/obj/gen/Sources/ARCONTROLLER_Feature.c.o
                0x000000000015b840                ARCONTROLLER_Rc_NewCmdElementCalibrationState
 *fill*         0x000000000015db6f        0x1 
 .text.ARCONTROLLER_FEATURE_Rc_CalibrationStateCallback
                0x000000000015db70      0x5ad /home/sunho/bebop_ws/devel/arsdk/out/arsdk-native/build/libARController/obj/gen/Sources/ARCONTROLLER_Feature.c.o
                0x000000000015db70                ARCONTROLLER_FEATURE_Rc_CalibrationStateCallback
 *fill*         0x000000000015e11d        0x3 
 .text.ARCONTROLLER_Rc_NewCmdElementReceiverQuality
                0x000000000015e120      0x5b8 /home/sunho/bebop_ws/devel/arsdk/out/arsdk-native/build/libARController/obj/gen/Sources/ARCONTROLLER_Feature.c.o
                0x000000000015e120                ARCONTROLLER_Rc_NewCmdElementReceiverQuality
 *fill*         0x000000000015e6d8        0x8 
 .text.ARCONTROLLER_FEATURE_Rc_ReceiverQualityCallback
                0x000000000015e6e0      0x55c /home/sunho/bebop_ws/devel/arsdk/out/arsdk-native/build/libARController/obj/gen/Sources/ARCONTROLLER_Feature.c.o
                0x000000000015e6e0                ARCONTROLLER_FEATURE_Rc_ReceiverQualityCallback
 *fill*         0x000000000015ec3c        0x4 
 .text.ARCONTROLLER_FEATURE_Rc_SetNetworkController
                0x000000000015ec40       0x1e /home/sunho/bebop_ws/devel/arsdk/out/arsdk-native/build/libARController/obj/gen/Sources/ARCONTROLLER_Feature.c.o
                0x000000000015ec40                ARCONTROLLER_FEATURE_Rc_SetNetworkController
 *fill*         0x000000000015ec5e        0x2 
 .text.ARCONTROLLER_Rc_GetCommandElements
                0x000000000015ec60      0x190 /home/sunho/bebop_ws/devel/arsdk/out/arsdk-native/build/libARController/obj/gen/Sources/ARCONTROLLER_Feature.c.o
                0x000000000015ec60                ARCONTROLLER_Rc_GetCommandElements
 .text.ARCONTROLLER_FEATURE_SkyController_Delete
                0x000000000015edf0       0x88 /home/sunho/bebop_ws/devel/arsdk/out/arsdk-native/build/libARController/obj/gen/Sources/ARCONTROLLER_Feature.c.o
                0x000000000015edf0                ARCONTROLLER_FEATURE_SkyController_Delete
 *fill*         0x000000000015ee78        0x8 
 .text.ARCONTROLLER_FEATURE_SkyController_New
                0x000000000015ee80      0x21c /home/sunho/bebop_ws/devel/arsdk/out/arsdk-native/build/libARController/obj/gen/Sources/ARCONTROLLER_Feature.c.o
                0x000000000015ee80                ARCONTROLLER_FEATURE_SkyController_New
 *fill*         0x000000000015f09c        0x4 
 .text.ARCONTROLLER_FEATURE_SkyController_GetDictionary
                0x000000000015f0a0       0x39 /home/sunho/bebop_ws/devel/arsdk/out/arsdk-native/build/libARController/obj/gen/Sources/ARCONTROLLER_Feature.c.o
                0x000000000015f0a0                ARCONTROLLER_FEATURE_SkyController_GetDictionary
 *fill*         0x000000000015f0d9        0x7 
 .text.ARCONTROLLER_FEATURE_SkyController_AddCallback
                0x000000000015f0e0       0x26 /home/sunho/bebop_ws/devel/arsdk/out/arsdk-native/build/libARController/obj/gen/Sources/ARCONTROLLER_Feature.c.o
                0x000000000015f0e0                ARCONTROLLER_FEATURE_SkyController_AddCallback
 *fill*         0x000000000015f106        0xa 
 .text.ARCONTROLLER_FEATURE_SkyController_RemoveCallback
                0x000000000015f110       0x26 /home/sunho/bebop_ws/devel/arsdk/out/arsdk-native/build/libARController/obj/gen/Sources/ARCONTROLLER_Feature.c.o
                0x000000000015f110                ARCONTROLLER_FEATURE_SkyController_RemoveCallback
 *fill*         0x000000000015f136        0xa 
 .text.ARCONTROLLER_FEATURE_SkyController_RegisterARCommands
                0x000000000015f140      0x477 /home/sunho/bebop_ws/devel/arsdk/out/arsdk-native/build/libARController/obj/gen/Sources/ARCONTROLLER_Feature.c.o
                0x000000000015f140                ARCONTROLLER_FEATURE_SkyController_RegisterARCommands
 *fill*         0x000000000015f5b7        0x9 
 .text.ARCONTROLLER_FEATURE_SkyController_UnregisterARCommands
                0x000000000015f5c0      0x397 /home/sunho/bebop_ws/devel/arsdk/out/arsdk-native/build/libARController/obj/gen/Sources/ARCONTROLLER_Feature.c.o
                0x000000000015f5c0                ARCONTROLLER_FEATURE_SkyController_UnregisterARCommands
 *fill*         0x000000000015f957        0x9 
 .text.ARCONTROLLER_SkyController_NewCmdElementWifiStateWifiList
                0x000000000015f960     0x1f5e /home/sunho/bebop_ws/devel/arsdk/out/arsdk-native/build/libARController/obj/gen/Sources/ARCONTROLLER_Feature.c.o
                0x000000000015f960                ARCONTROLLER_SkyController_NewCmdElementWifiStateWifiList
 *fill*         0x00000000001618be        0x2 
 .text.ARCONTROLLER_FEATURE_SkyController_WifiStateWifiListCallback
                0x00000000001618c0      0x5b6 /home/sunho/bebop_ws/devel/arsdk/out/arsdk-native/build/libARController/obj/gen/Sources/ARCONTROLLER_Feature.c.o
                0x00000000001618c0                ARCONTROLLER_FEATURE_SkyController_WifiStateWifiListCallback
 *fill*         0x0000000000161e76        0xa 
 .text.ARCONTROLLER_SkyController_NewCmdElementWifiStateConnexionChanged
                0x0000000000161e80      0xbb3 /home/sunho/bebop_ws/devel/arsdk/out/arsdk-native/build/libARController/obj/gen/Sources/ARCONTROLLER_Feature.c.o
                0x0000000000161e80                ARCONTROLLER_SkyController_NewCmdElementWifiStateConnexionChanged
 *fill*         0x0000000000162a33        0xd 
 .text.ARCONTROLLER_FEATURE_SkyController_WifiStateConnexionChangedCallback
                0x0000000000162a40      0x585 /home/sunho/bebop_ws/devel/arsdk/out/arsdk-native/build/libARController/obj/gen/Sources/ARCONTROLLER_Feature.c.o
                0x0000000000162a40                ARCONTROLLER_FEATURE_SkyController_WifiStateConnexionChangedCallback
 *fill*         0x0000000000162fc5        0xb 
 .text.ARCONTROLLER_SkyController_NewCmdElementWifiStateWifiAuthChannelListChanged
                0x0000000000162fd0     0x10b9 /home/sunho/bebop_ws/devel/arsdk/out/arsdk-native/build/libARController/obj/gen/Sources/ARCONTROLLER_Feature.c.o
                0x0000000000162fd0                ARCONTROLLER_SkyController_NewCmdElementWifiStateWifiAuthChannelListChanged
 *fill*         0x0000000000164089        0x7 
 .text.ARCONTROLLER_FEATURE_SkyController_WifiStateWifiAuthChannelListChangedCallback
                0x0000000000164090      0x5bf /home/sunho/bebop_ws/devel/arsdk/out/arsdk-native/build/libARController/obj/gen/Sources/ARCONTROLLER_Feature.c.o
                0x0000000000164090                ARCONTROLLER_FEATURE_SkyController_WifiStateWifiAuthChannelListChangedCallback
 *fill*         0x000000000016464f        0x1 
 .text.ARCONTROLLER_SkyController_NewCmdElementWifiStateAllWifiAuthChannelChanged
                0x0000000000164650       0xc9 /home/sunho/bebop_ws/devel/arsdk/out/arsdk-native/build/libARController/obj/gen/Sources/ARCONTROLLER_Feature.c.o
                0x0000000000164650                ARCONTROLLER_SkyController_NewCmdElementWifiStateAllWifiAuthChannelChanged
 *fill*         0x0000000000164719        0x7 
 .text.ARCONTROLLER_FEATURE_SkyController_WifiStateAllWifiAuthChannelChangedCallback
                0x0000000000164720      0x55d /home/sunho/bebop_ws/devel/arsdk/out/arsdk-native/build/libARController/obj/gen/Sources/ARCONTROLLER_Feature.c.o
                0x0000000000164720                ARCONTROLLER_FEATURE_SkyController_WifiStateAllWifiAuthChannelChangedCallback
 *fill*         0x0000000000164c7d        0x3 
 .text.ARCONTROLLER_SkyController_NewCmdElementWifiStateWifiSignalChanged
                0x0000000000164c80      0x5b8 /home/sunho/bebop_ws/devel/arsdk/out/arsdk-native/build/libARController/obj/gen/Sources/ARCONTROLLER_Feature.c.o
                0x0000000000164c80                ARCONTROLLER_SkyController_NewCmdElementWifiStateWifiSignalChanged
 *fill*         0x0000000000165238        0x8 
 .text.ARCONTROLLER_FEATURE_SkyController_WifiStateWifiSignalChangedCallback
                0x0000000000165240      0x565 /home/sunho/bebop_ws/devel/arsdk/out/arsdk-native/build/libARController/obj/gen/Sources/ARCONTROLLER_Feature.c.o
                0x0000000000165240                ARCONTROLLER_FEATURE_SkyController_WifiStateWifiSignalChangedCallback
 *fill*         0x00000000001657a5        0xb 
 .text.ARCONTROLLER_SkyController_NewCmdElementDeviceStateDeviceList
                0x00000000001657b0      0x6d3 /home/sunho/bebop_ws/devel/arsdk/out/arsdk-native/build/libARController/obj/gen/Sources/ARCONTROLLER_Feature.c.o
                0x00000000001657b0                ARCONTROLLER_SkyController_NewCmdElementDeviceStateDeviceList
 *fill*         0x0000000000165e83        0xd 
 .text.ARCONTROLLER_FEATURE_SkyController_DeviceStateDeviceListCallback
                0x0000000000165e90      0x59d /home/sunho/bebop_ws/devel/arsdk/out/arsdk-native/build/libARController/obj/gen/Sources/ARCONTROLLER_Feature.c.o
                0x0000000000165e90                ARCONTROLLER_FEATURE_SkyController_DeviceStateDeviceListCallback
 *fill*         0x000000000016642d        0x3 
 .text.ARCONTROLLER_SkyController_NewCmdElementDeviceStateConnexionChanged
                0x0000000000166430     0x10bc /home/sunho/bebop_ws/devel/arsdk/out/arsdk-native/build/libARController/obj/gen/Sources/ARCONTROLLER_Feature.c.o
                0x0000000000166430                ARCONTROLLER_SkyController_NewCmdElementDeviceStateConnexionChanged
 *fill*         0x00000000001674ec        0x4 
 .text.ARCONTROLLER_FEATURE_SkyController_DeviceStateConnexionChangedCallback
                0x00000000001674f0      0x596 /home/sunho/bebop_ws/devel/arsdk/out/arsdk-native/build/libARController/obj/gen/Sources/ARCONTROLLER_Feature.c.o
                0x00000000001674f0                ARCONTROLLER_FEATURE_SkyController_DeviceStateConnexionChangedCallback
 *fill*         0x0000000000167a86        0xa 
 .text.ARCONTROLLER_SkyController_NewCmdElementSettingsStateAllSettingsChanged
                0x0000000000167a90       0xc9 /home/sunho/bebop_ws/devel/arsdk/out/arsdk-native/build/libARController/obj/gen/Sources/ARCONTROLLER_Feature.c.o
                0x0000000000167a90                ARCONTROLLER_SkyController_NewCmdElementSettingsStateAllSettingsChanged
 *fill*         0x0000000000167b59        0x7 
 .text.ARCONTROLLER_FEATURE_SkyController_SettingsStateAllSettingsChangedCallback
                0x0000000000167b60      0x55d /home/sunho/bebop_ws/devel/arsdk/out/arsdk-native/build/libARController/obj/gen/Sources/ARCONTROLLER_Feature.c.o
                0x0000000000167b60                ARCONTROLLER_FEATURE_SkyController_SettingsStateAllSettingsChangedCallback
 *fill*         0x00000000001680bd        0x3 
 .text.ARCONTROLLER_SkyController_NewCmdElementSettingsStateResetChanged
                0x00000000001680c0       0xc9 /home/sunho/bebop_ws/devel/arsdk/out/arsdk-native/build/libARController/obj/gen/Sources/ARCONTROLLER_Feature.c.o
                0x00000000001680c0                ARCONTROLLER_SkyController_NewCmdElementSettingsStateResetChanged
 *fill*         0x0000000000168189        0x7 
 .text.ARCONTROLLER_FEATURE_SkyController_SettingsStateResetChangedCallback
                0x0000000000168190      0x55d /home/sunho/bebop_ws/devel/arsdk/out/arsdk-native/build/libARController/obj/gen/Sources/ARCONTROLLER_Feature.c.o
                0x0000000000168190                ARCONTROLLER_FEATURE_SkyController_SettingsStateResetChangedCallback
 *fill*         0x00000000001686ed        0x3 
 .text.ARCONTROLLER_SkyController_NewCmdElementSettingsStateProductSerialChanged
                0x00000000001686f0      0x63f /home/sunho/bebop_ws/devel/arsdk/out/arsdk-native/build/libARController/obj/gen/Sources/ARCONTROLLER_Feature.c.o
                0x00000000001686f0                ARCONTROLLER_SkyController_NewCmdElementSettingsStateProductSerialChanged
 *fill*         0x0000000000168d2f        0x1 
 .text.ARCONTROLLER_FEATURE_SkyController_SettingsStateProductSerialChangedCallback
                0x0000000000168d30      0x565 /home/sunho/bebop_ws/devel/arsdk/out/arsdk-native/build/libARController/obj/gen/Sources/ARCONTROLLER_Feature.c.o
                0x0000000000168d30                ARCONTROLLER_FEATURE_SkyController_SettingsStateProductSerialChangedCallback
 *fill*         0x0000000000169295        0xb 
 .text.ARCONTROLLER_SkyController_NewCmdElementSettingsStateProductVariantChanged
                0x00000000001692a0      0x5b8 /home/sunho/bebop_ws/devel/arsdk/out/arsdk-native/build/libARController/obj/gen/Sources/ARCONTROLLER_Feature.c.o
                0x00000000001692a0                ARCONTROLLER_SkyController_NewCmdElementSettingsStateProductVariantChanged
 *fill*         0x0000000000169858        0x8 
 .text.ARCONTROLLER_FEATURE_SkyController_SettingsStateProductVariantChangedCallback
                0x0000000000169860      0x565 /home/sunho/bebop_ws/devel/arsdk/out/arsdk-native/build/libARController/obj/gen/Sources/ARCONTROLLER_Feature.c.o
                0x0000000000169860                ARCONTROLLER_FEATURE_SkyController_SettingsStateProductVariantChangedCallback
 *fill*         0x0000000000169dc5        0xb 
 .text.ARCONTROLLER_SkyController_NewCmdElementSettingsStateProductVersionChanged
                0x0000000000169dd0      0xc27 /home/sunho/bebop_ws/devel/arsdk/out/arsdk-native/build/libARController/obj/gen/Sources/ARCONTROLLER_Feature.c.o
                0x0000000000169dd0                ARCONTROLLER_SkyController_NewCmdElementSettingsStateProductVersionChanged
 *fill*         0x000000000016a9f7        0x9 
 .text.ARCONTROLLER_FEATURE_SkyController_SettingsStateProductVersionChangedCallback
                0x000000000016aa00      0x585 /home/sunho/bebop_ws/devel/arsdk/out/arsdk-native/build/libARController/obj/gen/Sources/ARCONTROLLER_Feature.c.o
                0x000000000016aa00                ARCONTROLLER_FEATURE_SkyController_SettingsStateProductVersionChangedCallback
 *fill*         0x000000000016af85        0xb 
 .text.ARCONTROLLER_SkyController_NewCmdElementCommonStateAllStatesChanged
                0x000000000016af90       0xc9 /home/sunho/bebop_ws/devel/arsdk/out/arsdk-native/build/libARController/obj/gen/Sources/ARCONTROLLER_Feature.c.o
                0x000000000016af90                ARCONTROLLER_SkyController_NewCmdElementCommonStateAllStatesChanged
 *fill*         0x000000000016b059        0x7 
 .text.ARCONTROLLER_FEATURE_SkyController_CommonStateAllStatesChangedCallback
                0x000000000016b060      0x55d /home/sunho/bebop_ws/devel/arsdk/out/arsdk-native/build/libARController/obj/gen/Sources/ARCONTROLLER_Feature.c.o
                0x000000000016b060                ARCONTROLLER_FEATURE_SkyController_CommonStateAllStatesChangedCallback
 *fill*         0x000000000016b5bd        0x3 
 .text.ARCONTROLLER_SkyController_NewCmdElementSkyControllerStateBatteryChanged
                0x000000000016b5c0      0x5b8 /home/sunho/bebop_ws/devel/arsdk/out/arsdk-native/build/libARController/obj/gen/Sources/ARCONTROLLER_Feature.c.o
                0x000000000016b5c0                ARCONTROLLER_SkyController_NewCmdElementSkyControllerStateBatteryChanged
 *fill*         0x000000000016bb78        0x8 
 .text.ARCONTROLLER_FEATURE_SkyController_SkyControllerStateBatteryChangedCallback
                0x000000000016bb80      0x565 /home/sunho/bebop_ws/devel/arsdk/out/arsdk-native/build/libARController/obj/gen/Sources/ARCONTROLLER_Feature.c.o
                0x000000000016bb80                ARCONTROLLER_FEATURE_SkyController_SkyControllerStateBatteryChangedCallback
 *fill*         0x000000000016c0e5        0xb 
 .text.ARCONTROLLER_SkyController_NewCmdElementSkyControllerStateGpsFixChanged
                0x000000000016c0f0      0x5b8 /home/sunho/bebop_ws/devel/arsdk/out/arsdk-native/build/libARController/obj/gen/Sources/ARCONTROLLER_Feature.c.o
                0x000000000016c0f0                ARCONTROLLER_SkyController_NewCmdElementSkyControllerStateGpsFixChanged
 *fill*         0x000000000016c6a8        0x8 
 .text.ARCONTROLLER_FEATURE_SkyController_SkyControllerStateGpsFixChangedCallback
                0x000000000016c6b0      0x565 /home/sunho/bebop_ws/devel/arsdk/out/arsdk-native/build/libARController/obj/gen/Sources/ARCONTROLLER_Feature.c.o
                0x000000000016c6b0                ARCONTROLLER_FEATURE_SkyController_SkyControllerStateGpsFixChangedCallback
 *fill*         0x000000000016cc15        0xb 
 .text.ARCONTROLLER_SkyController_NewCmdElementSkyControllerStateGpsPositionChanged
                0x000000000016cc20     0x15a4 /home/sunho/bebop_ws/devel/arsdk/out/arsdk-native/build/libARController/obj/gen/Sources/ARCONTROLLER_Feature.c.o
                0x000000000016cc20                ARCONTROLLER_SkyController_NewCmdElementSkyControllerStateGpsPositionChanged
 *fill*         0x000000000016e1c4        0xc 
 .text.ARCONTROLLER_FEATURE_SkyController_SkyControllerStateGpsPositionChangedCallback
                0x000000000016e1d0      0x59d /home/sunho/bebop_ws/devel/arsdk/out/arsdk-native/build/libARController/obj/gen/Sources/ARCONTROLLER_Feature.c.o
                0x000000000016e1d0                ARCONTROLLER_FEATURE_SkyController_SkyControllerStateGpsPositionChangedCallback
 *fill*         0x000000000016e76d        0x3 
 .text.ARCONTROLLER_SkyController_NewCmdElementSkyControllerStateBatteryState
                0x000000000016e770      0x5b8 /home/sunho/bebop_ws/devel/arsdk/out/arsdk-native/build/libARController/obj/gen/Sources/ARCONTROLLER_Feature.c.o
                0x000000000016e770                ARCONTROLLER_SkyController_NewCmdElementSkyControllerStateBatteryState
 *fill*         0x000000000016ed28        0x8 
 .text.ARCONTROLLER_FEATURE_SkyController_SkyControllerStateBatteryStateCallback
                0x000000000016ed30      0x565 /home/sunho/bebop_ws/devel/arsdk/out/arsdk-native/build/libARController/obj/gen/Sources/ARCONTROLLER_Feature.c.o
                0x000000000016ed30                ARCONTROLLER_FEATURE_SkyController_SkyControllerStateBatteryStateCallback
 *fill*         0x000000000016f295        0xb 
 .text.ARCONTROLLER_SkyController_NewCmdElementSkyControllerStateAttitudeChanged
                0x000000000016f2a0     0x15a4 /home/sunho/bebop_ws/devel/arsdk/out/arsdk-native/build/libARController/obj/gen/Sources/ARCONTROLLER_Feature.c.o
                0x000000000016f2a0                ARCONTROLLER_SkyController_NewCmdElementSkyControllerStateAttitudeChanged
 *fill*         0x0000000000170844        0xc 
 .text.ARCONTROLLER_FEATURE_SkyController_SkyControllerStateAttitudeChangedCallback
                0x0000000000170850      0x59d /home/sunho/bebop_ws/devel/arsdk/out/arsdk-native/build/libARController/obj/gen/Sources/ARCONTROLLER_Feature.c.o
                0x0000000000170850                ARCONTROLLER_FEATURE_SkyController_SkyControllerStateAttitudeChangedCallback
 *fill*         0x0000000000170ded        0x3 
 .text.ARCONTROLLER_SkyController_NewCmdElementAccessPointSettingsStateAccessPointSSIDChanged
                0x0000000000170df0      0x63f /home/sunho/bebop_ws/devel/arsdk/out/arsdk-native/build/libARController/obj/gen/Sources/ARCONTROLLER_Feature.c.o
                0x0000000000170df0                ARCONTROLLER_SkyController_NewCmdElementAccessPointSettingsStateAccessPointSSIDChanged
 *fill*         0x000000000017142f        0x1 
 .text.ARCONTROLLER_FEATURE_SkyController_AccessPointSettingsStateAccessPointSSIDChangedCallback
                0x0000000000171430      0x565 /home/sunho/bebop_ws/devel/arsdk/out/arsdk-native/build/libARController/obj/gen/Sources/ARCONTROLLER_Feature.c.o
                0x0000000000171430                ARCONTROLLER_FEATURE_SkyController_AccessPointSettingsStateAccessPointSSIDChangedCallback
 *fill*         0x0000000000171995        0xb 
 .text.ARCONTROLLER_SkyController_NewCmdElementAccessPointSettingsStateAccessPointChannelChanged
                0x00000000001719a0      0x5b8 /home/sunho/bebop_ws/devel/arsdk/out/arsdk-native/build/libARController/obj/gen/Sources/ARCONTROLLER_Feature.c.o
                0x00000000001719a0                ARCONTROLLER_SkyController_NewCmdElementAccessPointSettingsStateAccessPointChannelChanged
 *fill*         0x0000000000171f58        0x8 
 .text.ARCONTROLLER_FEATURE_SkyController_AccessPointSettingsStateAccessPointChannelChangedCallback
                0x0000000000171f60      0x565 /home/sunho/bebop_ws/devel/arsdk/out/arsdk-native/build/libARController/obj/gen/Sources/ARCONTROLLER_Feature.c.o
                0x0000000000171f60                ARCONTROLLER_FEATURE_SkyController_AccessPointSettingsStateAccessPointChannelChangedCallback
 *fill*         0x00000000001724c5        0xb 
 .text.ARCONTROLLER_SkyController_NewCmdElementAccessPointSettingsStateWifiSelectionChanged
                0x00000000001724d0     0x1032 /home/sunho/bebop_ws/devel/arsdk/out/arsdk-native/build/libARController/obj/gen/Sources/ARCONTROLLER_Feature.c.o
                0x00000000001724d0                ARCONTROLLER_SkyController_NewCmdElementAccessPointSettingsStateWifiSelectionChanged
 *fill*         0x0000000000173502        0xe 
 .text.ARCONTROLLER_FEATURE_SkyController_AccessPointSettingsStateWifiSelectionChangedCallback
                0x0000000000173510      0x596 /home/sunho/bebop_ws/devel/arsdk/out/arsdk-native/build/libARController/obj/gen/Sources/ARCONTROLLER_Feature.c.o
                0x0000000000173510                ARCONTROLLER_FEATURE_SkyController_AccessPointSettingsStateWifiSelectionChangedCallback
 *fill*         0x0000000000173aa6        0xa 
 .text.ARCONTROLLER_SkyController_NewCmdElementGamepadInfosStateGamepadControl
                0x0000000000173ab0     0x114b /home/sunho/bebop_ws/devel/arsdk/out/arsdk-native/build/libARController/obj/gen/Sources/ARCONTROLLER_Feature.c.o
                0x0000000000173ab0                ARCONTROLLER_SkyController_NewCmdElementGamepadInfosStateGamepadControl
 *fill*         0x0000000000174bfb        0x5 
 .text.ARCONTROLLER_FEATURE_SkyController_GamepadInfosStateGamepadControlCallback
                0x0000000000174c00      0x5bf /home/sunho/bebop_ws/devel/arsdk/out/arsdk-native/build/libARController/obj/gen/Sources/ARCONTROLLER_Feature.c.o
                0x0000000000174c00                ARCONTROLLER_FEATURE_SkyController_GamepadInfosStateGamepadControlCallback
 *fill*         0x00000000001751bf        0x1 
 .text.ARCONTROLLER_SkyController_NewCmdElementGamepadInfosStateAllGamepadControlsSent
                0x00000000001751c0       0xc9 /home/sunho/bebop_ws/devel/arsdk/out/arsdk-native/build/libARController/obj/gen/Sources/ARCONTROLLER_Feature.c.o
                0x00000000001751c0                ARCONTROLLER_SkyController_NewCmdElementGamepadInfosStateAllGamepadControlsSent
 *fill*         0x0000000000175289        0x7 
 .text.ARCONTROLLER_FEATURE_SkyController_GamepadInfosStateAllGamepadControlsSentCallback
                0x0000000000175290      0x55d /home/sunho/bebop_ws/devel/arsdk/out/arsdk-native/build/libARController/obj/gen/Sources/ARCONTROLLER_Feature.c.o
                0x0000000000175290                ARCONTROLLER_FEATURE_SkyController_GamepadInfosStateAllGamepadControlsSentCallback
 *fill*         0x00000000001757ed        0x3 
 .text.ARCONTROLLER_SkyController_NewCmdElementButtonMappingsStateCurrentButtonMappings
                0x00000000001757f0      0xc10 /home/sunho/bebop_ws/devel/arsdk/out/arsdk-native/build/libARController/obj/gen/Sources/ARCONTROLLER_Feature.c.o
                0x00000000001757f0                ARCONTROLLER_SkyController_NewCmdElementButtonMappingsStateCurrentButtonMappings
 .text.ARCONTROLLER_FEATURE_SkyController_ButtonMappingsStateCurrentButtonMappingsCallback
                0x0000000000176400      0x585 /home/sunho/bebop_ws/devel/arsdk/out/arsdk-native/build/libARController/obj/gen/Sources/ARCONTROLLER_Feature.c.o
                0x0000000000176400                ARCONTROLLER_FEATURE_SkyController_ButtonMappingsStateCurrentButtonMappingsCallback
 *fill*         0x0000000000176985        0xb 
 .text.ARCONTROLLER_SkyController_NewCmdElementButtonMappingsStateAllCurrentButtonMappingsSent
                0x0000000000176990       0xc9 /home/sunho/bebop_ws/devel/arsdk/out/arsdk-native/build/libARController/obj/gen/Sources/ARCONTROLLER_Feature.c.o
                0x0000000000176990                ARCONTROLLER_SkyController_NewCmdElementButtonMappingsStateAllCurrentButtonMappingsSent
 *fill*         0x0000000000176a59        0x7 
 .text.ARCONTROLLER_FEATURE_SkyController_ButtonMappingsStateAllCurrentButtonMappingsSentCallback
                0x0000000000176a60      0x55d /home/sunho/bebop_ws/devel/arsdk/out/arsdk-native/build/libARController/obj/gen/Sources/ARCONTROLLER_Feature.c.o
                0x0000000000176a60                ARCONTROLLER_FEATURE_SkyController_ButtonMappingsStateAllCurrentButtonMappingsSentCallback
 *fill*         0x0000000000176fbd        0x3 
 .text.ARCONTROLLER_SkyController_NewCmdElementButtonMappingsStateAvailableButtonMappings
                0x0000000000176fc0      0xc17 /home/sunho/bebop_ws/devel/arsdk/out/arsdk-native/build/libARController/obj/gen/Sources/ARCONTROLLER_Feature.c.o
                0x0000000000176fc0                ARCONTROLLER_SkyController_NewCmdElementButtonMappingsStateAvailableButtonMappings
 *fill*         0x0000000000177bd7        0x9 
 .text.ARCONTROLLER_FEATURE_SkyController_ButtonMappingsStateAvailableButtonMappingsCallback
                0x0000000000177be0      0x585 /home/sunho/bebop_ws/devel/arsdk/out/arsdk-native/build/libARController/obj/gen/Sources/ARCONTROLLER_Feature.c.o
                0x0000000000177be0                ARCONTROLLER_FEATURE_SkyController_ButtonMappingsStateAvailableButtonMappingsCallback
 *fill*         0x0000000000178165        0xb 
 .text.ARCONTROLLER_SkyController_NewCmdElementButtonMappingsStateAllAvailableButtonsMappingsSent
                0x0000000000178170       0xc9 /home/sunho/bebop_ws/devel/arsdk/out/arsdk-native/build/libARController/obj/gen/Sources/ARCONTROLLER_Feature.c.o
                0x0000000000178170                ARCONTROLLER_SkyController_NewCmdElementButtonMappingsStateAllAvailableButtonsMappingsSent
 *fill*         0x0000000000178239        0x7 
 .text.ARCONTROLLER_FEATURE_SkyController_ButtonMappingsStateAllAvailableButtonsMappingsSentCallback
                0x0000000000178240      0x55d /home/sunho/bebop_ws/devel/arsdk/out/arsdk-native/build/libARController/obj/gen/Sources/ARCONTROLLER_Feature.c.o
                0x0000000000178240                ARCONTROLLER_FEATURE_SkyController_ButtonMappingsStateAllAvailableButtonsMappingsSentCallback
 *fill*         0x000000000017879d        0x3 
 .text.ARCONTROLLER_SkyController_NewCmdElementAxisMappingsStateCurrentAxisMappings
                0x00000000001787a0      0xc10 /home/sunho/bebop_ws/devel/arsdk/out/arsdk-native/build/libARController/obj/gen/Sources/ARCONTROLLER_Feature.c.o
                0x00000000001787a0                ARCONTROLLER_SkyController_NewCmdElementAxisMappingsStateCurrentAxisMappings
 .text.ARCONTROLLER_FEATURE_SkyController_AxisMappingsStateCurrentAxisMappingsCallback
                0x00000000001793b0      0x585 /home/sunho/bebop_ws/devel/arsdk/out/arsdk-native/build/libARController/obj/gen/Sources/ARCONTROLLER_Feature.c.o
                0x00000000001793b0                ARCONTROLLER_FEATURE_SkyController_AxisMappingsStateCurrentAxisMappingsCallback
 *fill*         0x0000000000179935        0xb 
 .text.ARCONTROLLER_SkyController_NewCmdElementAxisMappingsStateAllCurrentAxisMappingsSent
                0x0000000000179940       0xc9 /home/sunho/bebop_ws/devel/arsdk/out/arsdk-native/build/libARController/obj/gen/Sources/ARCONTROLLER_Feature.c.o
                0x0000000000179940                ARCONTROLLER_SkyController_NewCmdElementAxisMappingsStateAllCurrentAxisMappingsSent
 *fill*         0x0000000000179a09        0x7 
 .text.ARCONTROLLER_FEATURE_SkyController_AxisMappingsStateAllCurrentAxisMappingsSentCallback
                0x0000000000179a10      0x55d /home/sunho/bebop_ws/devel/arsdk/out/arsdk-native/build/libARController/obj/gen/Sources/ARCONTROLLER_Feature.c.o
                0x0000000000179a10                ARCONTROLLER_FEATURE_SkyController_AxisMappingsStateAllCurrentAxisMappingsSentCallback
 *fill*         0x0000000000179f6d        0x3 
 .text.ARCONTROLLER_SkyController_NewCmdElementAxisMappingsStateAvailableAxisMappings
                0x0000000000179f70      0xc17 /home/sunho/bebop_ws/devel/arsdk/out/arsdk-native/build/libARController/obj/gen/Sources/ARCONTROLLER_Feature.c.o
                0x0000000000179f70                ARCONTROLLER_SkyController_NewCmdElementAxisMappingsStateAvailableAxisMappings
 *fill*         0x000000000017ab87        0x9 
 .text.ARCONTROLLER_FEATURE_SkyController_AxisMappingsStateAvailableAxisMappingsCallback
                0x000000000017ab90      0x585 /home/sunho/bebop_ws/devel/arsdk/out/arsdk-native/build/libARController/obj/gen/Sources/ARCONTROLLER_Feature.c.o
                0x000000000017ab90                ARCONTROLLER_FEATURE_SkyController_AxisMappingsStateAvailableAxisMappingsCallback
 *fill*         0x000000000017b115        0xb 
 .text.ARCONTROLLER_SkyController_NewCmdElementAxisMappingsStateAllAvailableAxisMappingsSent
                0x000000000017b120       0xc9 /home/sunho/bebop_ws/devel/arsdk/out/arsdk-native/build/libARController/obj/gen/Sources/ARCONTROLLER_Feature.c.o
                0x000000000017b120                ARCONTROLLER_SkyController_NewCmdElementAxisMappingsStateAllAvailableAxisMappingsSent
 *fill*         0x000000000017b1e9        0x7 
 .text.ARCONTROLLER_FEATURE_SkyController_AxisMappingsStateAllAvailableAxisMappingsSentCallback
                0x000000000017b1f0      0x55d /home/sunho/bebop_ws/devel/arsdk/out/arsdk-native/build/libARController/obj/gen/Sources/ARCONTROLLER_Feature.c.o
                0x000000000017b1f0                ARCONTROLLER_FEATURE_SkyController_AxisMappingsStateAllAvailableAxisMappingsSentCallback
 *fill*         0x000000000017b74d        0x3 
 .text.ARCONTROLLER_SkyController_NewCmdElementAxisFiltersStateCurrentAxisFilters
                0x000000000017b750      0xc10 /home/sunho/bebop_ws/devel/arsdk/out/arsdk-native/build/libARController/obj/gen/Sources/ARCONTROLLER_Feature.c.o
                0x000000000017b750                ARCONTROLLER_SkyController_NewCmdElementAxisFiltersStateCurrentAxisFilters
 .text.ARCONTROLLER_FEATURE_SkyController_AxisFiltersStateCurrentAxisFiltersCallback
                0x000000000017c360      0x585 /home/sunho/bebop_ws/devel/arsdk/out/arsdk-native/build/libARController/obj/gen/Sources/ARCONTROLLER_Feature.c.o
                0x000000000017c360                ARCONTROLLER_FEATURE_SkyController_AxisFiltersStateCurrentAxisFiltersCallback
 *fill*         0x000000000017c8e5        0xb 
 .text.ARCONTROLLER_SkyController_NewCmdElementAxisFiltersStateAllCurrentFiltersSent
                0x000000000017c8f0       0xc9 /home/sunho/bebop_ws/devel/arsdk/out/arsdk-native/build/libARController/obj/gen/Sources/ARCONTROLLER_Feature.c.o
                0x000000000017c8f0                ARCONTROLLER_SkyController_NewCmdElementAxisFiltersStateAllCurrentFiltersSent
 *fill*         0x000000000017c9b9        0x7 
 .text.ARCONTROLLER_FEATURE_SkyController_AxisFiltersStateAllCurrentFiltersSentCallback
                0x000000000017c9c0      0x55d /home/sunho/bebop_ws/devel/arsdk/out/arsdk-native/build/libARController/obj/gen/Sources/ARCONTROLLER_Feature.c.o
                0x000000000017c9c0                ARCONTROLLER_FEATURE_SkyController_AxisFiltersStateAllCurrentFiltersSentCallback
 *fill*         0x000000000017cf1d        0x3 
 .text.ARCONTROLLER_SkyController_NewCmdElementAxisFiltersStatePresetAxisFilters
                0x000000000017cf20      0xc17 /home/sunho/bebop_ws/devel/arsdk/out/arsdk-native/build/libARController/obj/gen/Sources/ARCONTROLLER_Feature.c.o
                0x000000000017cf20                ARCONTROLLER_SkyController_NewCmdElementAxisFiltersStatePresetAxisFilters
 *fill*         0x000000000017db37        0x9 
 .text.ARCONTROLLER_FEATURE_SkyController_AxisFiltersStatePresetAxisFiltersCallback
                0x000000000017db40      0x585 /home/sunho/bebop_ws/devel/arsdk/out/arsdk-native/build/libARController/obj/gen/Sources/ARCONTROLLER_Feature.c.o
                0x000000000017db40                ARCONTROLLER_FEATURE_SkyController_AxisFiltersStatePresetAxisFiltersCallback
 *fill*         0x000000000017e0c5        0xb 
 .text.ARCONTROLLER_SkyController_NewCmdElementAxisFiltersStateAllPresetFiltersSent
                0x000000000017e0d0       0xc9 /home/sunho/bebop_ws/devel/arsdk/out/arsdk-native/build/libARController/obj/gen/Sources/ARCONTROLLER_Feature.c.o
                0x000000000017e0d0                ARCONTROLLER_SkyController_NewCmdElementAxisFiltersStateAllPresetFiltersSent
 *fill*         0x000000000017e199        0x7 
 .text.ARCONTROLLER_FEATURE_SkyController_AxisFiltersStateAllPresetFiltersSentCallback
                0x000000000017e1a0      0x55d /home/sunho/bebop_ws/devel/arsdk/out/arsdk-native/build/libARController/obj/gen/Sources/ARCONTROLLER_Feature.c.o
                0x000000000017e1a0                ARCONTROLLER_FEATURE_SkyController_AxisFiltersStateAllPresetFiltersSentCallback
 *fill*         0x000000000017e6fd        0x3 
 .text.ARCONTROLLER_SkyController_NewCmdElementCoPilotingStatePilotingSource
                0x000000000017e700      0x5b8 /home/sunho/bebop_ws/devel/arsdk/out/arsdk-native/build/libARController/obj/gen/Sources/ARCONTROLLER_Feature.c.o
                0x000000000017e700                ARCONTROLLER_SkyController_NewCmdElementCoPilotingStatePilotingSource
 *fill*         0x000000000017ecb8        0x8 
 .text.ARCONTROLLER_FEATURE_SkyController_CoPilotingStatePilotingSourceCallback
                0x000000000017ecc0      0x565 /home/sunho/bebop_ws/devel/arsdk/out/arsdk-native/build/libARController/obj/gen/Sources/ARCONTROLLER_Feature.c.o
                0x000000000017ecc0                ARCONTROLLER_FEATURE_SkyController_CoPilotingStatePilotingSourceCallback
 *fill*         0x000000000017f225        0xb 
 .text.ARCONTROLLER_SkyController_NewCmdElementCalibrationStateMagnetoCalibrationState
                0x000000000017f230     0x1528 /home/sunho/bebop_ws/devel/arsdk/out/arsdk-native/build/libARController/obj/gen/Sources/ARCONTROLLER_Feature.c.o
                0x000000000017f230                ARCONTROLLER_SkyController_NewCmdElementCalibrationStateMagnetoCalibrationState
 *fill*         0x0000000000180758        0x8 
 .text.ARCONTROLLER_FEATURE_SkyController_CalibrationStateMagnetoCalibrationStateCallback
                0x0000000000180760      0x596 /home/sunho/bebop_ws/devel/arsdk/out/arsdk-native/build/libARController/obj/gen/Sources/ARCONTROLLER_Feature.c.o
                0x0000000000180760                ARCONTROLLER_FEATURE_SkyController_CalibrationStateMagnetoCalibrationStateCallback
 *fill*         0x0000000000180cf6        0xa 
 .text.ARCONTROLLER_SkyController_NewCmdElementCalibrationStateMagnetoCalibrationQualityUpdatesState
                0x0000000000180d00      0x5b8 /home/sunho/bebop_ws/devel/arsdk/out/arsdk-native/build/libARController/obj/gen/Sources/ARCONTROLLER_Feature.c.o
                0x0000000000180d00                ARCONTROLLER_SkyController_NewCmdElementCalibrationStateMagnetoCalibrationQualityUpdatesState
 *fill*         0x00000000001812b8        0x8 
 .text.ARCONTROLLER_FEATURE_SkyController_CalibrationStateMagnetoCalibrationQualityUpdatesStateCallback
                0x00000000001812c0      0x565 /home/sunho/bebop_ws/devel/arsdk/out/arsdk-native/build/libARController/obj/gen/Sources/ARCONTROLLER_Feature.c.o
                0x00000000001812c0                ARCONTROLLER_FEATURE_SkyController_CalibrationStateMagnetoCalibrationQualityUpdatesStateCallback
 *fill*         0x0000000000181825        0xb 
 .text.ARCONTROLLER_SkyController_NewCmdElementButtonEventsSettings
                0x0000000000181830       0xc9 /home/sunho/bebop_ws/devel/arsdk/out/arsdk-native/build/libARController/obj/gen/Sources/ARCONTROLLER_Feature.c.o
                0x0000000000181830                ARCONTROLLER_SkyController_NewCmdElementButtonEventsSettings
 *fill*         0x00000000001818f9        0x7 
 .text.ARCONTROLLER_FEATURE_SkyController_ButtonEventsSettingsCallback
                0x0000000000181900      0x55d /home/sunho/bebop_ws/devel/arsdk/out/arsdk-native/build/libARController/obj/gen/Sources/ARCONTROLLER_Feature.c.o
                0x0000000000181900                ARCONTROLLER_FEATURE_SkyController_ButtonEventsSettingsCallback
 *fill*         0x0000000000181e5d        0x3 
 .text.ARCONTROLLER_FEATURE_SkyController_SetNetworkController
                0x0000000000181e60       0x26 /home/sunho/bebop_ws/devel/arsdk/out/arsdk-native/build/libARController/obj/gen/Sources/ARCONTROLLER_Feature.c.o
                0x0000000000181e60                ARCONTROLLER_FEATURE_SkyController_SetNetworkController
 *fill*         0x0000000000181e86        0xa 
 .text.ARCONTROLLER_SkyController_GetCommandElements
                0x0000000000181e90      0x1a0 /home/sunho/bebop_ws/devel/arsdk/out/arsdk-native/build/libARController/obj/gen/Sources/ARCONTROLLER_Feature.c.o
                0x0000000000181e90                ARCONTROLLER_SkyController_GetCommandElements
 .text.ARCONTROLLER_FEATURE_UnknownFeature1_Delete
                0x0000000000182030       0x79 /home/sunho/bebop_ws/devel/arsdk/out/arsdk-native/build/libARController/obj/gen/Sources/ARCONTROLLER_Feature.c.o
                0x0000000000182030                ARCONTROLLER_FEATURE_UnknownFeature1_Delete
 *fill*         0x00000000001820a9        0x7 
 .text.ARCONTROLLER_FEATURE_UnknownFeature1_New
                0x00000000001820b0      0x11c /home/sunho/bebop_ws/devel/arsdk/out/arsdk-native/build/libARController/obj/gen/Sources/ARCONTROLLER_Feature.c.o
                0x00000000001820b0                ARCONTROLLER_FEATURE_UnknownFeature1_New
 *fill*         0x00000000001821cc        0x4 
 .text.ARCONTROLLER_FEATURE_UnknownFeature1_GetDictionary
                0x00000000001821d0       0x39 /home/sunho/bebop_ws/devel/arsdk/out/arsdk-native/build/libARController/obj/gen/Sources/ARCONTROLLER_Feature.c.o
                0x00000000001821d0                ARCONTROLLER_FEATURE_UnknownFeature1_GetDictionary
 *fill*         0x0000000000182209        0x7 
 .text.ARCONTROLLER_FEATURE_UnknownFeature1_AddCallback
                0x0000000000182210       0x26 /home/sunho/bebop_ws/devel/arsdk/out/arsdk-native/build/libARController/obj/gen/Sources/ARCONTROLLER_Feature.c.o
                0x0000000000182210                ARCONTROLLER_FEATURE_UnknownFeature1_AddCallback
 *fill*         0x0000000000182236        0xa 
 .text.ARCONTROLLER_FEATURE_UnknownFeature1_RemoveCallback
                0x0000000000182240       0x26 /home/sunho/bebop_ws/devel/arsdk/out/arsdk-native/build/libARController/obj/gen/Sources/ARCONTROLLER_Feature.c.o
                0x0000000000182240                ARCONTROLLER_FEATURE_UnknownFeature1_RemoveCallback
 *fill*         0x0000000000182266        0xa 
 .text.ARCONTROLLER_FEATURE_UnknownFeature1_RegisterARCommands
                0x0000000000182270      0x147 /home/sunho/bebop_ws/devel/arsdk/out/arsdk-native/build/libARController/obj/gen/Sources/ARCONTROLLER_Feature.c.o
                0x0000000000182270                ARCONTROLLER_FEATURE_UnknownFeature1_RegisterARCommands
 *fill*         0x00000000001823b7        0x9 
 .text.ARCONTROLLER_FEATURE_UnknownFeature1_UnregisterARCommands
                0x00000000001823c0      0x107 /home/sunho/bebop_ws/devel/arsdk/out/arsdk-native/build/libARController/obj/gen/Sources/ARCONTROLLER_Feature.c.o
                0x00000000001823c0                ARCONTROLLER_FEATURE_UnknownFeature1_UnregisterARCommands
 *fill*         0x00000000001824c7        0x9 
 .text.ARCONTROLLER_UnknownFeature1_NewCmdElementAvailability
                0x00000000001824d0      0x5b8 /home/sunho/bebop_ws/devel/arsdk/out/arsdk-native/build/libARController/obj/gen/Sources/ARCONTROLLER_Feature.c.o
                0x00000000001824d0                ARCONTROLLER_UnknownFeature1_NewCmdElementAvailability
 *fill*         0x0000000000182a88        0x8 
 .text.ARCONTROLLER_FEATURE_UnknownFeature1_AvailabilityCallback
                0x0000000000182a90      0x55c /home/sunho/bebop_ws/devel/arsdk/out/arsdk-native/build/libARController/obj/gen/Sources/ARCONTROLLER_Feature.c.o
                0x0000000000182a90                ARCONTROLLER_FEATURE_UnknownFeature1_AvailabilityCallback
 *fill*         0x0000000000182fec        0x4 
 .text.ARCONTROLLER_UnknownFeature1_NewCmdElementRun
                0x0000000000182ff0      0x5b8 /home/sunho/bebop_ws/devel/arsdk/out/arsdk-native/build/libARController/obj/gen/Sources/ARCONTROLLER_Feature.c.o
                0x0000000000182ff0                ARCONTROLLER_UnknownFeature1_NewCmdElementRun
 *fill*         0x00000000001835a8        0x8 
 .text.ARCONTROLLER_FEATURE_UnknownFeature1_RunCallback
                0x00000000001835b0      0x55c /home/sunho/bebop_ws/devel/arsdk/out/arsdk-native/build/libARController/obj/gen/Sources/ARCONTROLLER_Feature.c.o
                0x00000000001835b0                ARCONTROLLER_FEATURE_UnknownFeature1_RunCallback
 *fill*         0x0000000000183b0c        0x4 
 .text.ARCONTROLLER_UnknownFeature1_NewCmdElementGeographicConfigChanged
                0x0000000000183b10     0x1f50 /home/sunho/bebop_ws/devel/arsdk/out/arsdk-native/build/libARController/obj/gen/Sources/ARCONTROLLER_Feature.c.o
                0x0000000000183b10                ARCONTROLLER_UnknownFeature1_NewCmdElementGeographicConfigChanged
 .text.ARCONTROLLER_FEATURE_UnknownFeature1_GeographicConfigChangedCallback
                0x0000000000185a60      0x59d /home/sunho/bebop_ws/devel/arsdk/out/arsdk-native/build/libARController/obj/gen/Sources/ARCONTROLLER_Feature.c.o
                0x0000000000185a60                ARCONTROLLER_FEATURE_UnknownFeature1_GeographicConfigChangedCallback
 *fill*         0x0000000000185ffd        0x3 
 .text.ARCONTROLLER_UnknownFeature1_NewCmdElementRelativeConfigChanged
                0x0000000000186000     0x1f50 /home/sunho/bebop_ws/devel/arsdk/out/arsdk-native/build/libARController/obj/gen/Sources/ARCONTROLLER_Feature.c.o
                0x0000000000186000                ARCONTROLLER_UnknownFeature1_NewCmdElementRelativeConfigChanged
 .text.ARCONTROLLER_FEATURE_UnknownFeature1_RelativeConfigChangedCallback
                0x0000000000187f50      0x59d /home/sunho/bebop_ws/devel/arsdk/out/arsdk-native/build/libARController/obj/gen/Sources/ARCONTROLLER_Feature.c.o
                0x0000000000187f50                ARCONTROLLER_FEATURE_UnknownFeature1_RelativeConfigChangedCallback
 *fill*         0x00000000001884ed        0x3 
 .text.ARCONTROLLER_UnknownFeature1_NewCmdElementAnimRun
                0x00000000001884f0      0x5b8 /home/sunho/bebop_ws/devel/arsdk/out/arsdk-native/build/libARController/obj/gen/Sources/ARCONTROLLER_Feature.c.o
                0x00000000001884f0                ARCONTROLLER_UnknownFeature1_NewCmdElementAnimRun
 *fill*         0x0000000000188aa8        0x8 
 .text.ARCONTROLLER_FEATURE_UnknownFeature1_AnimRunCallback
                0x0000000000188ab0      0x55c /home/sunho/bebop_ws/devel/arsdk/out/arsdk-native/build/libARController/obj/gen/Sources/ARCONTROLLER_Feature.c.o
                0x0000000000188ab0                ARCONTROLLER_FEATURE_UnknownFeature1_AnimRunCallback
 *fill*         0x000000000018900c        0x4 
 .text.ARCONTROLLER_UnknownFeature1_NewCmdElementSpiralAnimConfigChanged
                0x0000000000189010     0x1f50 /home/sunho/bebop_ws/devel/arsdk/out/arsdk-native/build/libARController/obj/gen/Sources/ARCONTROLLER_Feature.c.o
                0x0000000000189010                ARCONTROLLER_UnknownFeature1_NewCmdElementSpiralAnimConfigChanged
 .text.ARCONTROLLER_FEATURE_UnknownFeature1_SpiralAnimConfigChangedCallback
                0x000000000018af60      0x59d /home/sunho/bebop_ws/devel/arsdk/out/arsdk-native/build/libARController/obj/gen/Sources/ARCONTROLLER_Feature.c.o
                0x000000000018af60                ARCONTROLLER_FEATURE_UnknownFeature1_SpiralAnimConfigChangedCallback
 *fill*         0x000000000018b4fd        0x3 
 .text.ARCONTROLLER_UnknownFeature1_NewCmdElementSwingAnimConfigChanged
                0x000000000018b500     0x155b /home/sunho/bebop_ws/devel/arsdk/out/arsdk-native/build/libARController/obj/gen/Sources/ARCONTROLLER_Feature.c.o
                0x000000000018b500                ARCONTROLLER_UnknownFeature1_NewCmdElementSwingAnimConfigChanged
 *fill*         0x000000000018ca5b        0x5 
 .text.ARCONTROLLER_FEATURE_UnknownFeature1_SwingAnimConfigChangedCallback
                0x000000000018ca60      0x57c /home/sunho/bebop_ws/devel/arsdk/out/arsdk-native/build/libARController/obj/gen/Sources/ARCONTROLLER_Feature.c.o
                0x000000000018ca60                ARCONTROLLER_FEATURE_UnknownFeature1_SwingAnimConfigChangedCallback
 *fill*         0x000000000018cfdc        0x4 
 .text.ARCONTROLLER_UnknownFeature1_NewCmdElementBoomerangAnimConfigChanged
                0x000000000018cfe0     0x155b /home/sunho/bebop_ws/devel/arsdk/out/arsdk-native/build/libARController/obj/gen/Sources/ARCONTROLLER_Feature.c.o
                0x000000000018cfe0                ARCONTROLLER_UnknownFeature1_NewCmdElementBoomerangAnimConfigChanged
 *fill*         0x000000000018e53b        0x5 
 .text.ARCONTROLLER_FEATURE_UnknownFeature1_BoomerangAnimConfigChangedCallback
                0x000000000018e540      0x57c /home/sunho/bebop_ws/devel/arsdk/out/arsdk-native/build/libARController/obj/gen/Sources/ARCONTROLLER_Feature.c.o
                0x000000000018e540                ARCONTROLLER_FEATURE_UnknownFeature1_BoomerangAnimConfigChangedCallback
 *fill*         0x000000000018eabc        0x4 
 .text.ARCONTROLLER_UnknownFeature1_NewCmdElementCandleAnimConfigChanged
                0x000000000018eac0     0x155b /home/sunho/bebop_ws/devel/arsdk/out/arsdk-native/build/libARController/obj/gen/Sources/ARCONTROLLER_Feature.c.o
                0x000000000018eac0                ARCONTROLLER_UnknownFeature1_NewCmdElementCandleAnimConfigChanged
 *fill*         0x000000000019001b        0x5 
 .text.ARCONTROLLER_FEATURE_UnknownFeature1_CandleAnimConfigChangedCallback
                0x0000000000190020      0x57c /home/sunho/bebop_ws/devel/arsdk/out/arsdk-native/build/libARController/obj/gen/Sources/ARCONTROLLER_Feature.c.o
                0x0000000000190020                ARCONTROLLER_FEATURE_UnknownFeature1_CandleAnimConfigChangedCallback
 *fill*         0x000000000019059c        0x4 
 .text.ARCONTROLLER_UnknownFeature1_NewCmdElementDollySlideAnimConfigChanged
                0x00000000001905a0     0x1f50 /home/sunho/bebop_ws/devel/arsdk/out/arsdk-native/build/libARController/obj/gen/Sources/ARCONTROLLER_Feature.c.o
                0x00000000001905a0                ARCONTROLLER_UnknownFeature1_NewCmdElementDollySlideAnimConfigChanged
 .text.ARCONTROLLER_FEATURE_UnknownFeature1_DollySlideAnimConfigChangedCallback
                0x00000000001924f0      0x59d /home/sunho/bebop_ws/devel/arsdk/out/arsdk-native/build/libARController/obj/gen/Sources/ARCONTROLLER_Feature.c.o
                0x00000000001924f0                ARCONTROLLER_FEATURE_UnknownFeature1_DollySlideAnimConfigChangedCallback
 *fill*         0x0000000000192a8d        0x3 
 .text.ARCONTROLLER_UnknownFeature1_NewCmdElementUserFramingPositionChanged
                0x0000000000192a90      0xb28 /home/sunho/bebop_ws/devel/arsdk/out/arsdk-native/build/libARController/obj/gen/Sources/ARCONTROLLER_Feature.c.o
                0x0000000000192a90                ARCONTROLLER_UnknownFeature1_NewCmdElementUserFramingPositionChanged
 *fill*         0x00000000001935b8        0x8 
 .text.ARCONTROLLER_FEATURE_UnknownFeature1_UserFramingPositionChangedCallback
                0x00000000001935c0      0x56c /home/sunho/bebop_ws/devel/arsdk/out/arsdk-native/build/libARController/obj/gen/Sources/ARCONTROLLER_Feature.c.o
                0x00000000001935c0                ARCONTROLLER_FEATURE_UnknownFeature1_UserFramingPositionChangedCallback
 *fill*         0x0000000000193b2c        0x4 
 .text.ARCONTROLLER_FEATURE_UnknownFeature1_SetNetworkController
                0x0000000000193b30       0x1e /home/sunho/bebop_ws/devel/arsdk/out/arsdk-native/build/libARController/obj/gen/Sources/ARCONTROLLER_Feature.c.o
                0x0000000000193b30                ARCONTROLLER_FEATURE_UnknownFeature1_SetNetworkController
 *fill*         0x0000000000193b4e        0x2 
 .text.ARCONTROLLER_UnknownFeature1_GetCommandElements
                0x0000000000193b50      0x190 /home/sunho/bebop_ws/devel/arsdk/out/arsdk-native/build/libARController/obj/gen/Sources/ARCONTROLLER_Feature.c.o
                0x0000000000193b50                ARCONTROLLER_UnknownFeature1_GetCommandElements
 .text.ARCONTROLLER_FEATURE_Wifi_Delete
                0x0000000000193ce0       0x79 /home/sunho/bebop_ws/devel/arsdk/out/arsdk-native/build/libARController/obj/gen/Sources/ARCONTROLLER_Feature.c.o
                0x0000000000193ce0                ARCONTROLLER_FEATURE_Wifi_Delete
 *fill*         0x0000000000193d59        0x7 
 .text.ARCONTROLLER_FEATURE_Wifi_New
                0x0000000000193d60       0xcc /home/sunho/bebop_ws/devel/arsdk/out/arsdk-native/build/libARController/obj/gen/Sources/ARCONTROLLER_Feature.c.o
                0x0000000000193d60                ARCONTROLLER_FEATURE_Wifi_New
 *fill*         0x0000000000193e2c        0x4 
 .text.ARCONTROLLER_FEATURE_Wifi_GetDictionary
                0x0000000000193e30       0x39 /home/sunho/bebop_ws/devel/arsdk/out/arsdk-native/build/libARController/obj/gen/Sources/ARCONTROLLER_Feature.c.o
                0x0000000000193e30                ARCONTROLLER_FEATURE_Wifi_GetDictionary
 *fill*         0x0000000000193e69        0x7 
 .text.ARCONTROLLER_FEATURE_Wifi_AddCallback
                0x0000000000193e70       0x26 /home/sunho/bebop_ws/devel/arsdk/out/arsdk-native/build/libARController/obj/gen/Sources/ARCONTROLLER_Feature.c.o
                0x0000000000193e70                ARCONTROLLER_FEATURE_Wifi_AddCallback
 *fill*         0x0000000000193e96        0xa 
 .text.ARCONTROLLER_FEATURE_Wifi_RemoveCallback
                0x0000000000193ea0       0x26 /home/sunho/bebop_ws/devel/arsdk/out/arsdk-native/build/libARController/obj/gen/Sources/ARCONTROLLER_Feature.c.o
                0x0000000000193ea0                ARCONTROLLER_FEATURE_Wifi_RemoveCallback
 *fill*         0x0000000000193ec6        0xa 
 .text.ARCONTROLLER_FEATURE_Wifi_RegisterARCommands
                0x0000000000193ed0       0xe7 /home/sunho/bebop_ws/devel/arsdk/out/arsdk-native/build/libARController/obj/gen/Sources/ARCONTROLLER_Feature.c.o
                0x0000000000193ed0                ARCONTROLLER_FEATURE_Wifi_RegisterARCommands
 *fill*         0x0000000000193fb7        0x9 
 .text.ARCONTROLLER_FEATURE_Wifi_UnregisterARCommands
                0x0000000000193fc0       0xbf /home/sunho/bebop_ws/devel/arsdk/out/arsdk-native/build/libARController/obj/gen/Sources/ARCONTROLLER_Feature.c.o
                0x0000000000193fc0                ARCONTROLLER_FEATURE_Wifi_UnregisterARCommands
 *fill*         0x000000000019407f        0x1 
 .text.ARCONTROLLER_Wifi_NewCmdElementScannedItem
                0x0000000000194080     0x157d /home/sunho/bebop_ws/devel/arsdk/out/arsdk-native/build/libARController/obj/gen/Sources/ARCONTROLLER_Feature.c.o
                0x0000000000194080                ARCONTROLLER_Wifi_NewCmdElementScannedItem
 *fill*         0x00000000001955fd        0x3 
 .text.ARCONTROLLER_FEATURE_Wifi_ScannedItemCallback
                0x0000000000195600      0xb5e /home/sunho/bebop_ws/devel/arsdk/out/arsdk-native/build/libARController/obj/gen/Sources/ARCONTROLLER_Feature.c.o
                0x0000000000195600                ARCONTROLLER_FEATURE_Wifi_ScannedItemCallback
 *fill*         0x000000000019615e        0x2 
 .text.ARCONTROLLER_Wifi_NewCmdElementAuthorizedChannel
                0x0000000000196160     0x102c /home/sunho/bebop_ws/devel/arsdk/out/arsdk-native/build/libARController/obj/gen/Sources/ARCONTROLLER_Feature.c.o
                0x0000000000196160                ARCONTROLLER_Wifi_NewCmdElementAuthorizedChannel
 *fill*         0x000000000019718c        0x4 
 .text.ARCONTROLLER_FEATURE_Wifi_AuthorizedChannelCallback
                0x0000000000197190      0x78c /home/sunho/bebop_ws/devel/arsdk/out/arsdk-native/build/libARController/obj/gen/Sources/ARCONTROLLER_Feature.c.o
                0x0000000000197190                ARCONTROLLER_FEATURE_Wifi_AuthorizedChannelCallback
 *fill*         0x000000000019791c        0x4 
 .text.ARCONTROLLER_Wifi_NewCmdElementApChannelChanged
                0x0000000000197920     0x1032 /home/sunho/bebop_ws/devel/arsdk/out/arsdk-native/build/libARController/obj/gen/Sources/ARCONTROLLER_Feature.c.o
                0x0000000000197920                ARCONTROLLER_Wifi_NewCmdElementApChannelChanged
 *fill*         0x0000000000198952        0xe 
 .text.ARCONTROLLER_FEATURE_Wifi_ApChannelChangedCallback
                0x0000000000198960      0x57d /home/sunho/bebop_ws/devel/arsdk/out/arsdk-native/build/libARController/obj/gen/Sources/ARCONTROLLER_Feature.c.o
                0x0000000000198960                ARCONTROLLER_FEATURE_Wifi_ApChannelChangedCallback
 *fill*         0x0000000000198edd        0x3 
 .text.ARCONTROLLER_Wifi_NewCmdElementSecurityChanged
                0x0000000000198ee0      0xbb3 /home/sunho/bebop_ws/devel/arsdk/out/arsdk-native/build/libARController/obj/gen/Sources/ARCONTROLLER_Feature.c.o
                0x0000000000198ee0                ARCONTROLLER_Wifi_NewCmdElementSecurityChanged
 *fill*         0x0000000000199a93        0xd 
 .text.ARCONTROLLER_FEATURE_Wifi_SecurityChangedCallback
                0x0000000000199aa0      0x56c /home/sunho/bebop_ws/devel/arsdk/out/arsdk-native/build/libARController/obj/gen/Sources/ARCONTROLLER_Feature.c.o
                0x0000000000199aa0                ARCONTROLLER_FEATURE_Wifi_SecurityChangedCallback
 *fill*         0x000000000019a00c        0x4 
 .text.ARCONTROLLER_Wifi_NewCmdElementCountryChanged
                0x000000000019a010      0xb92 /home/sunho/bebop_ws/devel/arsdk/out/arsdk-native/build/libARController/obj/gen/Sources/ARCONTROLLER_Feature.c.o
                0x000000000019a010                ARCONTROLLER_Wifi_NewCmdElementCountryChanged
 *fill*         0x000000000019aba2        0xe 
 .text.ARCONTROLLER_FEATURE_Wifi_CountryChangedCallback
                0x000000000019abb0      0x56c /home/sunho/bebop_ws/devel/arsdk/out/arsdk-native/build/libARController/obj/gen/Sources/ARCONTROLLER_Feature.c.o
                0x000000000019abb0                ARCONTROLLER_FEATURE_Wifi_CountryChangedCallback
 *fill*         0x000000000019b11c        0x4 
 .text.ARCONTROLLER_Wifi_NewCmdElementEnvironmentChanged
                0x000000000019b120      0x5b8 /home/sunho/bebop_ws/devel/arsdk/out/arsdk-native/build/libARController/obj/gen/Sources/ARCONTROLLER_Feature.c.o
                0x000000000019b120                ARCONTROLLER_Wifi_NewCmdElementEnvironmentChanged
 *fill*         0x000000000019b6d8        0x8 
 .text.ARCONTROLLER_FEATURE_Wifi_EnvironmentChangedCallback
                0x000000000019b6e0      0x55c /home/sunho/bebop_ws/devel/arsdk/out/arsdk-native/build/libARController/obj/gen/Sources/ARCONTROLLER_Feature.c.o
                0x000000000019b6e0                ARCONTROLLER_FEATURE_Wifi_EnvironmentChangedCallback
 *fill*         0x000000000019bc3c        0x4 
 .text.ARCONTROLLER_Wifi_NewCmdElementRssiChanged
                0x000000000019bc40      0x5b8 /home/sunho/bebop_ws/devel/arsdk/out/arsdk-native/build/libARController/obj/gen/Sources/ARCONTROLLER_Feature.c.o
                0x000000000019bc40                ARCONTROLLER_Wifi_NewCmdElementRssiChanged
 *fill*         0x000000000019c1f8        0x8 
 .text.ARCONTROLLER_FEATURE_Wifi_RssiChangedCallback
                0x000000000019c200      0x55c /home/sunho/bebop_ws/devel/arsdk/out/arsdk-native/build/libARController/obj/gen/Sources/ARCONTROLLER_Feature.c.o
                0x000000000019c200                ARCONTROLLER_FEATURE_Wifi_RssiChangedCallback
 *fill*         0x000000000019c75c        0x4 
 .text.ARCONTROLLER_FEATURE_Wifi_SetNetworkController
                0x000000000019c760       0x1e /home/sunho/bebop_ws/devel/arsdk/out/arsdk-native/build/libARController/obj/gen/Sources/ARCONTROLLER_Feature.c.o
                0x000000000019c760                ARCONTROLLER_FEATURE_Wifi_SetNetworkController
 *fill*         0x000000000019c77e        0x2 
 .text.ARCONTROLLER_Wifi_GetCommandElements
                0x000000000019c780      0x190 /home/sunho/bebop_ws/devel/arsdk/out/arsdk-native/build/libARController/obj/gen/Sources/ARCONTROLLER_Feature.c.o
                0x000000000019c780                ARCONTROLLER_Wifi_GetCommandElements
 *(.gnu.warning)

.fini           0x000000000019c910        0x9
 *(SORT(.fini))
 .fini          0x000000000019c910        0x4 /usr/lib/gcc/x86_64-linux-gnu/4.8/../../../x86_64-linux-gnu/crti.o
                0x000000000019c910                _fini
 .fini          0x000000000019c914        0x5 /usr/lib/gcc/x86_64-linux-gnu/4.8/../../../x86_64-linux-gnu/crtn.o
                0x000000000019c919                PROVIDE (__etext, .)
                0x000000000019c919                PROVIDE (_etext, .)
                0x000000000019c919                PROVIDE (etext, .)

.rodata         0x000000000019c920    0x15c20
 *(.rodata .rodata.* .gnu.linkonce.r.*)
 .rodata.str1.8
                0x000000000019c920       0x83 /home/sunho/bebop_ws/devel/arsdk/out/arsdk-native/build/libARController/obj/Sources/ARCONTROLLER_Dictionary.c.o
 *fill*         0x000000000019c9a3       0x1d 
 .rodata        0x000000000019c9c0       0x6b /home/sunho/bebop_ws/devel/arsdk/out/arsdk-native/build/libARController/obj/Sources/ARCONTROLLER_Dictionary.c.o
 .rodata.str1.1
                0x000000000019ca2b       0x3b /home/sunho/bebop_ws/devel/arsdk/out/arsdk-native/build/libARController/obj/Sources/ARCONTROLLER_Network.c.o
 *fill*         0x000000000019ca66        0x2 
 .rodata.str1.8
                0x000000000019ca68      0x36d /home/sunho/bebop_ws/devel/arsdk/out/arsdk-native/build/libARController/obj/Sources/ARCONTROLLER_Network.c.o
 *fill*         0x000000000019cdd5        0xb 
 .rodata        0x000000000019cde0      0x1a9 /home/sunho/bebop_ws/devel/arsdk/out/arsdk-native/build/libARController/obj/Sources/ARCONTROLLER_Network.c.o
 *fill*         0x000000000019cf89        0x7 
 .rodata.str1.8
                0x000000000019cf90       0xb1 /home/sunho/bebop_ws/devel/arsdk/out/arsdk-native/build/libARController/obj/Sources/ARCONTROLLER_StreamQueue.c.o
 .rodata.str1.1
                0x000000000019d041       0x16 /home/sunho/bebop_ws/devel/arsdk/out/arsdk-native/build/libARController/obj/Sources/ARCONTROLLER_StreamQueue.c.o
                                         0x1f (size before relaxing)
 *fill*         0x000000000019d057        0x9 
 .rodata        0x000000000019d060       0x67 /home/sunho/bebop_ws/devel/arsdk/out/arsdk-native/build/libARController/obj/Sources/ARCONTROLLER_StreamQueue.c.o
 .rodata.str1.1
                0x000000000019d0c7       0x64 /home/sunho/bebop_ws/devel/arsdk/out/arsdk-native/build/libARController/obj/Sources/ARCONTROLLER_Stream1.c.o
                                         0x6d (size before relaxing)
 *fill*         0x000000000019d12b        0x5 
 .rodata.str1.8
                0x000000000019d130      0x226 /home/sunho/bebop_ws/devel/arsdk/out/arsdk-native/build/libARController/obj/Sources/ARCONTROLLER_Stream1.c.o
                                        0x25e (size before relaxing)
 *fill*         0x000000000019d356        0xa 
 .rodata        0x000000000019d360      0x14b /home/sunho/bebop_ws/devel/arsdk/out/arsdk-native/build/libARController/obj/Sources/ARCONTROLLER_Stream1.c.o
 .rodata.str1.1
                0x000000000019d4ab      0x120 /home/sunho/bebop_ws/devel/arsdk/out/arsdk-native/build/libARController/obj/Sources/ARCONTROLLER_Stream2.c.o
                                        0x129 (size before relaxing)
 *fill*         0x000000000019d5cb        0x5 
 .rodata.str1.8
                0x000000000019d5d0      0x215 /home/sunho/bebop_ws/devel/arsdk/out/arsdk-native/build/libARController/obj/Sources/ARCONTROLLER_Stream2.c.o
                                        0x2e5 (size before relaxing)
 *fill*         0x000000000019d7e5       0x1b 
 .rodata        0x000000000019d800       0xe1 /home/sunho/bebop_ws/devel/arsdk/out/arsdk-native/build/libARController/obj/Sources/ARCONTROLLER_Stream2.c.o
 .rodata.str1.1
                0x000000000019d8e1       0x1a /home/sunho/bebop_ws/devel/arsdk/out/arsdk-native/build/libARController/obj/Sources/ARCONTROLLER_StreamSender.c.o
                                         0x54 (size before relaxing)
 *fill*         0x000000000019d8fb        0x5 
 .rodata.str1.8
                0x000000000019d900       0x93 /home/sunho/bebop_ws/devel/arsdk/out/arsdk-native/build/libARController/obj/Sources/ARCONTROLLER_StreamSender.c.o
                                        0x129 (size before relaxing)
 *fill*         0x000000000019d993        0xd 
 .rodata        0x000000000019d9a0       0x60 /home/sunho/bebop_ws/devel/arsdk/out/arsdk-native/build/libARController/obj/Sources/ARCONTROLLER_StreamSender.c.o
 .rodata.str1.1
                0x000000000019da00       0x72 /home/sunho/bebop_ws/devel/arsdk/out/arsdk-native/build/libARController/obj/gen/Sources/ARCONTROLLER_Device.c.o
                                         0x7b (size before relaxing)
 *fill*         0x000000000019da72        0x6 
 .rodata.str1.8
                0x000000000019da78     0x1d98 /home/sunho/bebop_ws/devel/arsdk/out/arsdk-native/build/libARController/obj/gen/Sources/ARCONTROLLER_Device.c.o
 *fill*         0x000000000019f810       0x10 
 .rodata        0x000000000019f820      0x628 /home/sunho/bebop_ws/devel/arsdk/out/arsdk-native/build/libARController/obj/gen/Sources/ARCONTROLLER_Device.c.o
 .rodata.str1.1
                0x000000000019fe48      0x21f /home/sunho/bebop_ws/devel/arsdk/out/arsdk-native/build/libARController/obj/gen/Sources/ARCONTROLLER_Error.c.o
 *fill*         0x00000000001a0067        0x1 
 .rodata.str1.8
                0x00000000001a0068      0x37b /home/sunho/bebop_ws/devel/arsdk/out/arsdk-native/build/libARController/obj/gen/Sources/ARCONTROLLER_Error.c.o
 *fill*         0x00000000001a03e3       0x1d 
 .rodata        0x00000000001a0400     0x6d0d /home/sunho/bebop_ws/devel/arsdk/out/arsdk-native/build/libARController/obj/gen/Sources/ARCONTROLLER_Feature.c.o
 .rodata.str1.1
                0x00000000001a710d       0x1b /home/sunho/bebop_ws/devel/arsdk/out/arsdk-native/build/libARController/obj/gen/Sources/ARCONTROLLER_Feature.c.o
                                         0x27 (size before relaxing)
 .rodata.str1.8
                0x00000000001a7128     0xb418 /home/sunho/bebop_ws/devel/arsdk/out/arsdk-native/build/libARController/obj/gen/Sources/ARCONTROLLER_Feature.c.o

.rodata1
 *(.rodata1)

.eh_frame_hdr   0x00000000001b2540     0x2394
 *(.eh_frame_hdr)
 .eh_frame_hdr  0x00000000001b2540     0x2394 /home/sunho/bebop_ws/devel/arsdk/out/arsdk-native/build/libARController/obj/Sources/ARCONTROLLER_Dictionary.c.o

.eh_frame       0x00000000001b48d8    0x12cf4
 *(.eh_frame)
 .eh_frame      0x00000000001b48d8       0x40 /usr/lib/gcc/x86_64-linux-gnu/4.8/../../../x86_64-linux-gnu/crti.o
 .eh_frame      0x00000000001b4918      0x330 /home/sunho/bebop_ws/devel/arsdk/out/arsdk-native/build/libARController/obj/Sources/ARCONTROLLER_Dictionary.c.o
                                        0x300 (size before relaxing)
 .eh_frame      0x00000000001b4c48       0xd0 /home/sunho/bebop_ws/devel/arsdk/out/arsdk-native/build/libARController/obj/Sources/ARCONTROLLER_Frame.c.o
                                         0xd8 (size before relaxing)
 .eh_frame      0x00000000001b4d18      0x4e0 /home/sunho/bebop_ws/devel/arsdk/out/arsdk-native/build/libARController/obj/Sources/ARCONTROLLER_Network.c.o
                                        0x4c0 (size before relaxing)
 .eh_frame      0x00000000001b51f8      0x1f0 /home/sunho/bebop_ws/devel/arsdk/out/arsdk-native/build/libARController/obj/Sources/ARCONTROLLER_Stream.c.o
                                        0x1e8 (size before relaxing)
 .eh_frame      0x00000000001b53e8       0xa0 /home/sunho/bebop_ws/devel/arsdk/out/arsdk-native/build/libARController/obj/Sources/ARCONTROLLER_StreamPool.c.o
                                         0xb0 (size before relaxing)
 .eh_frame      0x00000000001b5488      0x1f8 /home/sunho/bebop_ws/devel/arsdk/out/arsdk-native/build/libARController/obj/Sources/ARCONTROLLER_StreamQueue.c.o
 .eh_frame      0x00000000001b5680      0x2f8 /home/sunho/bebop_ws/devel/arsdk/out/arsdk-native/build/libARController/obj/Sources/ARCONTROLLER_Stream1.c.o
                                        0x2e0 (size before relaxing)
 .eh_frame      0x00000000001b5978      0x2e8 /home/sunho/bebop_ws/devel/arsdk/out/arsdk-native/build/libARController/obj/Sources/ARCONTROLLER_Stream2.c.o
                                        0x2d0 (size before relaxing)
 .eh_frame      0x00000000001b5c60      0x158 /home/sunho/bebop_ws/devel/arsdk/out/arsdk-native/build/libARController/obj/Sources/ARCONTROLLER_StreamSender.c.o
                                        0x160 (size before relaxing)
 .eh_frame      0x00000000001b5db8      0xc58 /home/sunho/bebop_ws/devel/arsdk/out/arsdk-native/build/libARController/obj/gen/Sources/ARCONTROLLER_Device.c.o
                                        0xbe8 (size before relaxing)
 .eh_frame      0x00000000001b6a10       0x18 /home/sunho/bebop_ws/devel/arsdk/out/arsdk-native/build/libARController/obj/gen/Sources/ARCONTROLLER_DICTIONARY_Key.c.o
                                         0x30 (size before relaxing)
 .eh_frame      0x00000000001b6a28       0x18 /home/sunho/bebop_ws/devel/arsdk/out/arsdk-native/build/libARController/obj/gen/Sources/ARCONTROLLER_Error.c.o
                                         0x30 (size before relaxing)
 .eh_frame      0x00000000001b6a40    0x10b88 /home/sunho/bebop_ws/devel/arsdk/out/arsdk-native/build/libARController/obj/gen/Sources/ARCONTROLLER_Feature.c.o
                                       0xfda8 (size before relaxing)
 .eh_frame      0x00000000001c75c8        0x4 /usr/lib/gcc/x86_64-linux-gnu/4.8/crtendS.o

.gcc_except_table
 *(.gcc_except_table .gcc_except_table.*)

.exception_ranges
 *(.exception_ranges .exception_ranges*)
                0x00000000001c75cc                . = (ALIGN (0x200000) - ((0x200000 - .) & 0x1fffff))
                0x00000000003c7a3c                . = DATA_SEGMENT_ALIGN (0x200000, 0x1000)

.eh_frame
 *(.eh_frame)

.gcc_except_table
 *(.gcc_except_table .gcc_except_table.*)

.exception_ranges
 *(.exception_ranges .exception_ranges*)

.tdata
 *(.tdata .tdata.* .gnu.linkonce.td.*)

.tbss
 *(.tbss .tbss.* .gnu.linkonce.tb.*)
 *(.tcommon)

.preinit_array
 *(.preinit_array)

.init_array     0x00000000003c7a40        0x8
 *(SORT(.init_array.*) SORT(.ctors.*))
 *(.init_array EXCLUDE_FILE(*crtend?.o *crtend.o *crtbegin?.o *crtbegin.o) .ctors)
 .init_array    0x00000000003c7a40        0x8 /usr/lib/gcc/x86_64-linux-gnu/4.8/crtbeginS.o

.fini_array     0x00000000003c7a48        0x8
 *(SORT(.fini_array.*) SORT(.dtors.*))
 *(.fini_array EXCLUDE_FILE(*crtend?.o *crtend.o *crtbegin?.o *crtbegin.o) .dtors)
 .fini_array    0x00000000003c7a48        0x8 /usr/lib/gcc/x86_64-linux-gnu/4.8/crtbeginS.o

.ctors
 *crtbegin.o(.ctors)
 *crtbegin?.o(.ctors)
 *(EXCLUDE_FILE(*crtend?.o *crtend.o) .ctors)
 *(SORT(.ctors.*))
 *(.ctors)

.dtors
 *crtbegin.o(.dtors)
 *crtbegin?.o(.dtors)
 *(EXCLUDE_FILE(*crtend?.o *crtend.o) .dtors)
 *(SORT(.dtors.*))
 *(.dtors)

.jcr            0x00000000003c7a50        0x8
 *(.jcr)
 .jcr           0x00000000003c7a50        0x0 /usr/lib/gcc/x86_64-linux-gnu/4.8/crtbeginS.o
 .jcr           0x00000000003c7a50        0x8 /usr/lib/gcc/x86_64-linux-gnu/4.8/crtendS.o

.data.rel.ro
 *(.data.rel.ro.local* .gnu.linkonce.d.rel.ro.local.*)
 *(.data.rel.ro .data.rel.ro.* .gnu.linkonce.d.rel.ro.*)

.dynamic        0x00000000003c7a58      0x270
 *(.dynamic)
 .dynamic       0x00000000003c7a58      0x270 /usr/lib/gcc/x86_64-linux-gnu/4.8/../../../x86_64-linux-gnu/crti.o
                0x00000000003c7a58                _DYNAMIC

.got            0x00000000003c7cc8     0x2338
 *(.got)
 .got           0x00000000003c7cc8     0x2338 /usr/lib/gcc/x86_64-linux-gnu/4.8/../../../x86_64-linux-gnu/crti.o
 *(.igot)
                0x00000000003cafe8                . = DATA_SEGMENT_RELRO_END (., (SIZEOF (.got.plt) >= 0x18)?0x18:0x0)

.got.plt        0x00000000003ca000     0x2360
 *(.got.plt)
 .got.plt       0x00000000003ca000     0x2360 /usr/lib/gcc/x86_64-linux-gnu/4.8/../../../x86_64-linux-gnu/crti.o
                0x00000000003ca000                _GLOBAL_OFFSET_TABLE_
 *(.igot.plt)

.data           0x00000000003cc360     0x1188
 *(.data .data.* .gnu.linkonce.d.*)
 .data.rel      0x00000000003cc360        0x8 /usr/lib/gcc/x86_64-linux-gnu/4.8/crtbeginS.o
                0x00000000003cc360                __dso_handle
 .data.rel.local
                0x00000000003cc368     0x1180 /home/sunho/bebop_ws/devel/arsdk/out/arsdk-native/build/libARController/obj/gen/Sources/ARCONTROLLER_Feature.c.o
                0x00000000003cc368                ARCONTROLLER_DICTIONARY_KEY_WIFI_RSSICHANGED_RSSI
                0x00000000003cc370                ARCONTROLLER_DICTIONARY_KEY_WIFI_ENVIRONMENTCHANGED_ENVIRONMENT
                0x00000000003cc378                ARCONTROLLER_DICTIONARY_KEY_WIFI_COUNTRYCHANGED_CODE
                0x00000000003cc380                ARCONTROLLER_DICTIONARY_KEY_WIFI_COUNTRYCHANGED_SELECTION_MODE
                0x00000000003cc388                ARCONTROLLER_DICTIONARY_KEY_WIFI_SECURITYCHANGED_KEY_TYPE
                0x00000000003cc390                ARCONTROLLER_DICTIONARY_KEY_WIFI_SECURITYCHANGED_KEY
                0x00000000003cc398                ARCONTROLLER_DICTIONARY_KEY_WIFI_APCHANNELCHANGED_CHANNEL
                0x00000000003cc3a0                ARCONTROLLER_DICTIONARY_KEY_WIFI_APCHANNELCHANGED_BAND
                0x00000000003cc3a8                ARCONTROLLER_DICTIONARY_KEY_WIFI_APCHANNELCHANGED_TYPE
                0x00000000003cc3b0                ARCONTROLLER_DICTIONARY_KEY_WIFI_AUTHORIZEDCHANNEL_ENVIRONMENT
                0x00000000003cc3b8                ARCONTROLLER_DICTIONARY_KEY_WIFI_AUTHORIZEDCHANNEL_CHANNEL
                0x00000000003cc3c0                ARCONTROLLER_DICTIONARY_KEY_WIFI_AUTHORIZEDCHANNEL_BAND
                0x00000000003cc3c8                ARCONTROLLER_DICTIONARY_KEY_WIFI_SCANNEDITEM_CHANNEL
                0x00000000003cc3d0                ARCONTROLLER_DICTIONARY_KEY_WIFI_SCANNEDITEM_BAND
                0x00000000003cc3d8                ARCONTROLLER_DICTIONARY_KEY_WIFI_SCANNEDITEM_RSSI
                0x00000000003cc3e0                ARCONTROLLER_DICTIONARY_KEY_WIFI_SCANNEDITEM_SSID
                0x00000000003cc3e8                ARCONTROLLER_DICTIONARY_KEY_UNKNOWN_FEATURE_1_USERFRAMINGPOSITIONCHANGED_VERTICAL
                0x00000000003cc3f0                ARCONTROLLER_DICTIONARY_KEY_UNKNOWN_FEATURE_1_USERFRAMINGPOSITIONCHANGED_HORIZONTAL
                0x00000000003cc3f8                ARCONTROLLER_DICTIONARY_KEY_UNKNOWN_FEATURE_1_DOLLYSLIDEANIMCONFIGCHANGED_HORIZONTAL_DISTANCE
                0x00000000003cc400                ARCONTROLLER_DICTIONARY_KEY_UNKNOWN_FEATURE_1_DOLLYSLIDEANIMCONFIGCHANGED_HORIZONTAL_DISTANCE_IS_DEFAULT
                0x00000000003cc408                ARCONTROLLER_DICTIONARY_KEY_UNKNOWN_FEATURE_1_DOLLYSLIDEANIMCONFIGCHANGED_ANGLE
                0x00000000003cc410                ARCONTROLLER_DICTIONARY_KEY_UNKNOWN_FEATURE_1_DOLLYSLIDEANIMCONFIGCHANGED_ANGLE_IS_DEFAULT
                0x00000000003cc418                ARCONTROLLER_DICTIONARY_KEY_UNKNOWN_FEATURE_1_DOLLYSLIDEANIMCONFIGCHANGED_SPEED
                0x00000000003cc420                ARCONTROLLER_DICTIONARY_KEY_UNKNOWN_FEATURE_1_DOLLYSLIDEANIMCONFIGCHANGED_SPEED_IS_DEFAULT
                0x00000000003cc428                ARCONTROLLER_DICTIONARY_KEY_UNKNOWN_FEATURE_1_CANDLEANIMCONFIGCHANGED_VERTICAL_DISTANCE
                0x00000000003cc430                ARCONTROLLER_DICTIONARY_KEY_UNKNOWN_FEATURE_1_CANDLEANIMCONFIGCHANGED_VERTICAL_DISTANCE_IS_DEFAULT
                0x00000000003cc438                ARCONTROLLER_DICTIONARY_KEY_UNKNOWN_FEATURE_1_CANDLEANIMCONFIGCHANGED_SPEED
                0x00000000003cc440                ARCONTROLLER_DICTIONARY_KEY_UNKNOWN_FEATURE_1_CANDLEANIMCONFIGCHANGED_SPEED_IS_DEFAULT
                0x00000000003cc448                ARCONTROLLER_DICTIONARY_KEY_UNKNOWN_FEATURE_1_BOOMERANGANIMCONFIGCHANGED_DISTANCE
                0x00000000003cc450                ARCONTROLLER_DICTIONARY_KEY_UNKNOWN_FEATURE_1_BOOMERANGANIMCONFIGCHANGED_DISTANCE_IS_DEFAULT
                0x00000000003cc458                ARCONTROLLER_DICTIONARY_KEY_UNKNOWN_FEATURE_1_BOOMERANGANIMCONFIGCHANGED_SPEED
                0x00000000003cc460                ARCONTROLLER_DICTIONARY_KEY_UNKNOWN_FEATURE_1_BOOMERANGANIMCONFIGCHANGED_SPEED_IS_DEFAULT
                0x00000000003cc468                ARCONTROLLER_DICTIONARY_KEY_UNKNOWN_FEATURE_1_SWINGANIMCONFIGCHANGED_VERTICAL_DISTANCE
                0x00000000003cc470                ARCONTROLLER_DICTIONARY_KEY_UNKNOWN_FEATURE_1_SWINGANIMCONFIGCHANGED_VERTICAL_DISTANCE_IS_DEFAULT
                0x00000000003cc478                ARCONTROLLER_DICTIONARY_KEY_UNKNOWN_FEATURE_1_SWINGANIMCONFIGCHANGED_SPEED
                0x00000000003cc480                ARCONTROLLER_DICTIONARY_KEY_UNKNOWN_FEATURE_1_SWINGANIMCONFIGCHANGED_SPEED_IS_DEFAULT
                0x00000000003cc488                ARCONTROLLER_DICTIONARY_KEY_UNKNOWN_FEATURE_1_SPIRALANIMCONFIGCHANGED_VERTICAL_DISTANCE
                0x00000000003cc490                ARCONTROLLER_DICTIONARY_KEY_UNKNOWN_FEATURE_1_SPIRALANIMCONFIGCHANGED_VERTICAL_DISTANCE_IS_DEFAULT
                0x00000000003cc498                ARCONTROLLER_DICTIONARY_KEY_UNKNOWN_FEATURE_1_SPIRALANIMCONFIGCHANGED_REVOLUTION_NB
                0x00000000003cc4a0                ARCONTROLLER_DICTIONARY_KEY_UNKNOWN_FEATURE_1_SPIRALANIMCONFIGCHANGED_REVOLUTION_NB_IS_DEFAULT
                0x00000000003cc4a8                ARCONTROLLER_DICTIONARY_KEY_UNKNOWN_FEATURE_1_SPIRALANIMCONFIGCHANGED_SPEED
                0x00000000003cc4b0                ARCONTROLLER_DICTIONARY_KEY_UNKNOWN_FEATURE_1_SPIRALANIMCONFIGCHANGED_SPEED_IS_DEFAULT
                0x00000000003cc4b8                ARCONTROLLER_DICTIONARY_KEY_UNKNOWN_FEATURE_1_ANIMRUN_TYPE
                0x00000000003cc4c0                ARCONTROLLER_DICTIONARY_KEY_UNKNOWN_FEATURE_1_RELATIVECONFIGCHANGED_AZIMUTH
                0x00000000003cc4c8                ARCONTROLLER_DICTIONARY_KEY_UNKNOWN_FEATURE_1_RELATIVECONFIGCHANGED_AZIMUTH_IS_DEFAULT
                0x00000000003cc4d0                ARCONTROLLER_DICTIONARY_KEY_UNKNOWN_FEATURE_1_RELATIVECONFIGCHANGED_ELEVATION
                0x00000000003cc4d8                ARCONTROLLER_DICTIONARY_KEY_UNKNOWN_FEATURE_1_RELATIVECONFIGCHANGED_ELEVATION_IS_DEFAULT
                0x00000000003cc4e0                ARCONTROLLER_DICTIONARY_KEY_UNKNOWN_FEATURE_1_RELATIVECONFIGCHANGED_DISTANCE
                0x00000000003cc4e8                ARCONTROLLER_DICTIONARY_KEY_UNKNOWN_FEATURE_1_RELATIVECONFIGCHANGED_DISTANCE_IS_DEFAULT
                0x00000000003cc4f0                ARCONTROLLER_DICTIONARY_KEY_UNKNOWN_FEATURE_1_GEOGRAPHICCONFIGCHANGED_AZIMUTH
                0x00000000003cc4f8                ARCONTROLLER_DICTIONARY_KEY_UNKNOWN_FEATURE_1_GEOGRAPHICCONFIGCHANGED_AZIMUTH_IS_DEFAULT
                0x00000000003cc500                ARCONTROLLER_DICTIONARY_KEY_UNKNOWN_FEATURE_1_GEOGRAPHICCONFIGCHANGED_ELEVATION
                0x00000000003cc508                ARCONTROLLER_DICTIONARY_KEY_UNKNOWN_FEATURE_1_GEOGRAPHICCONFIGCHANGED_ELEVATION_IS_DEFAULT
                0x00000000003cc510                ARCONTROLLER_DICTIONARY_KEY_UNKNOWN_FEATURE_1_GEOGRAPHICCONFIGCHANGED_DISTANCE
                0x00000000003cc518                ARCONTROLLER_DICTIONARY_KEY_UNKNOWN_FEATURE_1_GEOGRAPHICCONFIGCHANGED_DISTANCE_IS_DEFAULT
                0x00000000003cc520                ARCONTROLLER_DICTIONARY_KEY_UNKNOWN_FEATURE_1_RUN_TYPE
                0x00000000003cc528                ARCONTROLLER_DICTIONARY_KEY_UNKNOWN_FEATURE_1_AVAILABILITY_TYPE
                0x00000000003cc530                ARCONTROLLER_DICTIONARY_KEY_SKYCONTROLLER_CALIBRATIONSTATE_MAGNETOCALIBRATIONQUALITYUPDATESSTATE_ENABLED
                0x00000000003cc538                ARCONTROLLER_DICTIONARY_KEY_SKYCONTROLLER_CALIBRATIONSTATE_MAGNETOCALIBRATIONSTATE_Z_QUALITY
                0x00000000003cc540                ARCONTROLLER_DICTIONARY_KEY_SKYCONTROLLER_CALIBRATIONSTATE_MAGNETOCALIBRATIONSTATE_Y_QUALITY
                0x00000000003cc548                ARCONTROLLER_DICTIONARY_KEY_SKYCONTROLLER_CALIBRATIONSTATE_MAGNETOCALIBRATIONSTATE_X_QUALITY
                0x00000000003cc550                ARCONTROLLER_DICTIONARY_KEY_SKYCONTROLLER_CALIBRATIONSTATE_MAGNETOCALIBRATIONSTATE_STATUS
                0x00000000003cc558                ARCONTROLLER_DICTIONARY_KEY_SKYCONTROLLER_COPILOTINGSTATE_PILOTINGSOURCE_SOURCE
                0x00000000003cc560                ARCONTROLLER_DICTIONARY_KEY_SKYCONTROLLER_AXISFILTERSSTATE_PRESETAXISFILTERS_NAME
                0x00000000003cc568                ARCONTROLLER_DICTIONARY_KEY_SKYCONTROLLER_AXISFILTERSSTATE_PRESETAXISFILTERS_FILTER_UID
                0x00000000003cc570                ARCONTROLLER_DICTIONARY_KEY_SKYCONTROLLER_AXISFILTERSSTATE_CURRENTAXISFILTERS_FILTER_UID_OR_BUILDER
                0x00000000003cc578                ARCONTROLLER_DICTIONARY_KEY_SKYCONTROLLER_AXISFILTERSSTATE_CURRENTAXISFILTERS_AXIS_ID
                0x00000000003cc580                ARCONTROLLER_DICTIONARY_KEY_SKYCONTROLLER_AXISMAPPINGSSTATE_AVAILABLEAXISMAPPINGS_NAME
                0x00000000003cc588                ARCONTROLLER_DICTIONARY_KEY_SKYCONTROLLER_AXISMAPPINGSSTATE_AVAILABLEAXISMAPPINGS_MAPPING_UID
                0x00000000003cc590                ARCONTROLLER_DICTIONARY_KEY_SKYCONTROLLER_AXISMAPPINGSSTATE_CURRENTAXISMAPPINGS_MAPPING_UID
                0x00000000003cc598                ARCONTROLLER_DICTIONARY_KEY_SKYCONTROLLER_AXISMAPPINGSSTATE_CURRENTAXISMAPPINGS_AXIS_ID
                0x00000000003cc5a0                ARCONTROLLER_DICTIONARY_KEY_SKYCONTROLLER_BUTTONMAPPINGSSTATE_AVAILABLEBUTTONMAPPINGS_NAME
                0x00000000003cc5a8                ARCONTROLLER_DICTIONARY_KEY_SKYCONTROLLER_BUTTONMAPPINGSSTATE_AVAILABLEBUTTONMAPPINGS_MAPPING_UID
                0x00000000003cc5b0                ARCONTROLLER_DICTIONARY_KEY_SKYCONTROLLER_BUTTONMAPPINGSSTATE_CURRENTBUTTONMAPPINGS_MAPPING_UID
                0x00000000003cc5b8                ARCONTROLLER_DICTIONARY_KEY_SKYCONTROLLER_BUTTONMAPPINGSSTATE_CURRENTBUTTONMAPPINGS_KEY_ID
                0x00000000003cc5c0                ARCONTROLLER_DICTIONARY_KEY_SKYCONTROLLER_GAMEPADINFOSSTATE_GAMEPADCONTROL_NAME
                0x00000000003cc5c8                ARCONTROLLER_DICTIONARY_KEY_SKYCONTROLLER_GAMEPADINFOSSTATE_GAMEPADCONTROL_ID
                0x00000000003cc5d0                ARCONTROLLER_DICTIONARY_KEY_SKYCONTROLLER_GAMEPADINFOSSTATE_GAMEPADCONTROL_TYPE
                0x00000000003cc5d8                ARCONTROLLER_DICTIONARY_KEY_SKYCONTROLLER_ACCESSPOINTSETTINGSSTATE_WIFISELECTIONCHANGED_CHANNEL
                0x00000000003cc5e0                ARCONTROLLER_DICTIONARY_KEY_SKYCONTROLLER_ACCESSPOINTSETTINGSSTATE_WIFISELECTIONCHANGED_BAND
                0x00000000003cc5e8                ARCONTROLLER_DICTIONARY_KEY_SKYCONTROLLER_ACCESSPOINTSETTINGSSTATE_WIFISELECTIONCHANGED_TYPE
                0x00000000003cc5f0                ARCONTROLLER_DICTIONARY_KEY_SKYCONTROLLER_ACCESSPOINTSETTINGSSTATE_ACCESSPOINTCHANNELCHANGED_CHANNEL
                0x00000000003cc5f8                ARCONTROLLER_DICTIONARY_KEY_SKYCONTROLLER_ACCESSPOINTSETTINGSSTATE_ACCESSPOINTSSIDCHANGED_SSID
                0x00000000003cc600                ARCONTROLLER_DICTIONARY_KEY_SKYCONTROLLER_SKYCONTROLLERSTATE_ATTITUDECHANGED_Q3
                0x00000000003cc608                ARCONTROLLER_DICTIONARY_KEY_SKYCONTROLLER_SKYCONTROLLERSTATE_ATTITUDECHANGED_Q2
                0x00000000003cc610                ARCONTROLLER_DICTIONARY_KEY_SKYCONTROLLER_SKYCONTROLLERSTATE_ATTITUDECHANGED_Q1
                0x00000000003cc618                ARCONTROLLER_DICTIONARY_KEY_SKYCONTROLLER_SKYCONTROLLERSTATE_ATTITUDECHANGED_Q0
                0x00000000003cc620                ARCONTROLLER_DICTIONARY_KEY_SKYCONTROLLER_SKYCONTROLLERSTATE_BATTERYSTATE_STATE
                0x00000000003cc628                ARCONTROLLER_DICTIONARY_KEY_SKYCONTROLLER_SKYCONTROLLERSTATE_GPSPOSITIONCHANGED_HEADING
                0x00000000003cc630                ARCONTROLLER_DICTIONARY_KEY_SKYCONTROLLER_SKYCONTROLLERSTATE_GPSPOSITIONCHANGED_ALTITUDE
                0x00000000003cc638                ARCONTROLLER_DICTIONARY_KEY_SKYCONTROLLER_SKYCONTROLLERSTATE_GPSPOSITIONCHANGED_LONGITUDE
                0x00000000003cc640                ARCONTROLLER_DICTIONARY_KEY_SKYCONTROLLER_SKYCONTROLLERSTATE_GPSPOSITIONCHANGED_LATITUDE
                0x00000000003cc648                ARCONTROLLER_DICTIONARY_KEY_SKYCONTROLLER_SKYCONTROLLERSTATE_GPSFIXCHANGED_FIXED
                0x00000000003cc650                ARCONTROLLER_DICTIONARY_KEY_SKYCONTROLLER_SKYCONTROLLERSTATE_BATTERYCHANGED_PERCENT
                0x00000000003cc658                ARCONTROLLER_DICTIONARY_KEY_SKYCONTROLLER_SETTINGSSTATE_PRODUCTVERSIONCHANGED_HARDWARE
                0x00000000003cc660                ARCONTROLLER_DICTIONARY_KEY_SKYCONTROLLER_SETTINGSSTATE_PRODUCTVERSIONCHANGED_SOFTWARE
                0x00000000003cc668                ARCONTROLLER_DICTIONARY_KEY_SKYCONTROLLER_SETTINGSSTATE_PRODUCTVARIANTCHANGED_VARIANT
                0x00000000003cc670                ARCONTROLLER_DICTIONARY_KEY_SKYCONTROLLER_SETTINGSSTATE_PRODUCTSERIALCHANGED_SERIALNUMBER
                0x00000000003cc678                ARCONTROLLER_DICTIONARY_KEY_SKYCONTROLLER_DEVICESTATE_CONNEXIONCHANGED_DEVICEPRODUCTID
                0x00000000003cc680                ARCONTROLLER_DICTIONARY_KEY_SKYCONTROLLER_DEVICESTATE_CONNEXIONCHANGED_DEVICENAME
                0x00000000003cc688                ARCONTROLLER_DICTIONARY_KEY_SKYCONTROLLER_DEVICESTATE_CONNEXIONCHANGED_STATUS
                0x00000000003cc690                ARCONTROLLER_DICTIONARY_KEY_SKYCONTROLLER_DEVICESTATE_DEVICELIST_NAME
                0x00000000003cc698                ARCONTROLLER_DICTIONARY_KEY_SKYCONTROLLER_WIFISTATE_WIFISIGNALCHANGED_LEVEL
                0x00000000003cc6a0                ARCONTROLLER_DICTIONARY_KEY_SKYCONTROLLER_WIFISTATE_WIFIAUTHCHANNELLISTCHANGED_IN_OR_OUT
                0x00000000003cc6a8                ARCONTROLLER_DICTIONARY_KEY_SKYCONTROLLER_WIFISTATE_WIFIAUTHCHANNELLISTCHANGED_CHANNEL
                0x00000000003cc6b0                ARCONTROLLER_DICTIONARY_KEY_SKYCONTROLLER_WIFISTATE_WIFIAUTHCHANNELLISTCHANGED_BAND
                0x00000000003cc6b8                ARCONTROLLER_DICTIONARY_KEY_SKYCONTROLLER_WIFISTATE_CONNEXIONCHANGED_STATUS
                0x00000000003cc6c0                ARCONTROLLER_DICTIONARY_KEY_SKYCONTROLLER_WIFISTATE_CONNEXIONCHANGED_SSID
                0x00000000003cc6c8                ARCONTROLLER_DICTIONARY_KEY_SKYCONTROLLER_WIFISTATE_WIFILIST_FREQUENCY
                0x00000000003cc6d0                ARCONTROLLER_DICTIONARY_KEY_SKYCONTROLLER_WIFISTATE_WIFILIST_RSSI
                0x00000000003cc6d8                ARCONTROLLER_DICTIONARY_KEY_SKYCONTROLLER_WIFISTATE_WIFILIST_SAVED
                0x00000000003cc6e0                ARCONTROLLER_DICTIONARY_KEY_SKYCONTROLLER_WIFISTATE_WIFILIST_SECURED
                0x00000000003cc6e8                ARCONTROLLER_DICTIONARY_KEY_SKYCONTROLLER_WIFISTATE_WIFILIST_SSID
                0x00000000003cc6f0                ARCONTROLLER_DICTIONARY_KEY_SKYCONTROLLER_WIFISTATE_WIFILIST_BSSID
                0x00000000003cc6f8                ARCONTROLLER_DICTIONARY_KEY_RC_RECEIVERQUALITY_LEVEL
                0x00000000003cc700                ARCONTROLLER_DICTIONARY_KEY_RC_CALIBRATIONSTATE_INVERTED
                0x00000000003cc708                ARCONTROLLER_DICTIONARY_KEY_RC_CALIBRATIONSTATE_NEUTRAL_CALIBRATED
                0x00000000003cc710                ARCONTROLLER_DICTIONARY_KEY_RC_CALIBRATIONSTATE_CALIBRATED
                0x00000000003cc718                ARCONTROLLER_DICTIONARY_KEY_RC_CALIBRATIONSTATE_REQUIRED
                0x00000000003cc720                ARCONTROLLER_DICTIONARY_KEY_RC_CALIBRATIONSTATE_SUPPORTED
                0x00000000003cc728                ARCONTROLLER_DICTIONARY_KEY_RC_CALIBRATIONSTATE_CHANNEL
                0x00000000003cc730                ARCONTROLLER_DICTIONARY_KEY_RC_CALIBRATIONSTATE_TYPE
                0x00000000003cc738                ARCONTROLLER_DICTIONARY_KEY_RC_CHANNELVALUE_VALUE
                0x00000000003cc740                ARCONTROLLER_DICTIONARY_KEY_RC_CHANNELVALUE_TYPE
                0x00000000003cc748                ARCONTROLLER_DICTIONARY_KEY_RC_CHANNELVALUE_ID
                0x00000000003cc750                ARCONTROLLER_DICTIONARY_KEY_RC_CHANNELSMONITORSTATE_STATE
                0x00000000003cc758                ARCONTROLLER_DICTIONARY_KEY_RC_RECEIVERSTATE_PROTOCOL
                0x00000000003cc760                ARCONTROLLER_DICTIONARY_KEY_RC_RECEIVERSTATE_STATE
                0x00000000003cc768                ARCONTROLLER_DICTIONARY_KEY_PRO_PROEVENT_CHALLENGEEVENT_CHALLENGE
                0x00000000003cc770                ARCONTROLLER_DICTIONARY_KEY_PRO_PROSTATE_FEATURESACTIVATED_FEATURES
                0x00000000003cc778                ARCONTROLLER_DICTIONARY_KEY_PRO_PROSTATE_SUPPORTEDFEATURES_FEATURES
                0x00000000003cc780                ARCONTROLLER_DICTIONARY_KEY_PRO_PROSTATE_SUPPORTEDFEATURES_STATUS
                0x00000000003cc788                ARCONTROLLER_DICTIONARY_KEY_POWERUP_SOUNDSSTATE_BUZZCHANGED_ENABLED
                0x00000000003cc790                ARCONTROLLER_DICTIONARY_KEY_POWERUP_VIDEOSETTINGSSTATE_VIDEOMODECHANGED_MODE
                0x00000000003cc798                ARCONTROLLER_DICTIONARY_KEY_POWERUP_VIDEOSETTINGSSTATE_AUTORECORDCHANGED_ENABLED
                0x00000000003cc7a0                ARCONTROLLER_DICTIONARY_KEY_POWERUP_MEDIASTREAMINGSTATE_VIDEOENABLECHANGED_ENABLED
                0x00000000003cc7a8                ARCONTROLLER_DICTIONARY_KEY_POWERUP_NETWORKSTATE_LINKQUALITYCHANGED_QUALITY
                0x00000000003cc7b0                ARCONTROLLER_DICTIONARY_KEY_POWERUP_NETWORKSTATE_WIFIAUTHCHANNELLISTCHANGED_IN_OR_OUT
                0x00000000003cc7b8                ARCONTROLLER_DICTIONARY_KEY_POWERUP_NETWORKSTATE_WIFIAUTHCHANNELLISTCHANGED_CHANNEL
                0x00000000003cc7c0                ARCONTROLLER_DICTIONARY_KEY_POWERUP_NETWORKSTATE_WIFIAUTHCHANNELLISTCHANGED_BAND
                0x00000000003cc7c8                ARCONTROLLER_DICTIONARY_KEY_POWERUP_NETWORKSTATE_WIFISCANLISTCHANGED_CHANNEL
                0x00000000003cc7d0                ARCONTROLLER_DICTIONARY_KEY_POWERUP_NETWORKSTATE_WIFISCANLISTCHANGED_BAND
                0x00000000003cc7d8                ARCONTROLLER_DICTIONARY_KEY_POWERUP_NETWORKSTATE_WIFISCANLISTCHANGED_RSSI
                0x00000000003cc7e0                ARCONTROLLER_DICTIONARY_KEY_POWERUP_NETWORKSTATE_WIFISCANLISTCHANGED_SSID
                0x00000000003cc7e8                ARCONTROLLER_DICTIONARY_KEY_POWERUP_NETWORKSETTINGSSTATE_WIFISELECTIONCHANGED_CHANNEL
                0x00000000003cc7f0                ARCONTROLLER_DICTIONARY_KEY_POWERUP_NETWORKSETTINGSSTATE_WIFISELECTIONCHANGED_BAND
                0x00000000003cc7f8                ARCONTROLLER_DICTIONARY_KEY_POWERUP_NETWORKSETTINGSSTATE_WIFISELECTIONCHANGED_TYPE
                0x00000000003cc800                ARCONTROLLER_DICTIONARY_KEY_POWERUP_MEDIARECORDEVENT_VIDEOEVENTCHANGED_ERROR
                0x00000000003cc808                ARCONTROLLER_DICTIONARY_KEY_POWERUP_MEDIARECORDEVENT_VIDEOEVENTCHANGED_EVENT
                0x00000000003cc810                ARCONTROLLER_DICTIONARY_KEY_POWERUP_MEDIARECORDEVENT_PICTUREEVENTCHANGED_ERROR
                0x00000000003cc818                ARCONTROLLER_DICTIONARY_KEY_POWERUP_MEDIARECORDEVENT_PICTUREEVENTCHANGED_EVENT
                0x00000000003cc820                ARCONTROLLER_DICTIONARY_KEY_POWERUP_MEDIARECORDSTATE_VIDEOSTATECHANGEDV2_ERROR
                0x00000000003cc828                ARCONTROLLER_DICTIONARY_KEY_POWERUP_MEDIARECORDSTATE_VIDEOSTATECHANGEDV2_STATE
                0x00000000003cc830                ARCONTROLLER_DICTIONARY_KEY_POWERUP_MEDIARECORDSTATE_PICTURESTATECHANGEDV2_ERROR
                0x00000000003cc838                ARCONTROLLER_DICTIONARY_KEY_POWERUP_MEDIARECORDSTATE_PICTURESTATECHANGEDV2_STATE
                0x00000000003cc840                ARCONTROLLER_DICTIONARY_KEY_POWERUP_PILOTINGSETTINGSSTATE_SETTINGCHANGED_MAX
                0x00000000003cc848                ARCONTROLLER_DICTIONARY_KEY_POWERUP_PILOTINGSETTINGSSTATE_SETTINGCHANGED_MIN
                0x00000000003cc850                ARCONTROLLER_DICTIONARY_KEY_POWERUP_PILOTINGSETTINGSSTATE_SETTINGCHANGED_CURRENT
                0x00000000003cc858                ARCONTROLLER_DICTIONARY_KEY_POWERUP_PILOTINGSETTINGSSTATE_SETTINGCHANGED_SETTING
                0x00000000003cc860                ARCONTROLLER_DICTIONARY_KEY_POWERUP_PILOTINGSTATE_ALTITUDECHANGED_ALTITUDE
                0x00000000003cc868                ARCONTROLLER_DICTIONARY_KEY_POWERUP_PILOTINGSTATE_ATTITUDECHANGED_YAW
                0x00000000003cc870                ARCONTROLLER_DICTIONARY_KEY_POWERUP_PILOTINGSTATE_ATTITUDECHANGED_PITCH
                0x00000000003cc878                ARCONTROLLER_DICTIONARY_KEY_POWERUP_PILOTINGSTATE_ATTITUDECHANGED_ROLL
                0x00000000003cc880                ARCONTROLLER_DICTIONARY_KEY_POWERUP_PILOTINGSTATE_MOTORMODECHANGED_MODE
                0x00000000003cc888                ARCONTROLLER_DICTIONARY_KEY_POWERUP_PILOTINGSTATE_FLYINGSTATECHANGED_STATE
                0x00000000003cc890                ARCONTROLLER_DICTIONARY_KEY_POWERUP_PILOTINGSTATE_ALERTSTATECHANGED_STATE
                0x00000000003cc898                ARCONTROLLER_DICTIONARY_KEY_MINIDRONE_NAVIGATIONDATASTATE_DRONEPOSITION_TS
                0x00000000003cc8a0                ARCONTROLLER_DICTIONARY_KEY_MINIDRONE_NAVIGATIONDATASTATE_DRONEPOSITION_PSI
                0x00000000003cc8a8                ARCONTROLLER_DICTIONARY_KEY_MINIDRONE_NAVIGATIONDATASTATE_DRONEPOSITION_POSZ
                0x00000000003cc8b0                ARCONTROLLER_DICTIONARY_KEY_MINIDRONE_NAVIGATIONDATASTATE_DRONEPOSITION_POSY
                0x00000000003cc8b8                ARCONTROLLER_DICTIONARY_KEY_MINIDRONE_NAVIGATIONDATASTATE_DRONEPOSITION_POSX
                0x00000000003cc8c0                ARCONTROLLER_DICTIONARY_KEY_MINIDRONE_USBACCESSORYSTATE_GUNSTATE_STATE
                0x00000000003cc8c8                ARCONTROLLER_DICTIONARY_KEY_MINIDRONE_USBACCESSORYSTATE_GUNSTATE_ID
                0x00000000003cc8d0                ARCONTROLLER_DICTIONARY_KEY_MINIDRONE_USBACCESSORYSTATE_CLAWSTATE_STATE
                0x00000000003cc8d8                ARCONTROLLER_DICTIONARY_KEY_MINIDRONE_USBACCESSORYSTATE_CLAWSTATE_ID
                0x00000000003cc8e0                ARCONTROLLER_DICTIONARY_KEY_MINIDRONE_USBACCESSORYSTATE_LIGHTSTATE_INTENSITY
                0x00000000003cc8e8                ARCONTROLLER_DICTIONARY_KEY_MINIDRONE_USBACCESSORYSTATE_LIGHTSTATE_STATE
                0x00000000003cc8f0                ARCONTROLLER_DICTIONARY_KEY_MINIDRONE_USBACCESSORYSTATE_LIGHTSTATE_ID
                0x00000000003cc8f8                ARCONTROLLER_DICTIONARY_KEY_MINIDRONE_FLOODCONTROLSTATE_FLOODCONTROLCHANGED_DELAY
                0x00000000003cc900                ARCONTROLLER_DICTIONARY_KEY_MINIDRONE_SETTINGSSTATE_CUTOUTMODECHANGED_ENABLE
                0x00000000003cc908                ARCONTROLLER_DICTIONARY_KEY_MINIDRONE_SETTINGSSTATE_PRODUCTINERTIALVERSIONCHANGED_HARDWARE
                0x00000000003cc910                ARCONTROLLER_DICTIONARY_KEY_MINIDRONE_SETTINGSSTATE_PRODUCTINERTIALVERSIONCHANGED_SOFTWARE
                0x00000000003cc918                ARCONTROLLER_DICTIONARY_KEY_MINIDRONE_SETTINGSSTATE_PRODUCTMOTORSVERSIONCHANGED_HARDWARE
                0x00000000003cc920                ARCONTROLLER_DICTIONARY_KEY_MINIDRONE_SETTINGSSTATE_PRODUCTMOTORSVERSIONCHANGED_SOFTWARE
                0x00000000003cc928                ARCONTROLLER_DICTIONARY_KEY_MINIDRONE_SETTINGSSTATE_PRODUCTMOTORSVERSIONCHANGED_TYPE
                0x00000000003cc930                ARCONTROLLER_DICTIONARY_KEY_MINIDRONE_SETTINGSSTATE_PRODUCTMOTORSVERSIONCHANGED_MOTOR
                0x00000000003cc938                ARCONTROLLER_DICTIONARY_KEY_MINIDRONE_SPEEDSETTINGSSTATE_MAXPLANEMODEROTATIONSPEEDCHANGED_MAX
                0x00000000003cc940                ARCONTROLLER_DICTIONARY_KEY_MINIDRONE_SPEEDSETTINGSSTATE_MAXPLANEMODEROTATIONSPEEDCHANGED_MIN
                0x00000000003cc948                ARCONTROLLER_DICTIONARY_KEY_MINIDRONE_SPEEDSETTINGSSTATE_MAXPLANEMODEROTATIONSPEEDCHANGED_CURRENT
                0x00000000003cc950                ARCONTROLLER_DICTIONARY_KEY_MINIDRONE_SPEEDSETTINGSSTATE_MAXHORIZONTALSPEEDCHANGED_MAX
                0x00000000003cc958                ARCONTROLLER_DICTIONARY_KEY_MINIDRONE_SPEEDSETTINGSSTATE_MAXHORIZONTALSPEEDCHANGED_MIN
                0x00000000003cc960                ARCONTROLLER_DICTIONARY_KEY_MINIDRONE_SPEEDSETTINGSSTATE_MAXHORIZONTALSPEEDCHANGED_CURRENT
                0x00000000003cc968                ARCONTROLLER_DICTIONARY_KEY_MINIDRONE_SPEEDSETTINGSSTATE_WHEELSCHANGED_PRESENT
                0x00000000003cc970                ARCONTROLLER_DICTIONARY_KEY_MINIDRONE_SPEEDSETTINGSSTATE_MAXROTATIONSPEEDCHANGED_MAX
                0x00000000003cc978                ARCONTROLLER_DICTIONARY_KEY_MINIDRONE_SPEEDSETTINGSSTATE_MAXROTATIONSPEEDCHANGED_MIN
                0x00000000003cc980                ARCONTROLLER_DICTIONARY_KEY_MINIDRONE_SPEEDSETTINGSSTATE_MAXROTATIONSPEEDCHANGED_CURRENT
                0x00000000003cc988                ARCONTROLLER_DICTIONARY_KEY_MINIDRONE_SPEEDSETTINGSSTATE_MAXVERTICALSPEEDCHANGED_MAX
                0x00000000003cc990                ARCONTROLLER_DICTIONARY_KEY_MINIDRONE_SPEEDSETTINGSSTATE_MAXVERTICALSPEEDCHANGED_MIN
                0x00000000003cc998                ARCONTROLLER_DICTIONARY_KEY_MINIDRONE_SPEEDSETTINGSSTATE_MAXVERTICALSPEEDCHANGED_CURRENT
                0x00000000003cc9a0                ARCONTROLLER_DICTIONARY_KEY_MINIDRONE_PILOTINGSETTINGSSTATE_PLANEMODEPITCHCHANGED_MAX
                0x00000000003cc9a8                ARCONTROLLER_DICTIONARY_KEY_MINIDRONE_PILOTINGSETTINGSSTATE_PLANEMODEPITCHCHANGED_MIN
                0x00000000003cc9b0                ARCONTROLLER_DICTIONARY_KEY_MINIDRONE_PILOTINGSETTINGSSTATE_PLANEMODEPITCHCHANGED_CURRENT
                0x00000000003cc9b8                ARCONTROLLER_DICTIONARY_KEY_MINIDRONE_PILOTINGSETTINGSSTATE_MAXTILTCHANGED_MAX
                0x00000000003cc9c0                ARCONTROLLER_DICTIONARY_KEY_MINIDRONE_PILOTINGSETTINGSSTATE_MAXTILTCHANGED_MIN
                0x00000000003cc9c8                ARCONTROLLER_DICTIONARY_KEY_MINIDRONE_PILOTINGSETTINGSSTATE_MAXTILTCHANGED_CURRENT
                0x00000000003cc9d0                ARCONTROLLER_DICTIONARY_KEY_MINIDRONE_PILOTINGSETTINGSSTATE_MAXALTITUDECHANGED_MAX
                0x00000000003cc9d8                ARCONTROLLER_DICTIONARY_KEY_MINIDRONE_PILOTINGSETTINGSSTATE_MAXALTITUDECHANGED_MIN
                0x00000000003cc9e0                ARCONTROLLER_DICTIONARY_KEY_MINIDRONE_PILOTINGSETTINGSSTATE_MAXALTITUDECHANGED_CURRENT
                0x00000000003cc9e8                ARCONTROLLER_DICTIONARY_KEY_MINIDRONE_MEDIARECORDEVENT_PICTUREEVENTCHANGED_ERROR
                0x00000000003cc9f0                ARCONTROLLER_DICTIONARY_KEY_MINIDRONE_MEDIARECORDEVENT_PICTUREEVENTCHANGED_EVENT
                0x00000000003cc9f8                ARCONTROLLER_DICTIONARY_KEY_MINIDRONE_MEDIARECORDSTATE_PICTURESTATECHANGEDV2_ERROR
                0x00000000003cca00                ARCONTROLLER_DICTIONARY_KEY_MINIDRONE_MEDIARECORDSTATE_PICTURESTATECHANGEDV2_STATE
                0x00000000003cca08                ARCONTROLLER_DICTIONARY_KEY_MINIDRONE_MEDIARECORDSTATE_PICTURESTATECHANGED_MASS_STORAGE_ID
                0x00000000003cca10                ARCONTROLLER_DICTIONARY_KEY_MINIDRONE_MEDIARECORDSTATE_PICTURESTATECHANGED_STATE
                0x00000000003cca18                ARCONTROLLER_DICTIONARY_KEY_MINIDRONE_PILOTINGSTATE_PLANEGEARBOXCHANGED_STATE
                0x00000000003cca20                ARCONTROLLER_DICTIONARY_KEY_MINIDRONE_PILOTINGSTATE_FLYINGMODECHANGED_MODE
                0x00000000003cca28                ARCONTROLLER_DICTIONARY_KEY_MINIDRONE_PILOTINGSTATE_AUTOTAKEOFFMODECHANGED_STATE
                0x00000000003cca30                ARCONTROLLER_DICTIONARY_KEY_MINIDRONE_PILOTINGSTATE_ALERTSTATECHANGED_STATE
                0x00000000003cca38                ARCONTROLLER_DICTIONARY_KEY_MINIDRONE_PILOTINGSTATE_FLYINGSTATECHANGED_STATE
                0x00000000003cca40                ARCONTROLLER_DICTIONARY_KEY_MAPPER_INVERTEDMAPITEM_INVERTED
                0x00000000003cca48                ARCONTROLLER_DICTIONARY_KEY_MAPPER_INVERTEDMAPITEM_AXIS
                0x00000000003cca50                ARCONTROLLER_DICTIONARY_KEY_MAPPER_INVERTEDMAPITEM_PRODUCT
                0x00000000003cca58                ARCONTROLLER_DICTIONARY_KEY_MAPPER_INVERTEDMAPITEM_UID
                0x00000000003cca60                ARCONTROLLER_DICTIONARY_KEY_MAPPER_EXPOMAPITEM_EXPO
                0x00000000003cca68                ARCONTROLLER_DICTIONARY_KEY_MAPPER_EXPOMAPITEM_AXIS
                0x00000000003cca70                ARCONTROLLER_DICTIONARY_KEY_MAPPER_EXPOMAPITEM_PRODUCT
                0x00000000003cca78                ARCONTROLLER_DICTIONARY_KEY_MAPPER_EXPOMAPITEM_UID
                0x00000000003cca80                ARCONTROLLER_DICTIONARY_KEY_MAPPER_APPLICATIONBUTTONEVENT_ACTION
                0x00000000003cca88                ARCONTROLLER_DICTIONARY_KEY_MAPPER_APPLICATIONAXISEVENT_VALUE
                0x00000000003cca90                ARCONTROLLER_DICTIONARY_KEY_MAPPER_APPLICATIONAXISEVENT_ACTION
                0x00000000003cca98                ARCONTROLLER_DICTIONARY_KEY_MAPPER_AXISMAPPINGITEM_BUTTONS
                0x00000000003ccaa0                ARCONTROLLER_DICTIONARY_KEY_MAPPER_AXISMAPPINGITEM_AXIS
                0x00000000003ccaa8                ARCONTROLLER_DICTIONARY_KEY_MAPPER_AXISMAPPINGITEM_ACTION
                0x00000000003ccab0                ARCONTROLLER_DICTIONARY_KEY_MAPPER_AXISMAPPINGITEM_PRODUCT
                0x00000000003ccab8                ARCONTROLLER_DICTIONARY_KEY_MAPPER_AXISMAPPINGITEM_UID
                0x00000000003ccac0                ARCONTROLLER_DICTIONARY_KEY_MAPPER_BUTTONMAPPINGITEM_BUTTONS
                0x00000000003ccac8                ARCONTROLLER_DICTIONARY_KEY_MAPPER_BUTTONMAPPINGITEM_ACTION
                0x00000000003ccad0                ARCONTROLLER_DICTIONARY_KEY_MAPPER_BUTTONMAPPINGITEM_PRODUCT
                0x00000000003ccad8                ARCONTROLLER_DICTIONARY_KEY_MAPPER_BUTTONMAPPINGITEM_UID
                0x00000000003ccae0                ARCONTROLLER_DICTIONARY_KEY_MAPPER_GRABAXISEVENT_VALUE
                0x00000000003ccae8                ARCONTROLLER_DICTIONARY_KEY_MAPPER_GRABAXISEVENT_AXIS
                0x00000000003ccaf0                ARCONTROLLER_DICTIONARY_KEY_MAPPER_GRABBUTTONEVENT_EVENT
                0x00000000003ccaf8                ARCONTROLLER_DICTIONARY_KEY_MAPPER_GRABBUTTONEVENT_BUTTON
                0x00000000003ccb00                ARCONTROLLER_DICTIONARY_KEY_MAPPER_GRABSTATE_BUTTONS_STATE
                0x00000000003ccb08                ARCONTROLLER_DICTIONARY_KEY_MAPPER_GRABSTATE_AXES
                0x00000000003ccb10                ARCONTROLLER_DICTIONARY_KEY_MAPPER_GRABSTATE_BUTTONS
                0x00000000003ccb18                ARCONTROLLER_DICTIONARY_KEY_JUMPINGSUMO_VIDEOSETTINGSSTATE_AUTORECORDCHANGED_ENABLED
                0x00000000003ccb20                ARCONTROLLER_DICTIONARY_KEY_JUMPINGSUMO_MEDIASTREAMINGSTATE_VIDEOENABLECHANGED_ENABLED
                0x00000000003ccb28                ARCONTROLLER_DICTIONARY_KEY_JUMPINGSUMO_SPEEDSETTINGSSTATE_OUTDOORCHANGED_OUTDOOR
                0x00000000003ccb30                ARCONTROLLER_DICTIONARY_KEY_JUMPINGSUMO_ROADPLANSTATE_PLAYSCRIPTCHANGED_RESULTCODE
                0x00000000003ccb38                ARCONTROLLER_DICTIONARY_KEY_JUMPINGSUMO_ROADPLANSTATE_SCRIPTDELETECHANGED_RESULTCODE
                0x00000000003ccb40                ARCONTROLLER_DICTIONARY_KEY_JUMPINGSUMO_ROADPLANSTATE_SCRIPTUPLOADCHANGED_RESULTCODE
                0x00000000003ccb48                ARCONTROLLER_DICTIONARY_KEY_JUMPINGSUMO_ROADPLANSTATE_SCRIPTMETADATALISTCHANGED_LASTMODIFIED
                0x00000000003ccb50                ARCONTROLLER_DICTIONARY_KEY_JUMPINGSUMO_ROADPLANSTATE_SCRIPTMETADATALISTCHANGED_NAME
                0x00000000003ccb58                ARCONTROLLER_DICTIONARY_KEY_JUMPINGSUMO_ROADPLANSTATE_SCRIPTMETADATALISTCHANGED_PRODUCT
                0x00000000003ccb60                ARCONTROLLER_DICTIONARY_KEY_JUMPINGSUMO_ROADPLANSTATE_SCRIPTMETADATALISTCHANGED_VERSION
                0x00000000003ccb68                ARCONTROLLER_DICTIONARY_KEY_JUMPINGSUMO_ROADPLANSTATE_SCRIPTMETADATALISTCHANGED_UUID
                0x00000000003ccb70                ARCONTROLLER_DICTIONARY_KEY_JUMPINGSUMO_AUDIOSETTINGSSTATE_THEMECHANGED_THEME
                0x00000000003ccb78                ARCONTROLLER_DICTIONARY_KEY_JUMPINGSUMO_AUDIOSETTINGSSTATE_MASTERVOLUMECHANGED_VOLUME
                0x00000000003ccb80                ARCONTROLLER_DICTIONARY_KEY_JUMPINGSUMO_NETWORKSTATE_LINKQUALITYCHANGED_QUALITY
                0x00000000003ccb88                ARCONTROLLER_DICTIONARY_KEY_JUMPINGSUMO_NETWORKSTATE_WIFIAUTHCHANNELLISTCHANGED_IN_OR_OUT
                0x00000000003ccb90                ARCONTROLLER_DICTIONARY_KEY_JUMPINGSUMO_NETWORKSTATE_WIFIAUTHCHANNELLISTCHANGED_CHANNEL
                0x00000000003ccb98                ARCONTROLLER_DICTIONARY_KEY_JUMPINGSUMO_NETWORKSTATE_WIFIAUTHCHANNELLISTCHANGED_BAND
                0x00000000003ccba0                ARCONTROLLER_DICTIONARY_KEY_JUMPINGSUMO_NETWORKSTATE_WIFISCANLISTCHANGED_CHANNEL
                0x00000000003ccba8                ARCONTROLLER_DICTIONARY_KEY_JUMPINGSUMO_NETWORKSTATE_WIFISCANLISTCHANGED_BAND
                0x00000000003ccbb0                ARCONTROLLER_DICTIONARY_KEY_JUMPINGSUMO_NETWORKSTATE_WIFISCANLISTCHANGED_RSSI
                0x00000000003ccbb8                ARCONTROLLER_DICTIONARY_KEY_JUMPINGSUMO_NETWORKSTATE_WIFISCANLISTCHANGED_SSID
                0x00000000003ccbc0                ARCONTROLLER_DICTIONARY_KEY_JUMPINGSUMO_NETWORKSETTINGSSTATE_WIFISELECTIONCHANGED_CHANNEL
                0x00000000003ccbc8                ARCONTROLLER_DICTIONARY_KEY_JUMPINGSUMO_NETWORKSETTINGSSTATE_WIFISELECTIONCHANGED_BAND
                0x00000000003ccbd0                ARCONTROLLER_DICTIONARY_KEY_JUMPINGSUMO_NETWORKSETTINGSSTATE_WIFISELECTIONCHANGED_TYPE
                0x00000000003ccbd8                ARCONTROLLER_DICTIONARY_KEY_JUMPINGSUMO_MEDIARECORDEVENT_VIDEOEVENTCHANGED_ERROR
                0x00000000003ccbe0                ARCONTROLLER_DICTIONARY_KEY_JUMPINGSUMO_MEDIARECORDEVENT_VIDEOEVENTCHANGED_EVENT
                0x00000000003ccbe8                ARCONTROLLER_DICTIONARY_KEY_JUMPINGSUMO_MEDIARECORDEVENT_PICTUREEVENTCHANGED_ERROR
                0x00000000003ccbf0                ARCONTROLLER_DICTIONARY_KEY_JUMPINGSUMO_MEDIARECORDEVENT_PICTUREEVENTCHANGED_EVENT
                0x00000000003ccbf8                ARCONTROLLER_DICTIONARY_KEY_JUMPINGSUMO_MEDIARECORDSTATE_VIDEOSTATECHANGEDV2_ERROR
                0x00000000003ccc00                ARCONTROLLER_DICTIONARY_KEY_JUMPINGSUMO_MEDIARECORDSTATE_VIDEOSTATECHANGEDV2_STATE
                0x00000000003ccc08                ARCONTROLLER_DICTIONARY_KEY_JUMPINGSUMO_MEDIARECORDSTATE_PICTURESTATECHANGEDV2_ERROR
                0x00000000003ccc10                ARCONTROLLER_DICTIONARY_KEY_JUMPINGSUMO_MEDIARECORDSTATE_PICTURESTATECHANGEDV2_STATE
                0x00000000003ccc18                ARCONTROLLER_DICTIONARY_KEY_JUMPINGSUMO_MEDIARECORDSTATE_VIDEOSTATECHANGED_MASS_STORAGE_ID
                0x00000000003ccc20                ARCONTROLLER_DICTIONARY_KEY_JUMPINGSUMO_MEDIARECORDSTATE_VIDEOSTATECHANGED_STATE
                0x00000000003ccc28                ARCONTROLLER_DICTIONARY_KEY_JUMPINGSUMO_MEDIARECORDSTATE_PICTURESTATECHANGED_MASS_STORAGE_ID
                0x00000000003ccc30                ARCONTROLLER_DICTIONARY_KEY_JUMPINGSUMO_MEDIARECORDSTATE_PICTURESTATECHANGED_STATE
                0x00000000003ccc38                ARCONTROLLER_DICTIONARY_KEY_JUMPINGSUMO_SETTINGSSTATE_PRODUCTGPSVERSIONCHANGED_HARDWARE
                0x00000000003ccc40                ARCONTROLLER_DICTIONARY_KEY_JUMPINGSUMO_SETTINGSSTATE_PRODUCTGPSVERSIONCHANGED_SOFTWARE
                0x00000000003ccc48                ARCONTROLLER_DICTIONARY_KEY_JUMPINGSUMO_ANIMATIONSSTATE_JUMPMOTORPROBLEMCHANGED_ERROR
                0x00000000003ccc50                ARCONTROLLER_DICTIONARY_KEY_JUMPINGSUMO_ANIMATIONSSTATE_JUMPTYPECHANGED_STATE
                0x00000000003ccc58                ARCONTROLLER_DICTIONARY_KEY_JUMPINGSUMO_ANIMATIONSSTATE_JUMPLOADCHANGED_STATE
                0x00000000003ccc60                ARCONTROLLER_DICTIONARY_KEY_JUMPINGSUMO_PILOTINGSTATE_SPEEDCHANGED_REALSPEED
                0x00000000003ccc68                ARCONTROLLER_DICTIONARY_KEY_JUMPINGSUMO_PILOTINGSTATE_SPEEDCHANGED_SPEED
                0x00000000003ccc70                ARCONTROLLER_DICTIONARY_KEY_JUMPINGSUMO_PILOTINGSTATE_ALERTSTATECHANGED_STATE
                0x00000000003ccc78                ARCONTROLLER_DICTIONARY_KEY_JUMPINGSUMO_PILOTINGSTATE_POSTURECHANGED_STATE
                0x00000000003ccc80                ARCONTROLLER_DICTIONARY_KEY_DRONE_MANAGER_CONNECTIONREFUSED_NAME
                0x00000000003ccc88                ARCONTROLLER_DICTIONARY_KEY_DRONE_MANAGER_CONNECTIONREFUSED_MODEL
                0x00000000003ccc90                ARCONTROLLER_DICTIONARY_KEY_DRONE_MANAGER_CONNECTIONREFUSED_SERIAL
                0x00000000003ccc98                ARCONTROLLER_DICTIONARY_KEY_DRONE_MANAGER_AUTHENTICATIONFAILED_NAME
                0x00000000003ccca0                ARCONTROLLER_DICTIONARY_KEY_DRONE_MANAGER_AUTHENTICATIONFAILED_MODEL
                0x00000000003ccca8                ARCONTROLLER_DICTIONARY_KEY_DRONE_MANAGER_AUTHENTICATIONFAILED_SERIAL
                0x00000000003cccb0                ARCONTROLLER_DICTIONARY_KEY_DRONE_MANAGER_CONNECTIONSTATE_NAME
                0x00000000003cccb8                ARCONTROLLER_DICTIONARY_KEY_DRONE_MANAGER_CONNECTIONSTATE_MODEL
                0x00000000003cccc0                ARCONTROLLER_DICTIONARY_KEY_DRONE_MANAGER_CONNECTIONSTATE_SERIAL
                0x00000000003cccc8                ARCONTROLLER_DICTIONARY_KEY_DRONE_MANAGER_CONNECTIONSTATE_STATE
                0x00000000003cccd0                ARCONTROLLER_DICTIONARY_KEY_DRONE_MANAGER_DRONELISTITEM_RSSI
                0x00000000003cccd8                ARCONTROLLER_DICTIONARY_KEY_DRONE_MANAGER_DRONELISTITEM_HAS_SAVED_KEY
                0x00000000003ccce0                ARCONTROLLER_DICTIONARY_KEY_DRONE_MANAGER_DRONELISTITEM_SECURITY
                0x00000000003ccce8                ARCONTROLLER_DICTIONARY_KEY_DRONE_MANAGER_DRONELISTITEM_VISIBLE
                0x00000000003cccf0                ARCONTROLLER_DICTIONARY_KEY_DRONE_MANAGER_DRONELISTITEM_ACTIVE
                0x00000000003cccf8                ARCONTROLLER_DICTIONARY_KEY_DRONE_MANAGER_DRONELISTITEM_CONNECTION_ORDER
                0x00000000003ccd00                ARCONTROLLER_DICTIONARY_KEY_DRONE_MANAGER_DRONELISTITEM_NAME
                0x00000000003ccd08                ARCONTROLLER_DICTIONARY_KEY_DRONE_MANAGER_DRONELISTITEM_MODEL
                0x00000000003ccd10                ARCONTROLLER_DICTIONARY_KEY_DRONE_MANAGER_DRONELISTITEM_SERIAL
                0x00000000003ccd18                ARCONTROLLER_DICTIONARY_KEY_DEBUG_SETTINGSLIST_VALUE
                0x00000000003ccd20                ARCONTROLLER_DICTIONARY_KEY_DEBUG_SETTINGSLIST_ID
                0x00000000003ccd28                ARCONTROLLER_DICTIONARY_KEY_DEBUG_SETTINGSINFO_VALUE
                0x00000000003ccd30                ARCONTROLLER_DICTIONARY_KEY_DEBUG_SETTINGSINFO_RANGE_STEP
                0x00000000003ccd38                ARCONTROLLER_DICTIONARY_KEY_DEBUG_SETTINGSINFO_RANGE_MAX
                0x00000000003ccd40                ARCONTROLLER_DICTIONARY_KEY_DEBUG_SETTINGSINFO_RANGE_MIN
                0x00000000003ccd48                ARCONTROLLER_DICTIONARY_KEY_DEBUG_SETTINGSINFO_MODE
                0x00000000003ccd50                ARCONTROLLER_DICTIONARY_KEY_DEBUG_SETTINGSINFO_TYPE
                0x00000000003ccd58                ARCONTROLLER_DICTIONARY_KEY_DEBUG_SETTINGSINFO_LABEL
                0x00000000003ccd60                ARCONTROLLER_DICTIONARY_KEY_DEBUG_SETTINGSINFO_ID
                0x00000000003ccd68                ARCONTROLLER_DICTIONARY_KEY_DEBUG_SETTINGSINFO_LISTFLAGS
                0x00000000003ccd70                ARCONTROLLER_DICTIONARY_KEY_COMMON_RUNSTATE_RUNIDCHANGED_RUNID
                0x00000000003ccd78                ARCONTROLLER_DICTIONARY_KEY_COMMON_CHARGERSTATE_CHARGINGINFO_FULLCHARGINGTIME
                0x00000000003ccd80                ARCONTROLLER_DICTIONARY_KEY_COMMON_CHARGERSTATE_CHARGINGINFO_INTENSITY
                0x00000000003ccd88                ARCONTROLLER_DICTIONARY_KEY_COMMON_CHARGERSTATE_CHARGINGINFO_RATE
                0x00000000003ccd90                ARCONTROLLER_DICTIONARY_KEY_COMMON_CHARGERSTATE_CHARGINGINFO_PHASE
                0x00000000003ccd98                ARCONTROLLER_DICTIONARY_KEY_COMMON_CHARGERSTATE_LASTCHARGERATECHANGED_RATE
                0x00000000003ccda0                ARCONTROLLER_DICTIONARY_KEY_COMMON_CHARGERSTATE_CURRENTCHARGESTATECHANGED_PHASE
                0x00000000003ccda8                ARCONTROLLER_DICTIONARY_KEY_COMMON_CHARGERSTATE_CURRENTCHARGESTATECHANGED_STATUS
                0x00000000003ccdb0                ARCONTROLLER_DICTIONARY_KEY_COMMON_CHARGERSTATE_MAXCHARGERATECHANGED_RATE
                0x00000000003ccdb8                ARCONTROLLER_DICTIONARY_KEY_COMMON_ACCESSORYSTATE_ACCESSORYCONFIGMODIFICATIONENABLED_ENABLED
                0x00000000003ccdc0                ARCONTROLLER_DICTIONARY_KEY_COMMON_ACCESSORYSTATE_ACCESSORYCONFIGCHANGED_ERROR
                0x00000000003ccdc8                ARCONTROLLER_DICTIONARY_KEY_COMMON_ACCESSORYSTATE_ACCESSORYCONFIGCHANGED_NEWACCESSORY
                0x00000000003ccdd0                ARCONTROLLER_DICTIONARY_KEY_COMMON_ACCESSORYSTATE_SUPPORTEDACCESSORIESLISTCHANGED_ACCESSORY
                0x00000000003ccdd8                ARCONTROLLER_DICTIONARY_KEY_COMMON_ANIMATIONSSTATE_LIST_ERROR
                0x00000000003ccde0                ARCONTROLLER_DICTIONARY_KEY_COMMON_ANIMATIONSSTATE_LIST_STATE
                0x00000000003ccde8                ARCONTROLLER_DICTIONARY_KEY_COMMON_ANIMATIONSSTATE_LIST_ANIM
                0x00000000003ccdf0                ARCONTROLLER_DICTIONARY_KEY_COMMON_HEADLIGHTSSTATE_INTENSITYCHANGED_RIGHT
                0x00000000003ccdf8                ARCONTROLLER_DICTIONARY_KEY_COMMON_HEADLIGHTSSTATE_INTENSITYCHANGED_LEFT
                0x00000000003cce00                ARCONTROLLER_DICTIONARY_KEY_COMMON_AUDIOSTATE_AUDIOSTREAMINGRUNNING_RUNNING
                0x00000000003cce08                ARCONTROLLER_DICTIONARY_KEY_COMMON_ARLIBSVERSIONSSTATE_DEVICELIBARCOMMANDSVERSION_VERSION
                0x00000000003cce10                ARCONTROLLER_DICTIONARY_KEY_COMMON_ARLIBSVERSIONSSTATE_SKYCONTROLLERLIBARCOMMANDSVERSION_VERSION
                0x00000000003cce18                ARCONTROLLER_DICTIONARY_KEY_COMMON_ARLIBSVERSIONSSTATE_CONTROLLERLIBARCOMMANDSVERSION_VERSION
                0x00000000003cce20                ARCONTROLLER_DICTIONARY_KEY_COMMON_FLIGHTPLANSTATE_LOCKSTATECHANGED_LOCKSTATE
                0x00000000003cce28                ARCONTROLLER_DICTIONARY_KEY_COMMON_FLIGHTPLANSTATE_COMPONENTSTATELISTCHANGED_STATE
                0x00000000003cce30                ARCONTROLLER_DICTIONARY_KEY_COMMON_FLIGHTPLANSTATE_COMPONENTSTATELISTCHANGED_COMPONENT
                0x00000000003cce38                ARCONTROLLER_DICTIONARY_KEY_COMMON_FLIGHTPLANSTATE_AVAILABILITYSTATECHANGED_AVAILABILITYSTATE
                0x00000000003cce40                ARCONTROLLER_DICTIONARY_KEY_COMMON_CAMERASETTINGSSTATE_CAMERASETTINGSCHANGED_TILTMIN
                0x00000000003cce48                ARCONTROLLER_DICTIONARY_KEY_COMMON_CAMERASETTINGSSTATE_CAMERASETTINGSCHANGED_TILTMAX
                0x00000000003cce50                ARCONTROLLER_DICTIONARY_KEY_COMMON_CAMERASETTINGSSTATE_CAMERASETTINGSCHANGED_PANMIN
                0x00000000003cce58                ARCONTROLLER_DICTIONARY_KEY_COMMON_CAMERASETTINGSSTATE_CAMERASETTINGSCHANGED_PANMAX
                0x00000000003cce60                ARCONTROLLER_DICTIONARY_KEY_COMMON_CAMERASETTINGSSTATE_CAMERASETTINGSCHANGED_FOV
                0x00000000003cce68                ARCONTROLLER_DICTIONARY_KEY_COMMON_CALIBRATIONSTATE_PITOTCALIBRATIONSTATECHANGED_LASTERROR
                0x00000000003cce70                ARCONTROLLER_DICTIONARY_KEY_COMMON_CALIBRATIONSTATE_PITOTCALIBRATIONSTATECHANGED_STATE
                0x00000000003cce78                ARCONTROLLER_DICTIONARY_KEY_COMMON_CALIBRATIONSTATE_MAGNETOCALIBRATIONSTARTEDCHANGED_STARTED
                0x00000000003cce80                ARCONTROLLER_DICTIONARY_KEY_COMMON_CALIBRATIONSTATE_MAGNETOCALIBRATIONAXISTOCALIBRATECHANGED_AXIS
                0x00000000003cce88                ARCONTROLLER_DICTIONARY_KEY_COMMON_CALIBRATIONSTATE_MAGNETOCALIBRATIONREQUIREDSTATE_REQUIRED
                0x00000000003cce90                ARCONTROLLER_DICTIONARY_KEY_COMMON_CALIBRATIONSTATE_MAGNETOCALIBRATIONSTATECHANGED_CALIBRATIONFAILED
                0x00000000003cce98                ARCONTROLLER_DICTIONARY_KEY_COMMON_CALIBRATIONSTATE_MAGNETOCALIBRATIONSTATECHANGED_ZAXISCALIBRATION
                0x00000000003ccea0                ARCONTROLLER_DICTIONARY_KEY_COMMON_CALIBRATIONSTATE_MAGNETOCALIBRATIONSTATECHANGED_YAXISCALIBRATION
                0x00000000003ccea8                ARCONTROLLER_DICTIONARY_KEY_COMMON_CALIBRATIONSTATE_MAGNETOCALIBRATIONSTATECHANGED_XAXISCALIBRATION
                0x00000000003cceb0                ARCONTROLLER_DICTIONARY_KEY_COMMON_MAVLINKSTATE_MAVLINKPLAYERRORSTATECHANGED_ERROR
                0x00000000003cceb8                ARCONTROLLER_DICTIONARY_KEY_COMMON_MAVLINKSTATE_MAVLINKFILEPLAYINGSTATECHANGED_TYPE
                0x00000000003ccec0                ARCONTROLLER_DICTIONARY_KEY_COMMON_MAVLINKSTATE_MAVLINKFILEPLAYINGSTATECHANGED_FILEPATH
                0x00000000003ccec8                ARCONTROLLER_DICTIONARY_KEY_COMMON_MAVLINKSTATE_MAVLINKFILEPLAYINGSTATECHANGED_STATE
                0x00000000003cced0                ARCONTROLLER_DICTIONARY_KEY_COMMON_WIFISETTINGSSTATE_OUTDOORSETTINGSCHANGED_OUTDOOR
                0x00000000003cced8                ARCONTROLLER_DICTIONARY_KEY_COMMON_OVERHEATSTATE_OVERHEATREGULATIONCHANGED_REGULATIONTYPE
                0x00000000003ccee0                ARCONTROLLER_DICTIONARY_KEY_COMMON_COMMONSTATE_MASSSTORAGECONTENTFORCURRENTRUN_NBRAWPHOTOS
                0x00000000003ccee8                ARCONTROLLER_DICTIONARY_KEY_COMMON_COMMONSTATE_MASSSTORAGECONTENTFORCURRENTRUN_NBVIDEOS
                0x00000000003ccef0                ARCONTROLLER_DICTIONARY_KEY_COMMON_COMMONSTATE_MASSSTORAGECONTENTFORCURRENTRUN_NBPHOTOS
                0x00000000003ccef8                ARCONTROLLER_DICTIONARY_KEY_COMMON_COMMONSTATE_MASSSTORAGECONTENTFORCURRENTRUN_MASS_STORAGE_ID
                0x00000000003ccf00                ARCONTROLLER_DICTIONARY_KEY_COMMON_COMMONSTATE_MASSSTORAGECONTENT_NBRAWPHOTOS
                0x00000000003ccf08                ARCONTROLLER_DICTIONARY_KEY_COMMON_COMMONSTATE_MASSSTORAGECONTENT_NBCRASHLOGS
                0x00000000003ccf10                ARCONTROLLER_DICTIONARY_KEY_COMMON_COMMONSTATE_MASSSTORAGECONTENT_NBPUDS
                0x00000000003ccf18                ARCONTROLLER_DICTIONARY_KEY_COMMON_COMMONSTATE_MASSSTORAGECONTENT_NBVIDEOS
                0x00000000003ccf20                ARCONTROLLER_DICTIONARY_KEY_COMMON_COMMONSTATE_MASSSTORAGECONTENT_NBPHOTOS
                0x00000000003ccf28                ARCONTROLLER_DICTIONARY_KEY_COMMON_COMMONSTATE_MASSSTORAGECONTENT_MASS_STORAGE_ID
                0x00000000003ccf30                ARCONTROLLER_DICTIONARY_KEY_COMMON_COMMONSTATE_DEPRECATEDMASSSTORAGECONTENTCHANGED_NBCRASHLOGS
                0x00000000003ccf38                ARCONTROLLER_DICTIONARY_KEY_COMMON_COMMONSTATE_DEPRECATEDMASSSTORAGECONTENTCHANGED_NBPUDS
                0x00000000003ccf40                ARCONTROLLER_DICTIONARY_KEY_COMMON_COMMONSTATE_DEPRECATEDMASSSTORAGECONTENTCHANGED_NBVIDEOS
                0x00000000003ccf48                ARCONTROLLER_DICTIONARY_KEY_COMMON_COMMONSTATE_DEPRECATEDMASSSTORAGECONTENTCHANGED_NBPHOTOS
                0x00000000003ccf50                ARCONTROLLER_DICTIONARY_KEY_COMMON_COMMONSTATE_DEPRECATEDMASSSTORAGECONTENTCHANGED_MASS_STORAGE_ID
                0x00000000003ccf58                ARCONTROLLER_DICTIONARY_KEY_COMMON_COMMONSTATE_COUNTRYLISTKNOWN_COUNTRYCODES
                0x00000000003ccf60                ARCONTROLLER_DICTIONARY_KEY_COMMON_COMMONSTATE_COUNTRYLISTKNOWN_LISTFLAGS
                0x00000000003ccf68                ARCONTROLLER_DICTIONARY_KEY_COMMON_COMMONSTATE_PRODUCTMODEL_MODEL
                0x00000000003ccf70                ARCONTROLLER_DICTIONARY_KEY_COMMON_COMMONSTATE_SENSORSSTATESLISTCHANGED_SENSORSTATE
                0x00000000003ccf78                ARCONTROLLER_DICTIONARY_KEY_COMMON_COMMONSTATE_SENSORSSTATESLISTCHANGED_SENSORNAME
                0x00000000003ccf80                ARCONTROLLER_DICTIONARY_KEY_COMMON_COMMONSTATE_WIFISIGNALCHANGED_RSSI
                0x00000000003ccf88                ARCONTROLLER_DICTIONARY_KEY_COMMON_COMMONSTATE_MASSSTORAGEINFOREMAININGLISTCHANGED_PHOTO_REMAINING
                0x00000000003ccf90                ARCONTROLLER_DICTIONARY_KEY_COMMON_COMMONSTATE_MASSSTORAGEINFOREMAININGLISTCHANGED_REC_TIME
                0x00000000003ccf98                ARCONTROLLER_DICTIONARY_KEY_COMMON_COMMONSTATE_MASSSTORAGEINFOREMAININGLISTCHANGED_FREE_SPACE
                0x00000000003ccfa0                ARCONTROLLER_DICTIONARY_KEY_COMMON_COMMONSTATE_CURRENTTIMECHANGED_TIME
                0x00000000003ccfa8                ARCONTROLLER_DICTIONARY_KEY_COMMON_COMMONSTATE_CURRENTDATECHANGED_DATE
                0x00000000003ccfb0                ARCONTROLLER_DICTIONARY_KEY_COMMON_COMMONSTATE_MASSSTORAGEINFOSTATELISTCHANGED_INTERNAL
                0x00000000003ccfb8                ARCONTROLLER_DICTIONARY_KEY_COMMON_COMMONSTATE_MASSSTORAGEINFOSTATELISTCHANGED_FULL
                0x00000000003ccfc0                ARCONTROLLER_DICTIONARY_KEY_COMMON_COMMONSTATE_MASSSTORAGEINFOSTATELISTCHANGED_PLUGGED
                0x00000000003ccfc8                ARCONTROLLER_DICTIONARY_KEY_COMMON_COMMONSTATE_MASSSTORAGEINFOSTATELISTCHANGED_USED_SIZE
                0x00000000003ccfd0                ARCONTROLLER_DICTIONARY_KEY_COMMON_COMMONSTATE_MASSSTORAGEINFOSTATELISTCHANGED_SIZE
                0x00000000003ccfd8                ARCONTROLLER_DICTIONARY_KEY_COMMON_COMMONSTATE_MASSSTORAGEINFOSTATELISTCHANGED_MASS_STORAGE_ID
                0x00000000003ccfe0                ARCONTROLLER_DICTIONARY_KEY_COMMON_COMMONSTATE_MASSSTORAGESTATELISTCHANGED_NAME
                0x00000000003ccfe8                ARCONTROLLER_DICTIONARY_KEY_COMMON_COMMONSTATE_MASSSTORAGESTATELISTCHANGED_MASS_STORAGE_ID
                0x00000000003ccff0                ARCONTROLLER_DICTIONARY_KEY_COMMON_COMMONSTATE_BATTERYSTATECHANGED_PERCENT
                0x00000000003ccff8                ARCONTROLLER_DICTIONARY_KEY_COMMON_SETTINGSSTATE_AUTOCOUNTRYCHANGED_AUTOMATIC
                0x00000000003cd000                ARCONTROLLER_DICTIONARY_KEY_COMMON_SETTINGSSTATE_COUNTRYCHANGED_CODE
                0x00000000003cd008                ARCONTROLLER_DICTIONARY_KEY_COMMON_SETTINGSSTATE_PRODUCTSERIALLOWCHANGED_LOW
                0x00000000003cd010                ARCONTROLLER_DICTIONARY_KEY_COMMON_SETTINGSSTATE_PRODUCTSERIALHIGHCHANGED_HIGH
                0x00000000003cd018                ARCONTROLLER_DICTIONARY_KEY_COMMON_SETTINGSSTATE_PRODUCTVERSIONCHANGED_HARDWARE
                0x00000000003cd020                ARCONTROLLER_DICTIONARY_KEY_COMMON_SETTINGSSTATE_PRODUCTVERSIONCHANGED_SOFTWARE
                0x00000000003cd028                ARCONTROLLER_DICTIONARY_KEY_COMMON_SETTINGSSTATE_PRODUCTNAMECHANGED_NAME
                0x00000000003cd030                ARCONTROLLER_DICTIONARY_KEY_COMMON_NETWORKEVENT_DISCONNECTION_CAUSE
                0x00000000003cd038                ARCONTROLLER_DICTIONARY_KEY_ARDRONE3_PROSTATE_FEATURES_FEATURES
                0x00000000003cd040                ARCONTROLLER_DICTIONARY_KEY_ARDRONE3_GPSSTATE_HOMETYPECHOSENCHANGED_TYPE
                0x00000000003cd048                ARCONTROLLER_DICTIONARY_KEY_ARDRONE3_GPSSTATE_HOMETYPEAVAILABILITYCHANGED_AVAILABLE
                0x00000000003cd050                ARCONTROLLER_DICTIONARY_KEY_ARDRONE3_GPSSTATE_HOMETYPEAVAILABILITYCHANGED_TYPE
                0x00000000003cd058                ARCONTROLLER_DICTIONARY_KEY_ARDRONE3_GPSSTATE_NUMBEROFSATELLITECHANGED_NUMBEROFSATELLITE
                0x00000000003cd060                ARCONTROLLER_DICTIONARY_KEY_ARDRONE3_ANTIFLICKERINGSTATE_MODECHANGED_MODE
                0x00000000003cd068                ARCONTROLLER_DICTIONARY_KEY_ARDRONE3_ANTIFLICKERINGSTATE_ELECTRICFREQUENCYCHANGED_FREQUENCY
                0x00000000003cd070                ARCONTROLLER_DICTIONARY_KEY_ARDRONE3_CAMERASTATE_DEFAULTCAMERAORIENTATION_PAN
                0x00000000003cd078                ARCONTROLLER_DICTIONARY_KEY_ARDRONE3_CAMERASTATE_DEFAULTCAMERAORIENTATION_TILT
                0x00000000003cd080                ARCONTROLLER_DICTIONARY_KEY_ARDRONE3_CAMERASTATE_ORIENTATION_PAN
                0x00000000003cd088                ARCONTROLLER_DICTIONARY_KEY_ARDRONE3_CAMERASTATE_ORIENTATION_TILT
                0x00000000003cd090                ARCONTROLLER_DICTIONARY_KEY_ARDRONE3_GPSSETTINGSSTATE_RETURNHOMEDELAYCHANGED_DELAY
                0x00000000003cd098                ARCONTROLLER_DICTIONARY_KEY_ARDRONE3_GPSSETTINGSSTATE_HOMETYPECHANGED_TYPE
                0x00000000003cd0a0                ARCONTROLLER_DICTIONARY_KEY_ARDRONE3_GPSSETTINGSSTATE_GPSUPDATESTATECHANGED_STATE
                0x00000000003cd0a8                ARCONTROLLER_DICTIONARY_KEY_ARDRONE3_GPSSETTINGSSTATE_GPSFIXSTATECHANGED_FIXED
                0x00000000003cd0b0                ARCONTROLLER_DICTIONARY_KEY_ARDRONE3_GPSSETTINGSSTATE_RESETHOMECHANGED_ALTITUDE
                0x00000000003cd0b8                ARCONTROLLER_DICTIONARY_KEY_ARDRONE3_GPSSETTINGSSTATE_RESETHOMECHANGED_LONGITUDE
                0x00000000003cd0c0                ARCONTROLLER_DICTIONARY_KEY_ARDRONE3_GPSSETTINGSSTATE_RESETHOMECHANGED_LATITUDE
                0x00000000003cd0c8                ARCONTROLLER_DICTIONARY_KEY_ARDRONE3_GPSSETTINGSSTATE_HOMECHANGED_ALTITUDE
                0x00000000003cd0d0                ARCONTROLLER_DICTIONARY_KEY_ARDRONE3_GPSSETTINGSSTATE_HOMECHANGED_LONGITUDE
                0x00000000003cd0d8                ARCONTROLLER_DICTIONARY_KEY_ARDRONE3_GPSSETTINGSSTATE_HOMECHANGED_LATITUDE
                0x00000000003cd0e0                ARCONTROLLER_DICTIONARY_KEY_ARDRONE3_MEDIASTREAMINGSTATE_VIDEOSTREAMMODECHANGED_MODE
                0x00000000003cd0e8                ARCONTROLLER_DICTIONARY_KEY_ARDRONE3_MEDIASTREAMINGSTATE_VIDEOENABLECHANGED_ENABLED
                0x00000000003cd0f0                ARCONTROLLER_DICTIONARY_KEY_ARDRONE3_PICTURESETTINGSSTATE_VIDEORESOLUTIONSCHANGED_TYPE
                0x00000000003cd0f8                ARCONTROLLER_DICTIONARY_KEY_ARDRONE3_PICTURESETTINGSSTATE_VIDEOFRAMERATECHANGED_FRAMERATE
                0x00000000003cd100                ARCONTROLLER_DICTIONARY_KEY_ARDRONE3_PICTURESETTINGSSTATE_VIDEORECORDINGMODECHANGED_MODE
                0x00000000003cd108                ARCONTROLLER_DICTIONARY_KEY_ARDRONE3_PICTURESETTINGSSTATE_VIDEOSTABILIZATIONMODECHANGED_MODE
                0x00000000003cd110                ARCONTROLLER_DICTIONARY_KEY_ARDRONE3_PICTURESETTINGSSTATE_VIDEOAUTORECORDCHANGED_MASS_STORAGE_ID
                0x00000000003cd118                ARCONTROLLER_DICTIONARY_KEY_ARDRONE3_PICTURESETTINGSSTATE_VIDEOAUTORECORDCHANGED_ENABLED
                0x00000000003cd120                ARCONTROLLER_DICTIONARY_KEY_ARDRONE3_PICTURESETTINGSSTATE_TIMELAPSECHANGED_MAXINTERVAL
                0x00000000003cd128                ARCONTROLLER_DICTIONARY_KEY_ARDRONE3_PICTURESETTINGSSTATE_TIMELAPSECHANGED_MININTERVAL
                0x00000000003cd130                ARCONTROLLER_DICTIONARY_KEY_ARDRONE3_PICTURESETTINGSSTATE_TIMELAPSECHANGED_INTERVAL
                0x00000000003cd138                ARCONTROLLER_DICTIONARY_KEY_ARDRONE3_PICTURESETTINGSSTATE_TIMELAPSECHANGED_ENABLED
                0x00000000003cd140                ARCONTROLLER_DICTIONARY_KEY_ARDRONE3_PICTURESETTINGSSTATE_SATURATIONCHANGED_MAX
                0x00000000003cd148                ARCONTROLLER_DICTIONARY_KEY_ARDRONE3_PICTURESETTINGSSTATE_SATURATIONCHANGED_MIN
                0x00000000003cd150                ARCONTROLLER_DICTIONARY_KEY_ARDRONE3_PICTURESETTINGSSTATE_SATURATIONCHANGED_VALUE
                0x00000000003cd158                ARCONTROLLER_DICTIONARY_KEY_ARDRONE3_PICTURESETTINGSSTATE_EXPOSITIONCHANGED_MAX
                0x00000000003cd160                ARCONTROLLER_DICTIONARY_KEY_ARDRONE3_PICTURESETTINGSSTATE_EXPOSITIONCHANGED_MIN
                0x00000000003cd168                ARCONTROLLER_DICTIONARY_KEY_ARDRONE3_PICTURESETTINGSSTATE_EXPOSITIONCHANGED_VALUE
                0x00000000003cd170                ARCONTROLLER_DICTIONARY_KEY_ARDRONE3_PICTURESETTINGSSTATE_AUTOWHITEBALANCECHANGED_TYPE
                0x00000000003cd178                ARCONTROLLER_DICTIONARY_KEY_ARDRONE3_PICTURESETTINGSSTATE_PICTUREFORMATCHANGED_TYPE
                0x00000000003cd180                ARCONTROLLER_DICTIONARY_KEY_ARDRONE3_SETTINGSSTATE_CPUID_ID
                0x00000000003cd188                ARCONTROLLER_DICTIONARY_KEY_ARDRONE3_SETTINGSSTATE_P7ID_SERIALID
                0x00000000003cd190                ARCONTROLLER_DICTIONARY_KEY_ARDRONE3_SETTINGSSTATE_MOTORERRORLASTERRORCHANGED_MOTORERROR
                0x00000000003cd198                ARCONTROLLER_DICTIONARY_KEY_ARDRONE3_SETTINGSSTATE_MOTORFLIGHTSSTATUSCHANGED_TOTALFLIGHTDURATION
                0x00000000003cd1a0                ARCONTROLLER_DICTIONARY_KEY_ARDRONE3_SETTINGSSTATE_MOTORFLIGHTSSTATUSCHANGED_LASTFLIGHTDURATION
                0x00000000003cd1a8                ARCONTROLLER_DICTIONARY_KEY_ARDRONE3_SETTINGSSTATE_MOTORFLIGHTSSTATUSCHANGED_NBFLIGHTS
                0x00000000003cd1b0                ARCONTROLLER_DICTIONARY_KEY_ARDRONE3_SETTINGSSTATE_MOTORSOFTWAREVERSIONCHANGED_VERSION
                0x00000000003cd1b8                ARCONTROLLER_DICTIONARY_KEY_ARDRONE3_SETTINGSSTATE_MOTORERRORSTATECHANGED_MOTORERROR
                0x00000000003cd1c0                ARCONTROLLER_DICTIONARY_KEY_ARDRONE3_SETTINGSSTATE_MOTORERRORSTATECHANGED_MOTORIDS
                0x00000000003cd1c8                ARCONTROLLER_DICTIONARY_KEY_ARDRONE3_SETTINGSSTATE_PRODUCTGPSVERSIONCHANGED_HARDWARE
                0x00000000003cd1d0                ARCONTROLLER_DICTIONARY_KEY_ARDRONE3_SETTINGSSTATE_PRODUCTGPSVERSIONCHANGED_SOFTWARE
                0x00000000003cd1d8                ARCONTROLLER_DICTIONARY_KEY_ARDRONE3_SETTINGSSTATE_PRODUCTMOTORVERSIONLISTCHANGED_HARDWARE
                0x00000000003cd1e0                ARCONTROLLER_DICTIONARY_KEY_ARDRONE3_SETTINGSSTATE_PRODUCTMOTORVERSIONLISTCHANGED_SOFTWARE
                0x00000000003cd1e8                ARCONTROLLER_DICTIONARY_KEY_ARDRONE3_SETTINGSSTATE_PRODUCTMOTORVERSIONLISTCHANGED_TYPE
                0x00000000003cd1f0                ARCONTROLLER_DICTIONARY_KEY_ARDRONE3_SETTINGSSTATE_PRODUCTMOTORVERSIONLISTCHANGED_MOTOR_NUMBER
                0x00000000003cd1f8                ARCONTROLLER_DICTIONARY_KEY_ARDRONE3_NETWORKSETTINGSSTATE_WIFISECURITY_KEYTYPE
                0x00000000003cd200                ARCONTROLLER_DICTIONARY_KEY_ARDRONE3_NETWORKSETTINGSSTATE_WIFISECURITY_KEY
                0x00000000003cd208                ARCONTROLLER_DICTIONARY_KEY_ARDRONE3_NETWORKSETTINGSSTATE_WIFISECURITY_TYPE
                0x00000000003cd210                ARCONTROLLER_DICTIONARY_KEY_ARDRONE3_NETWORKSETTINGSSTATE_WIFISECURITYCHANGED_TYPE
                0x00000000003cd218                ARCONTROLLER_DICTIONARY_KEY_ARDRONE3_NETWORKSETTINGSSTATE_WIFISELECTIONCHANGED_CHANNEL
                0x00000000003cd220                ARCONTROLLER_DICTIONARY_KEY_ARDRONE3_NETWORKSETTINGSSTATE_WIFISELECTIONCHANGED_BAND
                0x00000000003cd228                ARCONTROLLER_DICTIONARY_KEY_ARDRONE3_NETWORKSETTINGSSTATE_WIFISELECTIONCHANGED_TYPE
                0x00000000003cd230                ARCONTROLLER_DICTIONARY_KEY_ARDRONE3_SPEEDSETTINGSSTATE_MAXPITCHROLLROTATIONSPEEDCHANGED_MAX
                0x00000000003cd238                ARCONTROLLER_DICTIONARY_KEY_ARDRONE3_SPEEDSETTINGSSTATE_MAXPITCHROLLROTATIONSPEEDCHANGED_MIN
                0x00000000003cd240                ARCONTROLLER_DICTIONARY_KEY_ARDRONE3_SPEEDSETTINGSSTATE_MAXPITCHROLLROTATIONSPEEDCHANGED_CURRENT
                0x00000000003cd248                ARCONTROLLER_DICTIONARY_KEY_ARDRONE3_SPEEDSETTINGSSTATE_OUTDOORCHANGED_OUTDOOR
                0x00000000003cd250                ARCONTROLLER_DICTIONARY_KEY_ARDRONE3_SPEEDSETTINGSSTATE_HULLPROTECTIONCHANGED_PRESENT
                0x00000000003cd258                ARCONTROLLER_DICTIONARY_KEY_ARDRONE3_SPEEDSETTINGSSTATE_MAXROTATIONSPEEDCHANGED_MAX
                0x00000000003cd260                ARCONTROLLER_DICTIONARY_KEY_ARDRONE3_SPEEDSETTINGSSTATE_MAXROTATIONSPEEDCHANGED_MIN
                0x00000000003cd268                ARCONTROLLER_DICTIONARY_KEY_ARDRONE3_SPEEDSETTINGSSTATE_MAXROTATIONSPEEDCHANGED_CURRENT
                0x00000000003cd270                ARCONTROLLER_DICTIONARY_KEY_ARDRONE3_SPEEDSETTINGSSTATE_MAXVERTICALSPEEDCHANGED_MAX
                0x00000000003cd278                ARCONTROLLER_DICTIONARY_KEY_ARDRONE3_SPEEDSETTINGSSTATE_MAXVERTICALSPEEDCHANGED_MIN
                0x00000000003cd280                ARCONTROLLER_DICTIONARY_KEY_ARDRONE3_SPEEDSETTINGSSTATE_MAXVERTICALSPEEDCHANGED_CURRENT
                0x00000000003cd288                ARCONTROLLER_DICTIONARY_KEY_ARDRONE3_PILOTINGSETTINGSSTATE_PITCHMODECHANGED_VALUE
                0x00000000003cd290                ARCONTROLLER_DICTIONARY_KEY_ARDRONE3_PILOTINGSETTINGSSTATE_CIRCLINGALTITUDECHANGED_MAX
                0x00000000003cd298                ARCONTROLLER_DICTIONARY_KEY_ARDRONE3_PILOTINGSETTINGSSTATE_CIRCLINGALTITUDECHANGED_MIN
                0x00000000003cd2a0                ARCONTROLLER_DICTIONARY_KEY_ARDRONE3_PILOTINGSETTINGSSTATE_CIRCLINGALTITUDECHANGED_CURRENT
                0x00000000003cd2a8                ARCONTROLLER_DICTIONARY_KEY_ARDRONE3_PILOTINGSETTINGSSTATE_CIRCLINGRADIUSCHANGED_MAX
                0x00000000003cd2b0                ARCONTROLLER_DICTIONARY_KEY_ARDRONE3_PILOTINGSETTINGSSTATE_CIRCLINGRADIUSCHANGED_MIN
                0x00000000003cd2b8                ARCONTROLLER_DICTIONARY_KEY_ARDRONE3_PILOTINGSETTINGSSTATE_CIRCLINGRADIUSCHANGED_CURRENT
                0x00000000003cd2c0                ARCONTROLLER_DICTIONARY_KEY_ARDRONE3_PILOTINGSETTINGSSTATE_CIRCLINGDIRECTIONCHANGED_VALUE
                0x00000000003cd2c8                ARCONTROLLER_DICTIONARY_KEY_ARDRONE3_PILOTINGSETTINGSSTATE_MINALTITUDECHANGED_MAX
                0x00000000003cd2d0                ARCONTROLLER_DICTIONARY_KEY_ARDRONE3_PILOTINGSETTINGSSTATE_MINALTITUDECHANGED_MIN
                0x00000000003cd2d8                ARCONTROLLER_DICTIONARY_KEY_ARDRONE3_PILOTINGSETTINGSSTATE_MINALTITUDECHANGED_CURRENT
                0x00000000003cd2e0                ARCONTROLLER_DICTIONARY_KEY_ARDRONE3_PILOTINGSETTINGSSTATE_BANKEDTURNCHANGED_STATE
                0x00000000003cd2e8                ARCONTROLLER_DICTIONARY_KEY_ARDRONE3_PILOTINGSETTINGSSTATE_AUTONOMOUSFLIGHTMAXROTATIONSPEED_VALUE
                0x00000000003cd2f0                ARCONTROLLER_DICTIONARY_KEY_ARDRONE3_PILOTINGSETTINGSSTATE_AUTONOMOUSFLIGHTMAXVERTICALACCELERATION_VALUE
                0x00000000003cd2f8                ARCONTROLLER_DICTIONARY_KEY_ARDRONE3_PILOTINGSETTINGSSTATE_AUTONOMOUSFLIGHTMAXHORIZONTALACCELERATION_VALUE
                0x00000000003cd300                ARCONTROLLER_DICTIONARY_KEY_ARDRONE3_PILOTINGSETTINGSSTATE_AUTONOMOUSFLIGHTMAXVERTICALSPEED_VALUE
                0x00000000003cd308                ARCONTROLLER_DICTIONARY_KEY_ARDRONE3_PILOTINGSETTINGSSTATE_AUTONOMOUSFLIGHTMAXHORIZONTALSPEED_VALUE
                0x00000000003cd310                ARCONTROLLER_DICTIONARY_KEY_ARDRONE3_PILOTINGSETTINGSSTATE_NOFLYOVERMAXDISTANCECHANGED_SHOULDNOTFLYOVER
                0x00000000003cd318                ARCONTROLLER_DICTIONARY_KEY_ARDRONE3_PILOTINGSETTINGSSTATE_MAXDISTANCECHANGED_MAX
                0x00000000003cd320                ARCONTROLLER_DICTIONARY_KEY_ARDRONE3_PILOTINGSETTINGSSTATE_MAXDISTANCECHANGED_MIN
                0x00000000003cd328                ARCONTROLLER_DICTIONARY_KEY_ARDRONE3_PILOTINGSETTINGSSTATE_MAXDISTANCECHANGED_CURRENT
                0x00000000003cd330                ARCONTROLLER_DICTIONARY_KEY_ARDRONE3_PILOTINGSETTINGSSTATE_ABSOLUTCONTROLCHANGED_ON
                0x00000000003cd338                ARCONTROLLER_DICTIONARY_KEY_ARDRONE3_PILOTINGSETTINGSSTATE_MAXTILTCHANGED_MAX
                0x00000000003cd340                ARCONTROLLER_DICTIONARY_KEY_ARDRONE3_PILOTINGSETTINGSSTATE_MAXTILTCHANGED_MIN
                0x00000000003cd348                ARCONTROLLER_DICTIONARY_KEY_ARDRONE3_PILOTINGSETTINGSSTATE_MAXTILTCHANGED_CURRENT
                0x00000000003cd350                ARCONTROLLER_DICTIONARY_KEY_ARDRONE3_PILOTINGSETTINGSSTATE_MAXALTITUDECHANGED_MAX
                0x00000000003cd358                ARCONTROLLER_DICTIONARY_KEY_ARDRONE3_PILOTINGSETTINGSSTATE_MAXALTITUDECHANGED_MIN
                0x00000000003cd360                ARCONTROLLER_DICTIONARY_KEY_ARDRONE3_PILOTINGSETTINGSSTATE_MAXALTITUDECHANGED_CURRENT
                0x00000000003cd368                ARCONTROLLER_DICTIONARY_KEY_ARDRONE3_NETWORKSTATE_WIFIAUTHCHANNELLISTCHANGED_IN_OR_OUT
                0x00000000003cd370                ARCONTROLLER_DICTIONARY_KEY_ARDRONE3_NETWORKSTATE_WIFIAUTHCHANNELLISTCHANGED_CHANNEL
                0x00000000003cd378                ARCONTROLLER_DICTIONARY_KEY_ARDRONE3_NETWORKSTATE_WIFIAUTHCHANNELLISTCHANGED_BAND
                0x00000000003cd380                ARCONTROLLER_DICTIONARY_KEY_ARDRONE3_NETWORKSTATE_WIFISCANLISTCHANGED_CHANNEL
                0x00000000003cd388                ARCONTROLLER_DICTIONARY_KEY_ARDRONE3_NETWORKSTATE_WIFISCANLISTCHANGED_BAND
                0x00000000003cd390                ARCONTROLLER_DICTIONARY_KEY_ARDRONE3_NETWORKSTATE_WIFISCANLISTCHANGED_RSSI
                0x00000000003cd398                ARCONTROLLER_DICTIONARY_KEY_ARDRONE3_NETWORKSTATE_WIFISCANLISTCHANGED_SSID
                0x00000000003cd3a0                ARCONTROLLER_DICTIONARY_KEY_ARDRONE3_PILOTINGEVENT_MOVEBYEND_ERROR
                0x00000000003cd3a8                ARCONTROLLER_DICTIONARY_KEY_ARDRONE3_PILOTINGEVENT_MOVEBYEND_DPSI
                0x00000000003cd3b0                ARCONTROLLER_DICTIONARY_KEY_ARDRONE3_PILOTINGEVENT_MOVEBYEND_DZ
                0x00000000003cd3b8                ARCONTROLLER_DICTIONARY_KEY_ARDRONE3_PILOTINGEVENT_MOVEBYEND_DY
                0x00000000003cd3c0                ARCONTROLLER_DICTIONARY_KEY_ARDRONE3_PILOTINGEVENT_MOVEBYEND_DX
                0x00000000003cd3c8                ARCONTROLLER_DICTIONARY_KEY_ARDRONE3_PILOTINGSTATE_LANDINGSTATECHANGED_STATE
                0x00000000003cd3d0                ARCONTROLLER_DICTIONARY_KEY_ARDRONE3_PILOTINGSTATE_GPSLOCATIONCHANGED_ALTITUDE_ACCURACY
                0x00000000003cd3d8                ARCONTROLLER_DICTIONARY_KEY_ARDRONE3_PILOTINGSTATE_GPSLOCATIONCHANGED_LONGITUDE_ACCURACY
                0x00000000003cd3e0                ARCONTROLLER_DICTIONARY_KEY_ARDRONE3_PILOTINGSTATE_GPSLOCATIONCHANGED_LATITUDE_ACCURACY
                0x00000000003cd3e8                ARCONTROLLER_DICTIONARY_KEY_ARDRONE3_PILOTINGSTATE_GPSLOCATIONCHANGED_ALTITUDE
                0x00000000003cd3f0                ARCONTROLLER_DICTIONARY_KEY_ARDRONE3_PILOTINGSTATE_GPSLOCATIONCHANGED_LONGITUDE
                0x00000000003cd3f8                ARCONTROLLER_DICTIONARY_KEY_ARDRONE3_PILOTINGSTATE_GPSLOCATIONCHANGED_LATITUDE
                0x00000000003cd400                ARCONTROLLER_DICTIONARY_KEY_ARDRONE3_PILOTINGSTATE_ALTITUDECHANGED_ALTITUDE
                0x00000000003cd408                ARCONTROLLER_DICTIONARY_KEY_ARDRONE3_PILOTINGSTATE_AUTOTAKEOFFMODECHANGED_STATE
                0x00000000003cd410                ARCONTROLLER_DICTIONARY_KEY_ARDRONE3_PILOTINGSTATE_ATTITUDECHANGED_YAW
                0x00000000003cd418                ARCONTROLLER_DICTIONARY_KEY_ARDRONE3_PILOTINGSTATE_ATTITUDECHANGED_PITCH
                0x00000000003cd420                ARCONTROLLER_DICTIONARY_KEY_ARDRONE3_PILOTINGSTATE_ATTITUDECHANGED_ROLL
                0x00000000003cd428                ARCONTROLLER_DICTIONARY_KEY_ARDRONE3_PILOTINGSTATE_SPEEDCHANGED_SPEEDZ
                0x00000000003cd430                ARCONTROLLER_DICTIONARY_KEY_ARDRONE3_PILOTINGSTATE_SPEEDCHANGED_SPEEDY
                0x00000000003cd438                ARCONTROLLER_DICTIONARY_KEY_ARDRONE3_PILOTINGSTATE_SPEEDCHANGED_SPEEDX
                0x00000000003cd440                ARCONTROLLER_DICTIONARY_KEY_ARDRONE3_PILOTINGSTATE_POSITIONCHANGED_ALTITUDE
                0x00000000003cd448                ARCONTROLLER_DICTIONARY_KEY_ARDRONE3_PILOTINGSTATE_POSITIONCHANGED_LONGITUDE
                0x00000000003cd450                ARCONTROLLER_DICTIONARY_KEY_ARDRONE3_PILOTINGSTATE_POSITIONCHANGED_LATITUDE
                0x00000000003cd458                ARCONTROLLER_DICTIONARY_KEY_ARDRONE3_PILOTINGSTATE_NAVIGATEHOMESTATECHANGED_REASON
                0x00000000003cd460                ARCONTROLLER_DICTIONARY_KEY_ARDRONE3_PILOTINGSTATE_NAVIGATEHOMESTATECHANGED_STATE
                0x00000000003cd468                ARCONTROLLER_DICTIONARY_KEY_ARDRONE3_PILOTINGSTATE_ALERTSTATECHANGED_STATE
                0x00000000003cd470                ARCONTROLLER_DICTIONARY_KEY_ARDRONE3_PILOTINGSTATE_FLYINGSTATECHANGED_STATE
                0x00000000003cd478                ARCONTROLLER_DICTIONARY_KEY_ARDRONE3_MEDIARECORDEVENT_VIDEOEVENTCHANGED_ERROR
                0x00000000003cd480                ARCONTROLLER_DICTIONARY_KEY_ARDRONE3_MEDIARECORDEVENT_VIDEOEVENTCHANGED_EVENT
                0x00000000003cd488                ARCONTROLLER_DICTIONARY_KEY_ARDRONE3_MEDIARECORDEVENT_PICTUREEVENTCHANGED_ERROR
                0x00000000003cd490                ARCONTROLLER_DICTIONARY_KEY_ARDRONE3_MEDIARECORDEVENT_PICTUREEVENTCHANGED_EVENT
                0x00000000003cd498                ARCONTROLLER_DICTIONARY_KEY_ARDRONE3_MEDIARECORDSTATE_VIDEORESOLUTIONSTATE_RECORDING
                0x00000000003cd4a0                ARCONTROLLER_DICTIONARY_KEY_ARDRONE3_MEDIARECORDSTATE_VIDEORESOLUTIONSTATE_STREAMING
                0x00000000003cd4a8                ARCONTROLLER_DICTIONARY_KEY_ARDRONE3_MEDIARECORDSTATE_VIDEOSTATECHANGEDV2_ERROR
                0x00000000003cd4b0                ARCONTROLLER_DICTIONARY_KEY_ARDRONE3_MEDIARECORDSTATE_VIDEOSTATECHANGEDV2_STATE
                0x00000000003cd4b8                ARCONTROLLER_DICTIONARY_KEY_ARDRONE3_MEDIARECORDSTATE_PICTURESTATECHANGEDV2_ERROR
                0x00000000003cd4c0                ARCONTROLLER_DICTIONARY_KEY_ARDRONE3_MEDIARECORDSTATE_PICTURESTATECHANGEDV2_STATE
                0x00000000003cd4c8                ARCONTROLLER_DICTIONARY_KEY_ARDRONE3_MEDIARECORDSTATE_VIDEOSTATECHANGED_MASS_STORAGE_ID
                0x00000000003cd4d0                ARCONTROLLER_DICTIONARY_KEY_ARDRONE3_MEDIARECORDSTATE_VIDEOSTATECHANGED_STATE
                0x00000000003cd4d8                ARCONTROLLER_DICTIONARY_KEY_ARDRONE3_MEDIARECORDSTATE_PICTURESTATECHANGED_MASS_STORAGE_ID
                0x00000000003cd4e0                ARCONTROLLER_DICTIONARY_KEY_ARDRONE3_MEDIARECORDSTATE_PICTURESTATECHANGED_STATE

.tm_clone_table
                0x00000000003cd4e8        0x0
 .tm_clone_table
                0x00000000003cd4e8        0x0 /usr/lib/gcc/x86_64-linux-gnu/4.8/crtbeginS.o
 .tm_clone_table
                0x00000000003cd4e8        0x0 /usr/lib/gcc/x86_64-linux-gnu/4.8/crtendS.o

.data1
 *(.data1)
                0x00000000003cd4e8                _edata = .
                0x00000000003cd4e8                PROVIDE (edata, .)
                0x00000000003cd4e8                . = .
                0x00000000003cd4e8                __bss_start = .

.bss            0x00000000003cd4e8       0x10
 *(.dynbss)
 .dynbss        0x0000000000000000        0x0 /usr/lib/gcc/x86_64-linux-gnu/4.8/../../../x86_64-linux-gnu/crti.o
 *(.bss .bss.* .gnu.linkonce.b.*)
 .bss           0x00000000003cd4e8        0x1 /usr/lib/gcc/x86_64-linux-gnu/4.8/crtbeginS.o
 *fill*         0x00000000003cd4e9        0x7 
 .bss           0x00000000003cd4f0        0x8 /home/sunho/bebop_ws/devel/arsdk/out/arsdk-native/build/libARController/obj/Sources/ARCONTROLLER_Stream1.c.o
 *(COMMON)
                0x00000000003cd4f8                . = ALIGN ((. != 0x0)?0x8:0x1)

.lbss
 *(.dynlbss)
 *(.lbss .lbss.* .gnu.linkonce.lb.*)
 *(LARGE_COMMON)
                0x00000000003cd4f8                . = ALIGN (0x8)
                0x00000000003cd4f8                . = SEGMENT_START ("ldata-segment", .)

.lrodata
 *(.lrodata .lrodata.* .gnu.linkonce.lr.*)

.ldata          0x00000000007cd4f8        0x0
 *(.ldata .ldata.* .gnu.linkonce.l.*)
                0x00000000007cd4f8                . = ALIGN ((. != 0x0)?0x8:0x1)
                0x00000000007cd4f8                . = ALIGN (0x8)
                0x00000000007cd4f8                _end = .
                0x00000000007cd4f8                PROVIDE (end, .)
                0x00000000007cd4f8                . = DATA_SEGMENT_END (.)

.stab
 *(.stab)

.stabstr
 *(.stabstr)

.stab.excl
 *(.stab.excl)

.stab.exclstr
 *(.stab.exclstr)

.stab.index
 *(.stab.index)

.stab.indexstr
 *(.stab.indexstr)

.comment        0x0000000000000000       0x2b
 *(.comment)
 .comment       0x0000000000000000       0x2b /usr/lib/gcc/x86_64-linux-gnu/4.8/crtbeginS.o
                                         0x2c (size before relaxing)
 .comment       0x0000000000000000       0x2c /home/sunho/bebop_ws/devel/arsdk/out/arsdk-native/build/libARController/obj/Sources/ARCONTROLLER_Dictionary.c.o
 .comment       0x0000000000000000       0x2c /home/sunho/bebop_ws/devel/arsdk/out/arsdk-native/build/libARController/obj/Sources/ARCONTROLLER_Frame.c.o
 .comment       0x0000000000000000       0x2c /home/sunho/bebop_ws/devel/arsdk/out/arsdk-native/build/libARController/obj/Sources/ARCONTROLLER_Network.c.o
 .comment       0x0000000000000000       0x2c /home/sunho/bebop_ws/devel/arsdk/out/arsdk-native/build/libARController/obj/Sources/ARCONTROLLER_Stream.c.o
 .comment       0x0000000000000000       0x2c /home/sunho/bebop_ws/devel/arsdk/out/arsdk-native/build/libARController/obj/Sources/ARCONTROLLER_StreamPool.c.o
 .comment       0x0000000000000000       0x2c /home/sunho/bebop_ws/devel/arsdk/out/arsdk-native/build/libARController/obj/Sources/ARCONTROLLER_StreamQueue.c.o
 .comment       0x0000000000000000       0x2c /home/sunho/bebop_ws/devel/arsdk/out/arsdk-native/build/libARController/obj/Sources/ARCONTROLLER_Stream1.c.o
 .comment       0x0000000000000000       0x2c /home/sunho/bebop_ws/devel/arsdk/out/arsdk-native/build/libARController/obj/Sources/ARCONTROLLER_Stream2.c.o
 .comment       0x0000000000000000       0x2c /home/sunho/bebop_ws/devel/arsdk/out/arsdk-native/build/libARController/obj/Sources/ARCONTROLLER_StreamSender.c.o
 .comment       0x0000000000000000       0x2c /home/sunho/bebop_ws/devel/arsdk/out/arsdk-native/build/libARController/obj/gen/Sources/ARCONTROLLER_Device.c.o
 .comment       0x0000000000000000       0x2c /home/sunho/bebop_ws/devel/arsdk/out/arsdk-native/build/libARController/obj/gen/Sources/ARCONTROLLER_DICTIONARY_Key.c.o
 .comment       0x0000000000000000       0x2c /home/sunho/bebop_ws/devel/arsdk/out/arsdk-native/build/libARController/obj/gen/Sources/ARCONTROLLER_Error.c.o
 .comment       0x0000000000000000       0x2c /home/sunho/bebop_ws/devel/arsdk/out/arsdk-native/build/libARController/obj/gen/Sources/ARCONTROLLER_Feature.c.o
 .comment       0x0000000000000000       0x2c /usr/lib/gcc/x86_64-linux-gnu/4.8/crtendS.o

.debug
 *(.debug)

.line
 *(.line)

.debug_srcinfo
 *(.debug_srcinfo)

.debug_sfnames
 *(.debug_sfnames)

.debug_aranges  0x0000000000000000     0x48b0
 *(.debug_aranges)
 .debug_aranges
                0x0000000000000000       0xf0 /home/sunho/bebop_ws/devel/arsdk/out/arsdk-native/build/libARController/obj/Sources/ARCONTROLLER_Dictionary.c.o
 .debug_aranges
                0x00000000000000f0       0x70 /home/sunho/bebop_ws/devel/arsdk/out/arsdk-native/build/libARController/obj/Sources/ARCONTROLLER_Frame.c.o
 .debug_aranges
                0x0000000000000160      0x180 /home/sunho/bebop_ws/devel/arsdk/out/arsdk-native/build/libARController/obj/Sources/ARCONTROLLER_Network.c.o
 .debug_aranges
                0x00000000000002e0       0xc0 /home/sunho/bebop_ws/devel/arsdk/out/arsdk-native/build/libARController/obj/Sources/ARCONTROLLER_Stream.c.o
 .debug_aranges
                0x00000000000003a0       0x60 /home/sunho/bebop_ws/devel/arsdk/out/arsdk-native/build/libARController/obj/Sources/ARCONTROLLER_StreamPool.c.o
 .debug_aranges
                0x0000000000000400       0xc0 /home/sunho/bebop_ws/devel/arsdk/out/arsdk-native/build/libARController/obj/Sources/ARCONTROLLER_StreamQueue.c.o
 .debug_aranges
                0x00000000000004c0      0x120 /home/sunho/bebop_ws/devel/arsdk/out/arsdk-native/build/libARController/obj/Sources/ARCONTROLLER_Stream1.c.o
 .debug_aranges
                0x00000000000005e0      0x140 /home/sunho/bebop_ws/devel/arsdk/out/arsdk-native/build/libARController/obj/Sources/ARCONTROLLER_Stream2.c.o
 .debug_aranges
                0x0000000000000720       0x90 /home/sunho/bebop_ws/devel/arsdk/out/arsdk-native/build/libARController/obj/Sources/ARCONTROLLER_StreamSender.c.o
 .debug_aranges
                0x00000000000007b0      0x3d0 /home/sunho/bebop_ws/devel/arsdk/out/arsdk-native/build/libARController/obj/gen/Sources/ARCONTROLLER_Device.c.o
 .debug_aranges
                0x0000000000000b80       0x30 /home/sunho/bebop_ws/devel/arsdk/out/arsdk-native/build/libARController/obj/gen/Sources/ARCONTROLLER_DICTIONARY_Key.c.o
 .debug_aranges
                0x0000000000000bb0       0x30 /home/sunho/bebop_ws/devel/arsdk/out/arsdk-native/build/libARController/obj/gen/Sources/ARCONTROLLER_Error.c.o
 .debug_aranges
                0x0000000000000be0     0x3cd0 /home/sunho/bebop_ws/devel/arsdk/out/arsdk-native/build/libARController/obj/gen/Sources/ARCONTROLLER_Feature.c.o

.debug_pubnames
 *(.debug_pubnames)

.debug_info     0x0000000000000000   0x108f25
 *(.debug_info .gnu.linkonce.wi.*)
 .debug_info    0x0000000000000000     0x1c6b /home/sunho/bebop_ws/devel/arsdk/out/arsdk-native/build/libARController/obj/Sources/ARCONTROLLER_Dictionary.c.o
 .debug_info    0x0000000000001c6b      0x6f1 /home/sunho/bebop_ws/devel/arsdk/out/arsdk-native/build/libARController/obj/Sources/ARCONTROLLER_Frame.c.o
 .debug_info    0x000000000000235c     0x465a /home/sunho/bebop_ws/devel/arsdk/out/arsdk-native/build/libARController/obj/Sources/ARCONTROLLER_Network.c.o
 .debug_info    0x00000000000069b6     0x17f2 /home/sunho/bebop_ws/devel/arsdk/out/arsdk-native/build/libARController/obj/Sources/ARCONTROLLER_Stream.c.o
 .debug_info    0x00000000000081a8      0x76f /home/sunho/bebop_ws/devel/arsdk/out/arsdk-native/build/libARController/obj/Sources/ARCONTROLLER_StreamPool.c.o
 .debug_info    0x0000000000008917      0xff0 /home/sunho/bebop_ws/devel/arsdk/out/arsdk-native/build/libARController/obj/Sources/ARCONTROLLER_StreamQueue.c.o
 .debug_info    0x0000000000009907     0x2b24 /home/sunho/bebop_ws/devel/arsdk/out/arsdk-native/build/libARController/obj/Sources/ARCONTROLLER_Stream1.c.o
 .debug_info    0x000000000000c42b     0x35fd /home/sunho/bebop_ws/devel/arsdk/out/arsdk-native/build/libARController/obj/Sources/ARCONTROLLER_Stream2.c.o
 .debug_info    0x000000000000fa28     0x19ff /home/sunho/bebop_ws/devel/arsdk/out/arsdk-native/build/libARController/obj/Sources/ARCONTROLLER_StreamSender.c.o
 .debug_info    0x0000000000011427    0x14065 /home/sunho/bebop_ws/devel/arsdk/out/arsdk-native/build/libARController/obj/gen/Sources/ARCONTROLLER_Device.c.o
 .debug_info    0x000000000002548c      0xafe /home/sunho/bebop_ws/devel/arsdk/out/arsdk-native/build/libARController/obj/gen/Sources/ARCONTROLLER_DICTIONARY_Key.c.o
 .debug_info    0x0000000000025f8a      0x1a4 /home/sunho/bebop_ws/devel/arsdk/out/arsdk-native/build/libARController/obj/gen/Sources/ARCONTROLLER_Error.c.o
 .debug_info    0x000000000002612e    0xe2df7 /home/sunho/bebop_ws/devel/arsdk/out/arsdk-native/build/libARController/obj/gen/Sources/ARCONTROLLER_Feature.c.o

.debug_abbrev   0x0000000000000000     0x2996
 *(.debug_abbrev)
 .debug_abbrev  0x0000000000000000      0x35f /home/sunho/bebop_ws/devel/arsdk/out/arsdk-native/build/libARController/obj/Sources/ARCONTROLLER_Dictionary.c.o
 .debug_abbrev  0x000000000000035f      0x1c5 /home/sunho/bebop_ws/devel/arsdk/out/arsdk-native/build/libARController/obj/Sources/ARCONTROLLER_Frame.c.o
 .debug_abbrev  0x0000000000000524      0x42d /home/sunho/bebop_ws/devel/arsdk/out/arsdk-native/build/libARController/obj/Sources/ARCONTROLLER_Network.c.o
 .debug_abbrev  0x0000000000000951      0x2e5 /home/sunho/bebop_ws/devel/arsdk/out/arsdk-native/build/libARController/obj/Sources/ARCONTROLLER_Stream.c.o
 .debug_abbrev  0x0000000000000c36      0x1bb /home/sunho/bebop_ws/devel/arsdk/out/arsdk-native/build/libARController/obj/Sources/ARCONTROLLER_StreamPool.c.o
 .debug_abbrev  0x0000000000000df1      0x2df /home/sunho/bebop_ws/devel/arsdk/out/arsdk-native/build/libARController/obj/Sources/ARCONTROLLER_StreamQueue.c.o
 .debug_abbrev  0x00000000000010d0      0x424 /home/sunho/bebop_ws/devel/arsdk/out/arsdk-native/build/libARController/obj/Sources/ARCONTROLLER_Stream1.c.o
 .debug_abbrev  0x00000000000014f4      0x4ac /home/sunho/bebop_ws/devel/arsdk/out/arsdk-native/build/libARController/obj/Sources/ARCONTROLLER_Stream2.c.o
 .debug_abbrev  0x00000000000019a0      0x3c4 /home/sunho/bebop_ws/devel/arsdk/out/arsdk-native/build/libARController/obj/Sources/ARCONTROLLER_StreamSender.c.o
 .debug_abbrev  0x0000000000001d64      0x527 /home/sunho/bebop_ws/devel/arsdk/out/arsdk-native/build/libARController/obj/gen/Sources/ARCONTROLLER_Device.c.o
 .debug_abbrev  0x000000000000228b       0xff /home/sunho/bebop_ws/devel/arsdk/out/arsdk-native/build/libARController/obj/gen/Sources/ARCONTROLLER_DICTIONARY_Key.c.o
 .debug_abbrev  0x000000000000238a       0x7d /home/sunho/bebop_ws/devel/arsdk/out/arsdk-native/build/libARController/obj/gen/Sources/ARCONTROLLER_Error.c.o
 .debug_abbrev  0x0000000000002407      0x58f /home/sunho/bebop_ws/devel/arsdk/out/arsdk-native/build/libARController/obj/gen/Sources/ARCONTROLLER_Feature.c.o

.debug_line     0x0000000000000000    0x4c9fe
 *(.debug_line .debug_line.* .debug_line_end)
 .debug_line    0x0000000000000000      0x673 /home/sunho/bebop_ws/devel/arsdk/out/arsdk-native/build/libARController/obj/Sources/ARCONTROLLER_Dictionary.c.o
 .debug_line    0x0000000000000673      0x228 /home/sunho/bebop_ws/devel/arsdk/out/arsdk-native/build/libARController/obj/Sources/ARCONTROLLER_Frame.c.o
 .debug_line    0x000000000000089b      0xbb2 /home/sunho/bebop_ws/devel/arsdk/out/arsdk-native/build/libARController/obj/Sources/ARCONTROLLER_Network.c.o
 .debug_line    0x000000000000144d      0x54d /home/sunho/bebop_ws/devel/arsdk/out/arsdk-native/build/libARController/obj/Sources/ARCONTROLLER_Stream.c.o
 .debug_line    0x000000000000199a      0x281 /home/sunho/bebop_ws/devel/arsdk/out/arsdk-native/build/libARController/obj/Sources/ARCONTROLLER_StreamPool.c.o
 .debug_line    0x0000000000001c1b      0x3e7 /home/sunho/bebop_ws/devel/arsdk/out/arsdk-native/build/libARController/obj/Sources/ARCONTROLLER_StreamQueue.c.o
 .debug_line    0x0000000000002002      0x896 /home/sunho/bebop_ws/devel/arsdk/out/arsdk-native/build/libARController/obj/Sources/ARCONTROLLER_Stream1.c.o
 .debug_line    0x0000000000002898      0x979 /home/sunho/bebop_ws/devel/arsdk/out/arsdk-native/build/libARController/obj/Sources/ARCONTROLLER_Stream2.c.o
 .debug_line    0x0000000000003211      0x616 /home/sunho/bebop_ws/devel/arsdk/out/arsdk-native/build/libARController/obj/Sources/ARCONTROLLER_StreamSender.c.o
 .debug_line    0x0000000000003827     0x2388 /home/sunho/bebop_ws/devel/arsdk/out/arsdk-native/build/libARController/obj/gen/Sources/ARCONTROLLER_Device.c.o
 .debug_line    0x0000000000005baf      0x1a2 /home/sunho/bebop_ws/devel/arsdk/out/arsdk-native/build/libARController/obj/gen/Sources/ARCONTROLLER_DICTIONARY_Key.c.o
 .debug_line    0x0000000000005d51      0x243 /home/sunho/bebop_ws/devel/arsdk/out/arsdk-native/build/libARController/obj/gen/Sources/ARCONTROLLER_Error.c.o
 .debug_line    0x0000000000005f94    0x46a6a /home/sunho/bebop_ws/devel/arsdk/out/arsdk-native/build/libARController/obj/gen/Sources/ARCONTROLLER_Feature.c.o

.debug_frame
 *(.debug_frame)

.debug_str      0x0000000000000000    0x4aea8
 *(.debug_str)
 .debug_str     0x0000000000000000     0x63c9 /home/sunho/bebop_ws/devel/arsdk/out/arsdk-native/build/libARController/obj/Sources/ARCONTROLLER_Dictionary.c.o
                                       0x6486 (size before relaxing)
 .debug_str     0x00000000000063c9      0x151 /home/sunho/bebop_ws/devel/arsdk/out/arsdk-native/build/libARController/obj/Sources/ARCONTROLLER_Frame.c.o
                                        0xa08 (size before relaxing)
 .debug_str     0x000000000000651a     0x2fb6 /home/sunho/bebop_ws/devel/arsdk/out/arsdk-native/build/libARController/obj/Sources/ARCONTROLLER_Network.c.o
                                       0x39a8 (size before relaxing)
 .debug_str     0x00000000000094d0      0x292 /home/sunho/bebop_ws/devel/arsdk/out/arsdk-native/build/libARController/obj/Sources/ARCONTROLLER_Stream.c.o
                                       0x2623 (size before relaxing)
 .debug_str     0x0000000000009762       0xee /home/sunho/bebop_ws/devel/arsdk/out/arsdk-native/build/libARController/obj/Sources/ARCONTROLLER_StreamPool.c.o
                                        0xa4e (size before relaxing)
 .debug_str     0x0000000000009850      0x273 /home/sunho/bebop_ws/devel/arsdk/out/arsdk-native/build/libARController/obj/Sources/ARCONTROLLER_StreamQueue.c.o
                                        0xdd5 (size before relaxing)
 .debug_str     0x0000000000009ac3      0x616 /home/sunho/bebop_ws/devel/arsdk/out/arsdk-native/build/libARController/obj/Sources/ARCONTROLLER_Stream1.c.o
                                       0x20b8 (size before relaxing)
 .debug_str     0x000000000000a0d9      0x90f /home/sunho/bebop_ws/devel/arsdk/out/arsdk-native/build/libARController/obj/Sources/ARCONTROLLER_Stream2.c.o
                                       0x30bf (size before relaxing)
 .debug_str     0x000000000000a9e8      0x270 /home/sunho/bebop_ws/devel/arsdk/out/arsdk-native/build/libARController/obj/Sources/ARCONTROLLER_StreamSender.c.o
                                       0x1aa1 (size before relaxing)
 .debug_str     0x000000000000ac58     0xcb7d /home/sunho/bebop_ws/devel/arsdk/out/arsdk-native/build/libARController/obj/gen/Sources/ARCONTROLLER_Device.c.o
                                      0x14c4a (size before relaxing)
 .debug_str     0x00000000000177d5       0x5c /home/sunho/bebop_ws/devel/arsdk/out/arsdk-native/build/libARController/obj/gen/Sources/ARCONTROLLER_DICTIONARY_Key.c.o
                                       0x570d (size before relaxing)
 .debug_str     0x0000000000017831       0x48 /home/sunho/bebop_ws/devel/arsdk/out/arsdk-native/build/libARController/obj/gen/Sources/ARCONTROLLER_Error.c.o
                                        0x6af (size before relaxing)
 .debug_str     0x0000000000017879    0x3362f /home/sunho/bebop_ws/devel/arsdk/out/arsdk-native/build/libARController/obj/gen/Sources/ARCONTROLLER_Feature.c.o
                                      0x4782b (size before relaxing)

.debug_loc      0x0000000000000000   0x2a8cd6
 *(.debug_loc)
 .debug_loc     0x0000000000000000     0x4f08 /home/sunho/bebop_ws/devel/arsdk/out/arsdk-native/build/libARController/obj/Sources/ARCONTROLLER_Dictionary.c.o
 .debug_loc     0x0000000000004f08      0x44b /home/sunho/bebop_ws/devel/arsdk/out/arsdk-native/build/libARController/obj/Sources/ARCONTROLLER_Frame.c.o
 .debug_loc     0x0000000000005353     0x2bdf /home/sunho/bebop_ws/devel/arsdk/out/arsdk-native/build/libARController/obj/Sources/ARCONTROLLER_Network.c.o
 .debug_loc     0x0000000000007f32      0xc52 /home/sunho/bebop_ws/devel/arsdk/out/arsdk-native/build/libARController/obj/Sources/ARCONTROLLER_Stream.c.o
 .debug_loc     0x0000000000008b84      0x4ad /home/sunho/bebop_ws/devel/arsdk/out/arsdk-native/build/libARController/obj/Sources/ARCONTROLLER_StreamPool.c.o
 .debug_loc     0x0000000000009031      0xc0a /home/sunho/bebop_ws/devel/arsdk/out/arsdk-native/build/libARController/obj/Sources/ARCONTROLLER_StreamQueue.c.o
 .debug_loc     0x0000000000009c3b     0x24f0 /home/sunho/bebop_ws/devel/arsdk/out/arsdk-native/build/libARController/obj/Sources/ARCONTROLLER_Stream1.c.o
 .debug_loc     0x000000000000c12b     0x1c3c /home/sunho/bebop_ws/devel/arsdk/out/arsdk-native/build/libARController/obj/Sources/ARCONTROLLER_Stream2.c.o
 .debug_loc     0x000000000000dd67     0x10aa /home/sunho/bebop_ws/devel/arsdk/out/arsdk-native/build/libARController/obj/Sources/ARCONTROLLER_StreamSender.c.o
 .debug_loc     0x000000000000ee11     0xbf74 /home/sunho/bebop_ws/devel/arsdk/out/arsdk-native/build/libARController/obj/gen/Sources/ARCONTROLLER_Device.c.o
 .debug_loc     0x000000000001ad85       0x9b /home/sunho/bebop_ws/devel/arsdk/out/arsdk-native/build/libARController/obj/gen/Sources/ARCONTROLLER_DICTIONARY_Key.c.o
 .debug_loc     0x000000000001ae20   0x28deb6 /home/sunho/bebop_ws/devel/arsdk/out/arsdk-native/build/libARController/obj/gen/Sources/ARCONTROLLER_Feature.c.o

.debug_macinfo
 *(.debug_macinfo)

.debug_weaknames
 *(.debug_weaknames)

.debug_funcnames
 *(.debug_funcnames)

.debug_typenames
 *(.debug_typenames)

.debug_varnames
 *(.debug_varnames)

.debug_pubtypes
 *(.debug_pubtypes)

.debug_ranges   0x0000000000000000    0x37680
 *(.debug_ranges)
 .debug_ranges  0x0000000000000000      0x2d0 /home/sunho/bebop_ws/devel/arsdk/out/arsdk-native/build/libARController/obj/Sources/ARCONTROLLER_Dictionary.c.o
 .debug_ranges  0x00000000000002d0       0x60 /home/sunho/bebop_ws/devel/arsdk/out/arsdk-native/build/libARController/obj/Sources/ARCONTROLLER_Frame.c.o
 .debug_ranges  0x0000000000000330      0x4c0 /home/sunho/bebop_ws/devel/arsdk/out/arsdk-native/build/libARController/obj/Sources/ARCONTROLLER_Network.c.o
 .debug_ranges  0x00000000000007f0       0xe0 /home/sunho/bebop_ws/devel/arsdk/out/arsdk-native/build/libARController/obj/Sources/ARCONTROLLER_Stream.c.o
 .debug_ranges  0x00000000000008d0       0x50 /home/sunho/bebop_ws/devel/arsdk/out/arsdk-native/build/libARController/obj/Sources/ARCONTROLLER_StreamPool.c.o
 .debug_ranges  0x0000000000000920       0xe0 /home/sunho/bebop_ws/devel/arsdk/out/arsdk-native/build/libARController/obj/Sources/ARCONTROLLER_StreamQueue.c.o
 .debug_ranges  0x0000000000000a00      0x220 /home/sunho/bebop_ws/devel/arsdk/out/arsdk-native/build/libARController/obj/Sources/ARCONTROLLER_Stream1.c.o
 .debug_ranges  0x0000000000000c20      0x390 /home/sunho/bebop_ws/devel/arsdk/out/arsdk-native/build/libARController/obj/Sources/ARCONTROLLER_Stream2.c.o
 .debug_ranges  0x0000000000000fb0      0x1d0 /home/sunho/bebop_ws/devel/arsdk/out/arsdk-native/build/libARController/obj/Sources/ARCONTROLLER_StreamSender.c.o
 .debug_ranges  0x0000000000001180      0xad0 /home/sunho/bebop_ws/devel/arsdk/out/arsdk-native/build/libARController/obj/gen/Sources/ARCONTROLLER_Device.c.o
 .debug_ranges  0x0000000000001c50       0x20 /home/sunho/bebop_ws/devel/arsdk/out/arsdk-native/build/libARController/obj/gen/Sources/ARCONTROLLER_DICTIONARY_Key.c.o
 .debug_ranges  0x0000000000001c70       0x20 /home/sunho/bebop_ws/devel/arsdk/out/arsdk-native/build/libARController/obj/gen/Sources/ARCONTROLLER_Error.c.o
 .debug_ranges  0x0000000000001c90    0x359f0 /home/sunho/bebop_ws/devel/arsdk/out/arsdk-native/build/libARController/obj/gen/Sources/ARCONTROLLER_Feature.c.o

.debug_macro
 *(.debug_macro)

.gnu.attributes
 *(.gnu.attributes)

/DISCARD/
 *(.note.GNU-stack)
 *(.gnu_debuglink)
 *(.gnu.lto_*)
OUTPUT(out/arsdk-native/build/libARController/libarcontroller.so elf64-x86-64)
