
As-needed library included to satisfy reference by file (symbol)

libarsal.so                   /home/sunho/bebop_ws/devel/arsdk/out/arsdk-native/build/libARUtils/obj/Sources/ARUTILS_Http.c.o (ARSAL_Sem_Post)
libmux.so                     /home/sunho/bebop_ws/devel/arsdk/out/arsdk-native/build/libARUtils/obj/Sources/ARUTILS_WifiFtp.c.o (mux_channel_open_ftp)
libcurl.so                    /home/sunho/bebop_ws/devel/arsdk/out/arsdk-native/build/libARUtils/obj/Sources/ARUTILS_Http.c.o (curl_easy_cleanup)
libpthread.so.0               /home/sunho/bebop_ws/devel/arsdk/out/arsdk-native/build/libARUtils/obj/Sources/ARUTILS_WifiFtp.c.o (write@@GLIBC_2.2.5)
libc.so.6                     /home/sunho/bebop_ws/devel/arsdk/out/arsdk-native/build/libARUtils/obj/Sources/ARUTILS_Http.c.o (socket@@GLIBC_2.2.5)

Discarded input sections

 .text          0x0000000000000000        0x0 /usr/lib/gcc/x86_64-linux-gnu/4.8/../../../x86_64-linux-gnu/crti.o
 .data          0x0000000000000000        0x0 /usr/lib/gcc/x86_64-linux-gnu/4.8/../../../x86_64-linux-gnu/crti.o
 .bss           0x0000000000000000        0x0 /usr/lib/gcc/x86_64-linux-gnu/4.8/../../../x86_64-linux-gnu/crti.o
 .note.GNU-stack
                0x0000000000000000        0x0 /usr/lib/gcc/x86_64-linux-gnu/4.8/../../../x86_64-linux-gnu/crti.o
 .gnu_debuglink
                0x0000000000000000        0xc /usr/lib/gcc/x86_64-linux-gnu/4.8/../../../x86_64-linux-gnu/crti.o
 .data          0x0000000000000000        0x0 /usr/lib/gcc/x86_64-linux-gnu/4.8/crtbeginS.o
 .note.GNU-stack
                0x0000000000000000        0x0 /usr/lib/gcc/x86_64-linux-gnu/4.8/crtbeginS.o
 .text          0x0000000000000000        0x0 /home/sunho/bebop_ws/devel/arsdk/out/arsdk-native/build/libARUtils/obj/Sources/ARUTILS_FileSystem.c.o
 .data          0x0000000000000000        0x0 /home/sunho/bebop_ws/devel/arsdk/out/arsdk-native/build/libARUtils/obj/Sources/ARUTILS_FileSystem.c.o
 .bss           0x0000000000000000        0x0 /home/sunho/bebop_ws/devel/arsdk/out/arsdk-native/build/libARUtils/obj/Sources/ARUTILS_FileSystem.c.o
 .note.GNU-stack
                0x0000000000000000        0x0 /home/sunho/bebop_ws/devel/arsdk/out/arsdk-native/build/libARUtils/obj/Sources/ARUTILS_FileSystem.c.o
 .text          0x0000000000000000        0x0 /home/sunho/bebop_ws/devel/arsdk/out/arsdk-native/build/libARUtils/obj/Sources/ARUTILS_Http.c.o
 .data          0x0000000000000000        0x0 /home/sunho/bebop_ws/devel/arsdk/out/arsdk-native/build/libARUtils/obj/Sources/ARUTILS_Http.c.o
 .bss           0x0000000000000000        0x0 /home/sunho/bebop_ws/devel/arsdk/out/arsdk-native/build/libARUtils/obj/Sources/ARUTILS_Http.c.o
 .note.GNU-stack
                0x0000000000000000        0x0 /home/sunho/bebop_ws/devel/arsdk/out/arsdk-native/build/libARUtils/obj/Sources/ARUTILS_Http.c.o
 .text          0x0000000000000000        0x0 /home/sunho/bebop_ws/devel/arsdk/out/arsdk-native/build/libARUtils/obj/Sources/ARUTILS_Manager.c.o
 .data          0x0000000000000000        0x0 /home/sunho/bebop_ws/devel/arsdk/out/arsdk-native/build/libARUtils/obj/Sources/ARUTILS_Manager.c.o
 .bss           0x0000000000000000        0x0 /home/sunho/bebop_ws/devel/arsdk/out/arsdk-native/build/libARUtils/obj/Sources/ARUTILS_Manager.c.o
 .note.GNU-stack
                0x0000000000000000        0x0 /home/sunho/bebop_ws/devel/arsdk/out/arsdk-native/build/libARUtils/obj/Sources/ARUTILS_Manager.c.o
 .text          0x0000000000000000        0x0 /home/sunho/bebop_ws/devel/arsdk/out/arsdk-native/build/libARUtils/obj/Sources/ARUTILS_WifiFtp.c.o
 .data          0x0000000000000000        0x0 /home/sunho/bebop_ws/devel/arsdk/out/arsdk-native/build/libARUtils/obj/Sources/ARUTILS_WifiFtp.c.o
 .bss           0x0000000000000000        0x0 /home/sunho/bebop_ws/devel/arsdk/out/arsdk-native/build/libARUtils/obj/Sources/ARUTILS_WifiFtp.c.o
 .note.GNU-stack
                0x0000000000000000        0x0 /home/sunho/bebop_ws/devel/arsdk/out/arsdk-native/build/libARUtils/obj/Sources/ARUTILS_WifiFtp.c.o
 .text          0x0000000000000000        0x0 /home/sunho/bebop_ws/devel/arsdk/out/arsdk-native/build/libARUtils/obj/gen/Sources/ARUTILS_Error.c.o
 .data          0x0000000000000000        0x0 /home/sunho/bebop_ws/devel/arsdk/out/arsdk-native/build/libARUtils/obj/gen/Sources/ARUTILS_Error.c.o
 .bss           0x0000000000000000        0x0 /home/sunho/bebop_ws/devel/arsdk/out/arsdk-native/build/libARUtils/obj/gen/Sources/ARUTILS_Error.c.o
 .note.GNU-stack
                0x0000000000000000        0x0 /home/sunho/bebop_ws/devel/arsdk/out/arsdk-native/build/libARUtils/obj/gen/Sources/ARUTILS_Error.c.o
 .text          0x0000000000000000        0x0 /usr/lib/gcc/x86_64-linux-gnu/4.8/crtendS.o
 .data          0x0000000000000000        0x0 /usr/lib/gcc/x86_64-linux-gnu/4.8/crtendS.o
 .bss           0x0000000000000000        0x0 /usr/lib/gcc/x86_64-linux-gnu/4.8/crtendS.o
 .note.GNU-stack
                0x0000000000000000        0x0 /usr/lib/gcc/x86_64-linux-gnu/4.8/crtendS.o
 .text          0x0000000000000000        0x0 /usr/lib/gcc/x86_64-linux-gnu/4.8/../../../x86_64-linux-gnu/crtn.o
 .data          0x0000000000000000        0x0 /usr/lib/gcc/x86_64-linux-gnu/4.8/../../../x86_64-linux-gnu/crtn.o
 .bss           0x0000000000000000        0x0 /usr/lib/gcc/x86_64-linux-gnu/4.8/../../../x86_64-linux-gnu/crtn.o
 .note.GNU-stack
                0x0000000000000000        0x0 /usr/lib/gcc/x86_64-linux-gnu/4.8/../../../x86_64-linux-gnu/crtn.o
 .gnu_debuglink
                0x0000000000000000        0xc /usr/lib/gcc/x86_64-linux-gnu/4.8/../../../x86_64-linux-gnu/crtn.o

Memory Configuration

Name             Origin             Length             Attributes
*default*        0x0000000000000000 0xffffffffffffffff

Linker script and memory map

LOAD /usr/lib/gcc/x86_64-linux-gnu/4.8/../../../x86_64-linux-gnu/crti.o
LOAD /usr/lib/gcc/x86_64-linux-gnu/4.8/crtbeginS.o
LOAD /home/sunho/bebop_ws/devel/arsdk/out/arsdk-native/build/libARUtils/obj/Sources/ARUTILS_FileSystem.c.o
LOAD /home/sunho/bebop_ws/devel/arsdk/out/arsdk-native/build/libARUtils/obj/Sources/ARUTILS_Http.c.o
LOAD /home/sunho/bebop_ws/devel/arsdk/out/arsdk-native/build/libARUtils/obj/Sources/ARUTILS_Manager.c.o
LOAD /home/sunho/bebop_ws/devel/arsdk/out/arsdk-native/build/libARUtils/obj/Sources/ARUTILS_WifiFtp.c.o
LOAD /home/sunho/bebop_ws/devel/arsdk/out/arsdk-native/build/libARUtils/obj/gen/Sources/ARUTILS_Error.c.o
LOAD /home/sunho/bebop_ws/devel/arsdk/out/arsdk-native/staging/usr/lib/libarsal.so
LOAD /home/sunho/bebop_ws/devel/arsdk/out/arsdk-native/staging/usr/lib/libardiscovery.so
LOAD /home/sunho/bebop_ws/devel/arsdk/out/arsdk-native/staging/usr/lib/libarcommands.so
LOAD /home/sunho/bebop_ws/devel/arsdk/out/arsdk-native/staging/usr/lib/libmux.so
LOAD /home/sunho/bebop_ws/devel/arsdk/out/arsdk-native/staging/usr/lib/libcurl.so
LOAD /usr/lib/gcc/x86_64-linux-gnu/4.8/../../../x86_64-linux-gnu/librt.so
LOAD /usr/lib/gcc/x86_64-linux-gnu/4.8/libstdc++.so
LOAD /usr/lib/gcc/x86_64-linux-gnu/4.8/../../../x86_64-linux-gnu/libm.so
LOAD /usr/lib/gcc/x86_64-linux-gnu/4.8/libgcc_s.so
LOAD /usr/lib/gcc/x86_64-linux-gnu/4.8/../../../x86_64-linux-gnu/libpthread.so
START GROUP
LOAD /lib/x86_64-linux-gnu/libpthread.so.0
LOAD /usr/lib/x86_64-linux-gnu/libpthread_nonshared.a
END GROUP
LOAD /usr/lib/gcc/x86_64-linux-gnu/4.8/../../../x86_64-linux-gnu/libc.so
START GROUP
LOAD /lib/x86_64-linux-gnu/libc.so.6
LOAD /usr/lib/x86_64-linux-gnu/libc_nonshared.a
LOAD /lib/x86_64-linux-gnu/ld-linux-x86-64.so.2
END GROUP
LOAD /usr/lib/gcc/x86_64-linux-gnu/4.8/libgcc_s.so
LOAD /usr/lib/gcc/x86_64-linux-gnu/4.8/crtendS.o
LOAD /usr/lib/gcc/x86_64-linux-gnu/4.8/../../../x86_64-linux-gnu/crtn.o
                0x00000000000001c8                . = (0x0 + SIZEOF_HEADERS)

.note.gnu.build-id
                0x00000000000001c8       0x24
 *(.note.gnu.build-id)
 .note.gnu.build-id
                0x00000000000001c8       0x24 /usr/lib/gcc/x86_64-linux-gnu/4.8/../../../x86_64-linux-gnu/crti.o

.hash
 *(.hash)

.gnu.hash       0x00000000000001f0      0x2a8
 *(.gnu.hash)
 .gnu.hash      0x00000000000001f0      0x2a8 /usr/lib/gcc/x86_64-linux-gnu/4.8/../../../x86_64-linux-gnu/crti.o

.dynsym         0x0000000000000498      0xdc8
 *(.dynsym)
 .dynsym        0x0000000000000498      0xdc8 /usr/lib/gcc/x86_64-linux-gnu/4.8/../../../x86_64-linux-gnu/crti.o

.dynstr         0x0000000000001260      0xc91
 *(.dynstr)
 .dynstr        0x0000000000001260      0xc91 /usr/lib/gcc/x86_64-linux-gnu/4.8/../../../x86_64-linux-gnu/crti.o

.gnu.version    0x0000000000001ef2      0x126
 *(.gnu.version)
 .gnu.version   0x0000000000001ef2      0x126 /usr/lib/gcc/x86_64-linux-gnu/4.8/../../../x86_64-linux-gnu/crti.o

.gnu.version_d  0x0000000000002018        0x0
 *(.gnu.version_d)
 .gnu.version_d
                0x0000000000000000        0x0 /usr/lib/gcc/x86_64-linux-gnu/4.8/../../../x86_64-linux-gnu/crti.o

.gnu.version_r  0x0000000000002018       0x80
 *(.gnu.version_r)
 .gnu.version_r
                0x0000000000002018       0x80 /usr/lib/gcc/x86_64-linux-gnu/4.8/../../../x86_64-linux-gnu/crti.o

.rela.dyn       0x0000000000002098      0x2e8
 *(.rela.init)
 *(.rela.text .rela.text.* .rela.gnu.linkonce.t.*)
 .rela.text     0x0000000000000000        0x0 /usr/lib/gcc/x86_64-linux-gnu/4.8/../../../x86_64-linux-gnu/crti.o
 *(.rela.fini)
 *(.rela.rodata .rela.rodata.* .rela.gnu.linkonce.r.*)
 *(.rela.data .rela.data.* .rela.gnu.linkonce.d.*)
 .rela.data.rel
                0x0000000000002098       0x18 /usr/lib/gcc/x86_64-linux-gnu/4.8/../../../x86_64-linux-gnu/crti.o
 *(.rela.tdata .rela.tdata.* .rela.gnu.linkonce.td.*)
 *(.rela.tbss .rela.tbss.* .rela.gnu.linkonce.tb.*)
 *(.rela.ctors)
 *(.rela.dtors)
 *(.rela.got)
 .rela.got      0x00000000000020b0      0x2a0 /usr/lib/gcc/x86_64-linux-gnu/4.8/../../../x86_64-linux-gnu/crti.o
 *(.rela.bss .rela.bss.* .rela.gnu.linkonce.b.*)
 *(.rela.ldata .rela.ldata.* .rela.gnu.linkonce.l.*)
 *(.rela.lbss .rela.lbss.* .rela.gnu.linkonce.lb.*)
 *(.rela.lrodata .rela.lrodata.* .rela.gnu.linkonce.lr.*)
 *(.rela.ifunc)
 .rela.ifunc    0x0000000000000000        0x0 /usr/lib/gcc/x86_64-linux-gnu/4.8/../../../x86_64-linux-gnu/crti.o
 .rela.fini_array
                0x0000000000002350       0x18 /usr/lib/gcc/x86_64-linux-gnu/4.8/../../../x86_64-linux-gnu/crti.o
 .rela.init_array
                0x0000000000002368       0x18 /usr/lib/gcc/x86_64-linux-gnu/4.8/../../../x86_64-linux-gnu/crti.o

.rela.plt       0x0000000000002380      0x7c8
 *(.rela.plt)
 .rela.plt      0x0000000000002380      0x7c8 /usr/lib/gcc/x86_64-linux-gnu/4.8/../../../x86_64-linux-gnu/crti.o
 *(.rela.iplt)

.init           0x0000000000002b48       0x1a
 *(SORT(.init))
 .init          0x0000000000002b48       0x15 /usr/lib/gcc/x86_64-linux-gnu/4.8/../../../x86_64-linux-gnu/crti.o
                0x0000000000002b48                _init
 .init          0x0000000000002b5d        0x5 /usr/lib/gcc/x86_64-linux-gnu/4.8/../../../x86_64-linux-gnu/crtn.o

.plt            0x0000000000002b70      0x540
 *(.plt)
 .plt           0x0000000000002b70      0x540 /usr/lib/gcc/x86_64-linux-gnu/4.8/../../../x86_64-linux-gnu/crti.o
 *(.iplt)

.text           0x00000000000030b0     0x5fb8
 *(.text.unlikely .text.*_unlikely .text.unlikely.*)
 *(.text.exit .text.exit.*)
 *(.text.startup .text.startup.*)
 *(.text.hot .text.hot.*)
 *(.text .stub .text.* .gnu.linkonce.t.*)
 .text          0x00000000000030b0       0xe5 /usr/lib/gcc/x86_64-linux-gnu/4.8/crtbeginS.o
 *fill*         0x0000000000003195        0xb 
 .text.ARUTILS_FileSystem_IsExist
                0x00000000000031a0       0x57 /home/sunho/bebop_ws/devel/arsdk/out/arsdk-native/build/libARUtils/obj/Sources/ARUTILS_FileSystem.c.o
                0x00000000000031a0                ARUTILS_FileSystem_IsExist
 *fill*         0x00000000000031f7        0x9 
 .text.ARUTILS_FileSystem_GetFileSize
                0x0000000000003200      0x1a9 /home/sunho/bebop_ws/devel/arsdk/out/arsdk-native/build/libARUtils/obj/Sources/ARUTILS_FileSystem.c.o
                0x0000000000003200                ARUTILS_FileSystem_GetFileSize
 *fill*         0x00000000000033a9        0x7 
 .text.ARUTILS_FileSystem_Rename
                0x00000000000033b0      0x104 /home/sunho/bebop_ws/devel/arsdk/out/arsdk-native/build/libARUtils/obj/Sources/ARUTILS_FileSystem.c.o
                0x00000000000033b0                ARUTILS_FileSystem_Rename
 *fill*         0x00000000000034b4        0xc 
 .text.ARUTILS_FileSystem_RemoveFile
                0x00000000000034c0       0xdc /home/sunho/bebop_ws/devel/arsdk/out/arsdk-native/build/libARUtils/obj/Sources/ARUTILS_FileSystem.c.o
                0x00000000000034c0                ARUTILS_FileSystem_RemoveFile
 *fill*         0x000000000000359c        0x4 
 .text.ARUTILS_FileSystem_RemoveDir
                0x00000000000035a0      0x115 /home/sunho/bebop_ws/devel/arsdk/out/arsdk-native/build/libARUtils/obj/Sources/ARUTILS_FileSystem.c.o
                0x00000000000035a0                ARUTILS_FileSystem_RemoveDir
 *fill*         0x00000000000036b5        0xb 
 .text.ARUTILS_FileSystem_RemoveDirCallback
                0x00000000000036c0      0x121 /home/sunho/bebop_ws/devel/arsdk/out/arsdk-native/build/libARUtils/obj/Sources/ARUTILS_FileSystem.c.o
 *fill*         0x00000000000037e1        0xf 
 .text.ARUTILS_FileSystem_GetFreeSpace
                0x00000000000037f0      0x140 /home/sunho/bebop_ws/devel/arsdk/out/arsdk-native/build/libARUtils/obj/Sources/ARUTILS_FileSystem.c.o
                0x00000000000037f0                ARUTILS_FileSystem_GetFreeSpace
 .text.ARUTILS_Http_ProgressCallback
                0x0000000000003930       0x84 /home/sunho/bebop_ws/devel/arsdk/out/arsdk-native/build/libARUtils/obj/Sources/ARUTILS_Http.c.o
                0x0000000000003930                ARUTILS_Http_ProgressCallback
 *fill*         0x00000000000039b4        0xc 
 .text.ARUTILS_Http_ClosesocketCallback
                0x00000000000039c0       0x19 /home/sunho/bebop_ws/devel/arsdk/out/arsdk-native/build/libARUtils/obj/Sources/ARUTILS_Http.c.o
                0x00000000000039c0                ARUTILS_Http_ClosesocketCallback
 *fill*         0x00000000000039d9        0x7 
 .text.ARUTILS_Http_OpensocketCallback
                0x00000000000039e0       0x2f /home/sunho/bebop_ws/devel/arsdk/out/arsdk-native/build/libARUtils/obj/Sources/ARUTILS_Http.c.o
                0x00000000000039e0                ARUTILS_Http_OpensocketCallback
 *fill*         0x0000000000003a0f        0x1 
 .text.ARUTILS_Http_Connection_Cancel
                0x0000000000003a10       0xfc /home/sunho/bebop_ws/devel/arsdk/out/arsdk-native/build/libARUtils/obj/Sources/ARUTILS_Http.c.o
                0x0000000000003a10                ARUTILS_Http_Connection_Cancel
 *fill*         0x0000000000003b0c        0x4 
 .text.ARUTILS_Http_SetSeverCertificate
                0x0000000000003b10       0x4f /home/sunho/bebop_ws/devel/arsdk/out/arsdk-native/build/libARUtils/obj/Sources/ARUTILS_Http.c.o
                0x0000000000003b10                ARUTILS_Http_SetSeverCertificate
 *fill*         0x0000000000003b5f        0x1 
 .text.ARUTILS_Http_FreeCallbackData
                0x0000000000003b60      0x112 /home/sunho/bebop_ws/devel/arsdk/out/arsdk-native/build/libARUtils/obj/Sources/ARUTILS_Http.c.o
                0x0000000000003b60                ARUTILS_Http_FreeCallbackData
 *fill*         0x0000000000003c72        0xe 
 .text.ARUTILS_Http_Connection_Delete
                0x0000000000003c80       0xed /home/sunho/bebop_ws/devel/arsdk/out/arsdk-native/build/libARUtils/obj/Sources/ARUTILS_Http.c.o
                0x0000000000003c80                ARUTILS_Http_Connection_Delete
 *fill*         0x0000000000003d6d        0x3 
 .text.ARUTILS_Http_Connection_New
                0x0000000000003d70      0x2bc /home/sunho/bebop_ws/devel/arsdk/out/arsdk-native/build/libARUtils/obj/Sources/ARUTILS_Http.c.o
                0x0000000000003d70                ARUTILS_Http_Connection_New
 *fill*         0x000000000000402c        0x4 
 .text.ARUTILS_Http_ResetOptions
                0x0000000000004030      0x213 /home/sunho/bebop_ws/devel/arsdk/out/arsdk-native/build/libARUtils/obj/Sources/ARUTILS_Http.c.o
                0x0000000000004030                ARUTILS_Http_ResetOptions
 *fill*         0x0000000000004243        0xd 
 .text.ARUTILS_Http_IsCanceled
                0x0000000000004250       0x45 /home/sunho/bebop_ws/devel/arsdk/out/arsdk-native/build/libARUtils/obj/Sources/ARUTILS_Http.c.o
                0x0000000000004250                ARUTILS_Http_IsCanceled
 *fill*         0x0000000000004295        0xb 
 .text.ARUTILS_Http_ReadDataCallback
                0x00000000000042a0      0x134 /home/sunho/bebop_ws/devel/arsdk/out/arsdk-native/build/libARUtils/obj/Sources/ARUTILS_Http.c.o
                0x00000000000042a0                ARUTILS_Http_ReadDataCallback
 *fill*         0x00000000000043d4        0xc 
 .text.ARUTILS_Http_WriteDataCallback
                0x00000000000043e0      0x137 /home/sunho/bebop_ws/devel/arsdk/out/arsdk-native/build/libARUtils/obj/Sources/ARUTILS_Http.c.o
                0x00000000000043e0                ARUTILS_Http_WriteDataCallback
 *fill*         0x0000000000004517        0x9 
 .text.ARUTILS_Http_GetErrorFromCode
                0x0000000000004520       0x27 /home/sunho/bebop_ws/devel/arsdk/out/arsdk-native/build/libARUtils/obj/Sources/ARUTILS_Http.c.o
                0x0000000000004520                ARUTILS_Http_GetErrorFromCode
 *fill*         0x0000000000004547        0x9 
 .text.ARUTILS_Http_Get_Internal
                0x0000000000004550      0x5c9 /home/sunho/bebop_ws/devel/arsdk/out/arsdk-native/build/libARUtils/obj/Sources/ARUTILS_Http.c.o
                0x0000000000004550                ARUTILS_Http_Get_Internal
 *fill*         0x0000000000004b19        0x7 
 .text.ARUTILS_Http_Get
                0x0000000000004b20       0x1a /home/sunho/bebop_ws/devel/arsdk/out/arsdk-native/build/libARUtils/obj/Sources/ARUTILS_Http.c.o
                0x0000000000004b20                ARUTILS_Http_Get
 *fill*         0x0000000000004b3a        0x6 
 .text.ARUTILS_Http_Get_WithBuffer
                0x0000000000004b40       0x1d /home/sunho/bebop_ws/devel/arsdk/out/arsdk-native/build/libARUtils/obj/Sources/ARUTILS_Http.c.o
                0x0000000000004b40                ARUTILS_Http_Get_WithBuffer
 *fill*         0x0000000000004b5d        0x3 
 .text.ARUTILS_Http_Post_WithFiles
                0x0000000000004b60      0x4e5 /home/sunho/bebop_ws/devel/arsdk/out/arsdk-native/build/libARUtils/obj/Sources/ARUTILS_Http.c.o
                0x0000000000004b60                ARUTILS_Http_Post_WithFiles
 *fill*         0x0000000000005045        0xb 
 .text.ARUTILS_Http_Post_WithRange
                0x0000000000005050      0x6fe /home/sunho/bebop_ws/devel/arsdk/out/arsdk-native/build/libARUtils/obj/Sources/ARUTILS_Http.c.o
                0x0000000000005050                ARUTILS_Http_Post_WithRange
 *fill*         0x000000000000574e        0x2 
 .text.ARUTILS_Manager_New
                0x0000000000005750       0xd4 /home/sunho/bebop_ws/devel/arsdk/out/arsdk-native/build/libARUtils/obj/Sources/ARUTILS_Manager.c.o
                0x0000000000005750                ARUTILS_Manager_New
 *fill*         0x0000000000005824        0xc 
 .text.ARUTILS_Manager_Delete
                0x0000000000005830       0xce /home/sunho/bebop_ws/devel/arsdk/out/arsdk-native/build/libARUtils/obj/Sources/ARUTILS_Manager.c.o
                0x0000000000005830                ARUTILS_Manager_Delete
 *fill*         0x00000000000058fe        0x2 
 .text.ARUTILS_Manager_Ftp_Connection_Disconnect
                0x0000000000005900       0x16 /home/sunho/bebop_ws/devel/arsdk/out/arsdk-native/build/libARUtils/obj/Sources/ARUTILS_Manager.c.o
                0x0000000000005900                ARUTILS_Manager_Ftp_Connection_Disconnect
 *fill*         0x0000000000005916        0xa 
 .text.ARUTILS_Manager_Ftp_Connection_Reconnect
                0x0000000000005920       0x16 /home/sunho/bebop_ws/devel/arsdk/out/arsdk-native/build/libARUtils/obj/Sources/ARUTILS_Manager.c.o
                0x0000000000005920                ARUTILS_Manager_Ftp_Connection_Reconnect
 *fill*         0x0000000000005936        0xa 
 .text.ARUTILS_Manager_Ftp_Connection_Cancel
                0x0000000000005940       0x16 /home/sunho/bebop_ws/devel/arsdk/out/arsdk-native/build/libARUtils/obj/Sources/ARUTILS_Manager.c.o
                0x0000000000005940                ARUTILS_Manager_Ftp_Connection_Cancel
 *fill*         0x0000000000005956        0xa 
 .text.ARUTILS_Manager_Ftp_Connection_IsCanceled
                0x0000000000005960       0x16 /home/sunho/bebop_ws/devel/arsdk/out/arsdk-native/build/libARUtils/obj/Sources/ARUTILS_Manager.c.o
                0x0000000000005960                ARUTILS_Manager_Ftp_Connection_IsCanceled
 *fill*         0x0000000000005976        0xa 
 .text.ARUTILS_Manager_Ftp_Connection_Reset
                0x0000000000005980       0x16 /home/sunho/bebop_ws/devel/arsdk/out/arsdk-native/build/libARUtils/obj/Sources/ARUTILS_Manager.c.o
                0x0000000000005980                ARUTILS_Manager_Ftp_Connection_Reset
 *fill*         0x0000000000005996        0xa 
 .text.ARUTILS_Manager_Ftp_List
                0x00000000000059a0       0x16 /home/sunho/bebop_ws/devel/arsdk/out/arsdk-native/build/libARUtils/obj/Sources/ARUTILS_Manager.c.o
                0x00000000000059a0                ARUTILS_Manager_Ftp_List
 *fill*         0x00000000000059b6        0xa 
 .text.ARUTILS_Manager_Ftp_Size
                0x00000000000059c0       0x16 /home/sunho/bebop_ws/devel/arsdk/out/arsdk-native/build/libARUtils/obj/Sources/ARUTILS_Manager.c.o
                0x00000000000059c0                ARUTILS_Manager_Ftp_Size
 *fill*         0x00000000000059d6        0xa 
 .text.ARUTILS_Manager_Ftp_Get_WithBuffer
                0x00000000000059e0       0x16 /home/sunho/bebop_ws/devel/arsdk/out/arsdk-native/build/libARUtils/obj/Sources/ARUTILS_Manager.c.o
                0x00000000000059e0                ARUTILS_Manager_Ftp_Get_WithBuffer
 *fill*         0x00000000000059f6        0xa 
 .text.ARUTILS_Manager_Ftp_Get
                0x0000000000005a00       0x16 /home/sunho/bebop_ws/devel/arsdk/out/arsdk-native/build/libARUtils/obj/Sources/ARUTILS_Manager.c.o
                0x0000000000005a00                ARUTILS_Manager_Ftp_Get
 *fill*         0x0000000000005a16        0xa 
 .text.ARUTILS_Manager_Ftp_Put
                0x0000000000005a20       0x16 /home/sunho/bebop_ws/devel/arsdk/out/arsdk-native/build/libARUtils/obj/Sources/ARUTILS_Manager.c.o
                0x0000000000005a20                ARUTILS_Manager_Ftp_Put
 *fill*         0x0000000000005a36        0xa 
 .text.ARUTILS_Manager_Ftp_Delete
                0x0000000000005a40       0x16 /home/sunho/bebop_ws/devel/arsdk/out/arsdk-native/build/libARUtils/obj/Sources/ARUTILS_Manager.c.o
                0x0000000000005a40                ARUTILS_Manager_Ftp_Delete
 *fill*         0x0000000000005a56        0xa 
 .text.ARUTILS_Manager_Ftp_RemoveDir
                0x0000000000005a60       0x16 /home/sunho/bebop_ws/devel/arsdk/out/arsdk-native/build/libARUtils/obj/Sources/ARUTILS_Manager.c.o
                0x0000000000005a60                ARUTILS_Manager_Ftp_RemoveDir
 *fill*         0x0000000000005a76        0xa 
 .text.ARUTILS_Manager_Ftp_Rename
                0x0000000000005a80       0x16 /home/sunho/bebop_ws/devel/arsdk/out/arsdk-native/build/libARUtils/obj/Sources/ARUTILS_Manager.c.o
                0x0000000000005a80                ARUTILS_Manager_Ftp_Rename
 *fill*         0x0000000000005a96        0xa 
 .text.ARUTILS_WifiFtpAL_Connection_Reconnect
                0x0000000000005aa0       0x2c /home/sunho/bebop_ws/devel/arsdk/out/arsdk-native/build/libARUtils/obj/Sources/ARUTILS_WifiFtp.c.o
                0x0000000000005aa0                ARUTILS_WifiFtpAL_Connection_Reconnect
 *fill*         0x0000000000005acc        0x4 
 .text.ARUTILS_WifiFtpAL_Connection_Disconnect
                0x0000000000005ad0       0x2f /home/sunho/bebop_ws/devel/arsdk/out/arsdk-native/build/libARUtils/obj/Sources/ARUTILS_WifiFtp.c.o
                0x0000000000005ad0                ARUTILS_WifiFtpAL_Connection_Disconnect
 *fill*         0x0000000000005aff        0x1 
 .text.ARUTILS_WifiFtp_ClosesocketCallback
                0x0000000000005b00       0x3f /home/sunho/bebop_ws/devel/arsdk/out/arsdk-native/build/libARUtils/obj/Sources/ARUTILS_WifiFtp.c.o
                0x0000000000005b00                ARUTILS_WifiFtp_ClosesocketCallback
 *fill*         0x0000000000005b3f        0x1 
 .text.ARUTILS_WifiFtp_OpensocketCallback
                0x0000000000005b40       0x46 /home/sunho/bebop_ws/devel/arsdk/out/arsdk-native/build/libARUtils/obj/Sources/ARUTILS_WifiFtp.c.o
                0x0000000000005b40                ARUTILS_WifiFtp_OpensocketCallback
 *fill*         0x0000000000005b86        0xa 
 .text.ARUTILS_WifiFtp_Connection_Cancel
                0x0000000000005b90       0xfc /home/sunho/bebop_ws/devel/arsdk/out/arsdk-native/build/libARUtils/obj/Sources/ARUTILS_WifiFtp.c.o
                0x0000000000005b90                ARUTILS_WifiFtp_Connection_Cancel
 *fill*         0x0000000000005c8c        0x4 
 .text.ARUTILS_WifiFtpAL_Connection_Cancel
                0x0000000000005c90        0x9 /home/sunho/bebop_ws/devel/arsdk/out/arsdk-native/build/libARUtils/obj/Sources/ARUTILS_WifiFtp.c.o
                0x0000000000005c90                ARUTILS_WifiFtpAL_Connection_Cancel
 *fill*         0x0000000000005c99        0x7 
 .text.ARUTILS_WifiFtp_Connection_Reset
                0x0000000000005ca0       0xe3 /home/sunho/bebop_ws/devel/arsdk/out/arsdk-native/build/libARUtils/obj/Sources/ARUTILS_WifiFtp.c.o
                0x0000000000005ca0                ARUTILS_WifiFtp_Connection_Reset
 *fill*         0x0000000000005d83        0xd 
 .text.ARUTILS_WifiFtpAL_Connection_Reset
                0x0000000000005d90        0x9 /home/sunho/bebop_ws/devel/arsdk/out/arsdk-native/build/libARUtils/obj/Sources/ARUTILS_WifiFtp.c.o
                0x0000000000005d90                ARUTILS_WifiFtpAL_Connection_Reset
 *fill*         0x0000000000005d99        0x7 
 .text.ARUTILS_Ftp_List_GetNextItem
                0x0000000000005da0      0x20c /home/sunho/bebop_ws/devel/arsdk/out/arsdk-native/build/libARUtils/obj/Sources/ARUTILS_WifiFtp.c.o
                0x0000000000005da0                ARUTILS_Ftp_List_GetNextItem
 *fill*         0x0000000000005fac        0x4 
 .text.ARUTILS_Ftp_List_GetItemSize
                0x0000000000005fb0       0xd2 /home/sunho/bebop_ws/devel/arsdk/out/arsdk-native/build/libARUtils/obj/Sources/ARUTILS_WifiFtp.c.o
                0x0000000000005fb0                ARUTILS_Ftp_List_GetItemSize
 *fill*         0x0000000000006082        0xe 
 .text.ARUTILS_WifiFtp_FreeCallbackData
                0x0000000000006090       0xf2 /home/sunho/bebop_ws/devel/arsdk/out/arsdk-native/build/libARUtils/obj/Sources/ARUTILS_WifiFtp.c.o
                0x0000000000006090                ARUTILS_WifiFtp_FreeCallbackData
 *fill*         0x0000000000006182        0xe 
 .text.ARUTILS_WifiFtp_Connection_Delete
                0x0000000000006190      0x10c /home/sunho/bebop_ws/devel/arsdk/out/arsdk-native/build/libARUtils/obj/Sources/ARUTILS_WifiFtp.c.o
                0x0000000000006190                ARUTILS_WifiFtp_Connection_Delete
 *fill*         0x000000000000629c        0x4 
 .text.ARUTILS_WifiFtp_Connection_New
                0x00000000000062a0      0x3fe /home/sunho/bebop_ws/devel/arsdk/out/arsdk-native/build/libARUtils/obj/Sources/ARUTILS_WifiFtp.c.o
                0x00000000000062a0                ARUTILS_WifiFtp_Connection_New
 *fill*         0x000000000000669e        0x2 
 .text.ARUTILS_WifiFtp_ResetOptions
                0x00000000000066a0      0x1b4 /home/sunho/bebop_ws/devel/arsdk/out/arsdk-native/build/libARUtils/obj/Sources/ARUTILS_WifiFtp.c.o
                0x00000000000066a0                ARUTILS_WifiFtp_ResetOptions
 *fill*         0x0000000000006854        0xc 
 .text.ARUTILS_WifiFtp_IsCanceled
                0x0000000000006860       0x45 /home/sunho/bebop_ws/devel/arsdk/out/arsdk-native/build/libARUtils/obj/Sources/ARUTILS_WifiFtp.c.o
                0x0000000000006860                ARUTILS_WifiFtp_IsCanceled
 *fill*         0x00000000000068a5        0xb 
 .text.ARUTILS_WifiFtp_ReadDataCallback
                0x00000000000068b0       0x8c /home/sunho/bebop_ws/devel/arsdk/out/arsdk-native/build/libARUtils/obj/Sources/ARUTILS_WifiFtp.c.o
                0x00000000000068b0                ARUTILS_WifiFtp_ReadDataCallback
 *fill*         0x000000000000693c        0x4 
 .text.ARUTILS_WifiFtp_WriteDataCallback
                0x0000000000006940      0x13d /home/sunho/bebop_ws/devel/arsdk/out/arsdk-native/build/libARUtils/obj/Sources/ARUTILS_WifiFtp.c.o
                0x0000000000006940                ARUTILS_WifiFtp_WriteDataCallback
 *fill*         0x0000000000006a7d        0x3 
 .text.ARUTILS_WifiFtp_ProgressCallback
                0x0000000000006a80       0xd4 /home/sunho/bebop_ws/devel/arsdk/out/arsdk-native/build/libARUtils/obj/Sources/ARUTILS_WifiFtp.c.o
                0x0000000000006a80                ARUTILS_WifiFtp_ProgressCallback
 *fill*         0x0000000000006b54        0xc 
 .text.ARUTILS_WifiFtpAL_Connection_IsCanceled
                0x0000000000006b60        0x9 /home/sunho/bebop_ws/devel/arsdk/out/arsdk-native/build/libARUtils/obj/Sources/ARUTILS_WifiFtp.c.o
                0x0000000000006b60                ARUTILS_WifiFtpAL_Connection_IsCanceled
 *fill*         0x0000000000006b69        0x7 
 .text.ARUTILS_WifiFtp_GetErrorFromCode
                0x0000000000006b70       0x77 /home/sunho/bebop_ws/devel/arsdk/out/arsdk-native/build/libARUtils/obj/Sources/ARUTILS_WifiFtp.c.o
                0x0000000000006b70                ARUTILS_WifiFtp_GetErrorFromCode
 *fill*         0x0000000000006be7        0x9 
 .text.ARUTILS_WifiFtp_Rename
                0x0000000000006bf0      0x38f /home/sunho/bebop_ws/devel/arsdk/out/arsdk-native/build/libARUtils/obj/Sources/ARUTILS_WifiFtp.c.o
                0x0000000000006bf0                ARUTILS_WifiFtp_Rename
 *fill*         0x0000000000006f7f        0x1 
 .text.ARUTILS_WifiFtpAL_Rename
                0x0000000000006f80        0x9 /home/sunho/bebop_ws/devel/arsdk/out/arsdk-native/build/libARUtils/obj/Sources/ARUTILS_WifiFtp.c.o
                0x0000000000006f80                ARUTILS_WifiFtpAL_Rename
 *fill*         0x0000000000006f89        0x7 
 .text.ARUTILS_WifiFtp_Size
                0x0000000000006f90      0x4af /home/sunho/bebop_ws/devel/arsdk/out/arsdk-native/build/libARUtils/obj/Sources/ARUTILS_WifiFtp.c.o
                0x0000000000006f90                ARUTILS_WifiFtp_Size
 *fill*         0x000000000000743f        0x1 
 .text.ARUTILS_WifiFtpAL_Size
                0x0000000000007440        0x9 /home/sunho/bebop_ws/devel/arsdk/out/arsdk-native/build/libARUtils/obj/Sources/ARUTILS_WifiFtp.c.o
                0x0000000000007440                ARUTILS_WifiFtpAL_Size
 *fill*         0x0000000000007449        0x7 
 .text.ARUTILS_WifiFtp_Command
                0x0000000000007450      0x365 /home/sunho/bebop_ws/devel/arsdk/out/arsdk-native/build/libARUtils/obj/Sources/ARUTILS_WifiFtp.c.o
                0x0000000000007450                ARUTILS_WifiFtp_Command
 *fill*         0x00000000000077b5        0xb 
 .text.ARUTILS_WifiFtp_Delete
                0x00000000000077c0      0x110 /home/sunho/bebop_ws/devel/arsdk/out/arsdk-native/build/libARUtils/obj/Sources/ARUTILS_WifiFtp.c.o
                0x00000000000077c0                ARUTILS_WifiFtp_Delete
 .text.ARUTILS_WifiFtpAL_Delete
                0x00000000000078d0        0x9 /home/sunho/bebop_ws/devel/arsdk/out/arsdk-native/build/libARUtils/obj/Sources/ARUTILS_WifiFtp.c.o
                0x00000000000078d0                ARUTILS_WifiFtpAL_Delete
 *fill*         0x00000000000078d9        0x7 
 .text.ARUTILS_WifiFtp_Cd
                0x00000000000078e0      0x18f /home/sunho/bebop_ws/devel/arsdk/out/arsdk-native/build/libARUtils/obj/Sources/ARUTILS_WifiFtp.c.o
                0x00000000000078e0                ARUTILS_WifiFtp_Cd
 *fill*         0x0000000000007a6f        0x1 
 .text.ARUTILS_WifiFtpAL_RemoveDir
                0x0000000000007a70      0x111 /home/sunho/bebop_ws/devel/arsdk/out/arsdk-native/build/libARUtils/obj/Sources/ARUTILS_WifiFtp.c.o
                0x0000000000007a70                ARUTILS_WifiFtpAL_RemoveDir
 *fill*         0x0000000000007b81        0xf 
 .text.ARUTILS_WifiFtp_List
                0x0000000000007b90      0x4a2 /home/sunho/bebop_ws/devel/arsdk/out/arsdk-native/build/libARUtils/obj/Sources/ARUTILS_WifiFtp.c.o
                0x0000000000007b90                ARUTILS_WifiFtp_List
 *fill*         0x0000000000008032        0xe 
 .text.ARUTILS_WifiFtpAL_List
                0x0000000000008040        0x9 /home/sunho/bebop_ws/devel/arsdk/out/arsdk-native/build/libARUtils/obj/Sources/ARUTILS_WifiFtp.c.o
                0x0000000000008040                ARUTILS_WifiFtpAL_List
 *fill*         0x0000000000008049        0x7 
 .text.ARUTILS_WifiFtp_GetInternal
                0x0000000000008050      0x5e7 /home/sunho/bebop_ws/devel/arsdk/out/arsdk-native/build/libARUtils/obj/Sources/ARUTILS_WifiFtp.c.o
                0x0000000000008050                ARUTILS_WifiFtp_GetInternal
 *fill*         0x0000000000008637        0x9 
 .text.ARUTILS_WifiFtp_Get
                0x0000000000008640       0x1f /home/sunho/bebop_ws/devel/arsdk/out/arsdk-native/build/libARUtils/obj/Sources/ARUTILS_WifiFtp.c.o
                0x0000000000008640                ARUTILS_WifiFtp_Get
 *fill*         0x000000000000865f        0x1 
 .text.ARUTILS_WifiFtpAL_Get
                0x0000000000008660        0x9 /home/sunho/bebop_ws/devel/arsdk/out/arsdk-native/build/libARUtils/obj/Sources/ARUTILS_WifiFtp.c.o
                0x0000000000008660                ARUTILS_WifiFtpAL_Get
 *fill*         0x0000000000008669        0x7 
 .text.ARUTILS_WifiFtp_Get_WithBuffer
                0x0000000000008670       0x25 /home/sunho/bebop_ws/devel/arsdk/out/arsdk-native/build/libARUtils/obj/Sources/ARUTILS_WifiFtp.c.o
                0x0000000000008670                ARUTILS_WifiFtp_Get_WithBuffer
 *fill*         0x0000000000008695        0xb 
 .text.ARUTILS_WifiFtpAL_Get_WithBuffer
                0x00000000000086a0        0x9 /home/sunho/bebop_ws/devel/arsdk/out/arsdk-native/build/libARUtils/obj/Sources/ARUTILS_WifiFtp.c.o
                0x00000000000086a0                ARUTILS_WifiFtpAL_Get_WithBuffer
 *fill*         0x00000000000086a9        0x7 
 .text.ARUTILS_WifiFtp_Put
                0x00000000000086b0      0x5d8 /home/sunho/bebop_ws/devel/arsdk/out/arsdk-native/build/libARUtils/obj/Sources/ARUTILS_WifiFtp.c.o
                0x00000000000086b0                ARUTILS_WifiFtp_Put
 *fill*         0x0000000000008c88        0x8 
 .text.ARUTILS_WifiFtpAL_Put
                0x0000000000008c90        0x9 /home/sunho/bebop_ws/devel/arsdk/out/arsdk-native/build/libARUtils/obj/Sources/ARUTILS_WifiFtp.c.o
                0x0000000000008c90                ARUTILS_WifiFtpAL_Put
 *fill*         0x0000000000008c99        0x7 
 .text.ARUTILS_Manager_InitWifiFtpOverMux
                0x0000000000008ca0      0x14a /home/sunho/bebop_ws/devel/arsdk/out/arsdk-native/build/libARUtils/obj/Sources/ARUTILS_WifiFtp.c.o
                0x0000000000008ca0                ARUTILS_Manager_InitWifiFtpOverMux
 *fill*         0x0000000000008dea        0x6 
 .text.ARUTILS_Manager_InitWifiFtp
                0x0000000000008df0        0xd /home/sunho/bebop_ws/devel/arsdk/out/arsdk-native/build/libARUtils/obj/Sources/ARUTILS_WifiFtp.c.o
                0x0000000000008df0                ARUTILS_Manager_InitWifiFtp
 *fill*         0x0000000000008dfd        0x3 
 .text.ARUTILS_Manager_CloseWifiFtp
                0x0000000000008e00       0x22 /home/sunho/bebop_ws/devel/arsdk/out/arsdk-native/build/libARUtils/obj/Sources/ARUTILS_WifiFtp.c.o
                0x0000000000008e00                ARUTILS_Manager_CloseWifiFtp
 *fill*         0x0000000000008e22        0xe 
 .text.ARUTILS_Error_ToString
                0x0000000000008e30      0x238 /home/sunho/bebop_ws/devel/arsdk/out/arsdk-native/build/libARUtils/obj/gen/Sources/ARUTILS_Error.c.o
                0x0000000000008e30                ARUTILS_Error_ToString
 *(.gnu.warning)

.fini           0x0000000000009068        0x9
 *(SORT(.fini))
 .fini          0x0000000000009068        0x4 /usr/lib/gcc/x86_64-linux-gnu/4.8/../../../x86_64-linux-gnu/crti.o
                0x0000000000009068                _fini
 .fini          0x000000000000906c        0x5 /usr/lib/gcc/x86_64-linux-gnu/4.8/../../../x86_64-linux-gnu/crtn.o
                0x0000000000009071                PROVIDE (__etext, .)
                0x0000000000009071                PROVIDE (_etext, .)
                0x0000000000009071                PROVIDE (etext, .)

.rodata         0x0000000000009080      0x920
 *(.rodata .rodata.* .gnu.linkonce.r.*)
 .rodata.str1.1
                0x0000000000009080       0x49 /home/sunho/bebop_ws/devel/arsdk/out/arsdk-native/build/libARUtils/obj/Sources/ARUTILS_FileSystem.c.o
 *fill*         0x00000000000090c9        0x7 
 .rodata.str1.8
                0x00000000000090d0       0x29 /home/sunho/bebop_ws/devel/arsdk/out/arsdk-native/build/libARUtils/obj/Sources/ARUTILS_FileSystem.c.o
 *fill*         0x00000000000090f9        0x7 
 .rodata        0x0000000000009100       0xcf /home/sunho/bebop_ws/devel/arsdk/out/arsdk-native/build/libARUtils/obj/Sources/ARUTILS_FileSystem.c.o
 .rodata.str1.1
                0x00000000000091cf       0xc4 /home/sunho/bebop_ws/devel/arsdk/out/arsdk-native/build/libARUtils/obj/Sources/ARUTILS_Http.c.o
                                         0xec (size before relaxing)
 *fill*         0x0000000000009293        0xd 
 .rodata        0x00000000000092a0       0xbc /home/sunho/bebop_ws/devel/arsdk/out/arsdk-native/build/libARUtils/obj/Sources/ARUTILS_Http.c.o
 *fill*         0x000000000000935c        0x4 
 .rodata.cst8   0x0000000000009360       0x10 /home/sunho/bebop_ws/devel/arsdk/out/arsdk-native/build/libARUtils/obj/Sources/ARUTILS_Http.c.o
 .rodata.str1.1
                0x0000000000009370        0x8 /home/sunho/bebop_ws/devel/arsdk/out/arsdk-native/build/libARUtils/obj/Sources/ARUTILS_Manager.c.o
                                         0x25 (size before relaxing)
 *fill*         0x0000000000009378        0x8 
 .rodata        0x0000000000009380       0x34 /home/sunho/bebop_ws/devel/arsdk/out/arsdk-native/build/libARUtils/obj/Sources/ARUTILS_Manager.c.o
 .rodata.str1.1
                0x00000000000093b4       0x94 /home/sunho/bebop_ws/devel/arsdk/out/arsdk-native/build/libARUtils/obj/Sources/ARUTILS_WifiFtp.c.o
                                         0xe8 (size before relaxing)
 .rodata.str1.8
                0x0000000000009448      0x109 /home/sunho/bebop_ws/devel/arsdk/out/arsdk-native/build/libARUtils/obj/Sources/ARUTILS_WifiFtp.c.o
 *fill*         0x0000000000009551        0xf 
 .rodata        0x0000000000009560      0x1ef /home/sunho/bebop_ws/devel/arsdk/out/arsdk-native/build/libARUtils/obj/Sources/ARUTILS_WifiFtp.c.o
 *fill*         0x000000000000974f        0x1 
 .rodata.cst8   0x0000000000009750        0x8 /home/sunho/bebop_ws/devel/arsdk/out/arsdk-native/build/libARUtils/obj/Sources/ARUTILS_WifiFtp.c.o
                                         0x18 (size before relaxing)
 .rodata.str1.1
                0x0000000000009758      0x209 /home/sunho/bebop_ws/devel/arsdk/out/arsdk-native/build/libARUtils/obj/gen/Sources/ARUTILS_Error.c.o
 *fill*         0x0000000000009961        0x7 
 .rodata.str1.8
                0x0000000000009968       0x38 /home/sunho/bebop_ws/devel/arsdk/out/arsdk-native/build/libARUtils/obj/gen/Sources/ARUTILS_Error.c.o
                                         0x33 (size before relaxing)

.rodata1
 *(.rodata1)

.eh_frame_hdr   0x00000000000099a0      0x29c
 *(.eh_frame_hdr)
 .eh_frame_hdr  0x00000000000099a0      0x29c /home/sunho/bebop_ws/devel/arsdk/out/arsdk-native/build/libARUtils/obj/Sources/ARUTILS_FileSystem.c.o

.eh_frame       0x0000000000009c40      0xf3c
 *(.eh_frame)
 .eh_frame      0x0000000000009c40       0x40 /usr/lib/gcc/x86_64-linux-gnu/4.8/../../../x86_64-linux-gnu/crti.o
 .eh_frame      0x0000000000009c80      0x1b0 /home/sunho/bebop_ws/devel/arsdk/out/arsdk-native/build/libARUtils/obj/Sources/ARUTILS_FileSystem.c.o
                                        0x198 (size before relaxing)
 .eh_frame      0x0000000000009e30      0x3b0 /home/sunho/bebop_ws/devel/arsdk/out/arsdk-native/build/libARUtils/obj/Sources/ARUTILS_Http.c.o
                                        0x3a0 (size before relaxing)
 .eh_frame      0x000000000000a1e0      0x1a8 /home/sunho/bebop_ws/devel/arsdk/out/arsdk-native/build/libARUtils/obj/Sources/ARUTILS_Manager.c.o
                                        0x188 (size before relaxing)
 .eh_frame      0x000000000000a388      0x7d8 /home/sunho/bebop_ws/devel/arsdk/out/arsdk-native/build/libARUtils/obj/Sources/ARUTILS_WifiFtp.c.o
                                        0x798 (size before relaxing)
 .eh_frame      0x000000000000ab60       0x18 /home/sunho/bebop_ws/devel/arsdk/out/arsdk-native/build/libARUtils/obj/gen/Sources/ARUTILS_Error.c.o
                                         0x30 (size before relaxing)
 .eh_frame      0x000000000000ab78        0x4 /usr/lib/gcc/x86_64-linux-gnu/4.8/crtendS.o

.gcc_except_table
 *(.gcc_except_table .gcc_except_table.*)

.exception_ranges
 *(.exception_ranges .exception_ranges*)
                0x000000000000ab7c                . = (ALIGN (0x200000) - ((0x200000 - .) & 0x1fffff))
                0x000000000020acf4                . = DATA_SEGMENT_ALIGN (0x200000, 0x1000)

.eh_frame
 *(.eh_frame)

.gcc_except_table
 *(.gcc_except_table .gcc_except_table.*)

.exception_ranges
 *(.exception_ranges .exception_ranges*)

.tdata
 *(.tdata .tdata.* .gnu.linkonce.td.*)

.tbss
 *(.tbss .tbss.* .gnu.linkonce.tb.*)
 *(.tcommon)

.preinit_array
 *(.preinit_array)

.init_array     0x000000000020acf8        0x8
 *(SORT(.init_array.*) SORT(.ctors.*))
 *(.init_array EXCLUDE_FILE(*crtend?.o *crtend.o *crtbegin?.o *crtbegin.o) .ctors)
 .init_array    0x000000000020acf8        0x8 /usr/lib/gcc/x86_64-linux-gnu/4.8/crtbeginS.o

.fini_array     0x000000000020ad00        0x8
 *(SORT(.fini_array.*) SORT(.dtors.*))
 *(.fini_array EXCLUDE_FILE(*crtend?.o *crtend.o *crtbegin?.o *crtbegin.o) .dtors)
 .fini_array    0x000000000020ad00        0x8 /usr/lib/gcc/x86_64-linux-gnu/4.8/crtbeginS.o

.ctors
 *crtbegin.o(.ctors)
 *crtbegin?.o(.ctors)
 *(EXCLUDE_FILE(*crtend?.o *crtend.o) .ctors)
 *(SORT(.ctors.*))
 *(.ctors)

.dtors
 *crtbegin.o(.dtors)
 *crtbegin?.o(.dtors)
 *(EXCLUDE_FILE(*crtend?.o *crtend.o) .dtors)
 *(SORT(.dtors.*))
 *(.dtors)

.jcr            0x000000000020ad08        0x8
 *(.jcr)
 .jcr           0x000000000020ad08        0x0 /usr/lib/gcc/x86_64-linux-gnu/4.8/crtbeginS.o
 .jcr           0x000000000020ad08        0x8 /usr/lib/gcc/x86_64-linux-gnu/4.8/crtendS.o

.data.rel.ro
 *(.data.rel.ro.local* .gnu.linkonce.d.rel.ro.local.*)
 *(.data.rel.ro .data.rel.ro.* .gnu.linkonce.d.rel.ro.*)

.dynamic        0x000000000020ad10      0x210
 *(.dynamic)
 .dynamic       0x000000000020ad10      0x210 /usr/lib/gcc/x86_64-linux-gnu/4.8/../../../x86_64-linux-gnu/crti.o
                0x000000000020ad10                _DYNAMIC

.got            0x000000000020af20       0xe0
 *(.got)
 .got           0x000000000020af20       0xe0 /usr/lib/gcc/x86_64-linux-gnu/4.8/../../../x86_64-linux-gnu/crti.o
 *(.igot)
                0x000000000020bfe8                . = DATA_SEGMENT_RELRO_END (., (SIZEOF (.got.plt) >= 0x18)?0x18:0x0)

.got.plt        0x000000000020b000      0x2b0
 *(.got.plt)
 .got.plt       0x000000000020b000      0x2b0 /usr/lib/gcc/x86_64-linux-gnu/4.8/../../../x86_64-linux-gnu/crti.o
                0x000000000020b000                _GLOBAL_OFFSET_TABLE_
 *(.igot.plt)

.data           0x000000000020b2b0        0x8
 *(.data .data.* .gnu.linkonce.d.*)
 .data.rel      0x000000000020b2b0        0x8 /usr/lib/gcc/x86_64-linux-gnu/4.8/crtbeginS.o
                0x000000000020b2b0                __dso_handle

.tm_clone_table
                0x000000000020b2b8        0x0
 .tm_clone_table
                0x000000000020b2b8        0x0 /usr/lib/gcc/x86_64-linux-gnu/4.8/crtbeginS.o
 .tm_clone_table
                0x000000000020b2b8        0x0 /usr/lib/gcc/x86_64-linux-gnu/4.8/crtendS.o

.data1
 *(.data1)
                0x000000000020b2b8                _edata = .
                0x000000000020b2b8                PROVIDE (edata, .)
                0x000000000020b2b8                . = .
                0x000000000020b2b8                __bss_start = .

.bss            0x000000000020b2b8        0x8
 *(.dynbss)
 .dynbss        0x0000000000000000        0x0 /usr/lib/gcc/x86_64-linux-gnu/4.8/../../../x86_64-linux-gnu/crti.o
 *(.bss .bss.* .gnu.linkonce.b.*)
 .bss           0x000000000020b2b8        0x1 /usr/lib/gcc/x86_64-linux-gnu/4.8/crtbeginS.o
 *(COMMON)
                0x000000000020b2c0                . = ALIGN ((. != 0x0)?0x8:0x1)
 *fill*         0x000000000020b2b9        0x7 

.lbss
 *(.dynlbss)
 *(.lbss .lbss.* .gnu.linkonce.lb.*)
 *(LARGE_COMMON)
                0x000000000020b2c0                . = ALIGN (0x8)
                0x000000000020b2c0                . = SEGMENT_START ("ldata-segment", .)

.lrodata
 *(.lrodata .lrodata.* .gnu.linkonce.lr.*)

.ldata          0x000000000060b2c0        0x0
 *(.ldata .ldata.* .gnu.linkonce.l.*)
                0x000000000060b2c0                . = ALIGN ((. != 0x0)?0x8:0x1)
                0x000000000060b2c0                . = ALIGN (0x8)
                0x000000000060b2c0                _end = .
                0x000000000060b2c0                PROVIDE (end, .)
                0x000000000060b2c0                . = DATA_SEGMENT_END (.)

.stab
 *(.stab)

.stabstr
 *(.stabstr)

.stab.excl
 *(.stab.excl)

.stab.exclstr
 *(.stab.exclstr)

.stab.index
 *(.stab.index)

.stab.indexstr
 *(.stab.indexstr)

.comment        0x0000000000000000       0x2b
 *(.comment)
 .comment       0x0000000000000000       0x2b /usr/lib/gcc/x86_64-linux-gnu/4.8/crtbeginS.o
                                         0x2c (size before relaxing)
 .comment       0x0000000000000000       0x2c /home/sunho/bebop_ws/devel/arsdk/out/arsdk-native/build/libARUtils/obj/Sources/ARUTILS_FileSystem.c.o
 .comment       0x0000000000000000       0x2c /home/sunho/bebop_ws/devel/arsdk/out/arsdk-native/build/libARUtils/obj/Sources/ARUTILS_Http.c.o
 .comment       0x0000000000000000       0x2c /home/sunho/bebop_ws/devel/arsdk/out/arsdk-native/build/libARUtils/obj/Sources/ARUTILS_Manager.c.o
 .comment       0x0000000000000000       0x2c /home/sunho/bebop_ws/devel/arsdk/out/arsdk-native/build/libARUtils/obj/Sources/ARUTILS_WifiFtp.c.o
 .comment       0x0000000000000000       0x2c /home/sunho/bebop_ws/devel/arsdk/out/arsdk-native/build/libARUtils/obj/gen/Sources/ARUTILS_Error.c.o
 .comment       0x0000000000000000       0x2c /usr/lib/gcc/x86_64-linux-gnu/4.8/crtendS.o

.debug
 *(.debug)

.line
 *(.line)

.debug_srcinfo
 *(.debug_srcinfo)

.debug_sfnames
 *(.debug_sfnames)

.debug_aranges  0x0000000000000000      0x5c0
 *(.debug_aranges)
 .debug_aranges
                0x0000000000000000       0x90 /home/sunho/bebop_ws/devel/arsdk/out/arsdk-native/build/libARUtils/obj/Sources/ARUTILS_FileSystem.c.o
 .debug_aranges
                0x0000000000000090      0x140 /home/sunho/bebop_ws/devel/arsdk/out/arsdk-native/build/libARUtils/obj/Sources/ARUTILS_Http.c.o
 .debug_aranges
                0x00000000000001d0      0x110 /home/sunho/bebop_ws/devel/arsdk/out/arsdk-native/build/libARUtils/obj/Sources/ARUTILS_Manager.c.o
 .debug_aranges
                0x00000000000002e0      0x2b0 /home/sunho/bebop_ws/devel/arsdk/out/arsdk-native/build/libARUtils/obj/Sources/ARUTILS_WifiFtp.c.o
 .debug_aranges
                0x0000000000000590       0x30 /home/sunho/bebop_ws/devel/arsdk/out/arsdk-native/build/libARUtils/obj/gen/Sources/ARUTILS_Error.c.o

.debug_pubnames
 *(.debug_pubnames)

.debug_info     0x0000000000000000     0xcd58
 *(.debug_info .gnu.linkonce.wi.*)
 .debug_info    0x0000000000000000     0x14f5 /home/sunho/bebop_ws/devel/arsdk/out/arsdk-native/build/libARUtils/obj/Sources/ARUTILS_FileSystem.c.o
 .debug_info    0x00000000000014f5     0x3fcd /home/sunho/bebop_ws/devel/arsdk/out/arsdk-native/build/libARUtils/obj/Sources/ARUTILS_Http.c.o
 .debug_info    0x00000000000054c2     0x112d /home/sunho/bebop_ws/devel/arsdk/out/arsdk-native/build/libARUtils/obj/Sources/ARUTILS_Manager.c.o
 .debug_info    0x00000000000065ef     0x6627 /home/sunho/bebop_ws/devel/arsdk/out/arsdk-native/build/libARUtils/obj/Sources/ARUTILS_WifiFtp.c.o
 .debug_info    0x000000000000cc16      0x142 /home/sunho/bebop_ws/devel/arsdk/out/arsdk-native/build/libARUtils/obj/gen/Sources/ARUTILS_Error.c.o

.debug_abbrev   0x0000000000000000      0xf65
 *(.debug_abbrev)
 .debug_abbrev  0x0000000000000000      0x2af /home/sunho/bebop_ws/devel/arsdk/out/arsdk-native/build/libARUtils/obj/Sources/ARUTILS_FileSystem.c.o
 .debug_abbrev  0x00000000000002af      0x4ac /home/sunho/bebop_ws/devel/arsdk/out/arsdk-native/build/libARUtils/obj/Sources/ARUTILS_Http.c.o
 .debug_abbrev  0x000000000000075b      0x24d /home/sunho/bebop_ws/devel/arsdk/out/arsdk-native/build/libARUtils/obj/Sources/ARUTILS_Manager.c.o
 .debug_abbrev  0x00000000000009a8      0x540 /home/sunho/bebop_ws/devel/arsdk/out/arsdk-native/build/libARUtils/obj/Sources/ARUTILS_WifiFtp.c.o
 .debug_abbrev  0x0000000000000ee8       0x7d /home/sunho/bebop_ws/devel/arsdk/out/arsdk-native/build/libARUtils/obj/gen/Sources/ARUTILS_Error.c.o

.debug_line     0x0000000000000000     0x212d
 *(.debug_line .debug_line.* .debug_line_end)
 .debug_line    0x0000000000000000      0x34c /home/sunho/bebop_ws/devel/arsdk/out/arsdk-native/build/libARUtils/obj/Sources/ARUTILS_FileSystem.c.o
 .debug_line    0x000000000000034c      0x967 /home/sunho/bebop_ws/devel/arsdk/out/arsdk-native/build/libARUtils/obj/Sources/ARUTILS_Http.c.o
 .debug_line    0x0000000000000cb3      0x37a /home/sunho/bebop_ws/devel/arsdk/out/arsdk-native/build/libARUtils/obj/Sources/ARUTILS_Manager.c.o
 .debug_line    0x000000000000102d      0xf81 /home/sunho/bebop_ws/devel/arsdk/out/arsdk-native/build/libARUtils/obj/Sources/ARUTILS_WifiFtp.c.o
 .debug_line    0x0000000000001fae      0x17f /home/sunho/bebop_ws/devel/arsdk/out/arsdk-native/build/libARUtils/obj/gen/Sources/ARUTILS_Error.c.o

.debug_frame
 *(.debug_frame)

.debug_str      0x0000000000000000     0x3f95
 *(.debug_str)
 .debug_str     0x0000000000000000      0xa8e /home/sunho/bebop_ws/devel/arsdk/out/arsdk-native/build/libARUtils/obj/Sources/ARUTILS_FileSystem.c.o
                                        0xb14 (size before relaxing)
 .debug_str     0x0000000000000a8e     0x2807 /home/sunho/bebop_ws/devel/arsdk/out/arsdk-native/build/libARUtils/obj/Sources/ARUTILS_Http.c.o
                                       0x3033 (size before relaxing)
 .debug_str     0x0000000000003295      0x51d /home/sunho/bebop_ws/devel/arsdk/out/arsdk-native/build/libARUtils/obj/Sources/ARUTILS_Manager.c.o
                                        0xcde (size before relaxing)
 .debug_str     0x00000000000037b2      0x79c /home/sunho/bebop_ws/devel/arsdk/out/arsdk-native/build/libARUtils/obj/Sources/ARUTILS_WifiFtp.c.o
                                       0x33be (size before relaxing)
 .debug_str     0x0000000000003f4e       0x47 /home/sunho/bebop_ws/devel/arsdk/out/arsdk-native/build/libARUtils/obj/gen/Sources/ARUTILS_Error.c.o
                                        0x3db (size before relaxing)

.debug_loc      0x0000000000000000     0xd226
 *(.debug_loc)
 .debug_loc     0x0000000000000000      0xa92 /home/sunho/bebop_ws/devel/arsdk/out/arsdk-native/build/libARUtils/obj/Sources/ARUTILS_FileSystem.c.o
 .debug_loc     0x0000000000000a92     0x3fdc /home/sunho/bebop_ws/devel/arsdk/out/arsdk-native/build/libARUtils/obj/Sources/ARUTILS_Http.c.o
 .debug_loc     0x0000000000004a6e      0xe1f /home/sunho/bebop_ws/devel/arsdk/out/arsdk-native/build/libARUtils/obj/Sources/ARUTILS_Manager.c.o
 .debug_loc     0x000000000000588d     0x7999 /home/sunho/bebop_ws/devel/arsdk/out/arsdk-native/build/libARUtils/obj/Sources/ARUTILS_WifiFtp.c.o

.debug_macinfo
 *(.debug_macinfo)

.debug_weaknames
 *(.debug_weaknames)

.debug_funcnames
 *(.debug_funcnames)

.debug_typenames
 *(.debug_typenames)

.debug_varnames
 *(.debug_varnames)

.debug_pubtypes
 *(.debug_pubtypes)

.debug_ranges   0x0000000000000000     0x1740
 *(.debug_ranges)
 .debug_ranges  0x0000000000000000      0x190 /home/sunho/bebop_ws/devel/arsdk/out/arsdk-native/build/libARUtils/obj/Sources/ARUTILS_FileSystem.c.o
 .debug_ranges  0x0000000000000190      0x740 /home/sunho/bebop_ws/devel/arsdk/out/arsdk-native/build/libARUtils/obj/Sources/ARUTILS_Http.c.o
 .debug_ranges  0x00000000000008d0      0x160 /home/sunho/bebop_ws/devel/arsdk/out/arsdk-native/build/libARUtils/obj/Sources/ARUTILS_Manager.c.o
 .debug_ranges  0x0000000000000a30      0xcf0 /home/sunho/bebop_ws/devel/arsdk/out/arsdk-native/build/libARUtils/obj/Sources/ARUTILS_WifiFtp.c.o
 .debug_ranges  0x0000000000001720       0x20 /home/sunho/bebop_ws/devel/arsdk/out/arsdk-native/build/libARUtils/obj/gen/Sources/ARUTILS_Error.c.o

.debug_macro
 *(.debug_macro)

.gnu.attributes
 *(.gnu.attributes)

/DISCARD/
 *(.note.GNU-stack)
 *(.gnu_debuglink)
 *(.gnu.lto_*)
OUTPUT(out/arsdk-native/build/libARUtils/libarutils.so elf64-x86-64)
