
As-needed library included to satisfy reference by file (symbol)

libarsal.so                   /home/sunho/bebop_ws/devel/arsdk/out/arsdk-native/build/libARCommands/obj/gen/Sources/ARCOMMANDS_Decoder.c.o (ARSAL_Mutex_Lock)
libc.so.6                     /home/sunho/bebop_ws/devel/arsdk/out/arsdk-native/build/libARCommands/obj/gen/Sources/ARCOMMANDS_ReadWrite.c.o (strcpy@@GLIBC_2.2.5)

Discarded input sections

 .text          0x0000000000000000        0x0 /usr/lib/gcc/x86_64-linux-gnu/4.8/../../../x86_64-linux-gnu/crti.o
 .data          0x0000000000000000        0x0 /usr/lib/gcc/x86_64-linux-gnu/4.8/../../../x86_64-linux-gnu/crti.o
 .bss           0x0000000000000000        0x0 /usr/lib/gcc/x86_64-linux-gnu/4.8/../../../x86_64-linux-gnu/crti.o
 .note.GNU-stack
                0x0000000000000000        0x0 /usr/lib/gcc/x86_64-linux-gnu/4.8/../../../x86_64-linux-gnu/crti.o
 .gnu_debuglink
                0x0000000000000000        0xc /usr/lib/gcc/x86_64-linux-gnu/4.8/../../../x86_64-linux-gnu/crti.o
 .data          0x0000000000000000        0x0 /usr/lib/gcc/x86_64-linux-gnu/4.8/crtbeginS.o
 .note.GNU-stack
                0x0000000000000000        0x0 /usr/lib/gcc/x86_64-linux-gnu/4.8/crtbeginS.o
 .text          0x0000000000000000        0x0 /home/sunho/bebop_ws/devel/arsdk/out/arsdk-native/build/libARCommands/obj/Sources/ARCOMMANDS_Version.c.o
 .data          0x0000000000000000        0x0 /home/sunho/bebop_ws/devel/arsdk/out/arsdk-native/build/libARCommands/obj/Sources/ARCOMMANDS_Version.c.o
 .bss           0x0000000000000000        0x0 /home/sunho/bebop_ws/devel/arsdk/out/arsdk-native/build/libARCommands/obj/Sources/ARCOMMANDS_Version.c.o
 .note.GNU-stack
                0x0000000000000000        0x0 /home/sunho/bebop_ws/devel/arsdk/out/arsdk-native/build/libARCommands/obj/Sources/ARCOMMANDS_Version.c.o
 .text          0x0000000000000000        0x0 /home/sunho/bebop_ws/devel/arsdk/out/arsdk-native/build/libARCommands/obj/gen/Sources/ARCOMMANDS_Generator.c.o
 .data          0x0000000000000000        0x0 /home/sunho/bebop_ws/devel/arsdk/out/arsdk-native/build/libARCommands/obj/gen/Sources/ARCOMMANDS_Generator.c.o
 .bss           0x0000000000000000        0x0 /home/sunho/bebop_ws/devel/arsdk/out/arsdk-native/build/libARCommands/obj/gen/Sources/ARCOMMANDS_Generator.c.o
 .note.GNU-stack
                0x0000000000000000        0x0 /home/sunho/bebop_ws/devel/arsdk/out/arsdk-native/build/libARCommands/obj/gen/Sources/ARCOMMANDS_Generator.c.o
 .text          0x0000000000000000        0x0 /home/sunho/bebop_ws/devel/arsdk/out/arsdk-native/build/libARCommands/obj/gen/Sources/ARCOMMANDS_Decoder.c.o
 .data          0x0000000000000000        0x0 /home/sunho/bebop_ws/devel/arsdk/out/arsdk-native/build/libARCommands/obj/gen/Sources/ARCOMMANDS_Decoder.c.o
 .note.GNU-stack
                0x0000000000000000        0x0 /home/sunho/bebop_ws/devel/arsdk/out/arsdk-native/build/libARCommands/obj/gen/Sources/ARCOMMANDS_Decoder.c.o
 .text          0x0000000000000000        0x0 /home/sunho/bebop_ws/devel/arsdk/out/arsdk-native/build/libARCommands/obj/gen/Sources/ARCOMMANDS_Filter.c.o
 .data          0x0000000000000000        0x0 /home/sunho/bebop_ws/devel/arsdk/out/arsdk-native/build/libARCommands/obj/gen/Sources/ARCOMMANDS_Filter.c.o
 .bss           0x0000000000000000        0x0 /home/sunho/bebop_ws/devel/arsdk/out/arsdk-native/build/libARCommands/obj/gen/Sources/ARCOMMANDS_Filter.c.o
 .note.GNU-stack
                0x0000000000000000        0x0 /home/sunho/bebop_ws/devel/arsdk/out/arsdk-native/build/libARCommands/obj/gen/Sources/ARCOMMANDS_Filter.c.o
 .text          0x0000000000000000        0x0 /home/sunho/bebop_ws/devel/arsdk/out/arsdk-native/build/libARCommands/obj/gen/Sources/ARCOMMANDS_ReadWrite.c.o
 .data          0x0000000000000000        0x0 /home/sunho/bebop_ws/devel/arsdk/out/arsdk-native/build/libARCommands/obj/gen/Sources/ARCOMMANDS_ReadWrite.c.o
 .bss           0x0000000000000000        0x0 /home/sunho/bebop_ws/devel/arsdk/out/arsdk-native/build/libARCommands/obj/gen/Sources/ARCOMMANDS_ReadWrite.c.o
 .note.GNU-stack
                0x0000000000000000        0x0 /home/sunho/bebop_ws/devel/arsdk/out/arsdk-native/build/libARCommands/obj/gen/Sources/ARCOMMANDS_ReadWrite.c.o
 .text          0x0000000000000000        0x0 /usr/lib/gcc/x86_64-linux-gnu/4.8/crtendS.o
 .data          0x0000000000000000        0x0 /usr/lib/gcc/x86_64-linux-gnu/4.8/crtendS.o
 .bss           0x0000000000000000        0x0 /usr/lib/gcc/x86_64-linux-gnu/4.8/crtendS.o
 .note.GNU-stack
                0x0000000000000000        0x0 /usr/lib/gcc/x86_64-linux-gnu/4.8/crtendS.o
 .text          0x0000000000000000        0x0 /usr/lib/gcc/x86_64-linux-gnu/4.8/../../../x86_64-linux-gnu/crtn.o
 .data          0x0000000000000000        0x0 /usr/lib/gcc/x86_64-linux-gnu/4.8/../../../x86_64-linux-gnu/crtn.o
 .bss           0x0000000000000000        0x0 /usr/lib/gcc/x86_64-linux-gnu/4.8/../../../x86_64-linux-gnu/crtn.o
 .note.GNU-stack
                0x0000000000000000        0x0 /usr/lib/gcc/x86_64-linux-gnu/4.8/../../../x86_64-linux-gnu/crtn.o
 .gnu_debuglink
                0x0000000000000000        0xc /usr/lib/gcc/x86_64-linux-gnu/4.8/../../../x86_64-linux-gnu/crtn.o

Memory Configuration

Name             Origin             Length             Attributes
*default*        0x0000000000000000 0xffffffffffffffff

Linker script and memory map

LOAD /usr/lib/gcc/x86_64-linux-gnu/4.8/../../../x86_64-linux-gnu/crti.o
LOAD /usr/lib/gcc/x86_64-linux-gnu/4.8/crtbeginS.o
LOAD /home/sunho/bebop_ws/devel/arsdk/out/arsdk-native/build/libARCommands/obj/Sources/ARCOMMANDS_Version.c.o
LOAD /home/sunho/bebop_ws/devel/arsdk/out/arsdk-native/build/libARCommands/obj/gen/Sources/ARCOMMANDS_Generator.c.o
LOAD /home/sunho/bebop_ws/devel/arsdk/out/arsdk-native/build/libARCommands/obj/gen/Sources/ARCOMMANDS_Decoder.c.o
LOAD /home/sunho/bebop_ws/devel/arsdk/out/arsdk-native/build/libARCommands/obj/gen/Sources/ARCOMMANDS_Filter.c.o
LOAD /home/sunho/bebop_ws/devel/arsdk/out/arsdk-native/build/libARCommands/obj/gen/Sources/ARCOMMANDS_ReadWrite.c.o
LOAD /home/sunho/bebop_ws/devel/arsdk/out/arsdk-native/staging/usr/lib/libarsal.so
LOAD /usr/lib/gcc/x86_64-linux-gnu/4.8/../../../x86_64-linux-gnu/librt.so
LOAD /usr/lib/gcc/x86_64-linux-gnu/4.8/libstdc++.so
LOAD /usr/lib/gcc/x86_64-linux-gnu/4.8/../../../x86_64-linux-gnu/libm.so
LOAD /usr/lib/gcc/x86_64-linux-gnu/4.8/libgcc_s.so
LOAD /usr/lib/gcc/x86_64-linux-gnu/4.8/../../../x86_64-linux-gnu/libpthread.so
START GROUP
LOAD /lib/x86_64-linux-gnu/libpthread.so.0
LOAD /usr/lib/x86_64-linux-gnu/libpthread_nonshared.a
END GROUP
LOAD /usr/lib/gcc/x86_64-linux-gnu/4.8/../../../x86_64-linux-gnu/libc.so
START GROUP
LOAD /lib/x86_64-linux-gnu/libc.so.6
LOAD /usr/lib/x86_64-linux-gnu/libc_nonshared.a
LOAD /lib/x86_64-linux-gnu/ld-linux-x86-64.so.2
END GROUP
LOAD /usr/lib/gcc/x86_64-linux-gnu/4.8/libgcc_s.so
LOAD /usr/lib/gcc/x86_64-linux-gnu/4.8/crtendS.o
LOAD /usr/lib/gcc/x86_64-linux-gnu/4.8/../../../x86_64-linux-gnu/crtn.o
                0x00000000000001c8                . = (0x0 + SIZEOF_HEADERS)

.note.gnu.build-id
                0x00000000000001c8       0x24
 *(.note.gnu.build-id)
 .note.gnu.build-id
                0x00000000000001c8       0x24 /usr/lib/gcc/x86_64-linux-gnu/4.8/../../../x86_64-linux-gnu/crti.o

.hash
 *(.hash)

.gnu.hash       0x00000000000001f0     0x4b3c
 *(.gnu.hash)
 .gnu.hash      0x00000000000001f0     0x4b3c /usr/lib/gcc/x86_64-linux-gnu/4.8/../../../x86_64-linux-gnu/crti.o

.dynsym         0x0000000000004d30     0xd4a0
 *(.dynsym)
 .dynsym        0x0000000000004d30     0xd4a0 /usr/lib/gcc/x86_64-linux-gnu/4.8/../../../x86_64-linux-gnu/crti.o

.dynstr         0x00000000000121d0    0x2335b
 *(.dynstr)
 .dynstr        0x00000000000121d0    0x2335b /usr/lib/gcc/x86_64-linux-gnu/4.8/../../../x86_64-linux-gnu/crti.o

.gnu.version    0x000000000003552c     0x11b8
 *(.gnu.version)
 .gnu.version   0x000000000003552c     0x11b8 /usr/lib/gcc/x86_64-linux-gnu/4.8/../../../x86_64-linux-gnu/crti.o

.gnu.version_d  0x00000000000366e8        0x0
 *(.gnu.version_d)
 .gnu.version_d
                0x0000000000000000        0x0 /usr/lib/gcc/x86_64-linux-gnu/4.8/../../../x86_64-linux-gnu/crti.o

.gnu.version_r  0x00000000000366e8       0x40
 *(.gnu.version_r)
 .gnu.version_r
                0x00000000000366e8       0x40 /usr/lib/gcc/x86_64-linux-gnu/4.8/../../../x86_64-linux-gnu/crti.o

.rela.dyn       0x0000000000036728       0xc0
 *(.rela.init)
 *(.rela.text .rela.text.* .rela.gnu.linkonce.t.*)
 .rela.text     0x0000000000000000        0x0 /usr/lib/gcc/x86_64-linux-gnu/4.8/../../../x86_64-linux-gnu/crti.o
 *(.rela.fini)
 *(.rela.rodata .rela.rodata.* .rela.gnu.linkonce.r.*)
 *(.rela.data .rela.data.* .rela.gnu.linkonce.d.*)
 .rela.data.rel
                0x0000000000036728       0x18 /usr/lib/gcc/x86_64-linux-gnu/4.8/../../../x86_64-linux-gnu/crti.o
 *(.rela.tdata .rela.tdata.* .rela.gnu.linkonce.td.*)
 *(.rela.tbss .rela.tbss.* .rela.gnu.linkonce.tb.*)
 *(.rela.ctors)
 *(.rela.dtors)
 *(.rela.got)
 .rela.got      0x0000000000036740       0x78 /usr/lib/gcc/x86_64-linux-gnu/4.8/../../../x86_64-linux-gnu/crti.o
 *(.rela.bss .rela.bss.* .rela.gnu.linkonce.b.*)
 *(.rela.ldata .rela.ldata.* .rela.gnu.linkonce.l.*)
 *(.rela.lbss .rela.lbss.* .rela.gnu.linkonce.lb.*)
 *(.rela.lrodata .rela.lrodata.* .rela.gnu.linkonce.lr.*)
 *(.rela.ifunc)
 .rela.ifunc    0x0000000000000000        0x0 /usr/lib/gcc/x86_64-linux-gnu/4.8/../../../x86_64-linux-gnu/crti.o
 .rela.fini_array
                0x00000000000367b8       0x18 /usr/lib/gcc/x86_64-linux-gnu/4.8/../../../x86_64-linux-gnu/crti.o
 .rela.init_array
                0x00000000000367d0       0x18 /usr/lib/gcc/x86_64-linux-gnu/4.8/../../../x86_64-linux-gnu/crti.o

.rela.plt       0x00000000000367e8      0x3d8
 *(.rela.plt)
 .rela.plt      0x00000000000367e8      0x3d8 /usr/lib/gcc/x86_64-linux-gnu/4.8/../../../x86_64-linux-gnu/crti.o
 *(.rela.iplt)

.init           0x0000000000036bc0       0x1a
 *(SORT(.init))
 .init          0x0000000000036bc0       0x15 /usr/lib/gcc/x86_64-linux-gnu/4.8/../../../x86_64-linux-gnu/crti.o
                0x0000000000036bc0                _init
 .init          0x0000000000036bd5        0x5 /usr/lib/gcc/x86_64-linux-gnu/4.8/../../../x86_64-linux-gnu/crtn.o

.plt            0x0000000000036be0      0x2a0
 *(.plt)
 .plt           0x0000000000036be0      0x2a0 /usr/lib/gcc/x86_64-linux-gnu/4.8/../../../x86_64-linux-gnu/crti.o
 *(.iplt)

.text           0x0000000000036e80    0x6d245
 *(.text.unlikely .text.*_unlikely .text.unlikely.*)
 *(.text.exit .text.exit.*)
 *(.text.startup .text.startup.*)
 *(.text.hot .text.hot.*)
 *(.text .stub .text.* .gnu.linkonce.t.*)
 .text          0x0000000000036e80       0xe5 /usr/lib/gcc/x86_64-linux-gnu/4.8/crtbeginS.o
 *fill*         0x0000000000036f65        0xb 
 .text.ARCOMMANDS_Version_CompareVersions
                0x0000000000036f70       0x1e /home/sunho/bebop_ws/devel/arsdk/out/arsdk-native/build/libARCommands/obj/Sources/ARCOMMANDS_Version.c.o
                0x0000000000036f70                ARCOMMANDS_Version_CompareVersions
 *fill*         0x0000000000036f8e        0x2 
 .text.ARCOMMANDS_Version_CompareVersionCodes
                0x0000000000036f90       0xc3 /home/sunho/bebop_ws/devel/arsdk/out/arsdk-native/build/libARCommands/obj/Sources/ARCOMMANDS_Version.c.o
                0x0000000000036f90                ARCOMMANDS_Version_CompareVersionCodes
 *fill*         0x0000000000037053        0xd 
 .text.ARCOMMANDS_Generator_GenerateGenericDefault
                0x0000000000037060       0x7a /home/sunho/bebop_ws/devel/arsdk/out/arsdk-native/build/libARCommands/obj/gen/Sources/ARCOMMANDS_Generator.c.o
                0x0000000000037060                ARCOMMANDS_Generator_GenerateGenericDefault
 *fill*         0x00000000000370da        0x6 
 .text.ARCOMMANDS_Generator_GenerateARDrone3PilotingFlatTrim
                0x00000000000370e0       0x7a /home/sunho/bebop_ws/devel/arsdk/out/arsdk-native/build/libARCommands/obj/gen/Sources/ARCOMMANDS_Generator.c.o
                0x00000000000370e0                ARCOMMANDS_Generator_GenerateARDrone3PilotingFlatTrim
 *fill*         0x000000000003715a        0x6 
 .text.ARCOMMANDS_Generator_GenerateARDrone3PilotingTakeOff
                0x0000000000037160       0x7a /home/sunho/bebop_ws/devel/arsdk/out/arsdk-native/build/libARCommands/obj/gen/Sources/ARCOMMANDS_Generator.c.o
                0x0000000000037160                ARCOMMANDS_Generator_GenerateARDrone3PilotingTakeOff
 *fill*         0x00000000000371da        0x6 
 .text.ARCOMMANDS_Generator_GenerateARDrone3PilotingPCMD
                0x00000000000371e0      0x14c /home/sunho/bebop_ws/devel/arsdk/out/arsdk-native/build/libARCommands/obj/gen/Sources/ARCOMMANDS_Generator.c.o
                0x00000000000371e0                ARCOMMANDS_Generator_GenerateARDrone3PilotingPCMD
 *fill*         0x000000000003732c        0x4 
 .text.ARCOMMANDS_Generator_GenerateARDrone3PilotingLanding
                0x0000000000037330       0x7a /home/sunho/bebop_ws/devel/arsdk/out/arsdk-native/build/libARCommands/obj/gen/Sources/ARCOMMANDS_Generator.c.o
                0x0000000000037330                ARCOMMANDS_Generator_GenerateARDrone3PilotingLanding
 *fill*         0x00000000000373aa        0x6 
 .text.ARCOMMANDS_Generator_GenerateARDrone3PilotingEmergency
                0x00000000000373b0       0x7a /home/sunho/bebop_ws/devel/arsdk/out/arsdk-native/build/libARCommands/obj/gen/Sources/ARCOMMANDS_Generator.c.o
                0x00000000000373b0                ARCOMMANDS_Generator_GenerateARDrone3PilotingEmergency
 *fill*         0x000000000003742a        0x6 
 .text.ARCOMMANDS_Generator_GenerateARDrone3PilotingNavigateHome
                0x0000000000037430       0xa0 /home/sunho/bebop_ws/devel/arsdk/out/arsdk-native/build/libARCommands/obj/gen/Sources/ARCOMMANDS_Generator.c.o
                0x0000000000037430                ARCOMMANDS_Generator_GenerateARDrone3PilotingNavigateHome
 .text.ARCOMMANDS_Generator_GenerateARDrone3PilotingAutoTakeOffMode
                0x00000000000374d0       0xa0 /home/sunho/bebop_ws/devel/arsdk/out/arsdk-native/build/libARCommands/obj/gen/Sources/ARCOMMANDS_Generator.c.o
                0x00000000000374d0                ARCOMMANDS_Generator_GenerateARDrone3PilotingAutoTakeOffMode
 .text.ARCOMMANDS_Generator_GenerateARDrone3PilotingMoveBy
                0x0000000000037570       0xfe /home/sunho/bebop_ws/devel/arsdk/out/arsdk-native/build/libARCommands/obj/gen/Sources/ARCOMMANDS_Generator.c.o
                0x0000000000037570                ARCOMMANDS_Generator_GenerateARDrone3PilotingMoveBy
 *fill*         0x000000000003766e        0x2 
 .text.ARCOMMANDS_Generator_GenerateARDrone3PilotingUserTakeOff
                0x0000000000037670       0xa0 /home/sunho/bebop_ws/devel/arsdk/out/arsdk-native/build/libARCommands/obj/gen/Sources/ARCOMMANDS_Generator.c.o
                0x0000000000037670                ARCOMMANDS_Generator_GenerateARDrone3PilotingUserTakeOff
 .text.ARCOMMANDS_Generator_GenerateARDrone3PilotingCircle
                0x0000000000037710       0xa0 /home/sunho/bebop_ws/devel/arsdk/out/arsdk-native/build/libARCommands/obj/gen/Sources/ARCOMMANDS_Generator.c.o
                0x0000000000037710                ARCOMMANDS_Generator_GenerateARDrone3PilotingCircle
 .text.ARCOMMANDS_Generator_GenerateARDrone3AnimationsFlip
                0x00000000000377b0       0xa0 /home/sunho/bebop_ws/devel/arsdk/out/arsdk-native/build/libARCommands/obj/gen/Sources/ARCOMMANDS_Generator.c.o
                0x00000000000377b0                ARCOMMANDS_Generator_GenerateARDrone3AnimationsFlip
 .text.ARCOMMANDS_Generator_GenerateARDrone3CameraOrientation
                0x0000000000037850       0xb6 /home/sunho/bebop_ws/devel/arsdk/out/arsdk-native/build/libARCommands/obj/gen/Sources/ARCOMMANDS_Generator.c.o
                0x0000000000037850                ARCOMMANDS_Generator_GenerateARDrone3CameraOrientation
 *fill*         0x0000000000037906        0xa 
 .text.ARCOMMANDS_Generator_GenerateARDrone3MediaRecordPicture
                0x0000000000037910       0xa0 /home/sunho/bebop_ws/devel/arsdk/out/arsdk-native/build/libARCommands/obj/gen/Sources/ARCOMMANDS_Generator.c.o
                0x0000000000037910                ARCOMMANDS_Generator_GenerateARDrone3MediaRecordPicture
 .text.ARCOMMANDS_Generator_GenerateARDrone3MediaRecordVideo
                0x00000000000379b0       0xb6 /home/sunho/bebop_ws/devel/arsdk/out/arsdk-native/build/libARCommands/obj/gen/Sources/ARCOMMANDS_Generator.c.o
                0x00000000000379b0                ARCOMMANDS_Generator_GenerateARDrone3MediaRecordVideo
 *fill*         0x0000000000037a66        0xa 
 .text.ARCOMMANDS_Generator_GenerateARDrone3MediaRecordPictureV2
                0x0000000000037a70       0x82 /home/sunho/bebop_ws/devel/arsdk/out/arsdk-native/build/libARCommands/obj/gen/Sources/ARCOMMANDS_Generator.c.o
                0x0000000000037a70                ARCOMMANDS_Generator_GenerateARDrone3MediaRecordPictureV2
 *fill*         0x0000000000037af2        0xe 
 .text.ARCOMMANDS_Generator_GenerateARDrone3MediaRecordVideoV2
                0x0000000000037b00       0xa0 /home/sunho/bebop_ws/devel/arsdk/out/arsdk-native/build/libARCommands/obj/gen/Sources/ARCOMMANDS_Generator.c.o
                0x0000000000037b00                ARCOMMANDS_Generator_GenerateARDrone3MediaRecordVideoV2
 .text.ARCOMMANDS_Generator_GenerateARDrone3NetworkWifiScan
                0x0000000000037ba0       0xa0 /home/sunho/bebop_ws/devel/arsdk/out/arsdk-native/build/libARCommands/obj/gen/Sources/ARCOMMANDS_Generator.c.o
                0x0000000000037ba0                ARCOMMANDS_Generator_GenerateARDrone3NetworkWifiScan
 .text.ARCOMMANDS_Generator_GenerateARDrone3NetworkWifiAuthChannel
                0x0000000000037c40       0x82 /home/sunho/bebop_ws/devel/arsdk/out/arsdk-native/build/libARCommands/obj/gen/Sources/ARCOMMANDS_Generator.c.o
                0x0000000000037c40                ARCOMMANDS_Generator_GenerateARDrone3NetworkWifiAuthChannel
 *fill*         0x0000000000037cc2        0xe 
 .text.ARCOMMANDS_Generator_GenerateARDrone3PilotingSettingsMaxAltitude
                0x0000000000037cd0       0x9e /home/sunho/bebop_ws/devel/arsdk/out/arsdk-native/build/libARCommands/obj/gen/Sources/ARCOMMANDS_Generator.c.o
                0x0000000000037cd0                ARCOMMANDS_Generator_GenerateARDrone3PilotingSettingsMaxAltitude
 *fill*         0x0000000000037d6e        0x2 
 .text.ARCOMMANDS_Generator_GenerateARDrone3PilotingSettingsMaxTilt
                0x0000000000037d70       0x9e /home/sunho/bebop_ws/devel/arsdk/out/arsdk-native/build/libARCommands/obj/gen/Sources/ARCOMMANDS_Generator.c.o
                0x0000000000037d70                ARCOMMANDS_Generator_GenerateARDrone3PilotingSettingsMaxTilt
 *fill*         0x0000000000037e0e        0x2 
 .text.ARCOMMANDS_Generator_GenerateARDrone3PilotingSettingsAbsolutControl
                0x0000000000037e10       0xa8 /home/sunho/bebop_ws/devel/arsdk/out/arsdk-native/build/libARCommands/obj/gen/Sources/ARCOMMANDS_Generator.c.o
                0x0000000000037e10                ARCOMMANDS_Generator_GenerateARDrone3PilotingSettingsAbsolutControl
 *fill*         0x0000000000037eb8        0x8 
 .text.ARCOMMANDS_Generator_GenerateARDrone3PilotingSettingsMaxDistance
                0x0000000000037ec0       0x9e /home/sunho/bebop_ws/devel/arsdk/out/arsdk-native/build/libARCommands/obj/gen/Sources/ARCOMMANDS_Generator.c.o
                0x0000000000037ec0                ARCOMMANDS_Generator_GenerateARDrone3PilotingSettingsMaxDistance
 *fill*         0x0000000000037f5e        0x2 
 .text.ARCOMMANDS_Generator_GenerateARDrone3PilotingSettingsNoFlyOverMaxDistance
                0x0000000000037f60       0xa8 /home/sunho/bebop_ws/devel/arsdk/out/arsdk-native/build/libARCommands/obj/gen/Sources/ARCOMMANDS_Generator.c.o
                0x0000000000037f60                ARCOMMANDS_Generator_GenerateARDrone3PilotingSettingsNoFlyOverMaxDistance
 *fill*         0x0000000000038008        0x8 
 .text.ARCOMMANDS_Generator_GenerateARDrone3PilotingSettingsSetAutonomousFlightMaxHorizontalSpeed
                0x0000000000038010       0x9e /home/sunho/bebop_ws/devel/arsdk/out/arsdk-native/build/libARCommands/obj/gen/Sources/ARCOMMANDS_Generator.c.o
                0x0000000000038010                ARCOMMANDS_Generator_GenerateARDrone3PilotingSettingsSetAutonomousFlightMaxHorizontalSpeed
 *fill*         0x00000000000380ae        0x2 
 .text.ARCOMMANDS_Generator_GenerateARDrone3PilotingSettingsSetAutonomousFlightMaxVerticalSpeed
                0x00000000000380b0       0x9e /home/sunho/bebop_ws/devel/arsdk/out/arsdk-native/build/libARCommands/obj/gen/Sources/ARCOMMANDS_Generator.c.o
                0x00000000000380b0                ARCOMMANDS_Generator_GenerateARDrone3PilotingSettingsSetAutonomousFlightMaxVerticalSpeed
 *fill*         0x000000000003814e        0x2 
 .text.ARCOMMANDS_Generator_GenerateARDrone3PilotingSettingsSetAutonomousFlightMaxHorizontalAcceleration
                0x0000000000038150       0x9e /home/sunho/bebop_ws/devel/arsdk/out/arsdk-native/build/libARCommands/obj/gen/Sources/ARCOMMANDS_Generator.c.o
                0x0000000000038150                ARCOMMANDS_Generator_GenerateARDrone3PilotingSettingsSetAutonomousFlightMaxHorizontalAcceleration
 *fill*         0x00000000000381ee        0x2 
 .text.ARCOMMANDS_Generator_GenerateARDrone3PilotingSettingsSetAutonomousFlightMaxVerticalAcceleration
                0x00000000000381f0       0x9e /home/sunho/bebop_ws/devel/arsdk/out/arsdk-native/build/libARCommands/obj/gen/Sources/ARCOMMANDS_Generator.c.o
                0x00000000000381f0                ARCOMMANDS_Generator_GenerateARDrone3PilotingSettingsSetAutonomousFlightMaxVerticalAcceleration
 *fill*         0x000000000003828e        0x2 
 .text.ARCOMMANDS_Generator_GenerateARDrone3PilotingSettingsSetAutonomousFlightMaxRotationSpeed
                0x0000000000038290       0x9e /home/sunho/bebop_ws/devel/arsdk/out/arsdk-native/build/libARCommands/obj/gen/Sources/ARCOMMANDS_Generator.c.o
                0x0000000000038290                ARCOMMANDS_Generator_GenerateARDrone3PilotingSettingsSetAutonomousFlightMaxRotationSpeed
 *fill*         0x000000000003832e        0x2 
 .text.ARCOMMANDS_Generator_GenerateARDrone3PilotingSettingsBankedTurn
                0x0000000000038330       0xa8 /home/sunho/bebop_ws/devel/arsdk/out/arsdk-native/build/libARCommands/obj/gen/Sources/ARCOMMANDS_Generator.c.o
                0x0000000000038330                ARCOMMANDS_Generator_GenerateARDrone3PilotingSettingsBankedTurn
 *fill*         0x00000000000383d8        0x8 
 .text.ARCOMMANDS_Generator_GenerateARDrone3PilotingSettingsMinAltitude
                0x00000000000383e0       0x9e /home/sunho/bebop_ws/devel/arsdk/out/arsdk-native/build/libARCommands/obj/gen/Sources/ARCOMMANDS_Generator.c.o
                0x00000000000383e0                ARCOMMANDS_Generator_GenerateARDrone3PilotingSettingsMinAltitude
 *fill*         0x000000000003847e        0x2 
 .text.ARCOMMANDS_Generator_GenerateARDrone3PilotingSettingsCirclingDirection
                0x0000000000038480       0xa0 /home/sunho/bebop_ws/devel/arsdk/out/arsdk-native/build/libARCommands/obj/gen/Sources/ARCOMMANDS_Generator.c.o
                0x0000000000038480                ARCOMMANDS_Generator_GenerateARDrone3PilotingSettingsCirclingDirection
 .text.ARCOMMANDS_Generator_GenerateARDrone3PilotingSettingsCirclingRadius
                0x0000000000038520       0xa8 /home/sunho/bebop_ws/devel/arsdk/out/arsdk-native/build/libARCommands/obj/gen/Sources/ARCOMMANDS_Generator.c.o
                0x0000000000038520                ARCOMMANDS_Generator_GenerateARDrone3PilotingSettingsCirclingRadius
 *fill*         0x00000000000385c8        0x8 
 .text.ARCOMMANDS_Generator_GenerateARDrone3PilotingSettingsCirclingAltitude
                0x00000000000385d0       0xa8 /home/sunho/bebop_ws/devel/arsdk/out/arsdk-native/build/libARCommands/obj/gen/Sources/ARCOMMANDS_Generator.c.o
                0x00000000000385d0                ARCOMMANDS_Generator_GenerateARDrone3PilotingSettingsCirclingAltitude
 *fill*         0x0000000000038678        0x8 
 .text.ARCOMMANDS_Generator_GenerateARDrone3PilotingSettingsPitchMode
                0x0000000000038680       0xa0 /home/sunho/bebop_ws/devel/arsdk/out/arsdk-native/build/libARCommands/obj/gen/Sources/ARCOMMANDS_Generator.c.o
                0x0000000000038680                ARCOMMANDS_Generator_GenerateARDrone3PilotingSettingsPitchMode
 .text.ARCOMMANDS_Generator_GenerateARDrone3SpeedSettingsMaxVerticalSpeed
                0x0000000000038720       0x9e /home/sunho/bebop_ws/devel/arsdk/out/arsdk-native/build/libARCommands/obj/gen/Sources/ARCOMMANDS_Generator.c.o
                0x0000000000038720                ARCOMMANDS_Generator_GenerateARDrone3SpeedSettingsMaxVerticalSpeed
 *fill*         0x00000000000387be        0x2 
 .text.ARCOMMANDS_Generator_GenerateARDrone3SpeedSettingsMaxRotationSpeed
                0x00000000000387c0       0x9e /home/sunho/bebop_ws/devel/arsdk/out/arsdk-native/build/libARCommands/obj/gen/Sources/ARCOMMANDS_Generator.c.o
                0x00000000000387c0                ARCOMMANDS_Generator_GenerateARDrone3SpeedSettingsMaxRotationSpeed
 *fill*         0x000000000003885e        0x2 
 .text.ARCOMMANDS_Generator_GenerateARDrone3SpeedSettingsHullProtection
                0x0000000000038860       0xa8 /home/sunho/bebop_ws/devel/arsdk/out/arsdk-native/build/libARCommands/obj/gen/Sources/ARCOMMANDS_Generator.c.o
                0x0000000000038860                ARCOMMANDS_Generator_GenerateARDrone3SpeedSettingsHullProtection
 *fill*         0x0000000000038908        0x8 
 .text.ARCOMMANDS_Generator_GenerateARDrone3SpeedSettingsOutdoor
                0x0000000000038910       0xa8 /home/sunho/bebop_ws/devel/arsdk/out/arsdk-native/build/libARCommands/obj/gen/Sources/ARCOMMANDS_Generator.c.o
                0x0000000000038910                ARCOMMANDS_Generator_GenerateARDrone3SpeedSettingsOutdoor
 *fill*         0x00000000000389b8        0x8 
 .text.ARCOMMANDS_Generator_GenerateARDrone3SpeedSettingsMaxPitchRollRotationSpeed
                0x00000000000389c0       0x9e /home/sunho/bebop_ws/devel/arsdk/out/arsdk-native/build/libARCommands/obj/gen/Sources/ARCOMMANDS_Generator.c.o
                0x00000000000389c0                ARCOMMANDS_Generator_GenerateARDrone3SpeedSettingsMaxPitchRollRotationSpeed
 *fill*         0x0000000000038a5e        0x2 
 .text.ARCOMMANDS_Generator_GenerateARDrone3NetworkSettingsWifiSelection
                0x0000000000038a60       0xe4 /home/sunho/bebop_ws/devel/arsdk/out/arsdk-native/build/libARCommands/obj/gen/Sources/ARCOMMANDS_Generator.c.o
                0x0000000000038a60                ARCOMMANDS_Generator_GenerateARDrone3NetworkSettingsWifiSelection
 *fill*         0x0000000000038b44        0xc 
 .text.ARCOMMANDS_Generator_GenerateARDrone3NetworkSettingsWifiSecurity
                0x0000000000038b50      0x10c /home/sunho/bebop_ws/devel/arsdk/out/arsdk-native/build/libARCommands/obj/gen/Sources/ARCOMMANDS_Generator.c.o
                0x0000000000038b50                ARCOMMANDS_Generator_GenerateARDrone3NetworkSettingsWifiSecurity
 *fill*         0x0000000000038c5c        0x4 
 .text.ARCOMMANDS_Generator_GenerateARDrone3PictureSettingsPictureFormatSelection
                0x0000000000038c60       0xa0 /home/sunho/bebop_ws/devel/arsdk/out/arsdk-native/build/libARCommands/obj/gen/Sources/ARCOMMANDS_Generator.c.o
                0x0000000000038c60                ARCOMMANDS_Generator_GenerateARDrone3PictureSettingsPictureFormatSelection
 .text.ARCOMMANDS_Generator_GenerateARDrone3PictureSettingsAutoWhiteBalanceSelection
                0x0000000000038d00       0xa0 /home/sunho/bebop_ws/devel/arsdk/out/arsdk-native/build/libARCommands/obj/gen/Sources/ARCOMMANDS_Generator.c.o
                0x0000000000038d00                ARCOMMANDS_Generator_GenerateARDrone3PictureSettingsAutoWhiteBalanceSelection
 .text.ARCOMMANDS_Generator_GenerateARDrone3PictureSettingsExpositionSelection
                0x0000000000038da0       0x9e /home/sunho/bebop_ws/devel/arsdk/out/arsdk-native/build/libARCommands/obj/gen/Sources/ARCOMMANDS_Generator.c.o
                0x0000000000038da0                ARCOMMANDS_Generator_GenerateARDrone3PictureSettingsExpositionSelection
 *fill*         0x0000000000038e3e        0x2 
 .text.ARCOMMANDS_Generator_GenerateARDrone3PictureSettingsSaturationSelection
                0x0000000000038e40       0x9e /home/sunho/bebop_ws/devel/arsdk/out/arsdk-native/build/libARCommands/obj/gen/Sources/ARCOMMANDS_Generator.c.o
                0x0000000000038e40                ARCOMMANDS_Generator_GenerateARDrone3PictureSettingsSaturationSelection
 *fill*         0x0000000000038ede        0x2 
 .text.ARCOMMANDS_Generator_GenerateARDrone3PictureSettingsTimelapseSelection
                0x0000000000038ee0       0xc8 /home/sunho/bebop_ws/devel/arsdk/out/arsdk-native/build/libARCommands/obj/gen/Sources/ARCOMMANDS_Generator.c.o
                0x0000000000038ee0                ARCOMMANDS_Generator_GenerateARDrone3PictureSettingsTimelapseSelection
 *fill*         0x0000000000038fa8        0x8 
 .text.ARCOMMANDS_Generator_GenerateARDrone3PictureSettingsVideoAutorecordSelection
                0x0000000000038fb0       0xb6 /home/sunho/bebop_ws/devel/arsdk/out/arsdk-native/build/libARCommands/obj/gen/Sources/ARCOMMANDS_Generator.c.o
                0x0000000000038fb0                ARCOMMANDS_Generator_GenerateARDrone3PictureSettingsVideoAutorecordSelection
 *fill*         0x0000000000039066        0xa 
 .text.ARCOMMANDS_Generator_GenerateARDrone3PictureSettingsVideoStabilizationMode
                0x0000000000039070       0xa0 /home/sunho/bebop_ws/devel/arsdk/out/arsdk-native/build/libARCommands/obj/gen/Sources/ARCOMMANDS_Generator.c.o
                0x0000000000039070                ARCOMMANDS_Generator_GenerateARDrone3PictureSettingsVideoStabilizationMode
 .text.ARCOMMANDS_Generator_GenerateARDrone3PictureSettingsVideoRecordingMode
                0x0000000000039110       0xa0 /home/sunho/bebop_ws/devel/arsdk/out/arsdk-native/build/libARCommands/obj/gen/Sources/ARCOMMANDS_Generator.c.o
                0x0000000000039110                ARCOMMANDS_Generator_GenerateARDrone3PictureSettingsVideoRecordingMode
 .text.ARCOMMANDS_Generator_GenerateARDrone3PictureSettingsVideoFramerate
                0x00000000000391b0       0xa0 /home/sunho/bebop_ws/devel/arsdk/out/arsdk-native/build/libARCommands/obj/gen/Sources/ARCOMMANDS_Generator.c.o
                0x00000000000391b0                ARCOMMANDS_Generator_GenerateARDrone3PictureSettingsVideoFramerate
 .text.ARCOMMANDS_Generator_GenerateARDrone3PictureSettingsVideoResolutions
                0x0000000000039250       0xa0 /home/sunho/bebop_ws/devel/arsdk/out/arsdk-native/build/libARCommands/obj/gen/Sources/ARCOMMANDS_Generator.c.o
                0x0000000000039250                ARCOMMANDS_Generator_GenerateARDrone3PictureSettingsVideoResolutions
 .text.ARCOMMANDS_Generator_GenerateARDrone3MediaStreamingVideoEnable
                0x00000000000392f0       0xa0 /home/sunho/bebop_ws/devel/arsdk/out/arsdk-native/build/libARCommands/obj/gen/Sources/ARCOMMANDS_Generator.c.o
                0x00000000000392f0                ARCOMMANDS_Generator_GenerateARDrone3MediaStreamingVideoEnable
 .text.ARCOMMANDS_Generator_GenerateARDrone3MediaStreamingVideoStreamMode
                0x0000000000039390       0xa0 /home/sunho/bebop_ws/devel/arsdk/out/arsdk-native/build/libARCommands/obj/gen/Sources/ARCOMMANDS_Generator.c.o
                0x0000000000039390                ARCOMMANDS_Generator_GenerateARDrone3MediaStreamingVideoStreamMode
 .text.ARCOMMANDS_Generator_GenerateARDrone3GPSSettingsSetHome
                0x0000000000039430       0xde /home/sunho/bebop_ws/devel/arsdk/out/arsdk-native/build/libARCommands/obj/gen/Sources/ARCOMMANDS_Generator.c.o
                0x0000000000039430                ARCOMMANDS_Generator_GenerateARDrone3GPSSettingsSetHome
 *fill*         0x000000000003950e        0x2 
 .text.ARCOMMANDS_Generator_GenerateARDrone3GPSSettingsResetHome
                0x0000000000039510       0x82 /home/sunho/bebop_ws/devel/arsdk/out/arsdk-native/build/libARCommands/obj/gen/Sources/ARCOMMANDS_Generator.c.o
                0x0000000000039510                ARCOMMANDS_Generator_GenerateARDrone3GPSSettingsResetHome
 *fill*         0x0000000000039592        0xe 
 .text.ARCOMMANDS_Generator_GenerateARDrone3GPSSettingsSendControllerGPS
                0x00000000000395a0      0x11e /home/sunho/bebop_ws/devel/arsdk/out/arsdk-native/build/libARCommands/obj/gen/Sources/ARCOMMANDS_Generator.c.o
                0x00000000000395a0                ARCOMMANDS_Generator_GenerateARDrone3GPSSettingsSendControllerGPS
 *fill*         0x00000000000396be        0x2 
 .text.ARCOMMANDS_Generator_GenerateARDrone3GPSSettingsHomeType
                0x00000000000396c0       0xa0 /home/sunho/bebop_ws/devel/arsdk/out/arsdk-native/build/libARCommands/obj/gen/Sources/ARCOMMANDS_Generator.c.o
                0x00000000000396c0                ARCOMMANDS_Generator_GenerateARDrone3GPSSettingsHomeType
 .text.ARCOMMANDS_Generator_GenerateARDrone3GPSSettingsReturnHomeDelay
                0x0000000000039760       0xa8 /home/sunho/bebop_ws/devel/arsdk/out/arsdk-native/build/libARCommands/obj/gen/Sources/ARCOMMANDS_Generator.c.o
                0x0000000000039760                ARCOMMANDS_Generator_GenerateARDrone3GPSSettingsReturnHomeDelay
 *fill*         0x0000000000039808        0x8 
 .text.ARCOMMANDS_Generator_GenerateARDrone3AntiflickeringElectricFrequency
                0x0000000000039810       0xa0 /home/sunho/bebop_ws/devel/arsdk/out/arsdk-native/build/libARCommands/obj/gen/Sources/ARCOMMANDS_Generator.c.o
                0x0000000000039810                ARCOMMANDS_Generator_GenerateARDrone3AntiflickeringElectricFrequency
 .text.ARCOMMANDS_Generator_GenerateARDrone3AntiflickeringSetMode
                0x00000000000398b0       0xa0 /home/sunho/bebop_ws/devel/arsdk/out/arsdk-native/build/libARCommands/obj/gen/Sources/ARCOMMANDS_Generator.c.o
                0x00000000000398b0                ARCOMMANDS_Generator_GenerateARDrone3AntiflickeringSetMode
 .text.ARCOMMANDS_Generator_GenerateARDrone3MediaRecordStatePictureStateChanged
                0x0000000000039950       0xb6 /home/sunho/bebop_ws/devel/arsdk/out/arsdk-native/build/libARCommands/obj/gen/Sources/ARCOMMANDS_Generator.c.o
                0x0000000000039950                ARCOMMANDS_Generator_GenerateARDrone3MediaRecordStatePictureStateChanged
 *fill*         0x0000000000039a06        0xa 
 .text.ARCOMMANDS_Generator_GenerateARDrone3MediaRecordStateVideoStateChanged
                0x0000000000039a10       0xb6 /home/sunho/bebop_ws/devel/arsdk/out/arsdk-native/build/libARCommands/obj/gen/Sources/ARCOMMANDS_Generator.c.o
                0x0000000000039a10                ARCOMMANDS_Generator_GenerateARDrone3MediaRecordStateVideoStateChanged
 *fill*         0x0000000000039ac6        0xa 
 .text.ARCOMMANDS_Generator_GenerateARDrone3MediaRecordStatePictureStateChangedV2
                0x0000000000039ad0       0xb6 /home/sunho/bebop_ws/devel/arsdk/out/arsdk-native/build/libARCommands/obj/gen/Sources/ARCOMMANDS_Generator.c.o
                0x0000000000039ad0                ARCOMMANDS_Generator_GenerateARDrone3MediaRecordStatePictureStateChangedV2
 *fill*         0x0000000000039b86        0xa 
 .text.ARCOMMANDS_Generator_GenerateARDrone3MediaRecordStateVideoStateChangedV2
                0x0000000000039b90       0xb6 /home/sunho/bebop_ws/devel/arsdk/out/arsdk-native/build/libARCommands/obj/gen/Sources/ARCOMMANDS_Generator.c.o
                0x0000000000039b90                ARCOMMANDS_Generator_GenerateARDrone3MediaRecordStateVideoStateChangedV2
 *fill*         0x0000000000039c46        0xa 
 .text.ARCOMMANDS_Generator_GenerateARDrone3MediaRecordStateVideoResolutionState
                0x0000000000039c50       0xb6 /home/sunho/bebop_ws/devel/arsdk/out/arsdk-native/build/libARCommands/obj/gen/Sources/ARCOMMANDS_Generator.c.o
                0x0000000000039c50                ARCOMMANDS_Generator_GenerateARDrone3MediaRecordStateVideoResolutionState
 *fill*         0x0000000000039d06        0xa 
 .text.ARCOMMANDS_Generator_GenerateARDrone3MediaRecordEventPictureEventChanged
                0x0000000000039d10       0xae /home/sunho/bebop_ws/devel/arsdk/out/arsdk-native/build/libARCommands/obj/gen/Sources/ARCOMMANDS_Generator.c.o
                0x0000000000039d10                ARCOMMANDS_Generator_GenerateARDrone3MediaRecordEventPictureEventChanged
 *fill*         0x0000000000039dbe        0x2 
 .text.ARCOMMANDS_Generator_GenerateARDrone3MediaRecordEventVideoEventChanged
                0x0000000000039dc0       0xb6 /home/sunho/bebop_ws/devel/arsdk/out/arsdk-native/build/libARCommands/obj/gen/Sources/ARCOMMANDS_Generator.c.o
                0x0000000000039dc0                ARCOMMANDS_Generator_GenerateARDrone3MediaRecordEventVideoEventChanged
 *fill*         0x0000000000039e76        0xa 
 .text.ARCOMMANDS_Generator_GenerateARDrone3PilotingStateFlatTrimChanged
                0x0000000000039e80       0x7a /home/sunho/bebop_ws/devel/arsdk/out/arsdk-native/build/libARCommands/obj/gen/Sources/ARCOMMANDS_Generator.c.o
                0x0000000000039e80                ARCOMMANDS_Generator_GenerateARDrone3PilotingStateFlatTrimChanged
 *fill*         0x0000000000039efa        0x6 
 .text.ARCOMMANDS_Generator_GenerateARDrone3PilotingStateFlyingStateChanged
                0x0000000000039f00       0xa0 /home/sunho/bebop_ws/devel/arsdk/out/arsdk-native/build/libARCommands/obj/gen/Sources/ARCOMMANDS_Generator.c.o
                0x0000000000039f00                ARCOMMANDS_Generator_GenerateARDrone3PilotingStateFlyingStateChanged
 .text.ARCOMMANDS_Generator_GenerateARDrone3PilotingStateAlertStateChanged
                0x0000000000039fa0       0xa0 /home/sunho/bebop_ws/devel/arsdk/out/arsdk-native/build/libARCommands/obj/gen/Sources/ARCOMMANDS_Generator.c.o
                0x0000000000039fa0                ARCOMMANDS_Generator_GenerateARDrone3PilotingStateAlertStateChanged
 .text.ARCOMMANDS_Generator_GenerateARDrone3PilotingStateNavigateHomeStateChanged
                0x000000000003a040       0xb6 /home/sunho/bebop_ws/devel/arsdk/out/arsdk-native/build/libARCommands/obj/gen/Sources/ARCOMMANDS_Generator.c.o
                0x000000000003a040                ARCOMMANDS_Generator_GenerateARDrone3PilotingStateNavigateHomeStateChanged
 *fill*         0x000000000003a0f6        0xa 
 .text.ARCOMMANDS_Generator_GenerateARDrone3PilotingStatePositionChanged
                0x000000000003a100       0xde /home/sunho/bebop_ws/devel/arsdk/out/arsdk-native/build/libARCommands/obj/gen/Sources/ARCOMMANDS_Generator.c.o
                0x000000000003a100                ARCOMMANDS_Generator_GenerateARDrone3PilotingStatePositionChanged
 *fill*         0x000000000003a1de        0x2 
 .text.ARCOMMANDS_Generator_GenerateARDrone3PilotingStateSpeedChanged
                0x000000000003a1e0       0xde /home/sunho/bebop_ws/devel/arsdk/out/arsdk-native/build/libARCommands/obj/gen/Sources/ARCOMMANDS_Generator.c.o
                0x000000000003a1e0                ARCOMMANDS_Generator_GenerateARDrone3PilotingStateSpeedChanged
 *fill*         0x000000000003a2be        0x2 
 .text.ARCOMMANDS_Generator_GenerateARDrone3PilotingStateAttitudeChanged
                0x000000000003a2c0       0xde /home/sunho/bebop_ws/devel/arsdk/out/arsdk-native/build/libARCommands/obj/gen/Sources/ARCOMMANDS_Generator.c.o
                0x000000000003a2c0                ARCOMMANDS_Generator_GenerateARDrone3PilotingStateAttitudeChanged
 *fill*         0x000000000003a39e        0x2 
 .text.ARCOMMANDS_Generator_GenerateARDrone3PilotingStateAutoTakeOffModeChanged
                0x000000000003a3a0       0xa8 /home/sunho/bebop_ws/devel/arsdk/out/arsdk-native/build/libARCommands/obj/gen/Sources/ARCOMMANDS_Generator.c.o
                0x000000000003a3a0                ARCOMMANDS_Generator_GenerateARDrone3PilotingStateAutoTakeOffModeChanged
 *fill*         0x000000000003a448        0x8 
 .text.ARCOMMANDS_Generator_GenerateARDrone3PilotingStateAltitudeChanged
                0x000000000003a450       0x9e /home/sunho/bebop_ws/devel/arsdk/out/arsdk-native/build/libARCommands/obj/gen/Sources/ARCOMMANDS_Generator.c.o
                0x000000000003a450                ARCOMMANDS_Generator_GenerateARDrone3PilotingStateAltitudeChanged
 *fill*         0x000000000003a4ee        0x2 
 .text.ARCOMMANDS_Generator_GenerateARDrone3PilotingStateGpsLocationChanged
                0x000000000003a4f0      0x144 /home/sunho/bebop_ws/devel/arsdk/out/arsdk-native/build/libARCommands/obj/gen/Sources/ARCOMMANDS_Generator.c.o
                0x000000000003a4f0                ARCOMMANDS_Generator_GenerateARDrone3PilotingStateGpsLocationChanged
 *fill*         0x000000000003a634        0xc 
 .text.ARCOMMANDS_Generator_GenerateARDrone3PilotingStateLandingStateChanged
                0x000000000003a640       0xa0 /home/sunho/bebop_ws/devel/arsdk/out/arsdk-native/build/libARCommands/obj/gen/Sources/ARCOMMANDS_Generator.c.o
                0x000000000003a640                ARCOMMANDS_Generator_GenerateARDrone3PilotingStateLandingStateChanged
 .text.ARCOMMANDS_Generator_GenerateARDrone3PilotingEventMoveByEnd
                0x000000000003a6e0      0x120 /home/sunho/bebop_ws/devel/arsdk/out/arsdk-native/build/libARCommands/obj/gen/Sources/ARCOMMANDS_Generator.c.o
                0x000000000003a6e0                ARCOMMANDS_Generator_GenerateARDrone3PilotingEventMoveByEnd
 .text.ARCOMMANDS_Generator_GenerateARDrone3NetworkStateWifiScanListChanged
                0x000000000003a800      0x12c /home/sunho/bebop_ws/devel/arsdk/out/arsdk-native/build/libARCommands/obj/gen/Sources/ARCOMMANDS_Generator.c.o
                0x000000000003a800                ARCOMMANDS_Generator_GenerateARDrone3NetworkStateWifiScanListChanged
 *fill*         0x000000000003a92c        0x4 
 .text.ARCOMMANDS_Generator_GenerateARDrone3NetworkStateAllWifiScanChanged
                0x000000000003a930       0x82 /home/sunho/bebop_ws/devel/arsdk/out/arsdk-native/build/libARCommands/obj/gen/Sources/ARCOMMANDS_Generator.c.o
                0x000000000003a930                ARCOMMANDS_Generator_GenerateARDrone3NetworkStateAllWifiScanChanged
 *fill*         0x000000000003a9b2        0xe 
 .text.ARCOMMANDS_Generator_GenerateARDrone3NetworkStateWifiAuthChannelListChanged
                0x000000000003a9c0       0xe4 /home/sunho/bebop_ws/devel/arsdk/out/arsdk-native/build/libARCommands/obj/gen/Sources/ARCOMMANDS_Generator.c.o
                0x000000000003a9c0                ARCOMMANDS_Generator_GenerateARDrone3NetworkStateWifiAuthChannelListChanged
 *fill*         0x000000000003aaa4        0xc 
 .text.ARCOMMANDS_Generator_GenerateARDrone3NetworkStateAllWifiAuthChannelChanged
                0x000000000003aab0       0x82 /home/sunho/bebop_ws/devel/arsdk/out/arsdk-native/build/libARCommands/obj/gen/Sources/ARCOMMANDS_Generator.c.o
                0x000000000003aab0                ARCOMMANDS_Generator_GenerateARDrone3NetworkStateAllWifiAuthChannelChanged
 *fill*         0x000000000003ab32        0xe 
 .text.ARCOMMANDS_Generator_GenerateARDrone3PilotingSettingsStateMaxAltitudeChanged
                0x000000000003ab40       0xde /home/sunho/bebop_ws/devel/arsdk/out/arsdk-native/build/libARCommands/obj/gen/Sources/ARCOMMANDS_Generator.c.o
                0x000000000003ab40                ARCOMMANDS_Generator_GenerateARDrone3PilotingSettingsStateMaxAltitudeChanged
 *fill*         0x000000000003ac1e        0x2 
 .text.ARCOMMANDS_Generator_GenerateARDrone3PilotingSettingsStateMaxTiltChanged
                0x000000000003ac20       0xde /home/sunho/bebop_ws/devel/arsdk/out/arsdk-native/build/libARCommands/obj/gen/Sources/ARCOMMANDS_Generator.c.o
                0x000000000003ac20                ARCOMMANDS_Generator_GenerateARDrone3PilotingSettingsStateMaxTiltChanged
 *fill*         0x000000000003acfe        0x2 
 .text.ARCOMMANDS_Generator_GenerateARDrone3PilotingSettingsStateAbsolutControlChanged
                0x000000000003ad00       0xa8 /home/sunho/bebop_ws/devel/arsdk/out/arsdk-native/build/libARCommands/obj/gen/Sources/ARCOMMANDS_Generator.c.o
                0x000000000003ad00                ARCOMMANDS_Generator_GenerateARDrone3PilotingSettingsStateAbsolutControlChanged
 *fill*         0x000000000003ada8        0x8 
 .text.ARCOMMANDS_Generator_GenerateARDrone3PilotingSettingsStateMaxDistanceChanged
                0x000000000003adb0       0xde /home/sunho/bebop_ws/devel/arsdk/out/arsdk-native/build/libARCommands/obj/gen/Sources/ARCOMMANDS_Generator.c.o
                0x000000000003adb0                ARCOMMANDS_Generator_GenerateARDrone3PilotingSettingsStateMaxDistanceChanged
 *fill*         0x000000000003ae8e        0x2 
 .text.ARCOMMANDS_Generator_GenerateARDrone3PilotingSettingsStateNoFlyOverMaxDistanceChanged
                0x000000000003ae90       0xa8 /home/sunho/bebop_ws/devel/arsdk/out/arsdk-native/build/libARCommands/obj/gen/Sources/ARCOMMANDS_Generator.c.o
                0x000000000003ae90                ARCOMMANDS_Generator_GenerateARDrone3PilotingSettingsStateNoFlyOverMaxDistanceChanged
 *fill*         0x000000000003af38        0x8 
 .text.ARCOMMANDS_Generator_GenerateARDrone3PilotingSettingsStateAutonomousFlightMaxHorizontalSpeed
                0x000000000003af40       0x9e /home/sunho/bebop_ws/devel/arsdk/out/arsdk-native/build/libARCommands/obj/gen/Sources/ARCOMMANDS_Generator.c.o
                0x000000000003af40                ARCOMMANDS_Generator_GenerateARDrone3PilotingSettingsStateAutonomousFlightMaxHorizontalSpeed
 *fill*         0x000000000003afde        0x2 
 .text.ARCOMMANDS_Generator_GenerateARDrone3PilotingSettingsStateAutonomousFlightMaxVerticalSpeed
                0x000000000003afe0       0x9e /home/sunho/bebop_ws/devel/arsdk/out/arsdk-native/build/libARCommands/obj/gen/Sources/ARCOMMANDS_Generator.c.o
                0x000000000003afe0                ARCOMMANDS_Generator_GenerateARDrone3PilotingSettingsStateAutonomousFlightMaxVerticalSpeed
 *fill*         0x000000000003b07e        0x2 
 .text.ARCOMMANDS_Generator_GenerateARDrone3PilotingSettingsStateAutonomousFlightMaxHorizontalAcceleration
                0x000000000003b080       0x9e /home/sunho/bebop_ws/devel/arsdk/out/arsdk-native/build/libARCommands/obj/gen/Sources/ARCOMMANDS_Generator.c.o
                0x000000000003b080                ARCOMMANDS_Generator_GenerateARDrone3PilotingSettingsStateAutonomousFlightMaxHorizontalAcceleration
 *fill*         0x000000000003b11e        0x2 
 .text.ARCOMMANDS_Generator_GenerateARDrone3PilotingSettingsStateAutonomousFlightMaxVerticalAcceleration
                0x000000000003b120       0x9e /home/sunho/bebop_ws/devel/arsdk/out/arsdk-native/build/libARCommands/obj/gen/Sources/ARCOMMANDS_Generator.c.o
                0x000000000003b120                ARCOMMANDS_Generator_GenerateARDrone3PilotingSettingsStateAutonomousFlightMaxVerticalAcceleration
 *fill*         0x000000000003b1be        0x2 
 .text.ARCOMMANDS_Generator_GenerateARDrone3PilotingSettingsStateAutonomousFlightMaxRotationSpeed
                0x000000000003b1c0       0x9e /home/sunho/bebop_ws/devel/arsdk/out/arsdk-native/build/libARCommands/obj/gen/Sources/ARCOMMANDS_Generator.c.o
                0x000000000003b1c0                ARCOMMANDS_Generator_GenerateARDrone3PilotingSettingsStateAutonomousFlightMaxRotationSpeed
 *fill*         0x000000000003b25e        0x2 
 .text.ARCOMMANDS_Generator_GenerateARDrone3PilotingSettingsStateBankedTurnChanged
                0x000000000003b260       0xa8 /home/sunho/bebop_ws/devel/arsdk/out/arsdk-native/build/libARCommands/obj/gen/Sources/ARCOMMANDS_Generator.c.o
                0x000000000003b260                ARCOMMANDS_Generator_GenerateARDrone3PilotingSettingsStateBankedTurnChanged
 *fill*         0x000000000003b308        0x8 
 .text.ARCOMMANDS_Generator_GenerateARDrone3PilotingSettingsStateMinAltitudeChanged
                0x000000000003b310       0xde /home/sunho/bebop_ws/devel/arsdk/out/arsdk-native/build/libARCommands/obj/gen/Sources/ARCOMMANDS_Generator.c.o
                0x000000000003b310                ARCOMMANDS_Generator_GenerateARDrone3PilotingSettingsStateMinAltitudeChanged
 *fill*         0x000000000003b3ee        0x2 
 .text.ARCOMMANDS_Generator_GenerateARDrone3PilotingSettingsStateCirclingDirectionChanged
                0x000000000003b3f0       0xa0 /home/sunho/bebop_ws/devel/arsdk/out/arsdk-native/build/libARCommands/obj/gen/Sources/ARCOMMANDS_Generator.c.o
                0x000000000003b3f0                ARCOMMANDS_Generator_GenerateARDrone3PilotingSettingsStateCirclingDirectionChanged
 .text.ARCOMMANDS_Generator_GenerateARDrone3PilotingSettingsStateCirclingRadiusChanged
                0x000000000003b490       0xe4 /home/sunho/bebop_ws/devel/arsdk/out/arsdk-native/build/libARCommands/obj/gen/Sources/ARCOMMANDS_Generator.c.o
                0x000000000003b490                ARCOMMANDS_Generator_GenerateARDrone3PilotingSettingsStateCirclingRadiusChanged
 *fill*         0x000000000003b574        0xc 
 .text.ARCOMMANDS_Generator_GenerateARDrone3PilotingSettingsStateCirclingAltitudeChanged
                0x000000000003b580       0xe4 /home/sunho/bebop_ws/devel/arsdk/out/arsdk-native/build/libARCommands/obj/gen/Sources/ARCOMMANDS_Generator.c.o
                0x000000000003b580                ARCOMMANDS_Generator_GenerateARDrone3PilotingSettingsStateCirclingAltitudeChanged
 *fill*         0x000000000003b664        0xc 
 .text.ARCOMMANDS_Generator_GenerateARDrone3PilotingSettingsStatePitchModeChanged
                0x000000000003b670       0xa0 /home/sunho/bebop_ws/devel/arsdk/out/arsdk-native/build/libARCommands/obj/gen/Sources/ARCOMMANDS_Generator.c.o
                0x000000000003b670                ARCOMMANDS_Generator_GenerateARDrone3PilotingSettingsStatePitchModeChanged
 .text.ARCOMMANDS_Generator_GenerateARDrone3SpeedSettingsStateMaxVerticalSpeedChanged
                0x000000000003b710       0xde /home/sunho/bebop_ws/devel/arsdk/out/arsdk-native/build/libARCommands/obj/gen/Sources/ARCOMMANDS_Generator.c.o
                0x000000000003b710                ARCOMMANDS_Generator_GenerateARDrone3SpeedSettingsStateMaxVerticalSpeedChanged
 *fill*         0x000000000003b7ee        0x2 
 .text.ARCOMMANDS_Generator_GenerateARDrone3SpeedSettingsStateMaxRotationSpeedChanged
                0x000000000003b7f0       0xde /home/sunho/bebop_ws/devel/arsdk/out/arsdk-native/build/libARCommands/obj/gen/Sources/ARCOMMANDS_Generator.c.o
                0x000000000003b7f0                ARCOMMANDS_Generator_GenerateARDrone3SpeedSettingsStateMaxRotationSpeedChanged
 *fill*         0x000000000003b8ce        0x2 
 .text.ARCOMMANDS_Generator_GenerateARDrone3SpeedSettingsStateHullProtectionChanged
                0x000000000003b8d0       0xa8 /home/sunho/bebop_ws/devel/arsdk/out/arsdk-native/build/libARCommands/obj/gen/Sources/ARCOMMANDS_Generator.c.o
                0x000000000003b8d0                ARCOMMANDS_Generator_GenerateARDrone3SpeedSettingsStateHullProtectionChanged
 *fill*         0x000000000003b978        0x8 
 .text.ARCOMMANDS_Generator_GenerateARDrone3SpeedSettingsStateOutdoorChanged
                0x000000000003b980       0xa8 /home/sunho/bebop_ws/devel/arsdk/out/arsdk-native/build/libARCommands/obj/gen/Sources/ARCOMMANDS_Generator.c.o
                0x000000000003b980                ARCOMMANDS_Generator_GenerateARDrone3SpeedSettingsStateOutdoorChanged
 *fill*         0x000000000003ba28        0x8 
 .text.ARCOMMANDS_Generator_GenerateARDrone3SpeedSettingsStateMaxPitchRollRotationSpeedChanged
                0x000000000003ba30       0xde /home/sunho/bebop_ws/devel/arsdk/out/arsdk-native/build/libARCommands/obj/gen/Sources/ARCOMMANDS_Generator.c.o
                0x000000000003ba30                ARCOMMANDS_Generator_GenerateARDrone3SpeedSettingsStateMaxPitchRollRotationSpeedChanged
 *fill*         0x000000000003bb0e        0x2 
 .text.ARCOMMANDS_Generator_GenerateARDrone3NetworkSettingsStateWifiSelectionChanged
                0x000000000003bb10       0xe4 /home/sunho/bebop_ws/devel/arsdk/out/arsdk-native/build/libARCommands/obj/gen/Sources/ARCOMMANDS_Generator.c.o
                0x000000000003bb10                ARCOMMANDS_Generator_GenerateARDrone3NetworkSettingsStateWifiSelectionChanged
 *fill*         0x000000000003bbf4        0xc 
 .text.ARCOMMANDS_Generator_GenerateARDrone3NetworkSettingsStateWifiSecurityChanged
                0x000000000003bc00       0xa0 /home/sunho/bebop_ws/devel/arsdk/out/arsdk-native/build/libARCommands/obj/gen/Sources/ARCOMMANDS_Generator.c.o
                0x000000000003bc00                ARCOMMANDS_Generator_GenerateARDrone3NetworkSettingsStateWifiSecurityChanged
 .text.ARCOMMANDS_Generator_GenerateARDrone3NetworkSettingsStateWifiSecurity
                0x000000000003bca0      0x10c /home/sunho/bebop_ws/devel/arsdk/out/arsdk-native/build/libARCommands/obj/gen/Sources/ARCOMMANDS_Generator.c.o
                0x000000000003bca0                ARCOMMANDS_Generator_GenerateARDrone3NetworkSettingsStateWifiSecurity
 *fill*         0x000000000003bdac        0x4 
 .text.ARCOMMANDS_Generator_GenerateARDrone3SettingsStateProductMotorVersionListChanged
                0x000000000003bdb0      0x13c /home/sunho/bebop_ws/devel/arsdk/out/arsdk-native/build/libARCommands/obj/gen/Sources/ARCOMMANDS_Generator.c.o
                0x000000000003bdb0                ARCOMMANDS_Generator_GenerateARDrone3SettingsStateProductMotorVersionListChanged
 *fill*         0x000000000003beec        0x4 
 .text.ARCOMMANDS_Generator_GenerateARDrone3SettingsStateProductGPSVersionChanged
                0x000000000003bef0       0xe0 /home/sunho/bebop_ws/devel/arsdk/out/arsdk-native/build/libARCommands/obj/gen/Sources/ARCOMMANDS_Generator.c.o
                0x000000000003bef0                ARCOMMANDS_Generator_GenerateARDrone3SettingsStateProductGPSVersionChanged
 .text.ARCOMMANDS_Generator_GenerateARDrone3SettingsStateMotorErrorStateChanged
                0x000000000003bfd0       0xb6 /home/sunho/bebop_ws/devel/arsdk/out/arsdk-native/build/libARCommands/obj/gen/Sources/ARCOMMANDS_Generator.c.o
                0x000000000003bfd0                ARCOMMANDS_Generator_GenerateARDrone3SettingsStateMotorErrorStateChanged
 *fill*         0x000000000003c086        0xa 
 .text.ARCOMMANDS_Generator_GenerateARDrone3SettingsStateMotorSoftwareVersionChanged
                0x000000000003c090       0xb0 /home/sunho/bebop_ws/devel/arsdk/out/arsdk-native/build/libARCommands/obj/gen/Sources/ARCOMMANDS_Generator.c.o
                0x000000000003c090                ARCOMMANDS_Generator_GenerateARDrone3SettingsStateMotorSoftwareVersionChanged
 .text.ARCOMMANDS_Generator_GenerateARDrone3SettingsStateMotorFlightsStatusChanged
                0x000000000003c140       0xe4 /home/sunho/bebop_ws/devel/arsdk/out/arsdk-native/build/libARCommands/obj/gen/Sources/ARCOMMANDS_Generator.c.o
                0x000000000003c140                ARCOMMANDS_Generator_GenerateARDrone3SettingsStateMotorFlightsStatusChanged
 *fill*         0x000000000003c224        0xc 
 .text.ARCOMMANDS_Generator_GenerateARDrone3SettingsStateMotorErrorLastErrorChanged
                0x000000000003c230       0xa0 /home/sunho/bebop_ws/devel/arsdk/out/arsdk-native/build/libARCommands/obj/gen/Sources/ARCOMMANDS_Generator.c.o
                0x000000000003c230                ARCOMMANDS_Generator_GenerateARDrone3SettingsStateMotorErrorLastErrorChanged
 .text.ARCOMMANDS_Generator_GenerateARDrone3SettingsStateP7ID
                0x000000000003c2d0       0xb0 /home/sunho/bebop_ws/devel/arsdk/out/arsdk-native/build/libARCommands/obj/gen/Sources/ARCOMMANDS_Generator.c.o
                0x000000000003c2d0                ARCOMMANDS_Generator_GenerateARDrone3SettingsStateP7ID
 .text.ARCOMMANDS_Generator_GenerateARDrone3SettingsStateCPUID
                0x000000000003c380       0xb0 /home/sunho/bebop_ws/devel/arsdk/out/arsdk-native/build/libARCommands/obj/gen/Sources/ARCOMMANDS_Generator.c.o
                0x000000000003c380                ARCOMMANDS_Generator_GenerateARDrone3SettingsStateCPUID
 .text.ARCOMMANDS_Generator_GenerateARDrone3PictureSettingsStatePictureFormatChanged
                0x000000000003c430       0xa0 /home/sunho/bebop_ws/devel/arsdk/out/arsdk-native/build/libARCommands/obj/gen/Sources/ARCOMMANDS_Generator.c.o
                0x000000000003c430                ARCOMMANDS_Generator_GenerateARDrone3PictureSettingsStatePictureFormatChanged
 .text.ARCOMMANDS_Generator_GenerateARDrone3PictureSettingsStateAutoWhiteBalanceChanged
                0x000000000003c4d0       0xa0 /home/sunho/bebop_ws/devel/arsdk/out/arsdk-native/build/libARCommands/obj/gen/Sources/ARCOMMANDS_Generator.c.o
                0x000000000003c4d0                ARCOMMANDS_Generator_GenerateARDrone3PictureSettingsStateAutoWhiteBalanceChanged
 .text.ARCOMMANDS_Generator_GenerateARDrone3PictureSettingsStateExpositionChanged
                0x000000000003c570       0xde /home/sunho/bebop_ws/devel/arsdk/out/arsdk-native/build/libARCommands/obj/gen/Sources/ARCOMMANDS_Generator.c.o
                0x000000000003c570                ARCOMMANDS_Generator_GenerateARDrone3PictureSettingsStateExpositionChanged
 *fill*         0x000000000003c64e        0x2 
 .text.ARCOMMANDS_Generator_GenerateARDrone3PictureSettingsStateSaturationChanged
                0x000000000003c650       0xde /home/sunho/bebop_ws/devel/arsdk/out/arsdk-native/build/libARCommands/obj/gen/Sources/ARCOMMANDS_Generator.c.o
                0x000000000003c650                ARCOMMANDS_Generator_GenerateARDrone3PictureSettingsStateSaturationChanged
 *fill*         0x000000000003c72e        0x2 
 .text.ARCOMMANDS_Generator_GenerateARDrone3PictureSettingsStateTimelapseChanged
                0x000000000003c730      0x100 /home/sunho/bebop_ws/devel/arsdk/out/arsdk-native/build/libARCommands/obj/gen/Sources/ARCOMMANDS_Generator.c.o
                0x000000000003c730                ARCOMMANDS_Generator_GenerateARDrone3PictureSettingsStateTimelapseChanged
 .text.ARCOMMANDS_Generator_GenerateARDrone3PictureSettingsStateVideoAutorecordChanged
                0x000000000003c830       0xb6 /home/sunho/bebop_ws/devel/arsdk/out/arsdk-native/build/libARCommands/obj/gen/Sources/ARCOMMANDS_Generator.c.o
                0x000000000003c830                ARCOMMANDS_Generator_GenerateARDrone3PictureSettingsStateVideoAutorecordChanged
 *fill*         0x000000000003c8e6        0xa 
 .text.ARCOMMANDS_Generator_GenerateARDrone3PictureSettingsStateVideoStabilizationModeChanged
                0x000000000003c8f0       0xa0 /home/sunho/bebop_ws/devel/arsdk/out/arsdk-native/build/libARCommands/obj/gen/Sources/ARCOMMANDS_Generator.c.o
                0x000000000003c8f0                ARCOMMANDS_Generator_GenerateARDrone3PictureSettingsStateVideoStabilizationModeChanged
 .text.ARCOMMANDS_Generator_GenerateARDrone3PictureSettingsStateVideoRecordingModeChanged
                0x000000000003c990       0xa0 /home/sunho/bebop_ws/devel/arsdk/out/arsdk-native/build/libARCommands/obj/gen/Sources/ARCOMMANDS_Generator.c.o
                0x000000000003c990                ARCOMMANDS_Generator_GenerateARDrone3PictureSettingsStateVideoRecordingModeChanged
 .text.ARCOMMANDS_Generator_GenerateARDrone3PictureSettingsStateVideoFramerateChanged
                0x000000000003ca30       0xa0 /home/sunho/bebop_ws/devel/arsdk/out/arsdk-native/build/libARCommands/obj/gen/Sources/ARCOMMANDS_Generator.c.o
                0x000000000003ca30                ARCOMMANDS_Generator_GenerateARDrone3PictureSettingsStateVideoFramerateChanged
 .text.ARCOMMANDS_Generator_GenerateARDrone3PictureSettingsStateVideoResolutionsChanged
                0x000000000003cad0       0xa0 /home/sunho/bebop_ws/devel/arsdk/out/arsdk-native/build/libARCommands/obj/gen/Sources/ARCOMMANDS_Generator.c.o
                0x000000000003cad0                ARCOMMANDS_Generator_GenerateARDrone3PictureSettingsStateVideoResolutionsChanged
 .text.ARCOMMANDS_Generator_GenerateARDrone3MediaStreamingStateVideoEnableChanged
                0x000000000003cb70       0xa0 /home/sunho/bebop_ws/devel/arsdk/out/arsdk-native/build/libARCommands/obj/gen/Sources/ARCOMMANDS_Generator.c.o
                0x000000000003cb70                ARCOMMANDS_Generator_GenerateARDrone3MediaStreamingStateVideoEnableChanged
 .text.ARCOMMANDS_Generator_GenerateARDrone3MediaStreamingStateVideoStreamModeChanged
                0x000000000003cc10       0xa0 /home/sunho/bebop_ws/devel/arsdk/out/arsdk-native/build/libARCommands/obj/gen/Sources/ARCOMMANDS_Generator.c.o
                0x000000000003cc10                ARCOMMANDS_Generator_GenerateARDrone3MediaStreamingStateVideoStreamModeChanged
 .text.ARCOMMANDS_Generator_GenerateARDrone3GPSSettingsStateHomeChanged
                0x000000000003ccb0       0xde /home/sunho/bebop_ws/devel/arsdk/out/arsdk-native/build/libARCommands/obj/gen/Sources/ARCOMMANDS_Generator.c.o
                0x000000000003ccb0                ARCOMMANDS_Generator_GenerateARDrone3GPSSettingsStateHomeChanged
 *fill*         0x000000000003cd8e        0x2 
 .text.ARCOMMANDS_Generator_GenerateARDrone3GPSSettingsStateResetHomeChanged
                0x000000000003cd90       0xde /home/sunho/bebop_ws/devel/arsdk/out/arsdk-native/build/libARCommands/obj/gen/Sources/ARCOMMANDS_Generator.c.o
                0x000000000003cd90                ARCOMMANDS_Generator_GenerateARDrone3GPSSettingsStateResetHomeChanged
 *fill*         0x000000000003ce6e        0x2 
 .text.ARCOMMANDS_Generator_GenerateARDrone3GPSSettingsStateGPSFixStateChanged
                0x000000000003ce70       0xa8 /home/sunho/bebop_ws/devel/arsdk/out/arsdk-native/build/libARCommands/obj/gen/Sources/ARCOMMANDS_Generator.c.o
                0x000000000003ce70                ARCOMMANDS_Generator_GenerateARDrone3GPSSettingsStateGPSFixStateChanged
 *fill*         0x000000000003cf18        0x8 
 .text.ARCOMMANDS_Generator_GenerateARDrone3GPSSettingsStateGPSUpdateStateChanged
                0x000000000003cf20       0xa0 /home/sunho/bebop_ws/devel/arsdk/out/arsdk-native/build/libARCommands/obj/gen/Sources/ARCOMMANDS_Generator.c.o
                0x000000000003cf20                ARCOMMANDS_Generator_GenerateARDrone3GPSSettingsStateGPSUpdateStateChanged
 .text.ARCOMMANDS_Generator_GenerateARDrone3GPSSettingsStateHomeTypeChanged
                0x000000000003cfc0       0xa0 /home/sunho/bebop_ws/devel/arsdk/out/arsdk-native/build/libARCommands/obj/gen/Sources/ARCOMMANDS_Generator.c.o
                0x000000000003cfc0                ARCOMMANDS_Generator_GenerateARDrone3GPSSettingsStateHomeTypeChanged
 .text.ARCOMMANDS_Generator_GenerateARDrone3GPSSettingsStateReturnHomeDelayChanged
                0x000000000003d060       0xa8 /home/sunho/bebop_ws/devel/arsdk/out/arsdk-native/build/libARCommands/obj/gen/Sources/ARCOMMANDS_Generator.c.o
                0x000000000003d060                ARCOMMANDS_Generator_GenerateARDrone3GPSSettingsStateReturnHomeDelayChanged
 *fill*         0x000000000003d108        0x8 
 .text.ARCOMMANDS_Generator_GenerateARDrone3CameraStateOrientation
                0x000000000003d110       0xb6 /home/sunho/bebop_ws/devel/arsdk/out/arsdk-native/build/libARCommands/obj/gen/Sources/ARCOMMANDS_Generator.c.o
                0x000000000003d110                ARCOMMANDS_Generator_GenerateARDrone3CameraStateOrientation
 *fill*         0x000000000003d1c6        0xa 
 .text.ARCOMMANDS_Generator_GenerateARDrone3CameraStateDefaultCameraOrientation
                0x000000000003d1d0       0xb6 /home/sunho/bebop_ws/devel/arsdk/out/arsdk-native/build/libARCommands/obj/gen/Sources/ARCOMMANDS_Generator.c.o
                0x000000000003d1d0                ARCOMMANDS_Generator_GenerateARDrone3CameraStateDefaultCameraOrientation
 *fill*         0x000000000003d286        0xa 
 .text.ARCOMMANDS_Generator_GenerateARDrone3AntiflickeringStateElectricFrequencyChanged
                0x000000000003d290       0xa0 /home/sunho/bebop_ws/devel/arsdk/out/arsdk-native/build/libARCommands/obj/gen/Sources/ARCOMMANDS_Generator.c.o
                0x000000000003d290                ARCOMMANDS_Generator_GenerateARDrone3AntiflickeringStateElectricFrequencyChanged
 .text.ARCOMMANDS_Generator_GenerateARDrone3AntiflickeringStateModeChanged
                0x000000000003d330       0xa0 /home/sunho/bebop_ws/devel/arsdk/out/arsdk-native/build/libARCommands/obj/gen/Sources/ARCOMMANDS_Generator.c.o
                0x000000000003d330                ARCOMMANDS_Generator_GenerateARDrone3AntiflickeringStateModeChanged
 .text.ARCOMMANDS_Generator_GenerateARDrone3GPSStateNumberOfSatelliteChanged
                0x000000000003d3d0       0xa0 /home/sunho/bebop_ws/devel/arsdk/out/arsdk-native/build/libARCommands/obj/gen/Sources/ARCOMMANDS_Generator.c.o
                0x000000000003d3d0                ARCOMMANDS_Generator_GenerateARDrone3GPSStateNumberOfSatelliteChanged
 .text.ARCOMMANDS_Generator_GenerateARDrone3GPSStateHomeTypeAvailabilityChanged
                0x000000000003d470       0xb6 /home/sunho/bebop_ws/devel/arsdk/out/arsdk-native/build/libARCommands/obj/gen/Sources/ARCOMMANDS_Generator.c.o
                0x000000000003d470                ARCOMMANDS_Generator_GenerateARDrone3GPSStateHomeTypeAvailabilityChanged
 *fill*         0x000000000003d526        0xa 
 .text.ARCOMMANDS_Generator_GenerateARDrone3GPSStateHomeTypeChosenChanged
                0x000000000003d530       0xa0 /home/sunho/bebop_ws/devel/arsdk/out/arsdk-native/build/libARCommands/obj/gen/Sources/ARCOMMANDS_Generator.c.o
                0x000000000003d530                ARCOMMANDS_Generator_GenerateARDrone3GPSStateHomeTypeChosenChanged
 .text.ARCOMMANDS_Generator_GenerateARDrone3PROStateFeatures
                0x000000000003d5d0       0xa0 /home/sunho/bebop_ws/devel/arsdk/out/arsdk-native/build/libARCommands/obj/gen/Sources/ARCOMMANDS_Generator.c.o
                0x000000000003d5d0                ARCOMMANDS_Generator_GenerateARDrone3PROStateFeatures
 .text.ARCOMMANDS_Generator_GenerateCommonNetworkDisconnect
                0x000000000003d670       0x7a /home/sunho/bebop_ws/devel/arsdk/out/arsdk-native/build/libARCommands/obj/gen/Sources/ARCOMMANDS_Generator.c.o
                0x000000000003d670                ARCOMMANDS_Generator_GenerateCommonNetworkDisconnect
 *fill*         0x000000000003d6ea        0x6 
 .text.ARCOMMANDS_Generator_GenerateCommonSettingsAllSettings
                0x000000000003d6f0       0x7a /home/sunho/bebop_ws/devel/arsdk/out/arsdk-native/build/libARCommands/obj/gen/Sources/ARCOMMANDS_Generator.c.o
                0x000000000003d6f0                ARCOMMANDS_Generator_GenerateCommonSettingsAllSettings
 *fill*         0x000000000003d76a        0x6 
 .text.ARCOMMANDS_Generator_GenerateCommonSettingsReset
                0x000000000003d770       0x7a /home/sunho/bebop_ws/devel/arsdk/out/arsdk-native/build/libARCommands/obj/gen/Sources/ARCOMMANDS_Generator.c.o
                0x000000000003d770                ARCOMMANDS_Generator_GenerateCommonSettingsReset
 *fill*         0x000000000003d7ea        0x6 
 .text.ARCOMMANDS_Generator_GenerateCommonSettingsProductName
                0x000000000003d7f0       0xb0 /home/sunho/bebop_ws/devel/arsdk/out/arsdk-native/build/libARCommands/obj/gen/Sources/ARCOMMANDS_Generator.c.o
                0x000000000003d7f0                ARCOMMANDS_Generator_GenerateCommonSettingsProductName
 .text.ARCOMMANDS_Generator_GenerateCommonSettingsCountry
                0x000000000003d8a0       0xb0 /home/sunho/bebop_ws/devel/arsdk/out/arsdk-native/build/libARCommands/obj/gen/Sources/ARCOMMANDS_Generator.c.o
                0x000000000003d8a0                ARCOMMANDS_Generator_GenerateCommonSettingsCountry
 .text.ARCOMMANDS_Generator_GenerateCommonSettingsAutoCountry
                0x000000000003d950       0xa0 /home/sunho/bebop_ws/devel/arsdk/out/arsdk-native/build/libARCommands/obj/gen/Sources/ARCOMMANDS_Generator.c.o
                0x000000000003d950                ARCOMMANDS_Generator_GenerateCommonSettingsAutoCountry
 .text.ARCOMMANDS_Generator_GenerateCommonCommonAllStates
                0x000000000003d9f0       0x7a /home/sunho/bebop_ws/devel/arsdk/out/arsdk-native/build/libARCommands/obj/gen/Sources/ARCOMMANDS_Generator.c.o
                0x000000000003d9f0                ARCOMMANDS_Generator_GenerateCommonCommonAllStates
 *fill*         0x000000000003da6a        0x6 
 .text.ARCOMMANDS_Generator_GenerateCommonCommonCurrentDate
                0x000000000003da70       0xb0 /home/sunho/bebop_ws/devel/arsdk/out/arsdk-native/build/libARCommands/obj/gen/Sources/ARCOMMANDS_Generator.c.o
                0x000000000003da70                ARCOMMANDS_Generator_GenerateCommonCommonCurrentDate
 .text.ARCOMMANDS_Generator_GenerateCommonCommonCurrentTime
                0x000000000003db20       0xb0 /home/sunho/bebop_ws/devel/arsdk/out/arsdk-native/build/libARCommands/obj/gen/Sources/ARCOMMANDS_Generator.c.o
                0x000000000003db20                ARCOMMANDS_Generator_GenerateCommonCommonCurrentTime
 .text.ARCOMMANDS_Generator_GenerateCommonCommonReboot
                0x000000000003dbd0       0x7a /home/sunho/bebop_ws/devel/arsdk/out/arsdk-native/build/libARCommands/obj/gen/Sources/ARCOMMANDS_Generator.c.o
                0x000000000003dbd0                ARCOMMANDS_Generator_GenerateCommonCommonReboot
 *fill*         0x000000000003dc4a        0x6 
 .text.ARCOMMANDS_Generator_GenerateCommonOverHeatSwitchOff
                0x000000000003dc50       0x7a /home/sunho/bebop_ws/devel/arsdk/out/arsdk-native/build/libARCommands/obj/gen/Sources/ARCOMMANDS_Generator.c.o
                0x000000000003dc50                ARCOMMANDS_Generator_GenerateCommonOverHeatSwitchOff
 *fill*         0x000000000003dcca        0x6 
 .text.ARCOMMANDS_Generator_GenerateCommonOverHeatVentilate
                0x000000000003dcd0       0x7a /home/sunho/bebop_ws/devel/arsdk/out/arsdk-native/build/libARCommands/obj/gen/Sources/ARCOMMANDS_Generator.c.o
                0x000000000003dcd0                ARCOMMANDS_Generator_GenerateCommonOverHeatVentilate
 *fill*         0x000000000003dd4a        0x6 
 .text.ARCOMMANDS_Generator_GenerateCommonControllerIsPiloting
                0x000000000003dd50       0xa0 /home/sunho/bebop_ws/devel/arsdk/out/arsdk-native/build/libARCommands/obj/gen/Sources/ARCOMMANDS_Generator.c.o
                0x000000000003dd50                ARCOMMANDS_Generator_GenerateCommonControllerIsPiloting
 .text.ARCOMMANDS_Generator_GenerateCommonWifiSettingsOutdoorSetting
                0x000000000003ddf0       0xa0 /home/sunho/bebop_ws/devel/arsdk/out/arsdk-native/build/libARCommands/obj/gen/Sources/ARCOMMANDS_Generator.c.o
                0x000000000003ddf0                ARCOMMANDS_Generator_GenerateCommonWifiSettingsOutdoorSetting
 .text.ARCOMMANDS_Generator_GenerateCommonMavlinkStart
                0x000000000003de90       0xce /home/sunho/bebop_ws/devel/arsdk/out/arsdk-native/build/libARCommands/obj/gen/Sources/ARCOMMANDS_Generator.c.o
                0x000000000003de90                ARCOMMANDS_Generator_GenerateCommonMavlinkStart
 *fill*         0x000000000003df5e        0x2 
 .text.ARCOMMANDS_Generator_GenerateCommonMavlinkPause
                0x000000000003df60       0x7a /home/sunho/bebop_ws/devel/arsdk/out/arsdk-native/build/libARCommands/obj/gen/Sources/ARCOMMANDS_Generator.c.o
                0x000000000003df60                ARCOMMANDS_Generator_GenerateCommonMavlinkPause
 *fill*         0x000000000003dfda        0x6 
 .text.ARCOMMANDS_Generator_GenerateCommonMavlinkStop
                0x000000000003dfe0       0x7a /home/sunho/bebop_ws/devel/arsdk/out/arsdk-native/build/libARCommands/obj/gen/Sources/ARCOMMANDS_Generator.c.o
                0x000000000003dfe0                ARCOMMANDS_Generator_GenerateCommonMavlinkStop
 *fill*         0x000000000003e05a        0x6 
 .text.ARCOMMANDS_Generator_GenerateCommonCalibrationMagnetoCalibration
                0x000000000003e060       0xa0 /home/sunho/bebop_ws/devel/arsdk/out/arsdk-native/build/libARCommands/obj/gen/Sources/ARCOMMANDS_Generator.c.o
                0x000000000003e060                ARCOMMANDS_Generator_GenerateCommonCalibrationMagnetoCalibration
 .text.ARCOMMANDS_Generator_GenerateCommonCalibrationPitotCalibration
                0x000000000003e100       0xa0 /home/sunho/bebop_ws/devel/arsdk/out/arsdk-native/build/libARCommands/obj/gen/Sources/ARCOMMANDS_Generator.c.o
                0x000000000003e100                ARCOMMANDS_Generator_GenerateCommonCalibrationPitotCalibration
 .text.ARCOMMANDS_Generator_GenerateCommonGPSControllerPositionForRun
                0x000000000003e1a0       0xbe /home/sunho/bebop_ws/devel/arsdk/out/arsdk-native/build/libARCommands/obj/gen/Sources/ARCOMMANDS_Generator.c.o
                0x000000000003e1a0                ARCOMMANDS_Generator_GenerateCommonGPSControllerPositionForRun
 *fill*         0x000000000003e25e        0x2 
 .text.ARCOMMANDS_Generator_GenerateCommonAudioControllerReadyForStreaming
                0x000000000003e260       0xa0 /home/sunho/bebop_ws/devel/arsdk/out/arsdk-native/build/libARCommands/obj/gen/Sources/ARCOMMANDS_Generator.c.o
                0x000000000003e260                ARCOMMANDS_Generator_GenerateCommonAudioControllerReadyForStreaming
 .text.ARCOMMANDS_Generator_GenerateCommonHeadlightsIntensity
                0x000000000003e300       0xae /home/sunho/bebop_ws/devel/arsdk/out/arsdk-native/build/libARCommands/obj/gen/Sources/ARCOMMANDS_Generator.c.o
                0x000000000003e300                ARCOMMANDS_Generator_GenerateCommonHeadlightsIntensity
 *fill*         0x000000000003e3ae        0x2 
 .text.ARCOMMANDS_Generator_GenerateCommonAnimationsStartAnimation
                0x000000000003e3b0       0xa0 /home/sunho/bebop_ws/devel/arsdk/out/arsdk-native/build/libARCommands/obj/gen/Sources/ARCOMMANDS_Generator.c.o
                0x000000000003e3b0                ARCOMMANDS_Generator_GenerateCommonAnimationsStartAnimation
 .text.ARCOMMANDS_Generator_GenerateCommonAnimationsStopAnimation
                0x000000000003e450       0xa0 /home/sunho/bebop_ws/devel/arsdk/out/arsdk-native/build/libARCommands/obj/gen/Sources/ARCOMMANDS_Generator.c.o
                0x000000000003e450                ARCOMMANDS_Generator_GenerateCommonAnimationsStopAnimation
 .text.ARCOMMANDS_Generator_GenerateCommonAnimationsStopAllAnimations
                0x000000000003e4f0       0x7a /home/sunho/bebop_ws/devel/arsdk/out/arsdk-native/build/libARCommands/obj/gen/Sources/ARCOMMANDS_Generator.c.o
                0x000000000003e4f0                ARCOMMANDS_Generator_GenerateCommonAnimationsStopAllAnimations
 *fill*         0x000000000003e56a        0x6 
 .text.ARCOMMANDS_Generator_GenerateCommonAccessoryConfig
                0x000000000003e570       0xa0 /home/sunho/bebop_ws/devel/arsdk/out/arsdk-native/build/libARCommands/obj/gen/Sources/ARCOMMANDS_Generator.c.o
                0x000000000003e570                ARCOMMANDS_Generator_GenerateCommonAccessoryConfig
 .text.ARCOMMANDS_Generator_GenerateCommonChargerSetMaxChargeRate
                0x000000000003e610       0xa0 /home/sunho/bebop_ws/devel/arsdk/out/arsdk-native/build/libARCommands/obj/gen/Sources/ARCOMMANDS_Generator.c.o
                0x000000000003e610                ARCOMMANDS_Generator_GenerateCommonChargerSetMaxChargeRate
 .text.ARCOMMANDS_Generator_GenerateCommonNetworkEventDisconnection
                0x000000000003e6b0       0xa0 /home/sunho/bebop_ws/devel/arsdk/out/arsdk-native/build/libARCommands/obj/gen/Sources/ARCOMMANDS_Generator.c.o
                0x000000000003e6b0                ARCOMMANDS_Generator_GenerateCommonNetworkEventDisconnection
 .text.ARCOMMANDS_Generator_GenerateCommonSettingsStateAllSettingsChanged
                0x000000000003e750       0x7a /home/sunho/bebop_ws/devel/arsdk/out/arsdk-native/build/libARCommands/obj/gen/Sources/ARCOMMANDS_Generator.c.o
                0x000000000003e750                ARCOMMANDS_Generator_GenerateCommonSettingsStateAllSettingsChanged
 *fill*         0x000000000003e7ca        0x6 
 .text.ARCOMMANDS_Generator_GenerateCommonSettingsStateResetChanged
                0x000000000003e7d0       0x7a /home/sunho/bebop_ws/devel/arsdk/out/arsdk-native/build/libARCommands/obj/gen/Sources/ARCOMMANDS_Generator.c.o
                0x000000000003e7d0                ARCOMMANDS_Generator_GenerateCommonSettingsStateResetChanged
 *fill*         0x000000000003e84a        0x6 
 .text.ARCOMMANDS_Generator_GenerateCommonSettingsStateProductNameChanged
                0x000000000003e850       0xb0 /home/sunho/bebop_ws/devel/arsdk/out/arsdk-native/build/libARCommands/obj/gen/Sources/ARCOMMANDS_Generator.c.o
                0x000000000003e850                ARCOMMANDS_Generator_GenerateCommonSettingsStateProductNameChanged
 .text.ARCOMMANDS_Generator_GenerateCommonSettingsStateProductVersionChanged
                0x000000000003e900       0xe0 /home/sunho/bebop_ws/devel/arsdk/out/arsdk-native/build/libARCommands/obj/gen/Sources/ARCOMMANDS_Generator.c.o
                0x000000000003e900                ARCOMMANDS_Generator_GenerateCommonSettingsStateProductVersionChanged
 .text.ARCOMMANDS_Generator_GenerateCommonSettingsStateProductSerialHighChanged
                0x000000000003e9e0       0xb0 /home/sunho/bebop_ws/devel/arsdk/out/arsdk-native/build/libARCommands/obj/gen/Sources/ARCOMMANDS_Generator.c.o
                0x000000000003e9e0                ARCOMMANDS_Generator_GenerateCommonSettingsStateProductSerialHighChanged
 .text.ARCOMMANDS_Generator_GenerateCommonSettingsStateProductSerialLowChanged
                0x000000000003ea90       0xb0 /home/sunho/bebop_ws/devel/arsdk/out/arsdk-native/build/libARCommands/obj/gen/Sources/ARCOMMANDS_Generator.c.o
                0x000000000003ea90                ARCOMMANDS_Generator_GenerateCommonSettingsStateProductSerialLowChanged
 .text.ARCOMMANDS_Generator_GenerateCommonSettingsStateCountryChanged
                0x000000000003eb40       0xb0 /home/sunho/bebop_ws/devel/arsdk/out/arsdk-native/build/libARCommands/obj/gen/Sources/ARCOMMANDS_Generator.c.o
                0x000000000003eb40                ARCOMMANDS_Generator_GenerateCommonSettingsStateCountryChanged
 .text.ARCOMMANDS_Generator_GenerateCommonSettingsStateAutoCountryChanged
                0x000000000003ebf0       0xa0 /home/sunho/bebop_ws/devel/arsdk/out/arsdk-native/build/libARCommands/obj/gen/Sources/ARCOMMANDS_Generator.c.o
                0x000000000003ebf0                ARCOMMANDS_Generator_GenerateCommonSettingsStateAutoCountryChanged
 .text.ARCOMMANDS_Generator_GenerateCommonCommonStateAllStatesChanged
                0x000000000003ec90       0x7a /home/sunho/bebop_ws/devel/arsdk/out/arsdk-native/build/libARCommands/obj/gen/Sources/ARCOMMANDS_Generator.c.o
                0x000000000003ec90                ARCOMMANDS_Generator_GenerateCommonCommonStateAllStatesChanged
 *fill*         0x000000000003ed0a        0x6 
 .text.ARCOMMANDS_Generator_GenerateCommonCommonStateBatteryStateChanged
                0x000000000003ed10       0xa0 /home/sunho/bebop_ws/devel/arsdk/out/arsdk-native/build/libARCommands/obj/gen/Sources/ARCOMMANDS_Generator.c.o
                0x000000000003ed10                ARCOMMANDS_Generator_GenerateCommonCommonStateBatteryStateChanged
 .text.ARCOMMANDS_Generator_GenerateCommonCommonStateMassStorageStateListChanged
                0x000000000003edb0       0xce /home/sunho/bebop_ws/devel/arsdk/out/arsdk-native/build/libARCommands/obj/gen/Sources/ARCOMMANDS_Generator.c.o
                0x000000000003edb0                ARCOMMANDS_Generator_GenerateCommonCommonStateMassStorageStateListChanged
 *fill*         0x000000000003ee7e        0x2 
 .text.ARCOMMANDS_Generator_GenerateCommonCommonStateMassStorageInfoStateListChanged
                0x000000000003ee80      0x14c /home/sunho/bebop_ws/devel/arsdk/out/arsdk-native/build/libARCommands/obj/gen/Sources/ARCOMMANDS_Generator.c.o
                0x000000000003ee80                ARCOMMANDS_Generator_GenerateCommonCommonStateMassStorageInfoStateListChanged
 *fill*         0x000000000003efcc        0x4 
 .text.ARCOMMANDS_Generator_GenerateCommonCommonStateCurrentDateChanged
                0x000000000003efd0       0xb0 /home/sunho/bebop_ws/devel/arsdk/out/arsdk-native/build/libARCommands/obj/gen/Sources/ARCOMMANDS_Generator.c.o
                0x000000000003efd0                ARCOMMANDS_Generator_GenerateCommonCommonStateCurrentDateChanged
 .text.ARCOMMANDS_Generator_GenerateCommonCommonStateCurrentTimeChanged
                0x000000000003f080       0xb0 /home/sunho/bebop_ws/devel/arsdk/out/arsdk-native/build/libARCommands/obj/gen/Sources/ARCOMMANDS_Generator.c.o
                0x000000000003f080                ARCOMMANDS_Generator_GenerateCommonCommonStateCurrentTimeChanged
 .text.ARCOMMANDS_Generator_GenerateCommonCommonStateMassStorageInfoRemainingListChanged
                0x000000000003f130       0xe4 /home/sunho/bebop_ws/devel/arsdk/out/arsdk-native/build/libARCommands/obj/gen/Sources/ARCOMMANDS_Generator.c.o
                0x000000000003f130                ARCOMMANDS_Generator_GenerateCommonCommonStateMassStorageInfoRemainingListChanged
 *fill*         0x000000000003f214        0xc 
 .text.ARCOMMANDS_Generator_GenerateCommonCommonStateWifiSignalChanged
                0x000000000003f220       0xa0 /home/sunho/bebop_ws/devel/arsdk/out/arsdk-native/build/libARCommands/obj/gen/Sources/ARCOMMANDS_Generator.c.o
                0x000000000003f220                ARCOMMANDS_Generator_GenerateCommonCommonStateWifiSignalChanged
 .text.ARCOMMANDS_Generator_GenerateCommonCommonStateSensorsStatesListChanged
                0x000000000003f2c0       0xae /home/sunho/bebop_ws/devel/arsdk/out/arsdk-native/build/libARCommands/obj/gen/Sources/ARCOMMANDS_Generator.c.o
                0x000000000003f2c0                ARCOMMANDS_Generator_GenerateCommonCommonStateSensorsStatesListChanged
 *fill*         0x000000000003f36e        0x2 
 .text.ARCOMMANDS_Generator_GenerateCommonCommonStateProductModel
                0x000000000003f370       0xa0 /home/sunho/bebop_ws/devel/arsdk/out/arsdk-native/build/libARCommands/obj/gen/Sources/ARCOMMANDS_Generator.c.o
                0x000000000003f370                ARCOMMANDS_Generator_GenerateCommonCommonStateProductModel
 .text.ARCOMMANDS_Generator_GenerateCommonCommonStateCountryListKnown
                0x000000000003f410       0xce /home/sunho/bebop_ws/devel/arsdk/out/arsdk-native/build/libARCommands/obj/gen/Sources/ARCOMMANDS_Generator.c.o
                0x000000000003f410                ARCOMMANDS_Generator_GenerateCommonCommonStateCountryListKnown
 *fill*         0x000000000003f4de        0x2 
 .text.ARCOMMANDS_Generator_GenerateCommonCommonStateDeprecatedMassStorageContentChanged
                0x000000000003f4e0      0x134 /home/sunho/bebop_ws/devel/arsdk/out/arsdk-native/build/libARCommands/obj/gen/Sources/ARCOMMANDS_Generator.c.o
                0x000000000003f4e0                ARCOMMANDS_Generator_GenerateCommonCommonStateDeprecatedMassStorageContentChanged
 *fill*         0x000000000003f614        0xc 
 .text.ARCOMMANDS_Generator_GenerateCommonCommonStateMassStorageContent
                0x000000000003f620      0x154 /home/sunho/bebop_ws/devel/arsdk/out/arsdk-native/build/libARCommands/obj/gen/Sources/ARCOMMANDS_Generator.c.o
                0x000000000003f620                ARCOMMANDS_Generator_GenerateCommonCommonStateMassStorageContent
 *fill*         0x000000000003f774        0xc 
 .text.ARCOMMANDS_Generator_GenerateCommonCommonStateMassStorageContentForCurrentRun
                0x000000000003f780      0x10c /home/sunho/bebop_ws/devel/arsdk/out/arsdk-native/build/libARCommands/obj/gen/Sources/ARCOMMANDS_Generator.c.o
                0x000000000003f780                ARCOMMANDS_Generator_GenerateCommonCommonStateMassStorageContentForCurrentRun
 *fill*         0x000000000003f88c        0x4 
 .text.ARCOMMANDS_Generator_GenerateCommonOverHeatStateOverHeatChanged
                0x000000000003f890       0x7a /home/sunho/bebop_ws/devel/arsdk/out/arsdk-native/build/libARCommands/obj/gen/Sources/ARCOMMANDS_Generator.c.o
                0x000000000003f890                ARCOMMANDS_Generator_GenerateCommonOverHeatStateOverHeatChanged
 *fill*         0x000000000003f90a        0x6 
 .text.ARCOMMANDS_Generator_GenerateCommonOverHeatStateOverHeatRegulationChanged
                0x000000000003f910       0xa0 /home/sunho/bebop_ws/devel/arsdk/out/arsdk-native/build/libARCommands/obj/gen/Sources/ARCOMMANDS_Generator.c.o
                0x000000000003f910                ARCOMMANDS_Generator_GenerateCommonOverHeatStateOverHeatRegulationChanged
 .text.ARCOMMANDS_Generator_GenerateCommonWifiSettingsStateOutdoorSettingsChanged
                0x000000000003f9b0       0xa0 /home/sunho/bebop_ws/devel/arsdk/out/arsdk-native/build/libARCommands/obj/gen/Sources/ARCOMMANDS_Generator.c.o
                0x000000000003f9b0                ARCOMMANDS_Generator_GenerateCommonWifiSettingsStateOutdoorSettingsChanged
 .text.ARCOMMANDS_Generator_GenerateCommonMavlinkStateMavlinkFilePlayingStateChanged
                0x000000000003fa50       0xfc /home/sunho/bebop_ws/devel/arsdk/out/arsdk-native/build/libARCommands/obj/gen/Sources/ARCOMMANDS_Generator.c.o
                0x000000000003fa50                ARCOMMANDS_Generator_GenerateCommonMavlinkStateMavlinkFilePlayingStateChanged
 *fill*         0x000000000003fb4c        0x4 
 .text.ARCOMMANDS_Generator_GenerateCommonMavlinkStateMavlinkPlayErrorStateChanged
                0x000000000003fb50       0xa0 /home/sunho/bebop_ws/devel/arsdk/out/arsdk-native/build/libARCommands/obj/gen/Sources/ARCOMMANDS_Generator.c.o
                0x000000000003fb50                ARCOMMANDS_Generator_GenerateCommonMavlinkStateMavlinkPlayErrorStateChanged
 .text.ARCOMMANDS_Generator_GenerateCommonCalibrationStateMagnetoCalibrationStateChanged
                0x000000000003fbf0      0x104 /home/sunho/bebop_ws/devel/arsdk/out/arsdk-native/build/libARCommands/obj/gen/Sources/ARCOMMANDS_Generator.c.o
                0x000000000003fbf0                ARCOMMANDS_Generator_GenerateCommonCalibrationStateMagnetoCalibrationStateChanged
 *fill*         0x000000000003fcf4        0xc 
 .text.ARCOMMANDS_Generator_GenerateCommonCalibrationStateMagnetoCalibrationRequiredState
                0x000000000003fd00       0xa0 /home/sunho/bebop_ws/devel/arsdk/out/arsdk-native/build/libARCommands/obj/gen/Sources/ARCOMMANDS_Generator.c.o
                0x000000000003fd00                ARCOMMANDS_Generator_GenerateCommonCalibrationStateMagnetoCalibrationRequiredState
 .text.ARCOMMANDS_Generator_GenerateCommonCalibrationStateMagnetoCalibrationAxisToCalibrateChanged
                0x000000000003fda0       0xa0 /home/sunho/bebop_ws/devel/arsdk/out/arsdk-native/build/libARCommands/obj/gen/Sources/ARCOMMANDS_Generator.c.o
                0x000000000003fda0                ARCOMMANDS_Generator_GenerateCommonCalibrationStateMagnetoCalibrationAxisToCalibrateChanged
 .text.ARCOMMANDS_Generator_GenerateCommonCalibrationStateMagnetoCalibrationStartedChanged
                0x000000000003fe40       0xa0 /home/sunho/bebop_ws/devel/arsdk/out/arsdk-native/build/libARCommands/obj/gen/Sources/ARCOMMANDS_Generator.c.o
                0x000000000003fe40                ARCOMMANDS_Generator_GenerateCommonCalibrationStateMagnetoCalibrationStartedChanged
 .text.ARCOMMANDS_Generator_GenerateCommonCalibrationStatePitotCalibrationStateChanged
                0x000000000003fee0       0xae /home/sunho/bebop_ws/devel/arsdk/out/arsdk-native/build/libARCommands/obj/gen/Sources/ARCOMMANDS_Generator.c.o
                0x000000000003fee0                ARCOMMANDS_Generator_GenerateCommonCalibrationStatePitotCalibrationStateChanged
 *fill*         0x000000000003ff8e        0x2 
 .text.ARCOMMANDS_Generator_GenerateCommonCameraSettingsStateCameraSettingsChanged
                0x000000000003ff90      0x11e /home/sunho/bebop_ws/devel/arsdk/out/arsdk-native/build/libARCommands/obj/gen/Sources/ARCOMMANDS_Generator.c.o
                0x000000000003ff90                ARCOMMANDS_Generator_GenerateCommonCameraSettingsStateCameraSettingsChanged
 *fill*         0x00000000000400ae        0x2 
 .text.ARCOMMANDS_Generator_GenerateCommonFlightPlanStateAvailabilityStateChanged
                0x00000000000400b0       0xa0 /home/sunho/bebop_ws/devel/arsdk/out/arsdk-native/build/libARCommands/obj/gen/Sources/ARCOMMANDS_Generator.c.o
                0x00000000000400b0                ARCOMMANDS_Generator_GenerateCommonFlightPlanStateAvailabilityStateChanged
 .text.ARCOMMANDS_Generator_GenerateCommonFlightPlanStateComponentStateListChanged
                0x0000000000040150       0xae /home/sunho/bebop_ws/devel/arsdk/out/arsdk-native/build/libARCommands/obj/gen/Sources/ARCOMMANDS_Generator.c.o
                0x0000000000040150                ARCOMMANDS_Generator_GenerateCommonFlightPlanStateComponentStateListChanged
 *fill*         0x00000000000401fe        0x2 
 .text.ARCOMMANDS_Generator_GenerateCommonFlightPlanStateLockStateChanged
                0x0000000000040200       0xa0 /home/sunho/bebop_ws/devel/arsdk/out/arsdk-native/build/libARCommands/obj/gen/Sources/ARCOMMANDS_Generator.c.o
                0x0000000000040200                ARCOMMANDS_Generator_GenerateCommonFlightPlanStateLockStateChanged
 .text.ARCOMMANDS_Generator_GenerateCommonFlightPlanEventStartingErrorEvent
                0x00000000000402a0       0x7a /home/sunho/bebop_ws/devel/arsdk/out/arsdk-native/build/libARCommands/obj/gen/Sources/ARCOMMANDS_Generator.c.o
                0x00000000000402a0                ARCOMMANDS_Generator_GenerateCommonFlightPlanEventStartingErrorEvent
 *fill*         0x000000000004031a        0x6 
 .text.ARCOMMANDS_Generator_GenerateCommonFlightPlanEventSpeedBridleEvent
                0x0000000000040320       0x7a /home/sunho/bebop_ws/devel/arsdk/out/arsdk-native/build/libARCommands/obj/gen/Sources/ARCOMMANDS_Generator.c.o
                0x0000000000040320                ARCOMMANDS_Generator_GenerateCommonFlightPlanEventSpeedBridleEvent
 *fill*         0x000000000004039a        0x6 
 .text.ARCOMMANDS_Generator_GenerateCommonARLibsVersionsStateControllerLibARCommandsVersion
                0x00000000000403a0       0xb0 /home/sunho/bebop_ws/devel/arsdk/out/arsdk-native/build/libARCommands/obj/gen/Sources/ARCOMMANDS_Generator.c.o
                0x00000000000403a0                ARCOMMANDS_Generator_GenerateCommonARLibsVersionsStateControllerLibARCommandsVersion
 .text.ARCOMMANDS_Generator_GenerateCommonARLibsVersionsStateSkyControllerLibARCommandsVersion
                0x0000000000040450       0xb0 /home/sunho/bebop_ws/devel/arsdk/out/arsdk-native/build/libARCommands/obj/gen/Sources/ARCOMMANDS_Generator.c.o
                0x0000000000040450                ARCOMMANDS_Generator_GenerateCommonARLibsVersionsStateSkyControllerLibARCommandsVersion
 .text.ARCOMMANDS_Generator_GenerateCommonARLibsVersionsStateDeviceLibARCommandsVersion
                0x0000000000040500       0xb0 /home/sunho/bebop_ws/devel/arsdk/out/arsdk-native/build/libARCommands/obj/gen/Sources/ARCOMMANDS_Generator.c.o
                0x0000000000040500                ARCOMMANDS_Generator_GenerateCommonARLibsVersionsStateDeviceLibARCommandsVersion
 .text.ARCOMMANDS_Generator_GenerateCommonAudioStateAudioStreamingRunning
                0x00000000000405b0       0xa0 /home/sunho/bebop_ws/devel/arsdk/out/arsdk-native/build/libARCommands/obj/gen/Sources/ARCOMMANDS_Generator.c.o
                0x00000000000405b0                ARCOMMANDS_Generator_GenerateCommonAudioStateAudioStreamingRunning
 .text.ARCOMMANDS_Generator_GenerateCommonHeadlightsStateIntensityChanged
                0x0000000000040650       0xae /home/sunho/bebop_ws/devel/arsdk/out/arsdk-native/build/libARCommands/obj/gen/Sources/ARCOMMANDS_Generator.c.o
                0x0000000000040650                ARCOMMANDS_Generator_GenerateCommonHeadlightsStateIntensityChanged
 *fill*         0x00000000000406fe        0x2 
 .text.ARCOMMANDS_Generator_GenerateCommonAnimationsStateList
                0x0000000000040700       0xdc /home/sunho/bebop_ws/devel/arsdk/out/arsdk-native/build/libARCommands/obj/gen/Sources/ARCOMMANDS_Generator.c.o
                0x0000000000040700                ARCOMMANDS_Generator_GenerateCommonAnimationsStateList
 *fill*         0x00000000000407dc        0x4 
 .text.ARCOMMANDS_Generator_GenerateCommonAccessoryStateSupportedAccessoriesListChanged
                0x00000000000407e0       0xa0 /home/sunho/bebop_ws/devel/arsdk/out/arsdk-native/build/libARCommands/obj/gen/Sources/ARCOMMANDS_Generator.c.o
                0x00000000000407e0                ARCOMMANDS_Generator_GenerateCommonAccessoryStateSupportedAccessoriesListChanged
 .text.ARCOMMANDS_Generator_GenerateCommonAccessoryStateAccessoryConfigChanged
                0x0000000000040880       0xae /home/sunho/bebop_ws/devel/arsdk/out/arsdk-native/build/libARCommands/obj/gen/Sources/ARCOMMANDS_Generator.c.o
                0x0000000000040880                ARCOMMANDS_Generator_GenerateCommonAccessoryStateAccessoryConfigChanged
 *fill*         0x000000000004092e        0x2 
 .text.ARCOMMANDS_Generator_GenerateCommonAccessoryStateAccessoryConfigModificationEnabled
                0x0000000000040930       0xa0 /home/sunho/bebop_ws/devel/arsdk/out/arsdk-native/build/libARCommands/obj/gen/Sources/ARCOMMANDS_Generator.c.o
                0x0000000000040930                ARCOMMANDS_Generator_GenerateCommonAccessoryStateAccessoryConfigModificationEnabled
 .text.ARCOMMANDS_Generator_GenerateCommonChargerStateMaxChargeRateChanged
                0x00000000000409d0       0xa0 /home/sunho/bebop_ws/devel/arsdk/out/arsdk-native/build/libARCommands/obj/gen/Sources/ARCOMMANDS_Generator.c.o
                0x00000000000409d0                ARCOMMANDS_Generator_GenerateCommonChargerStateMaxChargeRateChanged
 .text.ARCOMMANDS_Generator_GenerateCommonChargerStateCurrentChargeStateChanged
                0x0000000000040a70       0xae /home/sunho/bebop_ws/devel/arsdk/out/arsdk-native/build/libARCommands/obj/gen/Sources/ARCOMMANDS_Generator.c.o
                0x0000000000040a70                ARCOMMANDS_Generator_GenerateCommonChargerStateCurrentChargeStateChanged
 *fill*         0x0000000000040b1e        0x2 
 .text.ARCOMMANDS_Generator_GenerateCommonChargerStateLastChargeRateChanged
                0x0000000000040b20       0xa0 /home/sunho/bebop_ws/devel/arsdk/out/arsdk-native/build/libARCommands/obj/gen/Sources/ARCOMMANDS_Generator.c.o
                0x0000000000040b20                ARCOMMANDS_Generator_GenerateCommonChargerStateLastChargeRateChanged
 .text.ARCOMMANDS_Generator_GenerateCommonChargerStateChargingInfo
                0x0000000000040bc0      0x10c /home/sunho/bebop_ws/devel/arsdk/out/arsdk-native/build/libARCommands/obj/gen/Sources/ARCOMMANDS_Generator.c.o
                0x0000000000040bc0                ARCOMMANDS_Generator_GenerateCommonChargerStateChargingInfo
 *fill*         0x0000000000040ccc        0x4 
 .text.ARCOMMANDS_Generator_GenerateCommonRunStateRunIdChanged
                0x0000000000040cd0       0xb0 /home/sunho/bebop_ws/devel/arsdk/out/arsdk-native/build/libARCommands/obj/gen/Sources/ARCOMMANDS_Generator.c.o
                0x0000000000040cd0                ARCOMMANDS_Generator_GenerateCommonRunStateRunIdChanged
 .text.ARCOMMANDS_Generator_GenerateControllerInfoGps
                0x0000000000040d80      0x19e /home/sunho/bebop_ws/devel/arsdk/out/arsdk-native/build/libARCommands/obj/gen/Sources/ARCOMMANDS_Generator.c.o
                0x0000000000040d80                ARCOMMANDS_Generator_GenerateControllerInfoGps
 *fill*         0x0000000000040f1e        0x2 
 .text.ARCOMMANDS_Generator_GenerateControllerInfoBarometer
                0x0000000000040f20       0xbe /home/sunho/bebop_ws/devel/arsdk/out/arsdk-native/build/libARCommands/obj/gen/Sources/ARCOMMANDS_Generator.c.o
                0x0000000000040f20                ARCOMMANDS_Generator_GenerateControllerInfoBarometer
 *fill*         0x0000000000040fde        0x2 
 .text.ARCOMMANDS_Generator_GenerateDebugGetAllSettings
                0x0000000000040fe0       0x7a /home/sunho/bebop_ws/devel/arsdk/out/arsdk-native/build/libARCommands/obj/gen/Sources/ARCOMMANDS_Generator.c.o
                0x0000000000040fe0                ARCOMMANDS_Generator_GenerateDebugGetAllSettings
 *fill*         0x000000000004105a        0x6 
 .text.ARCOMMANDS_Generator_GenerateDebugSetSetting
                0x0000000000041060       0xce /home/sunho/bebop_ws/devel/arsdk/out/arsdk-native/build/libARCommands/obj/gen/Sources/ARCOMMANDS_Generator.c.o
                0x0000000000041060                ARCOMMANDS_Generator_GenerateDebugSetSetting
 *fill*         0x000000000004112e        0x2 
 .text.ARCOMMANDS_Generator_GenerateDebugSettingsInfo
                0x0000000000041130      0x1e0 /home/sunho/bebop_ws/devel/arsdk/out/arsdk-native/build/libARCommands/obj/gen/Sources/ARCOMMANDS_Generator.c.o
                0x0000000000041130                ARCOMMANDS_Generator_GenerateDebugSettingsInfo
 .text.ARCOMMANDS_Generator_GenerateDebugSettingsList
                0x0000000000041310       0xce /home/sunho/bebop_ws/devel/arsdk/out/arsdk-native/build/libARCommands/obj/gen/Sources/ARCOMMANDS_Generator.c.o
                0x0000000000041310                ARCOMMANDS_Generator_GenerateDebugSettingsList
 *fill*         0x00000000000413de        0x2 
 .text.ARCOMMANDS_Generator_GenerateDroneManagerDiscoverDrones
                0x00000000000413e0       0x7a /home/sunho/bebop_ws/devel/arsdk/out/arsdk-native/build/libARCommands/obj/gen/Sources/ARCOMMANDS_Generator.c.o
                0x00000000000413e0                ARCOMMANDS_Generator_GenerateDroneManagerDiscoverDrones
 *fill*         0x000000000004145a        0x6 
 .text.ARCOMMANDS_Generator_GenerateDroneManagerConnect
                0x0000000000041460       0xe0 /home/sunho/bebop_ws/devel/arsdk/out/arsdk-native/build/libARCommands/obj/gen/Sources/ARCOMMANDS_Generator.c.o
                0x0000000000041460                ARCOMMANDS_Generator_GenerateDroneManagerConnect
 .text.ARCOMMANDS_Generator_GenerateDroneManagerForget
                0x0000000000041540       0xb0 /home/sunho/bebop_ws/devel/arsdk/out/arsdk-native/build/libARCommands/obj/gen/Sources/ARCOMMANDS_Generator.c.o
                0x0000000000041540                ARCOMMANDS_Generator_GenerateDroneManagerForget
 .text.ARCOMMANDS_Generator_GenerateDroneManagerDroneListItem
                0x00000000000415f0      0x204 /home/sunho/bebop_ws/devel/arsdk/out/arsdk-native/build/libARCommands/obj/gen/Sources/ARCOMMANDS_Generator.c.o
                0x00000000000415f0                ARCOMMANDS_Generator_GenerateDroneManagerDroneListItem
 *fill*         0x00000000000417f4        0xc 
 .text.ARCOMMANDS_Generator_GenerateDroneManagerConnectionState
                0x0000000000041800      0x10c /home/sunho/bebop_ws/devel/arsdk/out/arsdk-native/build/libARCommands/obj/gen/Sources/ARCOMMANDS_Generator.c.o
                0x0000000000041800                ARCOMMANDS_Generator_GenerateDroneManagerConnectionState
 *fill*         0x000000000004190c        0x4 
 .text.ARCOMMANDS_Generator_GenerateDroneManagerAuthenticationFailed
                0x0000000000041910       0xf4 /home/sunho/bebop_ws/devel/arsdk/out/arsdk-native/build/libARCommands/obj/gen/Sources/ARCOMMANDS_Generator.c.o
                0x0000000000041910                ARCOMMANDS_Generator_GenerateDroneManagerAuthenticationFailed
 *fill*         0x0000000000041a04        0xc 
 .text.ARCOMMANDS_Generator_GenerateDroneManagerConnectionRefused
                0x0000000000041a10       0xf4 /home/sunho/bebop_ws/devel/arsdk/out/arsdk-native/build/libARCommands/obj/gen/Sources/ARCOMMANDS_Generator.c.o
                0x0000000000041a10                ARCOMMANDS_Generator_GenerateDroneManagerConnectionRefused
 *fill*         0x0000000000041b04        0xc 
 .text.ARCOMMANDS_Generator_GenerateJumpingSumoPilotingPCMD
                0x0000000000041b10       0xe4 /home/sunho/bebop_ws/devel/arsdk/out/arsdk-native/build/libARCommands/obj/gen/Sources/ARCOMMANDS_Generator.c.o
                0x0000000000041b10                ARCOMMANDS_Generator_GenerateJumpingSumoPilotingPCMD
 *fill*         0x0000000000041bf4        0xc 
 .text.ARCOMMANDS_Generator_GenerateJumpingSumoPilotingPosture
                0x0000000000041c00       0xa0 /home/sunho/bebop_ws/devel/arsdk/out/arsdk-native/build/libARCommands/obj/gen/Sources/ARCOMMANDS_Generator.c.o
                0x0000000000041c00                ARCOMMANDS_Generator_GenerateJumpingSumoPilotingPosture
 .text.ARCOMMANDS_Generator_GenerateJumpingSumoPilotingAddCapOffset
                0x0000000000041ca0       0x9e /home/sunho/bebop_ws/devel/arsdk/out/arsdk-native/build/libARCommands/obj/gen/Sources/ARCOMMANDS_Generator.c.o
                0x0000000000041ca0                ARCOMMANDS_Generator_GenerateJumpingSumoPilotingAddCapOffset
 *fill*         0x0000000000041d3e        0x2 
 .text.ARCOMMANDS_Generator_GenerateJumpingSumoAnimationsJumpStop
                0x0000000000041d40       0x7a /home/sunho/bebop_ws/devel/arsdk/out/arsdk-native/build/libARCommands/obj/gen/Sources/ARCOMMANDS_Generator.c.o
                0x0000000000041d40                ARCOMMANDS_Generator_GenerateJumpingSumoAnimationsJumpStop
 *fill*         0x0000000000041dba        0x6 
 .text.ARCOMMANDS_Generator_GenerateJumpingSumoAnimationsJumpCancel
                0x0000000000041dc0       0x82 /home/sunho/bebop_ws/devel/arsdk/out/arsdk-native/build/libARCommands/obj/gen/Sources/ARCOMMANDS_Generator.c.o
                0x0000000000041dc0                ARCOMMANDS_Generator_GenerateJumpingSumoAnimationsJumpCancel
 *fill*         0x0000000000041e42        0xe 
 .text.ARCOMMANDS_Generator_GenerateJumpingSumoAnimationsJumpLoad
                0x0000000000041e50       0x82 /home/sunho/bebop_ws/devel/arsdk/out/arsdk-native/build/libARCommands/obj/gen/Sources/ARCOMMANDS_Generator.c.o
                0x0000000000041e50                ARCOMMANDS_Generator_GenerateJumpingSumoAnimationsJumpLoad
 *fill*         0x0000000000041ed2        0xe 
 .text.ARCOMMANDS_Generator_GenerateJumpingSumoAnimationsJump
                0x0000000000041ee0       0xa0 /home/sunho/bebop_ws/devel/arsdk/out/arsdk-native/build/libARCommands/obj/gen/Sources/ARCOMMANDS_Generator.c.o
                0x0000000000041ee0                ARCOMMANDS_Generator_GenerateJumpingSumoAnimationsJump
 .text.ARCOMMANDS_Generator_GenerateJumpingSumoAnimationsSimpleAnimation
                0x0000000000041f80       0xa0 /home/sunho/bebop_ws/devel/arsdk/out/arsdk-native/build/libARCommands/obj/gen/Sources/ARCOMMANDS_Generator.c.o
                0x0000000000041f80                ARCOMMANDS_Generator_GenerateJumpingSumoAnimationsSimpleAnimation
 .text.ARCOMMANDS_Generator_GenerateJumpingSumoMediaRecordPicture
                0x0000000000042020       0xa0 /home/sunho/bebop_ws/devel/arsdk/out/arsdk-native/build/libARCommands/obj/gen/Sources/ARCOMMANDS_Generator.c.o
                0x0000000000042020                ARCOMMANDS_Generator_GenerateJumpingSumoMediaRecordPicture
 .text.ARCOMMANDS_Generator_GenerateJumpingSumoMediaRecordVideo
                0x00000000000420c0       0xb6 /home/sunho/bebop_ws/devel/arsdk/out/arsdk-native/build/libARCommands/obj/gen/Sources/ARCOMMANDS_Generator.c.o
                0x00000000000420c0                ARCOMMANDS_Generator_GenerateJumpingSumoMediaRecordVideo
 *fill*         0x0000000000042176        0xa 
 .text.ARCOMMANDS_Generator_GenerateJumpingSumoMediaRecordPictureV2
                0x0000000000042180       0x82 /home/sunho/bebop_ws/devel/arsdk/out/arsdk-native/build/libARCommands/obj/gen/Sources/ARCOMMANDS_Generator.c.o
                0x0000000000042180                ARCOMMANDS_Generator_GenerateJumpingSumoMediaRecordPictureV2
 *fill*         0x0000000000042202        0xe 
 .text.ARCOMMANDS_Generator_GenerateJumpingSumoMediaRecordVideoV2
                0x0000000000042210       0xa0 /home/sunho/bebop_ws/devel/arsdk/out/arsdk-native/build/libARCommands/obj/gen/Sources/ARCOMMANDS_Generator.c.o
                0x0000000000042210                ARCOMMANDS_Generator_GenerateJumpingSumoMediaRecordVideoV2
 .text.ARCOMMANDS_Generator_GenerateJumpingSumoNetworkSettingsWifiSelection
                0x00000000000422b0       0xe4 /home/sunho/bebop_ws/devel/arsdk/out/arsdk-native/build/libARCommands/obj/gen/Sources/ARCOMMANDS_Generator.c.o
                0x00000000000422b0                ARCOMMANDS_Generator_GenerateJumpingSumoNetworkSettingsWifiSelection
 *fill*         0x0000000000042394        0xc 
 .text.ARCOMMANDS_Generator_GenerateJumpingSumoNetworkWifiScan
                0x00000000000423a0       0xa0 /home/sunho/bebop_ws/devel/arsdk/out/arsdk-native/build/libARCommands/obj/gen/Sources/ARCOMMANDS_Generator.c.o
                0x00000000000423a0                ARCOMMANDS_Generator_GenerateJumpingSumoNetworkWifiScan
 .text.ARCOMMANDS_Generator_GenerateJumpingSumoNetworkWifiAuthChannel
                0x0000000000042440       0x82 /home/sunho/bebop_ws/devel/arsdk/out/arsdk-native/build/libARCommands/obj/gen/Sources/ARCOMMANDS_Generator.c.o
                0x0000000000042440                ARCOMMANDS_Generator_GenerateJumpingSumoNetworkWifiAuthChannel
 *fill*         0x00000000000424c2        0xe 
 .text.ARCOMMANDS_Generator_GenerateJumpingSumoAudioSettingsMasterVolume
                0x00000000000424d0       0xa0 /home/sunho/bebop_ws/devel/arsdk/out/arsdk-native/build/libARCommands/obj/gen/Sources/ARCOMMANDS_Generator.c.o
                0x00000000000424d0                ARCOMMANDS_Generator_GenerateJumpingSumoAudioSettingsMasterVolume
 .text.ARCOMMANDS_Generator_GenerateJumpingSumoAudioSettingsTheme
                0x0000000000042570       0xa0 /home/sunho/bebop_ws/devel/arsdk/out/arsdk-native/build/libARCommands/obj/gen/Sources/ARCOMMANDS_Generator.c.o
                0x0000000000042570                ARCOMMANDS_Generator_GenerateJumpingSumoAudioSettingsTheme
 .text.ARCOMMANDS_Generator_GenerateJumpingSumoRoadPlanAllScriptsMetadata
                0x0000000000042610       0x7a /home/sunho/bebop_ws/devel/arsdk/out/arsdk-native/build/libARCommands/obj/gen/Sources/ARCOMMANDS_Generator.c.o
                0x0000000000042610                ARCOMMANDS_Generator_GenerateJumpingSumoRoadPlanAllScriptsMetadata
 *fill*         0x000000000004268a        0x6 
 .text.ARCOMMANDS_Generator_GenerateJumpingSumoRoadPlanScriptUploaded
                0x0000000000042690       0xe0 /home/sunho/bebop_ws/devel/arsdk/out/arsdk-native/build/libARCommands/obj/gen/Sources/ARCOMMANDS_Generator.c.o
                0x0000000000042690                ARCOMMANDS_Generator_GenerateJumpingSumoRoadPlanScriptUploaded
 .text.ARCOMMANDS_Generator_GenerateJumpingSumoRoadPlanScriptDelete
                0x0000000000042770       0xb0 /home/sunho/bebop_ws/devel/arsdk/out/arsdk-native/build/libARCommands/obj/gen/Sources/ARCOMMANDS_Generator.c.o
                0x0000000000042770                ARCOMMANDS_Generator_GenerateJumpingSumoRoadPlanScriptDelete
 .text.ARCOMMANDS_Generator_GenerateJumpingSumoRoadPlanPlayScript
                0x0000000000042820       0xb0 /home/sunho/bebop_ws/devel/arsdk/out/arsdk-native/build/libARCommands/obj/gen/Sources/ARCOMMANDS_Generator.c.o
                0x0000000000042820                ARCOMMANDS_Generator_GenerateJumpingSumoRoadPlanPlayScript
 .text.ARCOMMANDS_Generator_GenerateJumpingSumoSpeedSettingsOutdoor
                0x00000000000428d0       0xa0 /home/sunho/bebop_ws/devel/arsdk/out/arsdk-native/build/libARCommands/obj/gen/Sources/ARCOMMANDS_Generator.c.o
                0x00000000000428d0                ARCOMMANDS_Generator_GenerateJumpingSumoSpeedSettingsOutdoor
 .text.ARCOMMANDS_Generator_GenerateJumpingSumoMediaStreamingVideoEnable
                0x0000000000042970       0xa0 /home/sunho/bebop_ws/devel/arsdk/out/arsdk-native/build/libARCommands/obj/gen/Sources/ARCOMMANDS_Generator.c.o
                0x0000000000042970                ARCOMMANDS_Generator_GenerateJumpingSumoMediaStreamingVideoEnable
 .text.ARCOMMANDS_Generator_GenerateJumpingSumoVideoSettingsAutorecord
                0x0000000000042a10       0xa0 /home/sunho/bebop_ws/devel/arsdk/out/arsdk-native/build/libARCommands/obj/gen/Sources/ARCOMMANDS_Generator.c.o
                0x0000000000042a10                ARCOMMANDS_Generator_GenerateJumpingSumoVideoSettingsAutorecord
 .text.ARCOMMANDS_Generator_GenerateJumpingSumoPilotingStatePostureChanged
                0x0000000000042ab0       0xa0 /home/sunho/bebop_ws/devel/arsdk/out/arsdk-native/build/libARCommands/obj/gen/Sources/ARCOMMANDS_Generator.c.o
                0x0000000000042ab0                ARCOMMANDS_Generator_GenerateJumpingSumoPilotingStatePostureChanged
 .text.ARCOMMANDS_Generator_GenerateJumpingSumoPilotingStateAlertStateChanged
                0x0000000000042b50       0xa0 /home/sunho/bebop_ws/devel/arsdk/out/arsdk-native/build/libARCommands/obj/gen/Sources/ARCOMMANDS_Generator.c.o
                0x0000000000042b50                ARCOMMANDS_Generator_GenerateJumpingSumoPilotingStateAlertStateChanged
 .text.ARCOMMANDS_Generator_GenerateJumpingSumoPilotingStateSpeedChanged
                0x0000000000042bf0       0xb6 /home/sunho/bebop_ws/devel/arsdk/out/arsdk-native/build/libARCommands/obj/gen/Sources/ARCOMMANDS_Generator.c.o
                0x0000000000042bf0                ARCOMMANDS_Generator_GenerateJumpingSumoPilotingStateSpeedChanged
 *fill*         0x0000000000042ca6        0xa 
 .text.ARCOMMANDS_Generator_GenerateJumpingSumoAnimationsStateJumpLoadChanged
                0x0000000000042cb0       0xa0 /home/sunho/bebop_ws/devel/arsdk/out/arsdk-native/build/libARCommands/obj/gen/Sources/ARCOMMANDS_Generator.c.o
                0x0000000000042cb0                ARCOMMANDS_Generator_GenerateJumpingSumoAnimationsStateJumpLoadChanged
 .text.ARCOMMANDS_Generator_GenerateJumpingSumoAnimationsStateJumpTypeChanged
                0x0000000000042d50       0xa0 /home/sunho/bebop_ws/devel/arsdk/out/arsdk-native/build/libARCommands/obj/gen/Sources/ARCOMMANDS_Generator.c.o
                0x0000000000042d50                ARCOMMANDS_Generator_GenerateJumpingSumoAnimationsStateJumpTypeChanged
 .text.ARCOMMANDS_Generator_GenerateJumpingSumoAnimationsStateJumpMotorProblemChanged
                0x0000000000042df0       0xa0 /home/sunho/bebop_ws/devel/arsdk/out/arsdk-native/build/libARCommands/obj/gen/Sources/ARCOMMANDS_Generator.c.o
                0x0000000000042df0                ARCOMMANDS_Generator_GenerateJumpingSumoAnimationsStateJumpMotorProblemChanged
 .text.ARCOMMANDS_Generator_GenerateJumpingSumoSettingsStateProductGPSVersionChanged
                0x0000000000042e90       0xe0 /home/sunho/bebop_ws/devel/arsdk/out/arsdk-native/build/libARCommands/obj/gen/Sources/ARCOMMANDS_Generator.c.o
                0x0000000000042e90                ARCOMMANDS_Generator_GenerateJumpingSumoSettingsStateProductGPSVersionChanged
 .text.ARCOMMANDS_Generator_GenerateJumpingSumoMediaRecordStatePictureStateChanged
                0x0000000000042f70       0xb6 /home/sunho/bebop_ws/devel/arsdk/out/arsdk-native/build/libARCommands/obj/gen/Sources/ARCOMMANDS_Generator.c.o
                0x0000000000042f70                ARCOMMANDS_Generator_GenerateJumpingSumoMediaRecordStatePictureStateChanged
 *fill*         0x0000000000043026        0xa 
 .text.ARCOMMANDS_Generator_GenerateJumpingSumoMediaRecordStateVideoStateChanged
                0x0000000000043030       0xb6 /home/sunho/bebop_ws/devel/arsdk/out/arsdk-native/build/libARCommands/obj/gen/Sources/ARCOMMANDS_Generator.c.o
                0x0000000000043030                ARCOMMANDS_Generator_GenerateJumpingSumoMediaRecordStateVideoStateChanged
 *fill*         0x00000000000430e6        0xa 
 .text.ARCOMMANDS_Generator_GenerateJumpingSumoMediaRecordStatePictureStateChangedV2
                0x00000000000430f0       0xb6 /home/sunho/bebop_ws/devel/arsdk/out/arsdk-native/build/libARCommands/obj/gen/Sources/ARCOMMANDS_Generator.c.o
                0x00000000000430f0                ARCOMMANDS_Generator_GenerateJumpingSumoMediaRecordStatePictureStateChangedV2
 *fill*         0x00000000000431a6        0xa 
 .text.ARCOMMANDS_Generator_GenerateJumpingSumoMediaRecordStateVideoStateChangedV2
                0x00000000000431b0       0xb6 /home/sunho/bebop_ws/devel/arsdk/out/arsdk-native/build/libARCommands/obj/gen/Sources/ARCOMMANDS_Generator.c.o
                0x00000000000431b0                ARCOMMANDS_Generator_GenerateJumpingSumoMediaRecordStateVideoStateChangedV2
 *fill*         0x0000000000043266        0xa 
 .text.ARCOMMANDS_Generator_GenerateJumpingSumoMediaRecordEventPictureEventChanged
                0x0000000000043270       0xae /home/sunho/bebop_ws/devel/arsdk/out/arsdk-native/build/libARCommands/obj/gen/Sources/ARCOMMANDS_Generator.c.o
                0x0000000000043270                ARCOMMANDS_Generator_GenerateJumpingSumoMediaRecordEventPictureEventChanged
 *fill*         0x000000000004331e        0x2 
 .text.ARCOMMANDS_Generator_GenerateJumpingSumoMediaRecordEventVideoEventChanged
                0x0000000000043320       0xb6 /home/sunho/bebop_ws/devel/arsdk/out/arsdk-native/build/libARCommands/obj/gen/Sources/ARCOMMANDS_Generator.c.o
                0x0000000000043320                ARCOMMANDS_Generator_GenerateJumpingSumoMediaRecordEventVideoEventChanged
 *fill*         0x00000000000433d6        0xa 
 .text.ARCOMMANDS_Generator_GenerateJumpingSumoNetworkSettingsStateWifiSelectionChanged
                0x00000000000433e0       0xe4 /home/sunho/bebop_ws/devel/arsdk/out/arsdk-native/build/libARCommands/obj/gen/Sources/ARCOMMANDS_Generator.c.o
                0x00000000000433e0                ARCOMMANDS_Generator_GenerateJumpingSumoNetworkSettingsStateWifiSelectionChanged
 *fill*         0x00000000000434c4        0xc 
 .text.ARCOMMANDS_Generator_GenerateJumpingSumoNetworkStateWifiScanListChanged
                0x00000000000434d0      0x12c /home/sunho/bebop_ws/devel/arsdk/out/arsdk-native/build/libARCommands/obj/gen/Sources/ARCOMMANDS_Generator.c.o
                0x00000000000434d0                ARCOMMANDS_Generator_GenerateJumpingSumoNetworkStateWifiScanListChanged
 *fill*         0x00000000000435fc        0x4 
 .text.ARCOMMANDS_Generator_GenerateJumpingSumoNetworkStateAllWifiScanChanged
                0x0000000000043600       0x82 /home/sunho/bebop_ws/devel/arsdk/out/arsdk-native/build/libARCommands/obj/gen/Sources/ARCOMMANDS_Generator.c.o
                0x0000000000043600                ARCOMMANDS_Generator_GenerateJumpingSumoNetworkStateAllWifiScanChanged
 *fill*         0x0000000000043682        0xe 
 .text.ARCOMMANDS_Generator_GenerateJumpingSumoNetworkStateWifiAuthChannelListChanged
                0x0000000000043690       0xe4 /home/sunho/bebop_ws/devel/arsdk/out/arsdk-native/build/libARCommands/obj/gen/Sources/ARCOMMANDS_Generator.c.o
                0x0000000000043690                ARCOMMANDS_Generator_GenerateJumpingSumoNetworkStateWifiAuthChannelListChanged
 *fill*         0x0000000000043774        0xc 
 .text.ARCOMMANDS_Generator_GenerateJumpingSumoNetworkStateAllWifiAuthChannelChanged
                0x0000000000043780       0x82 /home/sunho/bebop_ws/devel/arsdk/out/arsdk-native/build/libARCommands/obj/gen/Sources/ARCOMMANDS_Generator.c.o
                0x0000000000043780                ARCOMMANDS_Generator_GenerateJumpingSumoNetworkStateAllWifiAuthChannelChanged
 *fill*         0x0000000000043802        0xe 
 .text.ARCOMMANDS_Generator_GenerateJumpingSumoNetworkStateLinkQualityChanged
                0x0000000000043810       0xa8 /home/sunho/bebop_ws/devel/arsdk/out/arsdk-native/build/libARCommands/obj/gen/Sources/ARCOMMANDS_Generator.c.o
                0x0000000000043810                ARCOMMANDS_Generator_GenerateJumpingSumoNetworkStateLinkQualityChanged
 *fill*         0x00000000000438b8        0x8 
 .text.ARCOMMANDS_Generator_GenerateJumpingSumoAudioSettingsStateMasterVolumeChanged
                0x00000000000438c0       0xa0 /home/sunho/bebop_ws/devel/arsdk/out/arsdk-native/build/libARCommands/obj/gen/Sources/ARCOMMANDS_Generator.c.o
                0x00000000000438c0                ARCOMMANDS_Generator_GenerateJumpingSumoAudioSettingsStateMasterVolumeChanged
 .text.ARCOMMANDS_Generator_GenerateJumpingSumoAudioSettingsStateThemeChanged
                0x0000000000043960       0xa0 /home/sunho/bebop_ws/devel/arsdk/out/arsdk-native/build/libARCommands/obj/gen/Sources/ARCOMMANDS_Generator.c.o
                0x0000000000043960                ARCOMMANDS_Generator_GenerateJumpingSumoAudioSettingsStateThemeChanged
 .text.ARCOMMANDS_Generator_GenerateJumpingSumoRoadPlanStateScriptMetadataListChanged
                0x0000000000043a00      0x14c /home/sunho/bebop_ws/devel/arsdk/out/arsdk-native/build/libARCommands/obj/gen/Sources/ARCOMMANDS_Generator.c.o
                0x0000000000043a00                ARCOMMANDS_Generator_GenerateJumpingSumoRoadPlanStateScriptMetadataListChanged
 *fill*         0x0000000000043b4c        0x4 
 .text.ARCOMMANDS_Generator_GenerateJumpingSumoRoadPlanStateAllScriptsMetadataChanged
                0x0000000000043b50       0x82 /home/sunho/bebop_ws/devel/arsdk/out/arsdk-native/build/libARCommands/obj/gen/Sources/ARCOMMANDS_Generator.c.o
                0x0000000000043b50                ARCOMMANDS_Generator_GenerateJumpingSumoRoadPlanStateAllScriptsMetadataChanged
 *fill*         0x0000000000043bd2        0xe 
 .text.ARCOMMANDS_Generator_GenerateJumpingSumoRoadPlanStateScriptUploadChanged
                0x0000000000043be0       0xa0 /home/sunho/bebop_ws/devel/arsdk/out/arsdk-native/build/libARCommands/obj/gen/Sources/ARCOMMANDS_Generator.c.o
                0x0000000000043be0                ARCOMMANDS_Generator_GenerateJumpingSumoRoadPlanStateScriptUploadChanged
 .text.ARCOMMANDS_Generator_GenerateJumpingSumoRoadPlanStateScriptDeleteChanged
                0x0000000000043c80       0xa0 /home/sunho/bebop_ws/devel/arsdk/out/arsdk-native/build/libARCommands/obj/gen/Sources/ARCOMMANDS_Generator.c.o
                0x0000000000043c80                ARCOMMANDS_Generator_GenerateJumpingSumoRoadPlanStateScriptDeleteChanged
 .text.ARCOMMANDS_Generator_GenerateJumpingSumoRoadPlanStatePlayScriptChanged
                0x0000000000043d20       0xa0 /home/sunho/bebop_ws/devel/arsdk/out/arsdk-native/build/libARCommands/obj/gen/Sources/ARCOMMANDS_Generator.c.o
                0x0000000000043d20                ARCOMMANDS_Generator_GenerateJumpingSumoRoadPlanStatePlayScriptChanged
 .text.ARCOMMANDS_Generator_GenerateJumpingSumoSpeedSettingsStateOutdoorChanged
                0x0000000000043dc0       0xa0 /home/sunho/bebop_ws/devel/arsdk/out/arsdk-native/build/libARCommands/obj/gen/Sources/ARCOMMANDS_Generator.c.o
                0x0000000000043dc0                ARCOMMANDS_Generator_GenerateJumpingSumoSpeedSettingsStateOutdoorChanged
 .text.ARCOMMANDS_Generator_GenerateJumpingSumoMediaStreamingStateVideoEnableChanged
                0x0000000000043e60       0xa0 /home/sunho/bebop_ws/devel/arsdk/out/arsdk-native/build/libARCommands/obj/gen/Sources/ARCOMMANDS_Generator.c.o
                0x0000000000043e60                ARCOMMANDS_Generator_GenerateJumpingSumoMediaStreamingStateVideoEnableChanged
 .text.ARCOMMANDS_Generator_GenerateJumpingSumoVideoSettingsStateAutorecordChanged
                0x0000000000043f00       0xa0 /home/sunho/bebop_ws/devel/arsdk/out/arsdk-native/build/libARCommands/obj/gen/Sources/ARCOMMANDS_Generator.c.o
                0x0000000000043f00                ARCOMMANDS_Generator_GenerateJumpingSumoVideoSettingsStateAutorecordChanged
 .text.ARCOMMANDS_Generator_GenerateMapperGrab
                0x0000000000043fa0       0xae /home/sunho/bebop_ws/devel/arsdk/out/arsdk-native/build/libARCommands/obj/gen/Sources/ARCOMMANDS_Generator.c.o
                0x0000000000043fa0                ARCOMMANDS_Generator_GenerateMapperGrab
 *fill*         0x000000000004404e        0x2 
 .text.ARCOMMANDS_Generator_GenerateMapperMapButtonAction
                0x0000000000044050       0xe4 /home/sunho/bebop_ws/devel/arsdk/out/arsdk-native/build/libARCommands/obj/gen/Sources/ARCOMMANDS_Generator.c.o
                0x0000000000044050                ARCOMMANDS_Generator_GenerateMapperMapButtonAction
 *fill*         0x0000000000044134        0xc 
 .text.ARCOMMANDS_Generator_GenerateMapperMapAxisAction
                0x0000000000044140       0xf4 /home/sunho/bebop_ws/devel/arsdk/out/arsdk-native/build/libARCommands/obj/gen/Sources/ARCOMMANDS_Generator.c.o
                0x0000000000044140                ARCOMMANDS_Generator_GenerateMapperMapAxisAction
 *fill*         0x0000000000044234        0xc 
 .text.ARCOMMANDS_Generator_GenerateMapperResetMapping
                0x0000000000044240       0xa0 /home/sunho/bebop_ws/devel/arsdk/out/arsdk-native/build/libARCommands/obj/gen/Sources/ARCOMMANDS_Generator.c.o
                0x0000000000044240                ARCOMMANDS_Generator_GenerateMapperResetMapping
 .text.ARCOMMANDS_Generator_GenerateMapperSetExpo
                0x00000000000442e0       0xe4 /home/sunho/bebop_ws/devel/arsdk/out/arsdk-native/build/libARCommands/obj/gen/Sources/ARCOMMANDS_Generator.c.o
                0x00000000000442e0                ARCOMMANDS_Generator_GenerateMapperSetExpo
 *fill*         0x00000000000443c4        0xc 
 .text.ARCOMMANDS_Generator_GenerateMapperSetInverted
                0x00000000000443d0       0xe4 /home/sunho/bebop_ws/devel/arsdk/out/arsdk-native/build/libARCommands/obj/gen/Sources/ARCOMMANDS_Generator.c.o
                0x00000000000443d0                ARCOMMANDS_Generator_GenerateMapperSetInverted
 *fill*         0x00000000000444b4        0xc 
 .text.ARCOMMANDS_Generator_GenerateMapperGrabState
                0x00000000000444c0       0xe4 /home/sunho/bebop_ws/devel/arsdk/out/arsdk-native/build/libARCommands/obj/gen/Sources/ARCOMMANDS_Generator.c.o
                0x00000000000444c0                ARCOMMANDS_Generator_GenerateMapperGrabState
 *fill*         0x00000000000445a4        0xc 
 .text.ARCOMMANDS_Generator_GenerateMapperGrabButtonEvent
                0x00000000000445b0       0xae /home/sunho/bebop_ws/devel/arsdk/out/arsdk-native/build/libARCommands/obj/gen/Sources/ARCOMMANDS_Generator.c.o
                0x00000000000445b0                ARCOMMANDS_Generator_GenerateMapperGrabButtonEvent
 *fill*         0x000000000004465e        0x2 
 .text.ARCOMMANDS_Generator_GenerateMapperGrabAxisEvent
                0x0000000000044660       0xae /home/sunho/bebop_ws/devel/arsdk/out/arsdk-native/build/libARCommands/obj/gen/Sources/ARCOMMANDS_Generator.c.o
                0x0000000000044660                ARCOMMANDS_Generator_GenerateMapperGrabAxisEvent
 *fill*         0x000000000004470e        0x2 
 .text.ARCOMMANDS_Generator_GenerateMapperButtonMappingItem
                0x0000000000044710      0x124 /home/sunho/bebop_ws/devel/arsdk/out/arsdk-native/build/libARCommands/obj/gen/Sources/ARCOMMANDS_Generator.c.o
                0x0000000000044710                ARCOMMANDS_Generator_GenerateMapperButtonMappingItem
 *fill*         0x0000000000044834        0xc 
 .text.ARCOMMANDS_Generator_GenerateMapperAxisMappingItem
                0x0000000000044840      0x13c /home/sunho/bebop_ws/devel/arsdk/out/arsdk-native/build/libARCommands/obj/gen/Sources/ARCOMMANDS_Generator.c.o
                0x0000000000044840                ARCOMMANDS_Generator_GenerateMapperAxisMappingItem
 *fill*         0x000000000004497c        0x4 
 .text.ARCOMMANDS_Generator_GenerateMapperApplicationAxisEvent
                0x0000000000044980       0xae /home/sunho/bebop_ws/devel/arsdk/out/arsdk-native/build/libARCommands/obj/gen/Sources/ARCOMMANDS_Generator.c.o
                0x0000000000044980                ARCOMMANDS_Generator_GenerateMapperApplicationAxisEvent
 *fill*         0x0000000000044a2e        0x2 
 .text.ARCOMMANDS_Generator_GenerateMapperApplicationButtonEvent
                0x0000000000044a30       0xa0 /home/sunho/bebop_ws/devel/arsdk/out/arsdk-native/build/libARCommands/obj/gen/Sources/ARCOMMANDS_Generator.c.o
                0x0000000000044a30                ARCOMMANDS_Generator_GenerateMapperApplicationButtonEvent
 .text.ARCOMMANDS_Generator_GenerateMapperExpoMapItem
                0x0000000000044ad0      0x124 /home/sunho/bebop_ws/devel/arsdk/out/arsdk-native/build/libARCommands/obj/gen/Sources/ARCOMMANDS_Generator.c.o
                0x0000000000044ad0                ARCOMMANDS_Generator_GenerateMapperExpoMapItem
 *fill*         0x0000000000044bf4        0xc 
 .text.ARCOMMANDS_Generator_GenerateMapperInvertedMapItem
                0x0000000000044c00      0x134 /home/sunho/bebop_ws/devel/arsdk/out/arsdk-native/build/libARCommands/obj/gen/Sources/ARCOMMANDS_Generator.c.o
                0x0000000000044c00                ARCOMMANDS_Generator_GenerateMapperInvertedMapItem
 *fill*         0x0000000000044d34        0xc 
 .text.ARCOMMANDS_Generator_GenerateMiniDronePilotingFlatTrim
                0x0000000000044d40       0x7a /home/sunho/bebop_ws/devel/arsdk/out/arsdk-native/build/libARCommands/obj/gen/Sources/ARCOMMANDS_Generator.c.o
                0x0000000000044d40                ARCOMMANDS_Generator_GenerateMiniDronePilotingFlatTrim
 *fill*         0x0000000000044dba        0x6 
 .text.ARCOMMANDS_Generator_GenerateMiniDronePilotingTakeOff
                0x0000000000044dc0       0x7a /home/sunho/bebop_ws/devel/arsdk/out/arsdk-native/build/libARCommands/obj/gen/Sources/ARCOMMANDS_Generator.c.o
                0x0000000000044dc0                ARCOMMANDS_Generator_GenerateMiniDronePilotingTakeOff
 *fill*         0x0000000000044e3a        0x6 
 .text.ARCOMMANDS_Generator_GenerateMiniDronePilotingPCMD
                0x0000000000044e40      0x14c /home/sunho/bebop_ws/devel/arsdk/out/arsdk-native/build/libARCommands/obj/gen/Sources/ARCOMMANDS_Generator.c.o
                0x0000000000044e40                ARCOMMANDS_Generator_GenerateMiniDronePilotingPCMD
 *fill*         0x0000000000044f8c        0x4 
 .text.ARCOMMANDS_Generator_GenerateMiniDronePilotingLanding
                0x0000000000044f90       0x7a /home/sunho/bebop_ws/devel/arsdk/out/arsdk-native/build/libARCommands/obj/gen/Sources/ARCOMMANDS_Generator.c.o
                0x0000000000044f90                ARCOMMANDS_Generator_GenerateMiniDronePilotingLanding
 *fill*         0x000000000004500a        0x6 
 .text.ARCOMMANDS_Generator_GenerateMiniDronePilotingEmergency
                0x0000000000045010       0x7a /home/sunho/bebop_ws/devel/arsdk/out/arsdk-native/build/libARCommands/obj/gen/Sources/ARCOMMANDS_Generator.c.o
                0x0000000000045010                ARCOMMANDS_Generator_GenerateMiniDronePilotingEmergency
 *fill*         0x000000000004508a        0x6 
 .text.ARCOMMANDS_Generator_GenerateMiniDronePilotingAutoTakeOffMode
                0x0000000000045090       0xa0 /home/sunho/bebop_ws/devel/arsdk/out/arsdk-native/build/libARCommands/obj/gen/Sources/ARCOMMANDS_Generator.c.o
                0x0000000000045090                ARCOMMANDS_Generator_GenerateMiniDronePilotingAutoTakeOffMode
 .text.ARCOMMANDS_Generator_GenerateMiniDronePilotingFlyingMode
                0x0000000000045130       0xa0 /home/sunho/bebop_ws/devel/arsdk/out/arsdk-native/build/libARCommands/obj/gen/Sources/ARCOMMANDS_Generator.c.o
                0x0000000000045130                ARCOMMANDS_Generator_GenerateMiniDronePilotingFlyingMode
 .text.ARCOMMANDS_Generator_GenerateMiniDronePilotingPlaneGearBox
                0x00000000000451d0       0xa0 /home/sunho/bebop_ws/devel/arsdk/out/arsdk-native/build/libARCommands/obj/gen/Sources/ARCOMMANDS_Generator.c.o
                0x00000000000451d0                ARCOMMANDS_Generator_GenerateMiniDronePilotingPlaneGearBox
 .text.ARCOMMANDS_Generator_GenerateMiniDroneAnimationsFlip
                0x0000000000045270       0xa0 /home/sunho/bebop_ws/devel/arsdk/out/arsdk-native/build/libARCommands/obj/gen/Sources/ARCOMMANDS_Generator.c.o
                0x0000000000045270                ARCOMMANDS_Generator_GenerateMiniDroneAnimationsFlip
 .text.ARCOMMANDS_Generator_GenerateMiniDroneAnimationsCap
                0x0000000000045310       0xa8 /home/sunho/bebop_ws/devel/arsdk/out/arsdk-native/build/libARCommands/obj/gen/Sources/ARCOMMANDS_Generator.c.o
                0x0000000000045310                ARCOMMANDS_Generator_GenerateMiniDroneAnimationsCap
 *fill*         0x00000000000453b8        0x8 
 .text.ARCOMMANDS_Generator_GenerateMiniDroneMediaRecordPicture
                0x00000000000453c0       0xa0 /home/sunho/bebop_ws/devel/arsdk/out/arsdk-native/build/libARCommands/obj/gen/Sources/ARCOMMANDS_Generator.c.o
                0x00000000000453c0                ARCOMMANDS_Generator_GenerateMiniDroneMediaRecordPicture
 .text.ARCOMMANDS_Generator_GenerateMiniDroneMediaRecordPictureV2
                0x0000000000045460       0x82 /home/sunho/bebop_ws/devel/arsdk/out/arsdk-native/build/libARCommands/obj/gen/Sources/ARCOMMANDS_Generator.c.o
                0x0000000000045460                ARCOMMANDS_Generator_GenerateMiniDroneMediaRecordPictureV2
 *fill*         0x00000000000454e2        0xe 
 .text.ARCOMMANDS_Generator_GenerateMiniDronePilotingSettingsMaxAltitude
                0x00000000000454f0       0x9e /home/sunho/bebop_ws/devel/arsdk/out/arsdk-native/build/libARCommands/obj/gen/Sources/ARCOMMANDS_Generator.c.o
                0x00000000000454f0                ARCOMMANDS_Generator_GenerateMiniDronePilotingSettingsMaxAltitude
 *fill*         0x000000000004558e        0x2 
 .text.ARCOMMANDS_Generator_GenerateMiniDronePilotingSettingsMaxTilt
                0x0000000000045590       0x9e /home/sunho/bebop_ws/devel/arsdk/out/arsdk-native/build/libARCommands/obj/gen/Sources/ARCOMMANDS_Generator.c.o
                0x0000000000045590                ARCOMMANDS_Generator_GenerateMiniDronePilotingSettingsMaxTilt
 *fill*         0x000000000004562e        0x2 
 .text.ARCOMMANDS_Generator_GenerateMiniDronePilotingSettingsPlaneModePitch
                0x0000000000045630       0x9e /home/sunho/bebop_ws/devel/arsdk/out/arsdk-native/build/libARCommands/obj/gen/Sources/ARCOMMANDS_Generator.c.o
                0x0000000000045630                ARCOMMANDS_Generator_GenerateMiniDronePilotingSettingsPlaneModePitch
 *fill*         0x00000000000456ce        0x2 
 .text.ARCOMMANDS_Generator_GenerateMiniDroneSpeedSettingsMaxVerticalSpeed
                0x00000000000456d0       0x9e /home/sunho/bebop_ws/devel/arsdk/out/arsdk-native/build/libARCommands/obj/gen/Sources/ARCOMMANDS_Generator.c.o
                0x00000000000456d0                ARCOMMANDS_Generator_GenerateMiniDroneSpeedSettingsMaxVerticalSpeed
 *fill*         0x000000000004576e        0x2 
 .text.ARCOMMANDS_Generator_GenerateMiniDroneSpeedSettingsMaxRotationSpeed
                0x0000000000045770       0x9e /home/sunho/bebop_ws/devel/arsdk/out/arsdk-native/build/libARCommands/obj/gen/Sources/ARCOMMANDS_Generator.c.o
                0x0000000000045770                ARCOMMANDS_Generator_GenerateMiniDroneSpeedSettingsMaxRotationSpeed
 *fill*         0x000000000004580e        0x2 
 .text.ARCOMMANDS_Generator_GenerateMiniDroneSpeedSettingsWheels
                0x0000000000045810       0xa8 /home/sunho/bebop_ws/devel/arsdk/out/arsdk-native/build/libARCommands/obj/gen/Sources/ARCOMMANDS_Generator.c.o
                0x0000000000045810                ARCOMMANDS_Generator_GenerateMiniDroneSpeedSettingsWheels
 *fill*         0x00000000000458b8        0x8 
 .text.ARCOMMANDS_Generator_GenerateMiniDroneSpeedSettingsMaxHorizontalSpeed
                0x00000000000458c0       0x9e /home/sunho/bebop_ws/devel/arsdk/out/arsdk-native/build/libARCommands/obj/gen/Sources/ARCOMMANDS_Generator.c.o
                0x00000000000458c0                ARCOMMANDS_Generator_GenerateMiniDroneSpeedSettingsMaxHorizontalSpeed
 *fill*         0x000000000004595e        0x2 
 .text.ARCOMMANDS_Generator_GenerateMiniDroneSpeedSettingsMaxPlaneModeRotationSpeed
                0x0000000000045960       0x9e /home/sunho/bebop_ws/devel/arsdk/out/arsdk-native/build/libARCommands/obj/gen/Sources/ARCOMMANDS_Generator.c.o
                0x0000000000045960                ARCOMMANDS_Generator_GenerateMiniDroneSpeedSettingsMaxPlaneModeRotationSpeed
 *fill*         0x00000000000459fe        0x2 
 .text.ARCOMMANDS_Generator_GenerateMiniDroneSettingsCutOutMode
                0x0000000000045a00       0xa0 /home/sunho/bebop_ws/devel/arsdk/out/arsdk-native/build/libARCommands/obj/gen/Sources/ARCOMMANDS_Generator.c.o
                0x0000000000045a00                ARCOMMANDS_Generator_GenerateMiniDroneSettingsCutOutMode
 .text.ARCOMMANDS_Generator_GenerateMiniDroneGPSControllerLatitudeForRun
                0x0000000000045aa0       0x9e /home/sunho/bebop_ws/devel/arsdk/out/arsdk-native/build/libARCommands/obj/gen/Sources/ARCOMMANDS_Generator.c.o
                0x0000000000045aa0                ARCOMMANDS_Generator_GenerateMiniDroneGPSControllerLatitudeForRun
 *fill*         0x0000000000045b3e        0x2 
 .text.ARCOMMANDS_Generator_GenerateMiniDroneGPSControllerLongitudeForRun
                0x0000000000045b40       0x9e /home/sunho/bebop_ws/devel/arsdk/out/arsdk-native/build/libARCommands/obj/gen/Sources/ARCOMMANDS_Generator.c.o
                0x0000000000045b40                ARCOMMANDS_Generator_GenerateMiniDroneGPSControllerLongitudeForRun
 *fill*         0x0000000000045bde        0x2 
 .text.ARCOMMANDS_Generator_GenerateMiniDroneConfigurationControllerType
                0x0000000000045be0       0xb0 /home/sunho/bebop_ws/devel/arsdk/out/arsdk-native/build/libARCommands/obj/gen/Sources/ARCOMMANDS_Generator.c.o
                0x0000000000045be0                ARCOMMANDS_Generator_GenerateMiniDroneConfigurationControllerType
 .text.ARCOMMANDS_Generator_GenerateMiniDroneConfigurationControllerName
                0x0000000000045c90       0xb0 /home/sunho/bebop_ws/devel/arsdk/out/arsdk-native/build/libARCommands/obj/gen/Sources/ARCOMMANDS_Generator.c.o
                0x0000000000045c90                ARCOMMANDS_Generator_GenerateMiniDroneConfigurationControllerName
 .text.ARCOMMANDS_Generator_GenerateMiniDroneUsbAccessoryLightControl
                0x0000000000045d40       0xe4 /home/sunho/bebop_ws/devel/arsdk/out/arsdk-native/build/libARCommands/obj/gen/Sources/ARCOMMANDS_Generator.c.o
                0x0000000000045d40                ARCOMMANDS_Generator_GenerateMiniDroneUsbAccessoryLightControl
 *fill*         0x0000000000045e24        0xc 
 .text.ARCOMMANDS_Generator_GenerateMiniDroneUsbAccessoryClawControl
                0x0000000000045e30       0xb6 /home/sunho/bebop_ws/devel/arsdk/out/arsdk-native/build/libARCommands/obj/gen/Sources/ARCOMMANDS_Generator.c.o
                0x0000000000045e30                ARCOMMANDS_Generator_GenerateMiniDroneUsbAccessoryClawControl
 *fill*         0x0000000000045ee6        0xa 
 .text.ARCOMMANDS_Generator_GenerateMiniDroneUsbAccessoryGunControl
                0x0000000000045ef0       0xb6 /home/sunho/bebop_ws/devel/arsdk/out/arsdk-native/build/libARCommands/obj/gen/Sources/ARCOMMANDS_Generator.c.o
                0x0000000000045ef0                ARCOMMANDS_Generator_GenerateMiniDroneUsbAccessoryGunControl
 *fill*         0x0000000000045fa6        0xa 
 .text.ARCOMMANDS_Generator_GenerateMiniDroneRemoteControllerSetPairedRemote
                0x0000000000045fb0       0xe4 /home/sunho/bebop_ws/devel/arsdk/out/arsdk-native/build/libARCommands/obj/gen/Sources/ARCOMMANDS_Generator.c.o
                0x0000000000045fb0                ARCOMMANDS_Generator_GenerateMiniDroneRemoteControllerSetPairedRemote
 *fill*         0x0000000000046094        0xc 
 .text.ARCOMMANDS_Generator_GenerateMiniDronePilotingStateFlatTrimChanged
                0x00000000000460a0       0x7a /home/sunho/bebop_ws/devel/arsdk/out/arsdk-native/build/libARCommands/obj/gen/Sources/ARCOMMANDS_Generator.c.o
                0x00000000000460a0                ARCOMMANDS_Generator_GenerateMiniDronePilotingStateFlatTrimChanged
 *fill*         0x000000000004611a        0x6 
 .text.ARCOMMANDS_Generator_GenerateMiniDronePilotingStateFlyingStateChanged
                0x0000000000046120       0xa0 /home/sunho/bebop_ws/devel/arsdk/out/arsdk-native/build/libARCommands/obj/gen/Sources/ARCOMMANDS_Generator.c.o
                0x0000000000046120                ARCOMMANDS_Generator_GenerateMiniDronePilotingStateFlyingStateChanged
 .text.ARCOMMANDS_Generator_GenerateMiniDronePilotingStateAlertStateChanged
                0x00000000000461c0       0xa0 /home/sunho/bebop_ws/devel/arsdk/out/arsdk-native/build/libARCommands/obj/gen/Sources/ARCOMMANDS_Generator.c.o
                0x00000000000461c0                ARCOMMANDS_Generator_GenerateMiniDronePilotingStateAlertStateChanged
 .text.ARCOMMANDS_Generator_GenerateMiniDronePilotingStateAutoTakeOffModeChanged
                0x0000000000046260       0xa8 /home/sunho/bebop_ws/devel/arsdk/out/arsdk-native/build/libARCommands/obj/gen/Sources/ARCOMMANDS_Generator.c.o
                0x0000000000046260                ARCOMMANDS_Generator_GenerateMiniDronePilotingStateAutoTakeOffModeChanged
 *fill*         0x0000000000046308        0x8 
 .text.ARCOMMANDS_Generator_GenerateMiniDronePilotingStateFlyingModeChanged
                0x0000000000046310       0xa0 /home/sunho/bebop_ws/devel/arsdk/out/arsdk-native/build/libARCommands/obj/gen/Sources/ARCOMMANDS_Generator.c.o
                0x0000000000046310                ARCOMMANDS_Generator_GenerateMiniDronePilotingStateFlyingModeChanged
 .text.ARCOMMANDS_Generator_GenerateMiniDronePilotingStatePlaneGearBoxChanged
                0x00000000000463b0       0xa0 /home/sunho/bebop_ws/devel/arsdk/out/arsdk-native/build/libARCommands/obj/gen/Sources/ARCOMMANDS_Generator.c.o
                0x00000000000463b0                ARCOMMANDS_Generator_GenerateMiniDronePilotingStatePlaneGearBoxChanged
 .text.ARCOMMANDS_Generator_GenerateMiniDroneMediaRecordStatePictureStateChanged
                0x0000000000046450       0xb6 /home/sunho/bebop_ws/devel/arsdk/out/arsdk-native/build/libARCommands/obj/gen/Sources/ARCOMMANDS_Generator.c.o
                0x0000000000046450                ARCOMMANDS_Generator_GenerateMiniDroneMediaRecordStatePictureStateChanged
 *fill*         0x0000000000046506        0xa 
 .text.ARCOMMANDS_Generator_GenerateMiniDroneMediaRecordStatePictureStateChangedV2
                0x0000000000046510       0xb6 /home/sunho/bebop_ws/devel/arsdk/out/arsdk-native/build/libARCommands/obj/gen/Sources/ARCOMMANDS_Generator.c.o
                0x0000000000046510                ARCOMMANDS_Generator_GenerateMiniDroneMediaRecordStatePictureStateChangedV2
 *fill*         0x00000000000465c6        0xa 
 .text.ARCOMMANDS_Generator_GenerateMiniDroneMediaRecordEventPictureEventChanged
                0x00000000000465d0       0xae /home/sunho/bebop_ws/devel/arsdk/out/arsdk-native/build/libARCommands/obj/gen/Sources/ARCOMMANDS_Generator.c.o
                0x00000000000465d0                ARCOMMANDS_Generator_GenerateMiniDroneMediaRecordEventPictureEventChanged
 *fill*         0x000000000004667e        0x2 
 .text.ARCOMMANDS_Generator_GenerateMiniDronePilotingSettingsStateMaxAltitudeChanged
                0x0000000000046680       0xde /home/sunho/bebop_ws/devel/arsdk/out/arsdk-native/build/libARCommands/obj/gen/Sources/ARCOMMANDS_Generator.c.o
                0x0000000000046680                ARCOMMANDS_Generator_GenerateMiniDronePilotingSettingsStateMaxAltitudeChanged
 *fill*         0x000000000004675e        0x2 
 .text.ARCOMMANDS_Generator_GenerateMiniDronePilotingSettingsStateMaxTiltChanged
                0x0000000000046760       0xde /home/sunho/bebop_ws/devel/arsdk/out/arsdk-native/build/libARCommands/obj/gen/Sources/ARCOMMANDS_Generator.c.o
                0x0000000000046760                ARCOMMANDS_Generator_GenerateMiniDronePilotingSettingsStateMaxTiltChanged
 *fill*         0x000000000004683e        0x2 
 .text.ARCOMMANDS_Generator_GenerateMiniDronePilotingSettingsStatePlaneModePitchChanged
                0x0000000000046840       0xde /home/sunho/bebop_ws/devel/arsdk/out/arsdk-native/build/libARCommands/obj/gen/Sources/ARCOMMANDS_Generator.c.o
                0x0000000000046840                ARCOMMANDS_Generator_GenerateMiniDronePilotingSettingsStatePlaneModePitchChanged
 *fill*         0x000000000004691e        0x2 
 .text.ARCOMMANDS_Generator_GenerateMiniDroneSpeedSettingsStateMaxVerticalSpeedChanged
                0x0000000000046920       0xde /home/sunho/bebop_ws/devel/arsdk/out/arsdk-native/build/libARCommands/obj/gen/Sources/ARCOMMANDS_Generator.c.o
                0x0000000000046920                ARCOMMANDS_Generator_GenerateMiniDroneSpeedSettingsStateMaxVerticalSpeedChanged
 *fill*         0x00000000000469fe        0x2 
 .text.ARCOMMANDS_Generator_GenerateMiniDroneSpeedSettingsStateMaxRotationSpeedChanged
                0x0000000000046a00       0xde /home/sunho/bebop_ws/devel/arsdk/out/arsdk-native/build/libARCommands/obj/gen/Sources/ARCOMMANDS_Generator.c.o
                0x0000000000046a00                ARCOMMANDS_Generator_GenerateMiniDroneSpeedSettingsStateMaxRotationSpeedChanged
 *fill*         0x0000000000046ade        0x2 
 .text.ARCOMMANDS_Generator_GenerateMiniDroneSpeedSettingsStateWheelsChanged
                0x0000000000046ae0       0xa8 /home/sunho/bebop_ws/devel/arsdk/out/arsdk-native/build/libARCommands/obj/gen/Sources/ARCOMMANDS_Generator.c.o
                0x0000000000046ae0                ARCOMMANDS_Generator_GenerateMiniDroneSpeedSettingsStateWheelsChanged
 *fill*         0x0000000000046b88        0x8 
 .text.ARCOMMANDS_Generator_GenerateMiniDroneSpeedSettingsStateMaxHorizontalSpeedChanged
                0x0000000000046b90       0xde /home/sunho/bebop_ws/devel/arsdk/out/arsdk-native/build/libARCommands/obj/gen/Sources/ARCOMMANDS_Generator.c.o
                0x0000000000046b90                ARCOMMANDS_Generator_GenerateMiniDroneSpeedSettingsStateMaxHorizontalSpeedChanged
 *fill*         0x0000000000046c6e        0x2 
 .text.ARCOMMANDS_Generator_GenerateMiniDroneSpeedSettingsStateMaxPlaneModeRotationSpeedChanged
                0x0000000000046c70       0xde /home/sunho/bebop_ws/devel/arsdk/out/arsdk-native/build/libARCommands/obj/gen/Sources/ARCOMMANDS_Generator.c.o
                0x0000000000046c70                ARCOMMANDS_Generator_GenerateMiniDroneSpeedSettingsStateMaxPlaneModeRotationSpeedChanged
 *fill*         0x0000000000046d4e        0x2 
 .text.ARCOMMANDS_Generator_GenerateMiniDroneSettingsStateProductMotorsVersionChanged
                0x0000000000046d50      0x13c /home/sunho/bebop_ws/devel/arsdk/out/arsdk-native/build/libARCommands/obj/gen/Sources/ARCOMMANDS_Generator.c.o
                0x0000000000046d50                ARCOMMANDS_Generator_GenerateMiniDroneSettingsStateProductMotorsVersionChanged
 *fill*         0x0000000000046e8c        0x4 
 .text.ARCOMMANDS_Generator_GenerateMiniDroneSettingsStateProductInertialVersionChanged
                0x0000000000046e90       0xe0 /home/sunho/bebop_ws/devel/arsdk/out/arsdk-native/build/libARCommands/obj/gen/Sources/ARCOMMANDS_Generator.c.o
                0x0000000000046e90                ARCOMMANDS_Generator_GenerateMiniDroneSettingsStateProductInertialVersionChanged
 .text.ARCOMMANDS_Generator_GenerateMiniDroneSettingsStateCutOutModeChanged
                0x0000000000046f70       0xa8 /home/sunho/bebop_ws/devel/arsdk/out/arsdk-native/build/libARCommands/obj/gen/Sources/ARCOMMANDS_Generator.c.o
                0x0000000000046f70                ARCOMMANDS_Generator_GenerateMiniDroneSettingsStateCutOutModeChanged
 *fill*         0x0000000000047018        0x8 
 .text.ARCOMMANDS_Generator_GenerateMiniDroneFloodControlStateFloodControlChanged
                0x0000000000047020       0xa0 /home/sunho/bebop_ws/devel/arsdk/out/arsdk-native/build/libARCommands/obj/gen/Sources/ARCOMMANDS_Generator.c.o
                0x0000000000047020                ARCOMMANDS_Generator_GenerateMiniDroneFloodControlStateFloodControlChanged
 .text.ARCOMMANDS_Generator_GenerateMiniDroneUsbAccessoryStateLightState
                0x00000000000470c0      0x10c /home/sunho/bebop_ws/devel/arsdk/out/arsdk-native/build/libARCommands/obj/gen/Sources/ARCOMMANDS_Generator.c.o
                0x00000000000470c0                ARCOMMANDS_Generator_GenerateMiniDroneUsbAccessoryStateLightState
 *fill*         0x00000000000471cc        0x4 
 .text.ARCOMMANDS_Generator_GenerateMiniDroneUsbAccessoryStateClawState
                0x00000000000471d0       0xe4 /home/sunho/bebop_ws/devel/arsdk/out/arsdk-native/build/libARCommands/obj/gen/Sources/ARCOMMANDS_Generator.c.o
                0x00000000000471d0                ARCOMMANDS_Generator_GenerateMiniDroneUsbAccessoryStateClawState
 *fill*         0x00000000000472b4        0xc 
 .text.ARCOMMANDS_Generator_GenerateMiniDroneUsbAccessoryStateGunState
                0x00000000000472c0       0xe4 /home/sunho/bebop_ws/devel/arsdk/out/arsdk-native/build/libARCommands/obj/gen/Sources/ARCOMMANDS_Generator.c.o
                0x00000000000472c0                ARCOMMANDS_Generator_GenerateMiniDroneUsbAccessoryStateGunState
 *fill*         0x00000000000473a4        0xc 
 .text.ARCOMMANDS_Generator_GenerateMiniDroneNavigationDataStateDronePosition
                0x00000000000473b0      0x124 /home/sunho/bebop_ws/devel/arsdk/out/arsdk-native/build/libARCommands/obj/gen/Sources/ARCOMMANDS_Generator.c.o
                0x00000000000473b0                ARCOMMANDS_Generator_GenerateMiniDroneNavigationDataStateDronePosition
 *fill*         0x00000000000474d4        0xc 
 .text.ARCOMMANDS_Generator_GeneratePowerupPilotingPCMD
                0x00000000000474e0       0xe4 /home/sunho/bebop_ws/devel/arsdk/out/arsdk-native/build/libARCommands/obj/gen/Sources/ARCOMMANDS_Generator.c.o
                0x00000000000474e0                ARCOMMANDS_Generator_GeneratePowerupPilotingPCMD
 *fill*         0x00000000000475c4        0xc 
 .text.ARCOMMANDS_Generator_GeneratePowerupPilotingUserTakeOff
                0x00000000000475d0       0xa0 /home/sunho/bebop_ws/devel/arsdk/out/arsdk-native/build/libARCommands/obj/gen/Sources/ARCOMMANDS_Generator.c.o
                0x00000000000475d0                ARCOMMANDS_Generator_GeneratePowerupPilotingUserTakeOff
 .text.ARCOMMANDS_Generator_GeneratePowerupPilotingMotorMode
                0x0000000000047670       0xa0 /home/sunho/bebop_ws/devel/arsdk/out/arsdk-native/build/libARCommands/obj/gen/Sources/ARCOMMANDS_Generator.c.o
                0x0000000000047670                ARCOMMANDS_Generator_GeneratePowerupPilotingMotorMode
 .text.ARCOMMANDS_Generator_GeneratePowerupPilotingSettingsSet
                0x0000000000047710       0xc0 /home/sunho/bebop_ws/devel/arsdk/out/arsdk-native/build/libARCommands/obj/gen/Sources/ARCOMMANDS_Generator.c.o
                0x0000000000047710                ARCOMMANDS_Generator_GeneratePowerupPilotingSettingsSet
 .text.ARCOMMANDS_Generator_GeneratePowerupMediaRecordPictureV2
                0x00000000000477d0       0x7a /home/sunho/bebop_ws/devel/arsdk/out/arsdk-native/build/libARCommands/obj/gen/Sources/ARCOMMANDS_Generator.c.o
                0x00000000000477d0                ARCOMMANDS_Generator_GeneratePowerupMediaRecordPictureV2
 *fill*         0x000000000004784a        0x6 
 .text.ARCOMMANDS_Generator_GeneratePowerupMediaRecordVideoV2
                0x0000000000047850       0xa0 /home/sunho/bebop_ws/devel/arsdk/out/arsdk-native/build/libARCommands/obj/gen/Sources/ARCOMMANDS_Generator.c.o
                0x0000000000047850                ARCOMMANDS_Generator_GeneratePowerupMediaRecordVideoV2
 .text.ARCOMMANDS_Generator_GeneratePowerupNetworkSettingsWifiSelection
                0x00000000000478f0       0xe4 /home/sunho/bebop_ws/devel/arsdk/out/arsdk-native/build/libARCommands/obj/gen/Sources/ARCOMMANDS_Generator.c.o
                0x00000000000478f0                ARCOMMANDS_Generator_GeneratePowerupNetworkSettingsWifiSelection
 *fill*         0x00000000000479d4        0xc 
 .text.ARCOMMANDS_Generator_GeneratePowerupNetworkWifiScan
                0x00000000000479e0       0xa0 /home/sunho/bebop_ws/devel/arsdk/out/arsdk-native/build/libARCommands/obj/gen/Sources/ARCOMMANDS_Generator.c.o
                0x00000000000479e0                ARCOMMANDS_Generator_GeneratePowerupNetworkWifiScan
 .text.ARCOMMANDS_Generator_GeneratePowerupNetworkWifiAuthChannel
                0x0000000000047a80       0x82 /home/sunho/bebop_ws/devel/arsdk/out/arsdk-native/build/libARCommands/obj/gen/Sources/ARCOMMANDS_Generator.c.o
                0x0000000000047a80                ARCOMMANDS_Generator_GeneratePowerupNetworkWifiAuthChannel
 *fill*         0x0000000000047b02        0xe 
 .text.ARCOMMANDS_Generator_GeneratePowerupMediaStreamingVideoEnable
                0x0000000000047b10       0xa0 /home/sunho/bebop_ws/devel/arsdk/out/arsdk-native/build/libARCommands/obj/gen/Sources/ARCOMMANDS_Generator.c.o
                0x0000000000047b10                ARCOMMANDS_Generator_GeneratePowerupMediaStreamingVideoEnable
 .text.ARCOMMANDS_Generator_GeneratePowerupVideoSettingsAutorecord
                0x0000000000047bb0       0xa0 /home/sunho/bebop_ws/devel/arsdk/out/arsdk-native/build/libARCommands/obj/gen/Sources/ARCOMMANDS_Generator.c.o
                0x0000000000047bb0                ARCOMMANDS_Generator_GeneratePowerupVideoSettingsAutorecord
 .text.ARCOMMANDS_Generator_GeneratePowerupVideoSettingsVideoMode
                0x0000000000047c50       0xa0 /home/sunho/bebop_ws/devel/arsdk/out/arsdk-native/build/libARCommands/obj/gen/Sources/ARCOMMANDS_Generator.c.o
                0x0000000000047c50                ARCOMMANDS_Generator_GeneratePowerupVideoSettingsVideoMode
 .text.ARCOMMANDS_Generator_GeneratePowerupSoundsBuzz
                0x0000000000047cf0       0xa0 /home/sunho/bebop_ws/devel/arsdk/out/arsdk-native/build/libARCommands/obj/gen/Sources/ARCOMMANDS_Generator.c.o
                0x0000000000047cf0                ARCOMMANDS_Generator_GeneratePowerupSoundsBuzz
 .text.ARCOMMANDS_Generator_GeneratePowerupPilotingStateAlertStateChanged
                0x0000000000047d90       0xa0 /home/sunho/bebop_ws/devel/arsdk/out/arsdk-native/build/libARCommands/obj/gen/Sources/ARCOMMANDS_Generator.c.o
                0x0000000000047d90                ARCOMMANDS_Generator_GeneratePowerupPilotingStateAlertStateChanged
 .text.ARCOMMANDS_Generator_GeneratePowerupPilotingStateFlyingStateChanged
                0x0000000000047e30       0xa0 /home/sunho/bebop_ws/devel/arsdk/out/arsdk-native/build/libARCommands/obj/gen/Sources/ARCOMMANDS_Generator.c.o
                0x0000000000047e30                ARCOMMANDS_Generator_GeneratePowerupPilotingStateFlyingStateChanged
 .text.ARCOMMANDS_Generator_GeneratePowerupPilotingStateMotorModeChanged
                0x0000000000047ed0       0xa0 /home/sunho/bebop_ws/devel/arsdk/out/arsdk-native/build/libARCommands/obj/gen/Sources/ARCOMMANDS_Generator.c.o
                0x0000000000047ed0                ARCOMMANDS_Generator_GeneratePowerupPilotingStateMotorModeChanged
 .text.ARCOMMANDS_Generator_GeneratePowerupPilotingStateAttitudeChanged
                0x0000000000047f70       0xde /home/sunho/bebop_ws/devel/arsdk/out/arsdk-native/build/libARCommands/obj/gen/Sources/ARCOMMANDS_Generator.c.o
                0x0000000000047f70                ARCOMMANDS_Generator_GeneratePowerupPilotingStateAttitudeChanged
 *fill*         0x000000000004804e        0x2 
 .text.ARCOMMANDS_Generator_GeneratePowerupPilotingStateAltitudeChanged
                0x0000000000048050       0x9e /home/sunho/bebop_ws/devel/arsdk/out/arsdk-native/build/libARCommands/obj/gen/Sources/ARCOMMANDS_Generator.c.o
                0x0000000000048050                ARCOMMANDS_Generator_GeneratePowerupPilotingStateAltitudeChanged
 *fill*         0x00000000000480ee        0x2 
 .text.ARCOMMANDS_Generator_GeneratePowerupPilotingSettingsStateSettingChanged
                0x00000000000480f0      0x122 /home/sunho/bebop_ws/devel/arsdk/out/arsdk-native/build/libARCommands/obj/gen/Sources/ARCOMMANDS_Generator.c.o
                0x00000000000480f0                ARCOMMANDS_Generator_GeneratePowerupPilotingSettingsStateSettingChanged
 *fill*         0x0000000000048212        0xe 
 .text.ARCOMMANDS_Generator_GeneratePowerupMediaRecordStatePictureStateChangedV2
                0x0000000000048220       0xae /home/sunho/bebop_ws/devel/arsdk/out/arsdk-native/build/libARCommands/obj/gen/Sources/ARCOMMANDS_Generator.c.o
                0x0000000000048220                ARCOMMANDS_Generator_GeneratePowerupMediaRecordStatePictureStateChangedV2
 *fill*         0x00000000000482ce        0x2 
 .text.ARCOMMANDS_Generator_GeneratePowerupMediaRecordStateVideoStateChangedV2
                0x00000000000482d0       0xb6 /home/sunho/bebop_ws/devel/arsdk/out/arsdk-native/build/libARCommands/obj/gen/Sources/ARCOMMANDS_Generator.c.o
                0x00000000000482d0                ARCOMMANDS_Generator_GeneratePowerupMediaRecordStateVideoStateChangedV2
 *fill*         0x0000000000048386        0xa 
 .text.ARCOMMANDS_Generator_GeneratePowerupMediaRecordEventPictureEventChanged
                0x0000000000048390       0xae /home/sunho/bebop_ws/devel/arsdk/out/arsdk-native/build/libARCommands/obj/gen/Sources/ARCOMMANDS_Generator.c.o
                0x0000000000048390                ARCOMMANDS_Generator_GeneratePowerupMediaRecordEventPictureEventChanged
 *fill*         0x000000000004843e        0x2 
 .text.ARCOMMANDS_Generator_GeneratePowerupMediaRecordEventVideoEventChanged
                0x0000000000048440       0xb6 /home/sunho/bebop_ws/devel/arsdk/out/arsdk-native/build/libARCommands/obj/gen/Sources/ARCOMMANDS_Generator.c.o
                0x0000000000048440                ARCOMMANDS_Generator_GeneratePowerupMediaRecordEventVideoEventChanged
 *fill*         0x00000000000484f6        0xa 
 .text.ARCOMMANDS_Generator_GeneratePowerupNetworkSettingsStateWifiSelectionChanged
                0x0000000000048500       0xe4 /home/sunho/bebop_ws/devel/arsdk/out/arsdk-native/build/libARCommands/obj/gen/Sources/ARCOMMANDS_Generator.c.o
                0x0000000000048500                ARCOMMANDS_Generator_GeneratePowerupNetworkSettingsStateWifiSelectionChanged
 *fill*         0x00000000000485e4        0xc 
 .text.ARCOMMANDS_Generator_GeneratePowerupNetworkStateWifiScanListChanged
                0x00000000000485f0      0x12c /home/sunho/bebop_ws/devel/arsdk/out/arsdk-native/build/libARCommands/obj/gen/Sources/ARCOMMANDS_Generator.c.o
                0x00000000000485f0                ARCOMMANDS_Generator_GeneratePowerupNetworkStateWifiScanListChanged
 *fill*         0x000000000004871c        0x4 
 .text.ARCOMMANDS_Generator_GeneratePowerupNetworkStateAllWifiScanChanged
                0x0000000000048720       0x82 /home/sunho/bebop_ws/devel/arsdk/out/arsdk-native/build/libARCommands/obj/gen/Sources/ARCOMMANDS_Generator.c.o
                0x0000000000048720                ARCOMMANDS_Generator_GeneratePowerupNetworkStateAllWifiScanChanged
 *fill*         0x00000000000487a2        0xe 
 .text.ARCOMMANDS_Generator_GeneratePowerupNetworkStateWifiAuthChannelListChanged
                0x00000000000487b0       0xe4 /home/sunho/bebop_ws/devel/arsdk/out/arsdk-native/build/libARCommands/obj/gen/Sources/ARCOMMANDS_Generator.c.o
                0x00000000000487b0                ARCOMMANDS_Generator_GeneratePowerupNetworkStateWifiAuthChannelListChanged
 *fill*         0x0000000000048894        0xc 
 .text.ARCOMMANDS_Generator_GeneratePowerupNetworkStateAllWifiAuthChannelChanged
                0x00000000000488a0       0x82 /home/sunho/bebop_ws/devel/arsdk/out/arsdk-native/build/libARCommands/obj/gen/Sources/ARCOMMANDS_Generator.c.o
                0x00000000000488a0                ARCOMMANDS_Generator_GeneratePowerupNetworkStateAllWifiAuthChannelChanged
 *fill*         0x0000000000048922        0xe 
 .text.ARCOMMANDS_Generator_GeneratePowerupNetworkStateLinkQualityChanged
                0x0000000000048930       0xa8 /home/sunho/bebop_ws/devel/arsdk/out/arsdk-native/build/libARCommands/obj/gen/Sources/ARCOMMANDS_Generator.c.o
                0x0000000000048930                ARCOMMANDS_Generator_GeneratePowerupNetworkStateLinkQualityChanged
 *fill*         0x00000000000489d8        0x8 
 .text.ARCOMMANDS_Generator_GeneratePowerupMediaStreamingStateVideoEnableChanged
                0x00000000000489e0       0xa0 /home/sunho/bebop_ws/devel/arsdk/out/arsdk-native/build/libARCommands/obj/gen/Sources/ARCOMMANDS_Generator.c.o
                0x00000000000489e0                ARCOMMANDS_Generator_GeneratePowerupMediaStreamingStateVideoEnableChanged
 .text.ARCOMMANDS_Generator_GeneratePowerupVideoSettingsStateAutorecordChanged
                0x0000000000048a80       0xa0 /home/sunho/bebop_ws/devel/arsdk/out/arsdk-native/build/libARCommands/obj/gen/Sources/ARCOMMANDS_Generator.c.o
                0x0000000000048a80                ARCOMMANDS_Generator_GeneratePowerupVideoSettingsStateAutorecordChanged
 .text.ARCOMMANDS_Generator_GeneratePowerupVideoSettingsStateVideoModeChanged
                0x0000000000048b20       0xa0 /home/sunho/bebop_ws/devel/arsdk/out/arsdk-native/build/libARCommands/obj/gen/Sources/ARCOMMANDS_Generator.c.o
                0x0000000000048b20                ARCOMMANDS_Generator_GeneratePowerupVideoSettingsStateVideoModeChanged
 .text.ARCOMMANDS_Generator_GeneratePowerupSoundsStateBuzzChanged
                0x0000000000048bc0       0xa0 /home/sunho/bebop_ws/devel/arsdk/out/arsdk-native/build/libARCommands/obj/gen/Sources/ARCOMMANDS_Generator.c.o
                0x0000000000048bc0                ARCOMMANDS_Generator_GeneratePowerupSoundsStateBuzzChanged
 .text.ARCOMMANDS_Generator_GenerateProProBoughtFeatures
                0x0000000000048c60       0xa0 /home/sunho/bebop_ws/devel/arsdk/out/arsdk-native/build/libARCommands/obj/gen/Sources/ARCOMMANDS_Generator.c.o
                0x0000000000048c60                ARCOMMANDS_Generator_GenerateProProBoughtFeatures
 .text.ARCOMMANDS_Generator_GenerateProProResponse
                0x0000000000048d00       0xce /home/sunho/bebop_ws/devel/arsdk/out/arsdk-native/build/libARCommands/obj/gen/Sources/ARCOMMANDS_Generator.c.o
                0x0000000000048d00                ARCOMMANDS_Generator_GenerateProProResponse
 *fill*         0x0000000000048dce        0x2 
 .text.ARCOMMANDS_Generator_GenerateProProActivateFeatures
                0x0000000000048dd0       0xa0 /home/sunho/bebop_ws/devel/arsdk/out/arsdk-native/build/libARCommands/obj/gen/Sources/ARCOMMANDS_Generator.c.o
                0x0000000000048dd0                ARCOMMANDS_Generator_GenerateProProActivateFeatures
 .text.ARCOMMANDS_Generator_GenerateProProStateSupportedFeatures
                0x0000000000048e70       0xae /home/sunho/bebop_ws/devel/arsdk/out/arsdk-native/build/libARCommands/obj/gen/Sources/ARCOMMANDS_Generator.c.o
                0x0000000000048e70                ARCOMMANDS_Generator_GenerateProProStateSupportedFeatures
 *fill*         0x0000000000048f1e        0x2 
 .text.ARCOMMANDS_Generator_GenerateProProStateFeaturesActivated
                0x0000000000048f20       0xa0 /home/sunho/bebop_ws/devel/arsdk/out/arsdk-native/build/libARCommands/obj/gen/Sources/ARCOMMANDS_Generator.c.o
                0x0000000000048f20                ARCOMMANDS_Generator_GenerateProProStateFeaturesActivated
 .text.ARCOMMANDS_Generator_GenerateProProEventChallengeEvent
                0x0000000000048fc0       0xb0 /home/sunho/bebop_ws/devel/arsdk/out/arsdk-native/build/libARCommands/obj/gen/Sources/ARCOMMANDS_Generator.c.o
                0x0000000000048fc0                ARCOMMANDS_Generator_GenerateProProEventChallengeEvent
 .text.ARCOMMANDS_Generator_GenerateRcMonitorChannels
                0x0000000000049070       0xa0 /home/sunho/bebop_ws/devel/arsdk/out/arsdk-native/build/libARCommands/obj/gen/Sources/ARCOMMANDS_Generator.c.o
                0x0000000000049070                ARCOMMANDS_Generator_GenerateRcMonitorChannels
 .text.ARCOMMANDS_Generator_GenerateRcStartCalibration
                0x0000000000049110       0xae /home/sunho/bebop_ws/devel/arsdk/out/arsdk-native/build/libARCommands/obj/gen/Sources/ARCOMMANDS_Generator.c.o
                0x0000000000049110                ARCOMMANDS_Generator_GenerateRcStartCalibration
 *fill*         0x00000000000491be        0x2 
 .text.ARCOMMANDS_Generator_GenerateRcInvertChannel
                0x00000000000491c0       0xae /home/sunho/bebop_ws/devel/arsdk/out/arsdk-native/build/libARCommands/obj/gen/Sources/ARCOMMANDS_Generator.c.o
                0x00000000000491c0                ARCOMMANDS_Generator_GenerateRcInvertChannel
 *fill*         0x000000000004926e        0x2 
 .text.ARCOMMANDS_Generator_GenerateRcAbortCalibration
                0x0000000000049270       0x7a /home/sunho/bebop_ws/devel/arsdk/out/arsdk-native/build/libARCommands/obj/gen/Sources/ARCOMMANDS_Generator.c.o
                0x0000000000049270                ARCOMMANDS_Generator_GenerateRcAbortCalibration
 *fill*         0x00000000000492ea        0x6 
 .text.ARCOMMANDS_Generator_GenerateRcResetCalibration
                0x00000000000492f0       0x7a /home/sunho/bebop_ws/devel/arsdk/out/arsdk-native/build/libARCommands/obj/gen/Sources/ARCOMMANDS_Generator.c.o
                0x00000000000492f0                ARCOMMANDS_Generator_GenerateRcResetCalibration
 *fill*         0x000000000004936a        0x6 
 .text.ARCOMMANDS_Generator_GenerateRcReceiverState
                0x0000000000049370       0xce /home/sunho/bebop_ws/devel/arsdk/out/arsdk-native/build/libARCommands/obj/gen/Sources/ARCOMMANDS_Generator.c.o
                0x0000000000049370                ARCOMMANDS_Generator_GenerateRcReceiverState
 *fill*         0x000000000004943e        0x2 
 .text.ARCOMMANDS_Generator_GenerateRcChannelsMonitorState
                0x0000000000049440       0xa0 /home/sunho/bebop_ws/devel/arsdk/out/arsdk-native/build/libARCommands/obj/gen/Sources/ARCOMMANDS_Generator.c.o
                0x0000000000049440                ARCOMMANDS_Generator_GenerateRcChannelsMonitorState
 .text.ARCOMMANDS_Generator_GenerateRcChannelValue
                0x00000000000494e0      0x10c /home/sunho/bebop_ws/devel/arsdk/out/arsdk-native/build/libARCommands/obj/gen/Sources/ARCOMMANDS_Generator.c.o
                0x00000000000494e0                ARCOMMANDS_Generator_GenerateRcChannelValue
 *fill*         0x00000000000495ec        0x4 
 .text.ARCOMMANDS_Generator_GenerateRcCalibrationState
                0x00000000000495f0      0x154 /home/sunho/bebop_ws/devel/arsdk/out/arsdk-native/build/libARCommands/obj/gen/Sources/ARCOMMANDS_Generator.c.o
                0x00000000000495f0                ARCOMMANDS_Generator_GenerateRcCalibrationState
 *fill*         0x0000000000049744        0xc 
 .text.ARCOMMANDS_Generator_GenerateRcReceiverQuality
                0x0000000000049750       0xa0 /home/sunho/bebop_ws/devel/arsdk/out/arsdk-native/build/libARCommands/obj/gen/Sources/ARCOMMANDS_Generator.c.o
                0x0000000000049750                ARCOMMANDS_Generator_GenerateRcReceiverQuality
 .text.ARCOMMANDS_Generator_GenerateSkyControllerWifiRequestWifiList
                0x00000000000497f0       0x7a /home/sunho/bebop_ws/devel/arsdk/out/arsdk-native/build/libARCommands/obj/gen/Sources/ARCOMMANDS_Generator.c.o
                0x00000000000497f0                ARCOMMANDS_Generator_GenerateSkyControllerWifiRequestWifiList
 *fill*         0x000000000004986a        0x6 
 .text.ARCOMMANDS_Generator_GenerateSkyControllerWifiRequestCurrentWifi
                0x0000000000049870       0x82 /home/sunho/bebop_ws/devel/arsdk/out/arsdk-native/build/libARCommands/obj/gen/Sources/ARCOMMANDS_Generator.c.o
                0x0000000000049870                ARCOMMANDS_Generator_GenerateSkyControllerWifiRequestCurrentWifi
 *fill*         0x00000000000498f2        0xe 
 .text.ARCOMMANDS_Generator_GenerateSkyControllerWifiConnectToWifi
                0x0000000000049900      0x10c /home/sunho/bebop_ws/devel/arsdk/out/arsdk-native/build/libARCommands/obj/gen/Sources/ARCOMMANDS_Generator.c.o
                0x0000000000049900                ARCOMMANDS_Generator_GenerateSkyControllerWifiConnectToWifi
 *fill*         0x0000000000049a0c        0x4 
 .text.ARCOMMANDS_Generator_GenerateSkyControllerWifiForgetWifi
                0x0000000000049a10       0xb0 /home/sunho/bebop_ws/devel/arsdk/out/arsdk-native/build/libARCommands/obj/gen/Sources/ARCOMMANDS_Generator.c.o
                0x0000000000049a10                ARCOMMANDS_Generator_GenerateSkyControllerWifiForgetWifi
 .text.ARCOMMANDS_Generator_GenerateSkyControllerWifiWifiAuthChannel
                0x0000000000049ac0       0x82 /home/sunho/bebop_ws/devel/arsdk/out/arsdk-native/build/libARCommands/obj/gen/Sources/ARCOMMANDS_Generator.c.o
                0x0000000000049ac0                ARCOMMANDS_Generator_GenerateSkyControllerWifiWifiAuthChannel
 *fill*         0x0000000000049b42        0xe 
 .text.ARCOMMANDS_Generator_GenerateSkyControllerDeviceRequestDeviceList
                0x0000000000049b50       0x7a /home/sunho/bebop_ws/devel/arsdk/out/arsdk-native/build/libARCommands/obj/gen/Sources/ARCOMMANDS_Generator.c.o
                0x0000000000049b50                ARCOMMANDS_Generator_GenerateSkyControllerDeviceRequestDeviceList
 *fill*         0x0000000000049bca        0x6 
 .text.ARCOMMANDS_Generator_GenerateSkyControllerDeviceRequestCurrentDevice
                0x0000000000049bd0       0x82 /home/sunho/bebop_ws/devel/arsdk/out/arsdk-native/build/libARCommands/obj/gen/Sources/ARCOMMANDS_Generator.c.o
                0x0000000000049bd0                ARCOMMANDS_Generator_GenerateSkyControllerDeviceRequestCurrentDevice
 *fill*         0x0000000000049c52        0xe 
 .text.ARCOMMANDS_Generator_GenerateSkyControllerDeviceConnectToDevice
                0x0000000000049c60       0xb0 /home/sunho/bebop_ws/devel/arsdk/out/arsdk-native/build/libARCommands/obj/gen/Sources/ARCOMMANDS_Generator.c.o
                0x0000000000049c60                ARCOMMANDS_Generator_GenerateSkyControllerDeviceConnectToDevice
 .text.ARCOMMANDS_Generator_GenerateSkyControllerSettingsAllSettings
                0x0000000000049d10       0x7a /home/sunho/bebop_ws/devel/arsdk/out/arsdk-native/build/libARCommands/obj/gen/Sources/ARCOMMANDS_Generator.c.o
                0x0000000000049d10                ARCOMMANDS_Generator_GenerateSkyControllerSettingsAllSettings
 *fill*         0x0000000000049d8a        0x6 
 .text.ARCOMMANDS_Generator_GenerateSkyControllerSettingsReset
                0x0000000000049d90       0x82 /home/sunho/bebop_ws/devel/arsdk/out/arsdk-native/build/libARCommands/obj/gen/Sources/ARCOMMANDS_Generator.c.o
                0x0000000000049d90                ARCOMMANDS_Generator_GenerateSkyControllerSettingsReset
 *fill*         0x0000000000049e12        0xe 
 .text.ARCOMMANDS_Generator_GenerateSkyControllerCommonAllStates
                0x0000000000049e20       0x7a /home/sunho/bebop_ws/devel/arsdk/out/arsdk-native/build/libARCommands/obj/gen/Sources/ARCOMMANDS_Generator.c.o
                0x0000000000049e20                ARCOMMANDS_Generator_GenerateSkyControllerCommonAllStates
 *fill*         0x0000000000049e9a        0x6 
 .text.ARCOMMANDS_Generator_GenerateSkyControllerAccessPointSettingsAccessPointSSID
                0x0000000000049ea0       0xb0 /home/sunho/bebop_ws/devel/arsdk/out/arsdk-native/build/libARCommands/obj/gen/Sources/ARCOMMANDS_Generator.c.o
                0x0000000000049ea0                ARCOMMANDS_Generator_GenerateSkyControllerAccessPointSettingsAccessPointSSID
 .text.ARCOMMANDS_Generator_GenerateSkyControllerAccessPointSettingsAccessPointChannel
                0x0000000000049f50       0xa8 /home/sunho/bebop_ws/devel/arsdk/out/arsdk-native/build/libARCommands/obj/gen/Sources/ARCOMMANDS_Generator.c.o
                0x0000000000049f50                ARCOMMANDS_Generator_GenerateSkyControllerAccessPointSettingsAccessPointChannel
 *fill*         0x0000000000049ff8        0x8 
 .text.ARCOMMANDS_Generator_GenerateSkyControllerAccessPointSettingsWifiSelection
                0x000000000004a000       0xe4 /home/sunho/bebop_ws/devel/arsdk/out/arsdk-native/build/libARCommands/obj/gen/Sources/ARCOMMANDS_Generator.c.o
                0x000000000004a000                ARCOMMANDS_Generator_GenerateSkyControllerAccessPointSettingsWifiSelection
 *fill*         0x000000000004a0e4        0xc 
 .text.ARCOMMANDS_Generator_GenerateSkyControllerCameraResetOrientation
                0x000000000004a0f0       0x7a /home/sunho/bebop_ws/devel/arsdk/out/arsdk-native/build/libARCommands/obj/gen/Sources/ARCOMMANDS_Generator.c.o
                0x000000000004a0f0                ARCOMMANDS_Generator_GenerateSkyControllerCameraResetOrientation
 *fill*         0x000000000004a16a        0x6 
 .text.ARCOMMANDS_Generator_GenerateSkyControllerGamepadInfosGetGamepadControls
                0x000000000004a170       0x7a /home/sunho/bebop_ws/devel/arsdk/out/arsdk-native/build/libARCommands/obj/gen/Sources/ARCOMMANDS_Generator.c.o
                0x000000000004a170                ARCOMMANDS_Generator_GenerateSkyControllerGamepadInfosGetGamepadControls
 *fill*         0x000000000004a1ea        0x6 
 .text.ARCOMMANDS_Generator_GenerateSkyControllerButtonMappingsGetCurrentButtonMappings
                0x000000000004a1f0       0x7a /home/sunho/bebop_ws/devel/arsdk/out/arsdk-native/build/libARCommands/obj/gen/Sources/ARCOMMANDS_Generator.c.o
                0x000000000004a1f0                ARCOMMANDS_Generator_GenerateSkyControllerButtonMappingsGetCurrentButtonMappings
 *fill*         0x000000000004a26a        0x6 
 .text.ARCOMMANDS_Generator_GenerateSkyControllerButtonMappingsGetAvailableButtonMappings
                0x000000000004a270       0x82 /home/sunho/bebop_ws/devel/arsdk/out/arsdk-native/build/libARCommands/obj/gen/Sources/ARCOMMANDS_Generator.c.o
                0x000000000004a270                ARCOMMANDS_Generator_GenerateSkyControllerButtonMappingsGetAvailableButtonMappings
 *fill*         0x000000000004a2f2        0xe 
 .text.ARCOMMANDS_Generator_GenerateSkyControllerButtonMappingsSetButtonMapping
                0x000000000004a300       0xce /home/sunho/bebop_ws/devel/arsdk/out/arsdk-native/build/libARCommands/obj/gen/Sources/ARCOMMANDS_Generator.c.o
                0x000000000004a300                ARCOMMANDS_Generator_GenerateSkyControllerButtonMappingsSetButtonMapping
 *fill*         0x000000000004a3ce        0x2 
 .text.ARCOMMANDS_Generator_GenerateSkyControllerButtonMappingsDefaultButtonMapping
                0x000000000004a3d0       0x82 /home/sunho/bebop_ws/devel/arsdk/out/arsdk-native/build/libARCommands/obj/gen/Sources/ARCOMMANDS_Generator.c.o
                0x000000000004a3d0                ARCOMMANDS_Generator_GenerateSkyControllerButtonMappingsDefaultButtonMapping
 *fill*         0x000000000004a452        0xe 
 .text.ARCOMMANDS_Generator_GenerateSkyControllerAxisMappingsGetCurrentAxisMappings
                0x000000000004a460       0x7a /home/sunho/bebop_ws/devel/arsdk/out/arsdk-native/build/libARCommands/obj/gen/Sources/ARCOMMANDS_Generator.c.o
                0x000000000004a460                ARCOMMANDS_Generator_GenerateSkyControllerAxisMappingsGetCurrentAxisMappings
 *fill*         0x000000000004a4da        0x6 
 .text.ARCOMMANDS_Generator_GenerateSkyControllerAxisMappingsGetAvailableAxisMappings
                0x000000000004a4e0       0x82 /home/sunho/bebop_ws/devel/arsdk/out/arsdk-native/build/libARCommands/obj/gen/Sources/ARCOMMANDS_Generator.c.o
                0x000000000004a4e0                ARCOMMANDS_Generator_GenerateSkyControllerAxisMappingsGetAvailableAxisMappings
 *fill*         0x000000000004a562        0xe 
 .text.ARCOMMANDS_Generator_GenerateSkyControllerAxisMappingsSetAxisMapping
                0x000000000004a570       0xce /home/sunho/bebop_ws/devel/arsdk/out/arsdk-native/build/libARCommands/obj/gen/Sources/ARCOMMANDS_Generator.c.o
                0x000000000004a570                ARCOMMANDS_Generator_GenerateSkyControllerAxisMappingsSetAxisMapping
 *fill*         0x000000000004a63e        0x2 
 .text.ARCOMMANDS_Generator_GenerateSkyControllerAxisMappingsDefaultAxisMapping
                0x000000000004a640       0x82 /home/sunho/bebop_ws/devel/arsdk/out/arsdk-native/build/libARCommands/obj/gen/Sources/ARCOMMANDS_Generator.c.o
                0x000000000004a640                ARCOMMANDS_Generator_GenerateSkyControllerAxisMappingsDefaultAxisMapping
 *fill*         0x000000000004a6c2        0xe 
 .text.ARCOMMANDS_Generator_GenerateSkyControllerAxisFiltersGetCurrentAxisFilters
                0x000000000004a6d0       0x7a /home/sunho/bebop_ws/devel/arsdk/out/arsdk-native/build/libARCommands/obj/gen/Sources/ARCOMMANDS_Generator.c.o
                0x000000000004a6d0                ARCOMMANDS_Generator_GenerateSkyControllerAxisFiltersGetCurrentAxisFilters
 *fill*         0x000000000004a74a        0x6 
 .text.ARCOMMANDS_Generator_GenerateSkyControllerAxisFiltersGetPresetAxisFilters
                0x000000000004a750       0x82 /home/sunho/bebop_ws/devel/arsdk/out/arsdk-native/build/libARCommands/obj/gen/Sources/ARCOMMANDS_Generator.c.o
                0x000000000004a750                ARCOMMANDS_Generator_GenerateSkyControllerAxisFiltersGetPresetAxisFilters
 *fill*         0x000000000004a7d2        0xe 
 .text.ARCOMMANDS_Generator_GenerateSkyControllerAxisFiltersSetAxisFilter
                0x000000000004a7e0       0xce /home/sunho/bebop_ws/devel/arsdk/out/arsdk-native/build/libARCommands/obj/gen/Sources/ARCOMMANDS_Generator.c.o
                0x000000000004a7e0                ARCOMMANDS_Generator_GenerateSkyControllerAxisFiltersSetAxisFilter
 *fill*         0x000000000004a8ae        0x2 
 .text.ARCOMMANDS_Generator_GenerateSkyControllerAxisFiltersDefaultAxisFilters
                0x000000000004a8b0       0x82 /home/sunho/bebop_ws/devel/arsdk/out/arsdk-native/build/libARCommands/obj/gen/Sources/ARCOMMANDS_Generator.c.o
                0x000000000004a8b0                ARCOMMANDS_Generator_GenerateSkyControllerAxisFiltersDefaultAxisFilters
 *fill*         0x000000000004a932        0xe 
 .text.ARCOMMANDS_Generator_GenerateSkyControllerCoPilotingSetPilotingSource
                0x000000000004a940       0xa0 /home/sunho/bebop_ws/devel/arsdk/out/arsdk-native/build/libARCommands/obj/gen/Sources/ARCOMMANDS_Generator.c.o
                0x000000000004a940                ARCOMMANDS_Generator_GenerateSkyControllerCoPilotingSetPilotingSource
 .text.ARCOMMANDS_Generator_GenerateSkyControllerCalibrationEnableMagnetoCalibrationQualityUpdates
                0x000000000004a9e0       0xa0 /home/sunho/bebop_ws/devel/arsdk/out/arsdk-native/build/libARCommands/obj/gen/Sources/ARCOMMANDS_Generator.c.o
                0x000000000004a9e0                ARCOMMANDS_Generator_GenerateSkyControllerCalibrationEnableMagnetoCalibrationQualityUpdates
 .text.ARCOMMANDS_Generator_GenerateSkyControllerFactoryReset
                0x000000000004aa80       0x7a /home/sunho/bebop_ws/devel/arsdk/out/arsdk-native/build/libARCommands/obj/gen/Sources/ARCOMMANDS_Generator.c.o
                0x000000000004aa80                ARCOMMANDS_Generator_GenerateSkyControllerFactoryReset
 *fill*         0x000000000004aafa        0x6 
 .text.ARCOMMANDS_Generator_GenerateSkyControllerWifiStateWifiList
                0x000000000004ab00      0x144 /home/sunho/bebop_ws/devel/arsdk/out/arsdk-native/build/libARCommands/obj/gen/Sources/ARCOMMANDS_Generator.c.o
                0x000000000004ab00                ARCOMMANDS_Generator_GenerateSkyControllerWifiStateWifiList
 *fill*         0x000000000004ac44        0xc 
 .text.ARCOMMANDS_Generator_GenerateSkyControllerWifiStateConnexionChanged
                0x000000000004ac50       0xce /home/sunho/bebop_ws/devel/arsdk/out/arsdk-native/build/libARCommands/obj/gen/Sources/ARCOMMANDS_Generator.c.o
                0x000000000004ac50                ARCOMMANDS_Generator_GenerateSkyControllerWifiStateConnexionChanged
 *fill*         0x000000000004ad1e        0x2 
 .text.ARCOMMANDS_Generator_GenerateSkyControllerWifiStateWifiAuthChannelListChanged
                0x000000000004ad20       0xe4 /home/sunho/bebop_ws/devel/arsdk/out/arsdk-native/build/libARCommands/obj/gen/Sources/ARCOMMANDS_Generator.c.o
                0x000000000004ad20                ARCOMMANDS_Generator_GenerateSkyControllerWifiStateWifiAuthChannelListChanged
 *fill*         0x000000000004ae04        0xc 
 .text.ARCOMMANDS_Generator_GenerateSkyControllerWifiStateAllWifiAuthChannelChanged
                0x000000000004ae10       0x7a /home/sunho/bebop_ws/devel/arsdk/out/arsdk-native/build/libARCommands/obj/gen/Sources/ARCOMMANDS_Generator.c.o
                0x000000000004ae10                ARCOMMANDS_Generator_GenerateSkyControllerWifiStateAllWifiAuthChannelChanged
 *fill*         0x000000000004ae8a        0x6 
 .text.ARCOMMANDS_Generator_GenerateSkyControllerWifiStateWifiSignalChanged
                0x000000000004ae90       0xa0 /home/sunho/bebop_ws/devel/arsdk/out/arsdk-native/build/libARCommands/obj/gen/Sources/ARCOMMANDS_Generator.c.o
                0x000000000004ae90                ARCOMMANDS_Generator_GenerateSkyControllerWifiStateWifiSignalChanged
 .text.ARCOMMANDS_Generator_GenerateSkyControllerDeviceStateDeviceList
                0x000000000004af30       0xb0 /home/sunho/bebop_ws/devel/arsdk/out/arsdk-native/build/libARCommands/obj/gen/Sources/ARCOMMANDS_Generator.c.o
                0x000000000004af30                ARCOMMANDS_Generator_GenerateSkyControllerDeviceStateDeviceList
 .text.ARCOMMANDS_Generator_GenerateSkyControllerDeviceStateConnexionChanged
                0x000000000004afe0      0x10c /home/sunho/bebop_ws/devel/arsdk/out/arsdk-native/build/libARCommands/obj/gen/Sources/ARCOMMANDS_Generator.c.o
                0x000000000004afe0                ARCOMMANDS_Generator_GenerateSkyControllerDeviceStateConnexionChanged
 *fill*         0x000000000004b0ec        0x4 
 .text.ARCOMMANDS_Generator_GenerateSkyControllerSettingsStateAllSettingsChanged
                0x000000000004b0f0       0x7a /home/sunho/bebop_ws/devel/arsdk/out/arsdk-native/build/libARCommands/obj/gen/Sources/ARCOMMANDS_Generator.c.o
                0x000000000004b0f0                ARCOMMANDS_Generator_GenerateSkyControllerSettingsStateAllSettingsChanged
 *fill*         0x000000000004b16a        0x6 
 .text.ARCOMMANDS_Generator_GenerateSkyControllerSettingsStateResetChanged
                0x000000000004b170       0x82 /home/sunho/bebop_ws/devel/arsdk/out/arsdk-native/build/libARCommands/obj/gen/Sources/ARCOMMANDS_Generator.c.o
                0x000000000004b170                ARCOMMANDS_Generator_GenerateSkyControllerSettingsStateResetChanged
 *fill*         0x000000000004b1f2        0xe 
 .text.ARCOMMANDS_Generator_GenerateSkyControllerSettingsStateProductSerialChanged
                0x000000000004b200       0xb0 /home/sunho/bebop_ws/devel/arsdk/out/arsdk-native/build/libARCommands/obj/gen/Sources/ARCOMMANDS_Generator.c.o
                0x000000000004b200                ARCOMMANDS_Generator_GenerateSkyControllerSettingsStateProductSerialChanged
 .text.ARCOMMANDS_Generator_GenerateSkyControllerSettingsStateProductVariantChanged
                0x000000000004b2b0       0xa0 /home/sunho/bebop_ws/devel/arsdk/out/arsdk-native/build/libARCommands/obj/gen/Sources/ARCOMMANDS_Generator.c.o
                0x000000000004b2b0                ARCOMMANDS_Generator_GenerateSkyControllerSettingsStateProductVariantChanged
 .text.ARCOMMANDS_Generator_GenerateSkyControllerSettingsStateProductVersionChanged
                0x000000000004b350       0xe0 /home/sunho/bebop_ws/devel/arsdk/out/arsdk-native/build/libARCommands/obj/gen/Sources/ARCOMMANDS_Generator.c.o
                0x000000000004b350                ARCOMMANDS_Generator_GenerateSkyControllerSettingsStateProductVersionChanged
 .text.ARCOMMANDS_Generator_GenerateSkyControllerCommonStateAllStatesChanged
                0x000000000004b430       0x7a /home/sunho/bebop_ws/devel/arsdk/out/arsdk-native/build/libARCommands/obj/gen/Sources/ARCOMMANDS_Generator.c.o
                0x000000000004b430                ARCOMMANDS_Generator_GenerateSkyControllerCommonStateAllStatesChanged
 *fill*         0x000000000004b4aa        0x6 
 .text.ARCOMMANDS_Generator_GenerateSkyControllerSkyControllerStateBatteryChanged
                0x000000000004b4b0       0xa0 /home/sunho/bebop_ws/devel/arsdk/out/arsdk-native/build/libARCommands/obj/gen/Sources/ARCOMMANDS_Generator.c.o
                0x000000000004b4b0                ARCOMMANDS_Generator_GenerateSkyControllerSkyControllerStateBatteryChanged
 .text.ARCOMMANDS_Generator_GenerateSkyControllerSkyControllerStateGpsFixChanged
                0x000000000004b550       0xa8 /home/sunho/bebop_ws/devel/arsdk/out/arsdk-native/build/libARCommands/obj/gen/Sources/ARCOMMANDS_Generator.c.o
                0x000000000004b550                ARCOMMANDS_Generator_GenerateSkyControllerSkyControllerStateGpsFixChanged
 *fill*         0x000000000004b5f8        0x8 
 .text.ARCOMMANDS_Generator_GenerateSkyControllerSkyControllerStateGpsPositionChanged
                0x000000000004b600       0xfe /home/sunho/bebop_ws/devel/arsdk/out/arsdk-native/build/libARCommands/obj/gen/Sources/ARCOMMANDS_Generator.c.o
                0x000000000004b600                ARCOMMANDS_Generator_GenerateSkyControllerSkyControllerStateGpsPositionChanged
 *fill*         0x000000000004b6fe        0x2 
 .text.ARCOMMANDS_Generator_GenerateSkyControllerSkyControllerStateBatteryState
                0x000000000004b700       0xa0 /home/sunho/bebop_ws/devel/arsdk/out/arsdk-native/build/libARCommands/obj/gen/Sources/ARCOMMANDS_Generator.c.o
                0x000000000004b700                ARCOMMANDS_Generator_GenerateSkyControllerSkyControllerStateBatteryState
 .text.ARCOMMANDS_Generator_GenerateSkyControllerSkyControllerStateAttitudeChanged
                0x000000000004b7a0       0xfe /home/sunho/bebop_ws/devel/arsdk/out/arsdk-native/build/libARCommands/obj/gen/Sources/ARCOMMANDS_Generator.c.o
                0x000000000004b7a0                ARCOMMANDS_Generator_GenerateSkyControllerSkyControllerStateAttitudeChanged
 *fill*         0x000000000004b89e        0x2 
 .text.ARCOMMANDS_Generator_GenerateSkyControllerAccessPointSettingsStateAccessPointSSIDChanged
                0x000000000004b8a0       0xb0 /home/sunho/bebop_ws/devel/arsdk/out/arsdk-native/build/libARCommands/obj/gen/Sources/ARCOMMANDS_Generator.c.o
                0x000000000004b8a0                ARCOMMANDS_Generator_GenerateSkyControllerAccessPointSettingsStateAccessPointSSIDChanged
 .text.ARCOMMANDS_Generator_GenerateSkyControllerAccessPointSettingsStateAccessPointChannelChanged
                0x000000000004b950       0xa8 /home/sunho/bebop_ws/devel/arsdk/out/arsdk-native/build/libARCommands/obj/gen/Sources/ARCOMMANDS_Generator.c.o
                0x000000000004b950                ARCOMMANDS_Generator_GenerateSkyControllerAccessPointSettingsStateAccessPointChannelChanged
 *fill*         0x000000000004b9f8        0x8 
 .text.ARCOMMANDS_Generator_GenerateSkyControllerAccessPointSettingsStateWifiSelectionChanged
                0x000000000004ba00       0xe4 /home/sunho/bebop_ws/devel/arsdk/out/arsdk-native/build/libARCommands/obj/gen/Sources/ARCOMMANDS_Generator.c.o
                0x000000000004ba00                ARCOMMANDS_Generator_GenerateSkyControllerAccessPointSettingsStateWifiSelectionChanged
 *fill*         0x000000000004bae4        0xc 
 .text.ARCOMMANDS_Generator_GenerateSkyControllerGamepadInfosStateGamepadControl
                0x000000000004baf0       0xfc /home/sunho/bebop_ws/devel/arsdk/out/arsdk-native/build/libARCommands/obj/gen/Sources/ARCOMMANDS_Generator.c.o
                0x000000000004baf0                ARCOMMANDS_Generator_GenerateSkyControllerGamepadInfosStateGamepadControl
 *fill*         0x000000000004bbec        0x4 
 .text.ARCOMMANDS_Generator_GenerateSkyControllerGamepadInfosStateAllGamepadControlsSent
                0x000000000004bbf0       0x82 /home/sunho/bebop_ws/devel/arsdk/out/arsdk-native/build/libARCommands/obj/gen/Sources/ARCOMMANDS_Generator.c.o
                0x000000000004bbf0                ARCOMMANDS_Generator_GenerateSkyControllerGamepadInfosStateAllGamepadControlsSent
 *fill*         0x000000000004bc72        0xe 
 .text.ARCOMMANDS_Generator_GenerateSkyControllerButtonMappingsStateCurrentButtonMappings
                0x000000000004bc80       0xce /home/sunho/bebop_ws/devel/arsdk/out/arsdk-native/build/libARCommands/obj/gen/Sources/ARCOMMANDS_Generator.c.o
                0x000000000004bc80                ARCOMMANDS_Generator_GenerateSkyControllerButtonMappingsStateCurrentButtonMappings
 *fill*         0x000000000004bd4e        0x2 
 .text.ARCOMMANDS_Generator_GenerateSkyControllerButtonMappingsStateAllCurrentButtonMappingsSent
                0x000000000004bd50       0x82 /home/sunho/bebop_ws/devel/arsdk/out/arsdk-native/build/libARCommands/obj/gen/Sources/ARCOMMANDS_Generator.c.o
                0x000000000004bd50                ARCOMMANDS_Generator_GenerateSkyControllerButtonMappingsStateAllCurrentButtonMappingsSent
 *fill*         0x000000000004bdd2        0xe 
 .text.ARCOMMANDS_Generator_GenerateSkyControllerButtonMappingsStateAvailableButtonMappings
                0x000000000004bde0       0xe0 /home/sunho/bebop_ws/devel/arsdk/out/arsdk-native/build/libARCommands/obj/gen/Sources/ARCOMMANDS_Generator.c.o
                0x000000000004bde0                ARCOMMANDS_Generator_GenerateSkyControllerButtonMappingsStateAvailableButtonMappings
 .text.ARCOMMANDS_Generator_GenerateSkyControllerButtonMappingsStateAllAvailableButtonsMappingsSent
                0x000000000004bec0       0x82 /home/sunho/bebop_ws/devel/arsdk/out/arsdk-native/build/libARCommands/obj/gen/Sources/ARCOMMANDS_Generator.c.o
                0x000000000004bec0                ARCOMMANDS_Generator_GenerateSkyControllerButtonMappingsStateAllAvailableButtonsMappingsSent
 *fill*         0x000000000004bf42        0xe 
 .text.ARCOMMANDS_Generator_GenerateSkyControllerAxisMappingsStateCurrentAxisMappings
                0x000000000004bf50       0xce /home/sunho/bebop_ws/devel/arsdk/out/arsdk-native/build/libARCommands/obj/gen/Sources/ARCOMMANDS_Generator.c.o
                0x000000000004bf50                ARCOMMANDS_Generator_GenerateSkyControllerAxisMappingsStateCurrentAxisMappings
 *fill*         0x000000000004c01e        0x2 
 .text.ARCOMMANDS_Generator_GenerateSkyControllerAxisMappingsStateAllCurrentAxisMappingsSent
                0x000000000004c020       0x82 /home/sunho/bebop_ws/devel/arsdk/out/arsdk-native/build/libARCommands/obj/gen/Sources/ARCOMMANDS_Generator.c.o
                0x000000000004c020                ARCOMMANDS_Generator_GenerateSkyControllerAxisMappingsStateAllCurrentAxisMappingsSent
 *fill*         0x000000000004c0a2        0xe 
 .text.ARCOMMANDS_Generator_GenerateSkyControllerAxisMappingsStateAvailableAxisMappings
                0x000000000004c0b0       0xe0 /home/sunho/bebop_ws/devel/arsdk/out/arsdk-native/build/libARCommands/obj/gen/Sources/ARCOMMANDS_Generator.c.o
                0x000000000004c0b0                ARCOMMANDS_Generator_GenerateSkyControllerAxisMappingsStateAvailableAxisMappings
 .text.ARCOMMANDS_Generator_GenerateSkyControllerAxisMappingsStateAllAvailableAxisMappingsSent
                0x000000000004c190       0x82 /home/sunho/bebop_ws/devel/arsdk/out/arsdk-native/build/libARCommands/obj/gen/Sources/ARCOMMANDS_Generator.c.o
                0x000000000004c190                ARCOMMANDS_Generator_GenerateSkyControllerAxisMappingsStateAllAvailableAxisMappingsSent
 *fill*         0x000000000004c212        0xe 
 .text.ARCOMMANDS_Generator_GenerateSkyControllerAxisFiltersStateCurrentAxisFilters
                0x000000000004c220       0xce /home/sunho/bebop_ws/devel/arsdk/out/arsdk-native/build/libARCommands/obj/gen/Sources/ARCOMMANDS_Generator.c.o
                0x000000000004c220                ARCOMMANDS_Generator_GenerateSkyControllerAxisFiltersStateCurrentAxisFilters
 *fill*         0x000000000004c2ee        0x2 
 .text.ARCOMMANDS_Generator_GenerateSkyControllerAxisFiltersStateAllCurrentFiltersSent
                0x000000000004c2f0       0x82 /home/sunho/bebop_ws/devel/arsdk/out/arsdk-native/build/libARCommands/obj/gen/Sources/ARCOMMANDS_Generator.c.o
                0x000000000004c2f0                ARCOMMANDS_Generator_GenerateSkyControllerAxisFiltersStateAllCurrentFiltersSent
 *fill*         0x000000000004c372        0xe 
 .text.ARCOMMANDS_Generator_GenerateSkyControllerAxisFiltersStatePresetAxisFilters
                0x000000000004c380       0xe0 /home/sunho/bebop_ws/devel/arsdk/out/arsdk-native/build/libARCommands/obj/gen/Sources/ARCOMMANDS_Generator.c.o
                0x000000000004c380                ARCOMMANDS_Generator_GenerateSkyControllerAxisFiltersStatePresetAxisFilters
 .text.ARCOMMANDS_Generator_GenerateSkyControllerAxisFiltersStateAllPresetFiltersSent
                0x000000000004c460       0x82 /home/sunho/bebop_ws/devel/arsdk/out/arsdk-native/build/libARCommands/obj/gen/Sources/ARCOMMANDS_Generator.c.o
                0x000000000004c460                ARCOMMANDS_Generator_GenerateSkyControllerAxisFiltersStateAllPresetFiltersSent
 *fill*         0x000000000004c4e2        0xe 
 .text.ARCOMMANDS_Generator_GenerateSkyControllerCoPilotingStatePilotingSource
                0x000000000004c4f0       0xa0 /home/sunho/bebop_ws/devel/arsdk/out/arsdk-native/build/libARCommands/obj/gen/Sources/ARCOMMANDS_Generator.c.o
                0x000000000004c4f0                ARCOMMANDS_Generator_GenerateSkyControllerCoPilotingStatePilotingSource
 .text.ARCOMMANDS_Generator_GenerateSkyControllerCalibrationStateMagnetoCalibrationState
                0x000000000004c590      0x10c /home/sunho/bebop_ws/devel/arsdk/out/arsdk-native/build/libARCommands/obj/gen/Sources/ARCOMMANDS_Generator.c.o
                0x000000000004c590                ARCOMMANDS_Generator_GenerateSkyControllerCalibrationStateMagnetoCalibrationState
 *fill*         0x000000000004c69c        0x4 
 .text.ARCOMMANDS_Generator_GenerateSkyControllerCalibrationStateMagnetoCalibrationQualityUpdatesState
                0x000000000004c6a0       0xa8 /home/sunho/bebop_ws/devel/arsdk/out/arsdk-native/build/libARCommands/obj/gen/Sources/ARCOMMANDS_Generator.c.o
                0x000000000004c6a0                ARCOMMANDS_Generator_GenerateSkyControllerCalibrationStateMagnetoCalibrationQualityUpdatesState
 *fill*         0x000000000004c748        0x8 
 .text.ARCOMMANDS_Generator_GenerateSkyControllerButtonEventsSettings
                0x000000000004c750       0x7a /home/sunho/bebop_ws/devel/arsdk/out/arsdk-native/build/libARCommands/obj/gen/Sources/ARCOMMANDS_Generator.c.o
                0x000000000004c750                ARCOMMANDS_Generator_GenerateSkyControllerButtonEventsSettings
 *fill*         0x000000000004c7ca        0x6 
 .text.ARCOMMANDS_Generator_GenerateUnknownFeature1GeographicRun
                0x000000000004c7d0      0x16c /home/sunho/bebop_ws/devel/arsdk/out/arsdk-native/build/libARCommands/obj/gen/Sources/ARCOMMANDS_Generator.c.o
                0x000000000004c7d0                ARCOMMANDS_Generator_GenerateUnknownFeature1GeographicRun
 *fill*         0x000000000004c93c        0x4 
 .text.ARCOMMANDS_Generator_GenerateUnknownFeature1RelativeRun
                0x000000000004c940      0x16c /home/sunho/bebop_ws/devel/arsdk/out/arsdk-native/build/libARCommands/obj/gen/Sources/ARCOMMANDS_Generator.c.o
                0x000000000004c940                ARCOMMANDS_Generator_GenerateUnknownFeature1RelativeRun
 *fill*         0x000000000004caac        0x4 
 .text.ARCOMMANDS_Generator_GenerateUnknownFeature1LookAtRun
                0x000000000004cab0       0xa0 /home/sunho/bebop_ws/devel/arsdk/out/arsdk-native/build/libARCommands/obj/gen/Sources/ARCOMMANDS_Generator.c.o
                0x000000000004cab0                ARCOMMANDS_Generator_GenerateUnknownFeature1LookAtRun
 .text.ARCOMMANDS_Generator_GenerateUnknownFeature1SpiralAnimRun
                0x000000000004cb50      0x16c /home/sunho/bebop_ws/devel/arsdk/out/arsdk-native/build/libARCommands/obj/gen/Sources/ARCOMMANDS_Generator.c.o
                0x000000000004cb50                ARCOMMANDS_Generator_GenerateUnknownFeature1SpiralAnimRun
 *fill*         0x000000000004ccbc        0x4 
 .text.ARCOMMANDS_Generator_GenerateUnknownFeature1SwingAnimRun
                0x000000000004ccc0      0x124 /home/sunho/bebop_ws/devel/arsdk/out/arsdk-native/build/libARCommands/obj/gen/Sources/ARCOMMANDS_Generator.c.o
                0x000000000004ccc0                ARCOMMANDS_Generator_GenerateUnknownFeature1SwingAnimRun
 *fill*         0x000000000004cde4        0xc 
 .text.ARCOMMANDS_Generator_GenerateUnknownFeature1BoomerangAnimRun
                0x000000000004cdf0      0x124 /home/sunho/bebop_ws/devel/arsdk/out/arsdk-native/build/libARCommands/obj/gen/Sources/ARCOMMANDS_Generator.c.o
                0x000000000004cdf0                ARCOMMANDS_Generator_GenerateUnknownFeature1BoomerangAnimRun
 *fill*         0x000000000004cf14        0xc 
 .text.ARCOMMANDS_Generator_GenerateUnknownFeature1CandleAnimRun
                0x000000000004cf20      0x124 /home/sunho/bebop_ws/devel/arsdk/out/arsdk-native/build/libARCommands/obj/gen/Sources/ARCOMMANDS_Generator.c.o
                0x000000000004cf20                ARCOMMANDS_Generator_GenerateUnknownFeature1CandleAnimRun
 *fill*         0x000000000004d044        0xc 
 .text.ARCOMMANDS_Generator_GenerateUnknownFeature1DollySlideAnimRun
                0x000000000004d050      0x16c /home/sunho/bebop_ws/devel/arsdk/out/arsdk-native/build/libARCommands/obj/gen/Sources/ARCOMMANDS_Generator.c.o
                0x000000000004d050                ARCOMMANDS_Generator_GenerateUnknownFeature1DollySlideAnimRun
 *fill*         0x000000000004d1bc        0x4 
 .text.ARCOMMANDS_Generator_GenerateUnknownFeature1UserFramingPosition
                0x000000000004d1c0       0xb6 /home/sunho/bebop_ws/devel/arsdk/out/arsdk-native/build/libARCommands/obj/gen/Sources/ARCOMMANDS_Generator.c.o
                0x000000000004d1c0                ARCOMMANDS_Generator_GenerateUnknownFeature1UserFramingPosition
 *fill*         0x000000000004d276        0xa 
 .text.ARCOMMANDS_Generator_GenerateUnknownFeature1UserGPSData
                0x000000000004d280      0x19e /home/sunho/bebop_ws/devel/arsdk/out/arsdk-native/build/libARCommands/obj/gen/Sources/ARCOMMANDS_Generator.c.o
                0x000000000004d280                ARCOMMANDS_Generator_GenerateUnknownFeature1UserGPSData
 *fill*         0x000000000004d41e        0x2 
 .text.ARCOMMANDS_Generator_GenerateUnknownFeature1UserBaroData
                0x000000000004d420       0xbe /home/sunho/bebop_ws/devel/arsdk/out/arsdk-native/build/libARCommands/obj/gen/Sources/ARCOMMANDS_Generator.c.o
                0x000000000004d420                ARCOMMANDS_Generator_GenerateUnknownFeature1UserBaroData
 *fill*         0x000000000004d4de        0x2 
 .text.ARCOMMANDS_Generator_GenerateUnknownFeature1LynxDetection
                0x000000000004d4e0      0x144 /home/sunho/bebop_ws/devel/arsdk/out/arsdk-native/build/libARCommands/obj/gen/Sources/ARCOMMANDS_Generator.c.o
                0x000000000004d4e0                ARCOMMANDS_Generator_GenerateUnknownFeature1LynxDetection
 *fill*         0x000000000004d624        0xc 
 .text.ARCOMMANDS_Generator_GenerateUnknownFeature1Availability
                0x000000000004d630       0xa0 /home/sunho/bebop_ws/devel/arsdk/out/arsdk-native/build/libARCommands/obj/gen/Sources/ARCOMMANDS_Generator.c.o
                0x000000000004d630                ARCOMMANDS_Generator_GenerateUnknownFeature1Availability
 .text.ARCOMMANDS_Generator_GenerateUnknownFeature1Run
                0x000000000004d6d0       0xa0 /home/sunho/bebop_ws/devel/arsdk/out/arsdk-native/build/libARCommands/obj/gen/Sources/ARCOMMANDS_Generator.c.o
                0x000000000004d6d0                ARCOMMANDS_Generator_GenerateUnknownFeature1Run
 .text.ARCOMMANDS_Generator_GenerateUnknownFeature1GeographicConfigChanged
                0x000000000004d770      0x144 /home/sunho/bebop_ws/devel/arsdk/out/arsdk-native/build/libARCommands/obj/gen/Sources/ARCOMMANDS_Generator.c.o
                0x000000000004d770                ARCOMMANDS_Generator_GenerateUnknownFeature1GeographicConfigChanged
 *fill*         0x000000000004d8b4        0xc 
 .text.ARCOMMANDS_Generator_GenerateUnknownFeature1RelativeConfigChanged
                0x000000000004d8c0      0x144 /home/sunho/bebop_ws/devel/arsdk/out/arsdk-native/build/libARCommands/obj/gen/Sources/ARCOMMANDS_Generator.c.o
                0x000000000004d8c0                ARCOMMANDS_Generator_GenerateUnknownFeature1RelativeConfigChanged
 *fill*         0x000000000004da04        0xc 
 .text.ARCOMMANDS_Generator_GenerateUnknownFeature1AnimRun
                0x000000000004da10       0xa0 /home/sunho/bebop_ws/devel/arsdk/out/arsdk-native/build/libARCommands/obj/gen/Sources/ARCOMMANDS_Generator.c.o
                0x000000000004da10                ARCOMMANDS_Generator_GenerateUnknownFeature1AnimRun
 .text.ARCOMMANDS_Generator_GenerateUnknownFeature1SpiralAnimConfigChanged
                0x000000000004dab0      0x144 /home/sunho/bebop_ws/devel/arsdk/out/arsdk-native/build/libARCommands/obj/gen/Sources/ARCOMMANDS_Generator.c.o
                0x000000000004dab0                ARCOMMANDS_Generator_GenerateUnknownFeature1SpiralAnimConfigChanged
 *fill*         0x000000000004dbf4        0xc 
 .text.ARCOMMANDS_Generator_GenerateUnknownFeature1SwingAnimConfigChanged
                0x000000000004dc00      0x102 /home/sunho/bebop_ws/devel/arsdk/out/arsdk-native/build/libARCommands/obj/gen/Sources/ARCOMMANDS_Generator.c.o
                0x000000000004dc00                ARCOMMANDS_Generator_GenerateUnknownFeature1SwingAnimConfigChanged
 *fill*         0x000000000004dd02        0xe 
 .text.ARCOMMANDS_Generator_GenerateUnknownFeature1BoomerangAnimConfigChanged
                0x000000000004dd10      0x102 /home/sunho/bebop_ws/devel/arsdk/out/arsdk-native/build/libARCommands/obj/gen/Sources/ARCOMMANDS_Generator.c.o
                0x000000000004dd10                ARCOMMANDS_Generator_GenerateUnknownFeature1BoomerangAnimConfigChanged
 *fill*         0x000000000004de12        0xe 
 .text.ARCOMMANDS_Generator_GenerateUnknownFeature1CandleAnimConfigChanged
                0x000000000004de20      0x102 /home/sunho/bebop_ws/devel/arsdk/out/arsdk-native/build/libARCommands/obj/gen/Sources/ARCOMMANDS_Generator.c.o
                0x000000000004de20                ARCOMMANDS_Generator_GenerateUnknownFeature1CandleAnimConfigChanged
 *fill*         0x000000000004df22        0xe 
 .text.ARCOMMANDS_Generator_GenerateUnknownFeature1DollySlideAnimConfigChanged
                0x000000000004df30      0x144 /home/sunho/bebop_ws/devel/arsdk/out/arsdk-native/build/libARCommands/obj/gen/Sources/ARCOMMANDS_Generator.c.o
                0x000000000004df30                ARCOMMANDS_Generator_GenerateUnknownFeature1DollySlideAnimConfigChanged
 *fill*         0x000000000004e074        0xc 
 .text.ARCOMMANDS_Generator_GenerateUnknownFeature1UserFramingPositionChanged
                0x000000000004e080       0xb6 /home/sunho/bebop_ws/devel/arsdk/out/arsdk-native/build/libARCommands/obj/gen/Sources/ARCOMMANDS_Generator.c.o
                0x000000000004e080                ARCOMMANDS_Generator_GenerateUnknownFeature1UserFramingPositionChanged
 *fill*         0x000000000004e136        0xa 
 .text.ARCOMMANDS_Generator_GenerateWifiScan
                0x000000000004e140       0xa0 /home/sunho/bebop_ws/devel/arsdk/out/arsdk-native/build/libARCommands/obj/gen/Sources/ARCOMMANDS_Generator.c.o
                0x000000000004e140                ARCOMMANDS_Generator_GenerateWifiScan
 .text.ARCOMMANDS_Generator_GenerateWifiUpdateAuthorizedChannels
                0x000000000004e1e0       0x7a /home/sunho/bebop_ws/devel/arsdk/out/arsdk-native/build/libARCommands/obj/gen/Sources/ARCOMMANDS_Generator.c.o
                0x000000000004e1e0                ARCOMMANDS_Generator_GenerateWifiUpdateAuthorizedChannels
 *fill*         0x000000000004e25a        0x6 
 .text.ARCOMMANDS_Generator_GenerateWifiSetApChannel
                0x000000000004e260       0xe4 /home/sunho/bebop_ws/devel/arsdk/out/arsdk-native/build/libARCommands/obj/gen/Sources/ARCOMMANDS_Generator.c.o
                0x000000000004e260                ARCOMMANDS_Generator_GenerateWifiSetApChannel
 *fill*         0x000000000004e344        0xc 
 .text.ARCOMMANDS_Generator_GenerateWifiSetSecurity
                0x000000000004e350       0xfc /home/sunho/bebop_ws/devel/arsdk/out/arsdk-native/build/libARCommands/obj/gen/Sources/ARCOMMANDS_Generator.c.o
                0x000000000004e350                ARCOMMANDS_Generator_GenerateWifiSetSecurity
 *fill*         0x000000000004e44c        0x4 
 .text.ARCOMMANDS_Generator_GenerateWifiSetCountry
                0x000000000004e450       0xce /home/sunho/bebop_ws/devel/arsdk/out/arsdk-native/build/libARCommands/obj/gen/Sources/ARCOMMANDS_Generator.c.o
                0x000000000004e450                ARCOMMANDS_Generator_GenerateWifiSetCountry
 *fill*         0x000000000004e51e        0x2 
 .text.ARCOMMANDS_Generator_GenerateWifiSetEnvironment
                0x000000000004e520       0xa0 /home/sunho/bebop_ws/devel/arsdk/out/arsdk-native/build/libARCommands/obj/gen/Sources/ARCOMMANDS_Generator.c.o
                0x000000000004e520                ARCOMMANDS_Generator_GenerateWifiSetEnvironment
 .text.ARCOMMANDS_Generator_GenerateWifiScannedItem
                0x000000000004e5c0      0x154 /home/sunho/bebop_ws/devel/arsdk/out/arsdk-native/build/libARCommands/obj/gen/Sources/ARCOMMANDS_Generator.c.o
                0x000000000004e5c0                ARCOMMANDS_Generator_GenerateWifiScannedItem
 *fill*         0x000000000004e714        0xc 
 .text.ARCOMMANDS_Generator_GenerateWifiAuthorizedChannel
                0x000000000004e720      0x10c /home/sunho/bebop_ws/devel/arsdk/out/arsdk-native/build/libARCommands/obj/gen/Sources/ARCOMMANDS_Generator.c.o
                0x000000000004e720                ARCOMMANDS_Generator_GenerateWifiAuthorizedChannel
 *fill*         0x000000000004e82c        0x4 
 .text.ARCOMMANDS_Generator_GenerateWifiApChannelChanged
                0x000000000004e830       0xe4 /home/sunho/bebop_ws/devel/arsdk/out/arsdk-native/build/libARCommands/obj/gen/Sources/ARCOMMANDS_Generator.c.o
                0x000000000004e830                ARCOMMANDS_Generator_GenerateWifiApChannelChanged
 *fill*         0x000000000004e914        0xc 
 .text.ARCOMMANDS_Generator_GenerateWifiSecurityChanged
                0x000000000004e920       0xce /home/sunho/bebop_ws/devel/arsdk/out/arsdk-native/build/libARCommands/obj/gen/Sources/ARCOMMANDS_Generator.c.o
                0x000000000004e920                ARCOMMANDS_Generator_GenerateWifiSecurityChanged
 *fill*         0x000000000004e9ee        0x2 
 .text.ARCOMMANDS_Generator_GenerateWifiCountryChanged
                0x000000000004e9f0       0xce /home/sunho/bebop_ws/devel/arsdk/out/arsdk-native/build/libARCommands/obj/gen/Sources/ARCOMMANDS_Generator.c.o
                0x000000000004e9f0                ARCOMMANDS_Generator_GenerateWifiCountryChanged
 *fill*         0x000000000004eabe        0x2 
 .text.ARCOMMANDS_Generator_GenerateWifiEnvironmentChanged
                0x000000000004eac0       0xa0 /home/sunho/bebop_ws/devel/arsdk/out/arsdk-native/build/libARCommands/obj/gen/Sources/ARCOMMANDS_Generator.c.o
                0x000000000004eac0                ARCOMMANDS_Generator_GenerateWifiEnvironmentChanged
 .text.ARCOMMANDS_Generator_GenerateWifiRssiChanged
                0x000000000004eb60       0xa0 /home/sunho/bebop_ws/devel/arsdk/out/arsdk-native/build/libARCommands/obj/gen/Sources/ARCOMMANDS_Generator.c.o
                0x000000000004eb60                ARCOMMANDS_Generator_GenerateWifiRssiChanged
 .text.ARCOMMANDS_Decoder_Init
                0x000000000004ec00       0x48 /home/sunho/bebop_ws/devel/arsdk/out/arsdk-native/build/libARCommands/obj/gen/Sources/ARCOMMANDS_Decoder.c.o
 *fill*         0x000000000004ec48        0x8 
 .text.ARCOMMANDS_Decoder_NewDecoder
                0x000000000004ec50       0x48 /home/sunho/bebop_ws/devel/arsdk/out/arsdk-native/build/libARCommands/obj/gen/Sources/ARCOMMANDS_Decoder.c.o
                0x000000000004ec50                ARCOMMANDS_Decoder_NewDecoder
 *fill*         0x000000000004ec98        0x8 
 .text.ARCOMMANDS_Decoder_DeleteDecoder
                0x000000000004eca0       0x27 /home/sunho/bebop_ws/devel/arsdk/out/arsdk-native/build/libARCommands/obj/gen/Sources/ARCOMMANDS_Decoder.c.o
                0x000000000004eca0                ARCOMMANDS_Decoder_DeleteDecoder
 *fill*         0x000000000004ecc7        0x9 
 .text.ARCOMMANDS_Decoder_SetGenericDefaultCb
                0x000000000004ecd0       0x35 /home/sunho/bebop_ws/devel/arsdk/out/arsdk-native/build/libARCommands/obj/gen/Sources/ARCOMMANDS_Decoder.c.o
                0x000000000004ecd0                ARCOMMANDS_Decoder_SetGenericDefaultCb
 *fill*         0x000000000004ed05        0xb 
 .text.ARCOMMANDS_Decoder_SetGenericDefaultCallback
                0x000000000004ed10       0x4c /home/sunho/bebop_ws/devel/arsdk/out/arsdk-native/build/libARCommands/obj/gen/Sources/ARCOMMANDS_Decoder.c.o
                0x000000000004ed10                ARCOMMANDS_Decoder_SetGenericDefaultCallback
 *fill*         0x000000000004ed5c        0x4 
 .text.ARCOMMANDS_Decoder_SetARDrone3PilotingFlatTrimCb
                0x000000000004ed60       0x35 /home/sunho/bebop_ws/devel/arsdk/out/arsdk-native/build/libARCommands/obj/gen/Sources/ARCOMMANDS_Decoder.c.o
                0x000000000004ed60                ARCOMMANDS_Decoder_SetARDrone3PilotingFlatTrimCb
 *fill*         0x000000000004ed95        0xb 
 .text.ARCOMMANDS_Decoder_SetARDrone3PilotingFlatTrimCallback
                0x000000000004eda0       0x4c /home/sunho/bebop_ws/devel/arsdk/out/arsdk-native/build/libARCommands/obj/gen/Sources/ARCOMMANDS_Decoder.c.o
                0x000000000004eda0                ARCOMMANDS_Decoder_SetARDrone3PilotingFlatTrimCallback
 *fill*         0x000000000004edec        0x4 
 .text.ARCOMMANDS_Decoder_SetARDrone3PilotingTakeOffCb
                0x000000000004edf0       0x35 /home/sunho/bebop_ws/devel/arsdk/out/arsdk-native/build/libARCommands/obj/gen/Sources/ARCOMMANDS_Decoder.c.o
                0x000000000004edf0                ARCOMMANDS_Decoder_SetARDrone3PilotingTakeOffCb
 *fill*         0x000000000004ee25        0xb 
 .text.ARCOMMANDS_Decoder_SetARDrone3PilotingTakeOffCallback
                0x000000000004ee30       0x4c /home/sunho/bebop_ws/devel/arsdk/out/arsdk-native/build/libARCommands/obj/gen/Sources/ARCOMMANDS_Decoder.c.o
                0x000000000004ee30                ARCOMMANDS_Decoder_SetARDrone3PilotingTakeOffCallback
 *fill*         0x000000000004ee7c        0x4 
 .text.ARCOMMANDS_Decoder_SetARDrone3PilotingPCMDCb
                0x000000000004ee80       0x35 /home/sunho/bebop_ws/devel/arsdk/out/arsdk-native/build/libARCommands/obj/gen/Sources/ARCOMMANDS_Decoder.c.o
                0x000000000004ee80                ARCOMMANDS_Decoder_SetARDrone3PilotingPCMDCb
 *fill*         0x000000000004eeb5        0xb 
 .text.ARCOMMANDS_Decoder_SetARDrone3PilotingPCMDCallback
                0x000000000004eec0       0x4c /home/sunho/bebop_ws/devel/arsdk/out/arsdk-native/build/libARCommands/obj/gen/Sources/ARCOMMANDS_Decoder.c.o
                0x000000000004eec0                ARCOMMANDS_Decoder_SetARDrone3PilotingPCMDCallback
 *fill*         0x000000000004ef0c        0x4 
 .text.ARCOMMANDS_Decoder_SetARDrone3PilotingLandingCb
                0x000000000004ef10       0x35 /home/sunho/bebop_ws/devel/arsdk/out/arsdk-native/build/libARCommands/obj/gen/Sources/ARCOMMANDS_Decoder.c.o
                0x000000000004ef10                ARCOMMANDS_Decoder_SetARDrone3PilotingLandingCb
 *fill*         0x000000000004ef45        0xb 
 .text.ARCOMMANDS_Decoder_SetARDrone3PilotingLandingCallback
                0x000000000004ef50       0x4c /home/sunho/bebop_ws/devel/arsdk/out/arsdk-native/build/libARCommands/obj/gen/Sources/ARCOMMANDS_Decoder.c.o
                0x000000000004ef50                ARCOMMANDS_Decoder_SetARDrone3PilotingLandingCallback
 *fill*         0x000000000004ef9c        0x4 
 .text.ARCOMMANDS_Decoder_SetARDrone3PilotingEmergencyCb
                0x000000000004efa0       0x35 /home/sunho/bebop_ws/devel/arsdk/out/arsdk-native/build/libARCommands/obj/gen/Sources/ARCOMMANDS_Decoder.c.o
                0x000000000004efa0                ARCOMMANDS_Decoder_SetARDrone3PilotingEmergencyCb
 *fill*         0x000000000004efd5        0xb 
 .text.ARCOMMANDS_Decoder_SetARDrone3PilotingEmergencyCallback
                0x000000000004efe0       0x4c /home/sunho/bebop_ws/devel/arsdk/out/arsdk-native/build/libARCommands/obj/gen/Sources/ARCOMMANDS_Decoder.c.o
                0x000000000004efe0                ARCOMMANDS_Decoder_SetARDrone3PilotingEmergencyCallback
 *fill*         0x000000000004f02c        0x4 
 .text.ARCOMMANDS_Decoder_SetARDrone3PilotingNavigateHomeCb
                0x000000000004f030       0x35 /home/sunho/bebop_ws/devel/arsdk/out/arsdk-native/build/libARCommands/obj/gen/Sources/ARCOMMANDS_Decoder.c.o
                0x000000000004f030                ARCOMMANDS_Decoder_SetARDrone3PilotingNavigateHomeCb
 *fill*         0x000000000004f065        0xb 
 .text.ARCOMMANDS_Decoder_SetARDrone3PilotingNavigateHomeCallback
                0x000000000004f070       0x4c /home/sunho/bebop_ws/devel/arsdk/out/arsdk-native/build/libARCommands/obj/gen/Sources/ARCOMMANDS_Decoder.c.o
                0x000000000004f070                ARCOMMANDS_Decoder_SetARDrone3PilotingNavigateHomeCallback
 *fill*         0x000000000004f0bc        0x4 
 .text.ARCOMMANDS_Decoder_SetARDrone3PilotingAutoTakeOffModeCb
                0x000000000004f0c0       0x35 /home/sunho/bebop_ws/devel/arsdk/out/arsdk-native/build/libARCommands/obj/gen/Sources/ARCOMMANDS_Decoder.c.o
                0x000000000004f0c0                ARCOMMANDS_Decoder_SetARDrone3PilotingAutoTakeOffModeCb
 *fill*         0x000000000004f0f5        0xb 
 .text.ARCOMMANDS_Decoder_SetARDrone3PilotingAutoTakeOffModeCallback
                0x000000000004f100       0x4c /home/sunho/bebop_ws/devel/arsdk/out/arsdk-native/build/libARCommands/obj/gen/Sources/ARCOMMANDS_Decoder.c.o
                0x000000000004f100                ARCOMMANDS_Decoder_SetARDrone3PilotingAutoTakeOffModeCallback
 *fill*         0x000000000004f14c        0x4 
 .text.ARCOMMANDS_Decoder_SetARDrone3PilotingMoveByCb
                0x000000000004f150       0x3d /home/sunho/bebop_ws/devel/arsdk/out/arsdk-native/build/libARCommands/obj/gen/Sources/ARCOMMANDS_Decoder.c.o
                0x000000000004f150                ARCOMMANDS_Decoder_SetARDrone3PilotingMoveByCb
 *fill*         0x000000000004f18d        0x3 
 .text.ARCOMMANDS_Decoder_SetARDrone3PilotingMoveByCallback
                0x000000000004f190       0x4c /home/sunho/bebop_ws/devel/arsdk/out/arsdk-native/build/libARCommands/obj/gen/Sources/ARCOMMANDS_Decoder.c.o
                0x000000000004f190                ARCOMMANDS_Decoder_SetARDrone3PilotingMoveByCallback
 *fill*         0x000000000004f1dc        0x4 
 .text.ARCOMMANDS_Decoder_SetARDrone3PilotingUserTakeOffCb
                0x000000000004f1e0       0x3d /home/sunho/bebop_ws/devel/arsdk/out/arsdk-native/build/libARCommands/obj/gen/Sources/ARCOMMANDS_Decoder.c.o
                0x000000000004f1e0                ARCOMMANDS_Decoder_SetARDrone3PilotingUserTakeOffCb
 *fill*         0x000000000004f21d        0x3 
 .text.ARCOMMANDS_Decoder_SetARDrone3PilotingUserTakeOffCallback
                0x000000000004f220       0x4c /home/sunho/bebop_ws/devel/arsdk/out/arsdk-native/build/libARCommands/obj/gen/Sources/ARCOMMANDS_Decoder.c.o
                0x000000000004f220                ARCOMMANDS_Decoder_SetARDrone3PilotingUserTakeOffCallback
 *fill*         0x000000000004f26c        0x4 
 .text.ARCOMMANDS_Decoder_SetARDrone3PilotingCircleCb
                0x000000000004f270       0x3d /home/sunho/bebop_ws/devel/arsdk/out/arsdk-native/build/libARCommands/obj/gen/Sources/ARCOMMANDS_Decoder.c.o
                0x000000000004f270                ARCOMMANDS_Decoder_SetARDrone3PilotingCircleCb
 *fill*         0x000000000004f2ad        0x3 
 .text.ARCOMMANDS_Decoder_SetARDrone3PilotingCircleCallback
                0x000000000004f2b0       0x4c /home/sunho/bebop_ws/devel/arsdk/out/arsdk-native/build/libARCommands/obj/gen/Sources/ARCOMMANDS_Decoder.c.o
                0x000000000004f2b0                ARCOMMANDS_Decoder_SetARDrone3PilotingCircleCallback
 *fill*         0x000000000004f2fc        0x4 
 .text.ARCOMMANDS_Decoder_SetARDrone3AnimationsFlipCb
                0x000000000004f300       0x3d /home/sunho/bebop_ws/devel/arsdk/out/arsdk-native/build/libARCommands/obj/gen/Sources/ARCOMMANDS_Decoder.c.o
                0x000000000004f300                ARCOMMANDS_Decoder_SetARDrone3AnimationsFlipCb
 *fill*         0x000000000004f33d        0x3 
 .text.ARCOMMANDS_Decoder_SetARDrone3AnimationsFlipCallback
                0x000000000004f340       0x4c /home/sunho/bebop_ws/devel/arsdk/out/arsdk-native/build/libARCommands/obj/gen/Sources/ARCOMMANDS_Decoder.c.o
                0x000000000004f340                ARCOMMANDS_Decoder_SetARDrone3AnimationsFlipCallback
 *fill*         0x000000000004f38c        0x4 
 .text.ARCOMMANDS_Decoder_SetARDrone3CameraOrientationCb
                0x000000000004f390       0x3d /home/sunho/bebop_ws/devel/arsdk/out/arsdk-native/build/libARCommands/obj/gen/Sources/ARCOMMANDS_Decoder.c.o
                0x000000000004f390                ARCOMMANDS_Decoder_SetARDrone3CameraOrientationCb
 *fill*         0x000000000004f3cd        0x3 
 .text.ARCOMMANDS_Decoder_SetARDrone3CameraOrientationCallback
                0x000000000004f3d0       0x4c /home/sunho/bebop_ws/devel/arsdk/out/arsdk-native/build/libARCommands/obj/gen/Sources/ARCOMMANDS_Decoder.c.o
                0x000000000004f3d0                ARCOMMANDS_Decoder_SetARDrone3CameraOrientationCallback
 *fill*         0x000000000004f41c        0x4 
 .text.ARCOMMANDS_Decoder_SetARDrone3MediaRecordPictureCb
                0x000000000004f420       0x3d /home/sunho/bebop_ws/devel/arsdk/out/arsdk-native/build/libARCommands/obj/gen/Sources/ARCOMMANDS_Decoder.c.o
                0x000000000004f420                ARCOMMANDS_Decoder_SetARDrone3MediaRecordPictureCb
 *fill*         0x000000000004f45d        0x3 
 .text.ARCOMMANDS_Decoder_SetARDrone3MediaRecordPictureCallback
                0x000000000004f460       0x4c /home/sunho/bebop_ws/devel/arsdk/out/arsdk-native/build/libARCommands/obj/gen/Sources/ARCOMMANDS_Decoder.c.o
                0x000000000004f460                ARCOMMANDS_Decoder_SetARDrone3MediaRecordPictureCallback
 *fill*         0x000000000004f4ac        0x4 
 .text.ARCOMMANDS_Decoder_SetARDrone3MediaRecordVideoCb
                0x000000000004f4b0       0x3d /home/sunho/bebop_ws/devel/arsdk/out/arsdk-native/build/libARCommands/obj/gen/Sources/ARCOMMANDS_Decoder.c.o
                0x000000000004f4b0                ARCOMMANDS_Decoder_SetARDrone3MediaRecordVideoCb
 *fill*         0x000000000004f4ed        0x3 
 .text.ARCOMMANDS_Decoder_SetARDrone3MediaRecordVideoCallback
                0x000000000004f4f0       0x4c /home/sunho/bebop_ws/devel/arsdk/out/arsdk-native/build/libARCommands/obj/gen/Sources/ARCOMMANDS_Decoder.c.o
                0x000000000004f4f0                ARCOMMANDS_Decoder_SetARDrone3MediaRecordVideoCallback
 *fill*         0x000000000004f53c        0x4 
 .text.ARCOMMANDS_Decoder_SetARDrone3MediaRecordPictureV2Cb
                0x000000000004f540       0x3d /home/sunho/bebop_ws/devel/arsdk/out/arsdk-native/build/libARCommands/obj/gen/Sources/ARCOMMANDS_Decoder.c.o
                0x000000000004f540                ARCOMMANDS_Decoder_SetARDrone3MediaRecordPictureV2Cb
 *fill*         0x000000000004f57d        0x3 
 .text.ARCOMMANDS_Decoder_SetARDrone3MediaRecordPictureV2Callback
                0x000000000004f580       0x4c /home/sunho/bebop_ws/devel/arsdk/out/arsdk-native/build/libARCommands/obj/gen/Sources/ARCOMMANDS_Decoder.c.o
                0x000000000004f580                ARCOMMANDS_Decoder_SetARDrone3MediaRecordPictureV2Callback
 *fill*         0x000000000004f5cc        0x4 
 .text.ARCOMMANDS_Decoder_SetARDrone3MediaRecordVideoV2Cb
                0x000000000004f5d0       0x3d /home/sunho/bebop_ws/devel/arsdk/out/arsdk-native/build/libARCommands/obj/gen/Sources/ARCOMMANDS_Decoder.c.o
                0x000000000004f5d0                ARCOMMANDS_Decoder_SetARDrone3MediaRecordVideoV2Cb
 *fill*         0x000000000004f60d        0x3 
 .text.ARCOMMANDS_Decoder_SetARDrone3MediaRecordVideoV2Callback
                0x000000000004f610       0x4c /home/sunho/bebop_ws/devel/arsdk/out/arsdk-native/build/libARCommands/obj/gen/Sources/ARCOMMANDS_Decoder.c.o
                0x000000000004f610                ARCOMMANDS_Decoder_SetARDrone3MediaRecordVideoV2Callback
 *fill*         0x000000000004f65c        0x4 
 .text.ARCOMMANDS_Decoder_SetARDrone3NetworkWifiScanCb
                0x000000000004f660       0x3d /home/sunho/bebop_ws/devel/arsdk/out/arsdk-native/build/libARCommands/obj/gen/Sources/ARCOMMANDS_Decoder.c.o
                0x000000000004f660                ARCOMMANDS_Decoder_SetARDrone3NetworkWifiScanCb
 *fill*         0x000000000004f69d        0x3 
 .text.ARCOMMANDS_Decoder_SetARDrone3NetworkWifiScanCallback
                0x000000000004f6a0       0x4c /home/sunho/bebop_ws/devel/arsdk/out/arsdk-native/build/libARCommands/obj/gen/Sources/ARCOMMANDS_Decoder.c.o
                0x000000000004f6a0                ARCOMMANDS_Decoder_SetARDrone3NetworkWifiScanCallback
 *fill*         0x000000000004f6ec        0x4 
 .text.ARCOMMANDS_Decoder_SetARDrone3NetworkWifiAuthChannelCb
                0x000000000004f6f0       0x3d /home/sunho/bebop_ws/devel/arsdk/out/arsdk-native/build/libARCommands/obj/gen/Sources/ARCOMMANDS_Decoder.c.o
                0x000000000004f6f0                ARCOMMANDS_Decoder_SetARDrone3NetworkWifiAuthChannelCb
 *fill*         0x000000000004f72d        0x3 
 .text.ARCOMMANDS_Decoder_SetARDrone3NetworkWifiAuthChannelCallback
                0x000000000004f730       0x4c /home/sunho/bebop_ws/devel/arsdk/out/arsdk-native/build/libARCommands/obj/gen/Sources/ARCOMMANDS_Decoder.c.o
                0x000000000004f730                ARCOMMANDS_Decoder_SetARDrone3NetworkWifiAuthChannelCallback
 *fill*         0x000000000004f77c        0x4 
 .text.ARCOMMANDS_Decoder_SetARDrone3PilotingSettingsMaxAltitudeCb
                0x000000000004f780       0x3d /home/sunho/bebop_ws/devel/arsdk/out/arsdk-native/build/libARCommands/obj/gen/Sources/ARCOMMANDS_Decoder.c.o
                0x000000000004f780                ARCOMMANDS_Decoder_SetARDrone3PilotingSettingsMaxAltitudeCb
 *fill*         0x000000000004f7bd        0x3 
 .text.ARCOMMANDS_Decoder_SetARDrone3PilotingSettingsMaxAltitudeCallback
                0x000000000004f7c0       0x4c /home/sunho/bebop_ws/devel/arsdk/out/arsdk-native/build/libARCommands/obj/gen/Sources/ARCOMMANDS_Decoder.c.o
                0x000000000004f7c0                ARCOMMANDS_Decoder_SetARDrone3PilotingSettingsMaxAltitudeCallback
 *fill*         0x000000000004f80c        0x4 
 .text.ARCOMMANDS_Decoder_SetARDrone3PilotingSettingsMaxTiltCb
                0x000000000004f810       0x3d /home/sunho/bebop_ws/devel/arsdk/out/arsdk-native/build/libARCommands/obj/gen/Sources/ARCOMMANDS_Decoder.c.o
                0x000000000004f810                ARCOMMANDS_Decoder_SetARDrone3PilotingSettingsMaxTiltCb
 *fill*         0x000000000004f84d        0x3 
 .text.ARCOMMANDS_Decoder_SetARDrone3PilotingSettingsMaxTiltCallback
                0x000000000004f850       0x4c /home/sunho/bebop_ws/devel/arsdk/out/arsdk-native/build/libARCommands/obj/gen/Sources/ARCOMMANDS_Decoder.c.o
                0x000000000004f850                ARCOMMANDS_Decoder_SetARDrone3PilotingSettingsMaxTiltCallback
 *fill*         0x000000000004f89c        0x4 
 .text.ARCOMMANDS_Decoder_SetARDrone3PilotingSettingsAbsolutControlCb
                0x000000000004f8a0       0x3d /home/sunho/bebop_ws/devel/arsdk/out/arsdk-native/build/libARCommands/obj/gen/Sources/ARCOMMANDS_Decoder.c.o
                0x000000000004f8a0                ARCOMMANDS_Decoder_SetARDrone3PilotingSettingsAbsolutControlCb
 *fill*         0x000000000004f8dd        0x3 
 .text.ARCOMMANDS_Decoder_SetARDrone3PilotingSettingsAbsolutControlCallback
                0x000000000004f8e0       0x4c /home/sunho/bebop_ws/devel/arsdk/out/arsdk-native/build/libARCommands/obj/gen/Sources/ARCOMMANDS_Decoder.c.o
                0x000000000004f8e0                ARCOMMANDS_Decoder_SetARDrone3PilotingSettingsAbsolutControlCallback
 *fill*         0x000000000004f92c        0x4 
 .text.ARCOMMANDS_Decoder_SetARDrone3PilotingSettingsMaxDistanceCb
                0x000000000004f930       0x3d /home/sunho/bebop_ws/devel/arsdk/out/arsdk-native/build/libARCommands/obj/gen/Sources/ARCOMMANDS_Decoder.c.o
                0x000000000004f930                ARCOMMANDS_Decoder_SetARDrone3PilotingSettingsMaxDistanceCb
 *fill*         0x000000000004f96d        0x3 
 .text.ARCOMMANDS_Decoder_SetARDrone3PilotingSettingsMaxDistanceCallback
                0x000000000004f970       0x4c /home/sunho/bebop_ws/devel/arsdk/out/arsdk-native/build/libARCommands/obj/gen/Sources/ARCOMMANDS_Decoder.c.o
                0x000000000004f970                ARCOMMANDS_Decoder_SetARDrone3PilotingSettingsMaxDistanceCallback
 *fill*         0x000000000004f9bc        0x4 
 .text.ARCOMMANDS_Decoder_SetARDrone3PilotingSettingsNoFlyOverMaxDistanceCb
                0x000000000004f9c0       0x3d /home/sunho/bebop_ws/devel/arsdk/out/arsdk-native/build/libARCommands/obj/gen/Sources/ARCOMMANDS_Decoder.c.o
                0x000000000004f9c0                ARCOMMANDS_Decoder_SetARDrone3PilotingSettingsNoFlyOverMaxDistanceCb
 *fill*         0x000000000004f9fd        0x3 
 .text.ARCOMMANDS_Decoder_SetARDrone3PilotingSettingsNoFlyOverMaxDistanceCallback
                0x000000000004fa00       0x4c /home/sunho/bebop_ws/devel/arsdk/out/arsdk-native/build/libARCommands/obj/gen/Sources/ARCOMMANDS_Decoder.c.o
                0x000000000004fa00                ARCOMMANDS_Decoder_SetARDrone3PilotingSettingsNoFlyOverMaxDistanceCallback
 *fill*         0x000000000004fa4c        0x4 
 .text.ARCOMMANDS_Decoder_SetARDrone3PilotingSettingsSetAutonomousFlightMaxHorizontalSpeedCb
                0x000000000004fa50       0x3d /home/sunho/bebop_ws/devel/arsdk/out/arsdk-native/build/libARCommands/obj/gen/Sources/ARCOMMANDS_Decoder.c.o
                0x000000000004fa50                ARCOMMANDS_Decoder_SetARDrone3PilotingSettingsSetAutonomousFlightMaxHorizontalSpeedCb
 *fill*         0x000000000004fa8d        0x3 
 .text.ARCOMMANDS_Decoder_SetARDrone3PilotingSettingsSetAutonomousFlightMaxHorizontalSpeedCallback
                0x000000000004fa90       0x4c /home/sunho/bebop_ws/devel/arsdk/out/arsdk-native/build/libARCommands/obj/gen/Sources/ARCOMMANDS_Decoder.c.o
                0x000000000004fa90                ARCOMMANDS_Decoder_SetARDrone3PilotingSettingsSetAutonomousFlightMaxHorizontalSpeedCallback
 *fill*         0x000000000004fadc        0x4 
 .text.ARCOMMANDS_Decoder_SetARDrone3PilotingSettingsSetAutonomousFlightMaxVerticalSpeedCb
                0x000000000004fae0       0x3d /home/sunho/bebop_ws/devel/arsdk/out/arsdk-native/build/libARCommands/obj/gen/Sources/ARCOMMANDS_Decoder.c.o
                0x000000000004fae0                ARCOMMANDS_Decoder_SetARDrone3PilotingSettingsSetAutonomousFlightMaxVerticalSpeedCb
 *fill*         0x000000000004fb1d        0x3 
 .text.ARCOMMANDS_Decoder_SetARDrone3PilotingSettingsSetAutonomousFlightMaxVerticalSpeedCallback
                0x000000000004fb20       0x4c /home/sunho/bebop_ws/devel/arsdk/out/arsdk-native/build/libARCommands/obj/gen/Sources/ARCOMMANDS_Decoder.c.o
                0x000000000004fb20                ARCOMMANDS_Decoder_SetARDrone3PilotingSettingsSetAutonomousFlightMaxVerticalSpeedCallback
 *fill*         0x000000000004fb6c        0x4 
 .text.ARCOMMANDS_Decoder_SetARDrone3PilotingSettingsSetAutonomousFlightMaxHorizontalAccelerationCb
                0x000000000004fb70       0x3d /home/sunho/bebop_ws/devel/arsdk/out/arsdk-native/build/libARCommands/obj/gen/Sources/ARCOMMANDS_Decoder.c.o
                0x000000000004fb70                ARCOMMANDS_Decoder_SetARDrone3PilotingSettingsSetAutonomousFlightMaxHorizontalAccelerationCb
 *fill*         0x000000000004fbad        0x3 
 .text.ARCOMMANDS_Decoder_SetARDrone3PilotingSettingsSetAutonomousFlightMaxHorizontalAccelerationCallback
                0x000000000004fbb0       0x4c /home/sunho/bebop_ws/devel/arsdk/out/arsdk-native/build/libARCommands/obj/gen/Sources/ARCOMMANDS_Decoder.c.o
                0x000000000004fbb0                ARCOMMANDS_Decoder_SetARDrone3PilotingSettingsSetAutonomousFlightMaxHorizontalAccelerationCallback
 *fill*         0x000000000004fbfc        0x4 
 .text.ARCOMMANDS_Decoder_SetARDrone3PilotingSettingsSetAutonomousFlightMaxVerticalAccelerationCb
                0x000000000004fc00       0x3d /home/sunho/bebop_ws/devel/arsdk/out/arsdk-native/build/libARCommands/obj/gen/Sources/ARCOMMANDS_Decoder.c.o
                0x000000000004fc00                ARCOMMANDS_Decoder_SetARDrone3PilotingSettingsSetAutonomousFlightMaxVerticalAccelerationCb
 *fill*         0x000000000004fc3d        0x3 
 .text.ARCOMMANDS_Decoder_SetARDrone3PilotingSettingsSetAutonomousFlightMaxVerticalAccelerationCallback
                0x000000000004fc40       0x4c /home/sunho/bebop_ws/devel/arsdk/out/arsdk-native/build/libARCommands/obj/gen/Sources/ARCOMMANDS_Decoder.c.o
                0x000000000004fc40                ARCOMMANDS_Decoder_SetARDrone3PilotingSettingsSetAutonomousFlightMaxVerticalAccelerationCallback
 *fill*         0x000000000004fc8c        0x4 
 .text.ARCOMMANDS_Decoder_SetARDrone3PilotingSettingsSetAutonomousFlightMaxRotationSpeedCb
                0x000000000004fc90       0x3d /home/sunho/bebop_ws/devel/arsdk/out/arsdk-native/build/libARCommands/obj/gen/Sources/ARCOMMANDS_Decoder.c.o
                0x000000000004fc90                ARCOMMANDS_Decoder_SetARDrone3PilotingSettingsSetAutonomousFlightMaxRotationSpeedCb
 *fill*         0x000000000004fccd        0x3 
 .text.ARCOMMANDS_Decoder_SetARDrone3PilotingSettingsSetAutonomousFlightMaxRotationSpeedCallback
                0x000000000004fcd0       0x4c /home/sunho/bebop_ws/devel/arsdk/out/arsdk-native/build/libARCommands/obj/gen/Sources/ARCOMMANDS_Decoder.c.o
                0x000000000004fcd0                ARCOMMANDS_Decoder_SetARDrone3PilotingSettingsSetAutonomousFlightMaxRotationSpeedCallback
 *fill*         0x000000000004fd1c        0x4 
 .text.ARCOMMANDS_Decoder_SetARDrone3PilotingSettingsBankedTurnCb
                0x000000000004fd20       0x3d /home/sunho/bebop_ws/devel/arsdk/out/arsdk-native/build/libARCommands/obj/gen/Sources/ARCOMMANDS_Decoder.c.o
                0x000000000004fd20                ARCOMMANDS_Decoder_SetARDrone3PilotingSettingsBankedTurnCb
 *fill*         0x000000000004fd5d        0x3 
 .text.ARCOMMANDS_Decoder_SetARDrone3PilotingSettingsBankedTurnCallback
                0x000000000004fd60       0x4c /home/sunho/bebop_ws/devel/arsdk/out/arsdk-native/build/libARCommands/obj/gen/Sources/ARCOMMANDS_Decoder.c.o
                0x000000000004fd60                ARCOMMANDS_Decoder_SetARDrone3PilotingSettingsBankedTurnCallback
 *fill*         0x000000000004fdac        0x4 
 .text.ARCOMMANDS_Decoder_SetARDrone3PilotingSettingsMinAltitudeCb
                0x000000000004fdb0       0x3d /home/sunho/bebop_ws/devel/arsdk/out/arsdk-native/build/libARCommands/obj/gen/Sources/ARCOMMANDS_Decoder.c.o
                0x000000000004fdb0                ARCOMMANDS_Decoder_SetARDrone3PilotingSettingsMinAltitudeCb
 *fill*         0x000000000004fded        0x3 
 .text.ARCOMMANDS_Decoder_SetARDrone3PilotingSettingsMinAltitudeCallback
                0x000000000004fdf0       0x4c /home/sunho/bebop_ws/devel/arsdk/out/arsdk-native/build/libARCommands/obj/gen/Sources/ARCOMMANDS_Decoder.c.o
                0x000000000004fdf0                ARCOMMANDS_Decoder_SetARDrone3PilotingSettingsMinAltitudeCallback
 *fill*         0x000000000004fe3c        0x4 
 .text.ARCOMMANDS_Decoder_SetARDrone3PilotingSettingsCirclingDirectionCb
                0x000000000004fe40       0x3d /home/sunho/bebop_ws/devel/arsdk/out/arsdk-native/build/libARCommands/obj/gen/Sources/ARCOMMANDS_Decoder.c.o
                0x000000000004fe40                ARCOMMANDS_Decoder_SetARDrone3PilotingSettingsCirclingDirectionCb
 *fill*         0x000000000004fe7d        0x3 
 .text.ARCOMMANDS_Decoder_SetARDrone3PilotingSettingsCirclingDirectionCallback
                0x000000000004fe80       0x4c /home/sunho/bebop_ws/devel/arsdk/out/arsdk-native/build/libARCommands/obj/gen/Sources/ARCOMMANDS_Decoder.c.o
                0x000000000004fe80                ARCOMMANDS_Decoder_SetARDrone3PilotingSettingsCirclingDirectionCallback
 *fill*         0x000000000004fecc        0x4 
 .text.ARCOMMANDS_Decoder_SetARDrone3PilotingSettingsCirclingRadiusCb
                0x000000000004fed0       0x3d /home/sunho/bebop_ws/devel/arsdk/out/arsdk-native/build/libARCommands/obj/gen/Sources/ARCOMMANDS_Decoder.c.o
                0x000000000004fed0                ARCOMMANDS_Decoder_SetARDrone3PilotingSettingsCirclingRadiusCb
 *fill*         0x000000000004ff0d        0x3 
 .text.ARCOMMANDS_Decoder_SetARDrone3PilotingSettingsCirclingRadiusCallback
                0x000000000004ff10       0x4c /home/sunho/bebop_ws/devel/arsdk/out/arsdk-native/build/libARCommands/obj/gen/Sources/ARCOMMANDS_Decoder.c.o
                0x000000000004ff10                ARCOMMANDS_Decoder_SetARDrone3PilotingSettingsCirclingRadiusCallback
 *fill*         0x000000000004ff5c        0x4 
 .text.ARCOMMANDS_Decoder_SetARDrone3PilotingSettingsCirclingAltitudeCb
                0x000000000004ff60       0x3d /home/sunho/bebop_ws/devel/arsdk/out/arsdk-native/build/libARCommands/obj/gen/Sources/ARCOMMANDS_Decoder.c.o
                0x000000000004ff60                ARCOMMANDS_Decoder_SetARDrone3PilotingSettingsCirclingAltitudeCb
 *fill*         0x000000000004ff9d        0x3 
 .text.ARCOMMANDS_Decoder_SetARDrone3PilotingSettingsCirclingAltitudeCallback
                0x000000000004ffa0       0x4c /home/sunho/bebop_ws/devel/arsdk/out/arsdk-native/build/libARCommands/obj/gen/Sources/ARCOMMANDS_Decoder.c.o
                0x000000000004ffa0                ARCOMMANDS_Decoder_SetARDrone3PilotingSettingsCirclingAltitudeCallback
 *fill*         0x000000000004ffec        0x4 
 .text.ARCOMMANDS_Decoder_SetARDrone3PilotingSettingsPitchModeCb
                0x000000000004fff0       0x3d /home/sunho/bebop_ws/devel/arsdk/out/arsdk-native/build/libARCommands/obj/gen/Sources/ARCOMMANDS_Decoder.c.o
                0x000000000004fff0                ARCOMMANDS_Decoder_SetARDrone3PilotingSettingsPitchModeCb
 *fill*         0x000000000005002d        0x3 
 .text.ARCOMMANDS_Decoder_SetARDrone3PilotingSettingsPitchModeCallback
                0x0000000000050030       0x4c /home/sunho/bebop_ws/devel/arsdk/out/arsdk-native/build/libARCommands/obj/gen/Sources/ARCOMMANDS_Decoder.c.o
                0x0000000000050030                ARCOMMANDS_Decoder_SetARDrone3PilotingSettingsPitchModeCallback
 *fill*         0x000000000005007c        0x4 
 .text.ARCOMMANDS_Decoder_SetARDrone3SpeedSettingsMaxVerticalSpeedCb
                0x0000000000050080       0x3d /home/sunho/bebop_ws/devel/arsdk/out/arsdk-native/build/libARCommands/obj/gen/Sources/ARCOMMANDS_Decoder.c.o
                0x0000000000050080                ARCOMMANDS_Decoder_SetARDrone3SpeedSettingsMaxVerticalSpeedCb
 *fill*         0x00000000000500bd        0x3 
 .text.ARCOMMANDS_Decoder_SetARDrone3SpeedSettingsMaxVerticalSpeedCallback
                0x00000000000500c0       0x4c /home/sunho/bebop_ws/devel/arsdk/out/arsdk-native/build/libARCommands/obj/gen/Sources/ARCOMMANDS_Decoder.c.o
                0x00000000000500c0                ARCOMMANDS_Decoder_SetARDrone3SpeedSettingsMaxVerticalSpeedCallback
 *fill*         0x000000000005010c        0x4 
 .text.ARCOMMANDS_Decoder_SetARDrone3SpeedSettingsMaxRotationSpeedCb
                0x0000000000050110       0x3d /home/sunho/bebop_ws/devel/arsdk/out/arsdk-native/build/libARCommands/obj/gen/Sources/ARCOMMANDS_Decoder.c.o
                0x0000000000050110                ARCOMMANDS_Decoder_SetARDrone3SpeedSettingsMaxRotationSpeedCb
 *fill*         0x000000000005014d        0x3 
 .text.ARCOMMANDS_Decoder_SetARDrone3SpeedSettingsMaxRotationSpeedCallback
                0x0000000000050150       0x4c /home/sunho/bebop_ws/devel/arsdk/out/arsdk-native/build/libARCommands/obj/gen/Sources/ARCOMMANDS_Decoder.c.o
                0x0000000000050150                ARCOMMANDS_Decoder_SetARDrone3SpeedSettingsMaxRotationSpeedCallback
 *fill*         0x000000000005019c        0x4 
 .text.ARCOMMANDS_Decoder_SetARDrone3SpeedSettingsHullProtectionCb
                0x00000000000501a0       0x3d /home/sunho/bebop_ws/devel/arsdk/out/arsdk-native/build/libARCommands/obj/gen/Sources/ARCOMMANDS_Decoder.c.o
                0x00000000000501a0                ARCOMMANDS_Decoder_SetARDrone3SpeedSettingsHullProtectionCb
 *fill*         0x00000000000501dd        0x3 
 .text.ARCOMMANDS_Decoder_SetARDrone3SpeedSettingsHullProtectionCallback
                0x00000000000501e0       0x4c /home/sunho/bebop_ws/devel/arsdk/out/arsdk-native/build/libARCommands/obj/gen/Sources/ARCOMMANDS_Decoder.c.o
                0x00000000000501e0                ARCOMMANDS_Decoder_SetARDrone3SpeedSettingsHullProtectionCallback
 *fill*         0x000000000005022c        0x4 
 .text.ARCOMMANDS_Decoder_SetARDrone3SpeedSettingsOutdoorCb
                0x0000000000050230       0x3d /home/sunho/bebop_ws/devel/arsdk/out/arsdk-native/build/libARCommands/obj/gen/Sources/ARCOMMANDS_Decoder.c.o
                0x0000000000050230                ARCOMMANDS_Decoder_SetARDrone3SpeedSettingsOutdoorCb
 *fill*         0x000000000005026d        0x3 
 .text.ARCOMMANDS_Decoder_SetARDrone3SpeedSettingsOutdoorCallback
                0x0000000000050270       0x4c /home/sunho/bebop_ws/devel/arsdk/out/arsdk-native/build/libARCommands/obj/gen/Sources/ARCOMMANDS_Decoder.c.o
                0x0000000000050270                ARCOMMANDS_Decoder_SetARDrone3SpeedSettingsOutdoorCallback
 *fill*         0x00000000000502bc        0x4 
 .text.ARCOMMANDS_Decoder_SetARDrone3SpeedSettingsMaxPitchRollRotationSpeedCb
                0x00000000000502c0       0x3d /home/sunho/bebop_ws/devel/arsdk/out/arsdk-native/build/libARCommands/obj/gen/Sources/ARCOMMANDS_Decoder.c.o
                0x00000000000502c0                ARCOMMANDS_Decoder_SetARDrone3SpeedSettingsMaxPitchRollRotationSpeedCb
 *fill*         0x00000000000502fd        0x3 
 .text.ARCOMMANDS_Decoder_SetARDrone3SpeedSettingsMaxPitchRollRotationSpeedCallback
                0x0000000000050300       0x4c /home/sunho/bebop_ws/devel/arsdk/out/arsdk-native/build/libARCommands/obj/gen/Sources/ARCOMMANDS_Decoder.c.o
                0x0000000000050300                ARCOMMANDS_Decoder_SetARDrone3SpeedSettingsMaxPitchRollRotationSpeedCallback
 *fill*         0x000000000005034c        0x4 
 .text.ARCOMMANDS_Decoder_SetARDrone3NetworkSettingsWifiSelectionCb
                0x0000000000050350       0x3d /home/sunho/bebop_ws/devel/arsdk/out/arsdk-native/build/libARCommands/obj/gen/Sources/ARCOMMANDS_Decoder.c.o
                0x0000000000050350                ARCOMMANDS_Decoder_SetARDrone3NetworkSettingsWifiSelectionCb
 *fill*         0x000000000005038d        0x3 
 .text.ARCOMMANDS_Decoder_SetARDrone3NetworkSettingsWifiSelectionCallback
                0x0000000000050390       0x4c /home/sunho/bebop_ws/devel/arsdk/out/arsdk-native/build/libARCommands/obj/gen/Sources/ARCOMMANDS_Decoder.c.o
                0x0000000000050390                ARCOMMANDS_Decoder_SetARDrone3NetworkSettingsWifiSelectionCallback
 *fill*         0x00000000000503dc        0x4 
 .text.ARCOMMANDS_Decoder_SetARDrone3NetworkSettingsWifiSecurityCb
                0x00000000000503e0       0x3d /home/sunho/bebop_ws/devel/arsdk/out/arsdk-native/build/libARCommands/obj/gen/Sources/ARCOMMANDS_Decoder.c.o
                0x00000000000503e0                ARCOMMANDS_Decoder_SetARDrone3NetworkSettingsWifiSecurityCb
 *fill*         0x000000000005041d        0x3 
 .text.ARCOMMANDS_Decoder_SetARDrone3NetworkSettingsWifiSecurityCallback
                0x0000000000050420       0x4c /home/sunho/bebop_ws/devel/arsdk/out/arsdk-native/build/libARCommands/obj/gen/Sources/ARCOMMANDS_Decoder.c.o
                0x0000000000050420                ARCOMMANDS_Decoder_SetARDrone3NetworkSettingsWifiSecurityCallback
 *fill*         0x000000000005046c        0x4 
 .text.ARCOMMANDS_Decoder_SetARDrone3PictureSettingsPictureFormatSelectionCb
                0x0000000000050470       0x3d /home/sunho/bebop_ws/devel/arsdk/out/arsdk-native/build/libARCommands/obj/gen/Sources/ARCOMMANDS_Decoder.c.o
                0x0000000000050470                ARCOMMANDS_Decoder_SetARDrone3PictureSettingsPictureFormatSelectionCb
 *fill*         0x00000000000504ad        0x3 
 .text.ARCOMMANDS_Decoder_SetARDrone3PictureSettingsPictureFormatSelectionCallback
                0x00000000000504b0       0x4c /home/sunho/bebop_ws/devel/arsdk/out/arsdk-native/build/libARCommands/obj/gen/Sources/ARCOMMANDS_Decoder.c.o
                0x00000000000504b0                ARCOMMANDS_Decoder_SetARDrone3PictureSettingsPictureFormatSelectionCallback
 *fill*         0x00000000000504fc        0x4 
 .text.ARCOMMANDS_Decoder_SetARDrone3PictureSettingsAutoWhiteBalanceSelectionCb
                0x0000000000050500       0x3d /home/sunho/bebop_ws/devel/arsdk/out/arsdk-native/build/libARCommands/obj/gen/Sources/ARCOMMANDS_Decoder.c.o
                0x0000000000050500                ARCOMMANDS_Decoder_SetARDrone3PictureSettingsAutoWhiteBalanceSelectionCb
 *fill*         0x000000000005053d        0x3 
 .text.ARCOMMANDS_Decoder_SetARDrone3PictureSettingsAutoWhiteBalanceSelectionCallback
                0x0000000000050540       0x4c /home/sunho/bebop_ws/devel/arsdk/out/arsdk-native/build/libARCommands/obj/gen/Sources/ARCOMMANDS_Decoder.c.o
                0x0000000000050540                ARCOMMANDS_Decoder_SetARDrone3PictureSettingsAutoWhiteBalanceSelectionCallback
 *fill*         0x000000000005058c        0x4 
 .text.ARCOMMANDS_Decoder_SetARDrone3PictureSettingsExpositionSelectionCb
                0x0000000000050590       0x3d /home/sunho/bebop_ws/devel/arsdk/out/arsdk-native/build/libARCommands/obj/gen/Sources/ARCOMMANDS_Decoder.c.o
                0x0000000000050590                ARCOMMANDS_Decoder_SetARDrone3PictureSettingsExpositionSelectionCb
 *fill*         0x00000000000505cd        0x3 
 .text.ARCOMMANDS_Decoder_SetARDrone3PictureSettingsExpositionSelectionCallback
                0x00000000000505d0       0x4c /home/sunho/bebop_ws/devel/arsdk/out/arsdk-native/build/libARCommands/obj/gen/Sources/ARCOMMANDS_Decoder.c.o
                0x00000000000505d0                ARCOMMANDS_Decoder_SetARDrone3PictureSettingsExpositionSelectionCallback
 *fill*         0x000000000005061c        0x4 
 .text.ARCOMMANDS_Decoder_SetARDrone3PictureSettingsSaturationSelectionCb
                0x0000000000050620       0x3d /home/sunho/bebop_ws/devel/arsdk/out/arsdk-native/build/libARCommands/obj/gen/Sources/ARCOMMANDS_Decoder.c.o
                0x0000000000050620                ARCOMMANDS_Decoder_SetARDrone3PictureSettingsSaturationSelectionCb
 *fill*         0x000000000005065d        0x3 
 .text.ARCOMMANDS_Decoder_SetARDrone3PictureSettingsSaturationSelectionCallback
                0x0000000000050660       0x4c /home/sunho/bebop_ws/devel/arsdk/out/arsdk-native/build/libARCommands/obj/gen/Sources/ARCOMMANDS_Decoder.c.o
                0x0000000000050660                ARCOMMANDS_Decoder_SetARDrone3PictureSettingsSaturationSelectionCallback
 *fill*         0x00000000000506ac        0x4 
 .text.ARCOMMANDS_Decoder_SetARDrone3PictureSettingsTimelapseSelectionCb
                0x00000000000506b0       0x3d /home/sunho/bebop_ws/devel/arsdk/out/arsdk-native/build/libARCommands/obj/gen/Sources/ARCOMMANDS_Decoder.c.o
                0x00000000000506b0                ARCOMMANDS_Decoder_SetARDrone3PictureSettingsTimelapseSelectionCb
 *fill*         0x00000000000506ed        0x3 
 .text.ARCOMMANDS_Decoder_SetARDrone3PictureSettingsTimelapseSelectionCallback
                0x00000000000506f0       0x4c /home/sunho/bebop_ws/devel/arsdk/out/arsdk-native/build/libARCommands/obj/gen/Sources/ARCOMMANDS_Decoder.c.o
                0x00000000000506f0                ARCOMMANDS_Decoder_SetARDrone3PictureSettingsTimelapseSelectionCallback
 *fill*         0x000000000005073c        0x4 
 .text.ARCOMMANDS_Decoder_SetARDrone3PictureSettingsVideoAutorecordSelectionCb
                0x0000000000050740       0x3d /home/sunho/bebop_ws/devel/arsdk/out/arsdk-native/build/libARCommands/obj/gen/Sources/ARCOMMANDS_Decoder.c.o
                0x0000000000050740                ARCOMMANDS_Decoder_SetARDrone3PictureSettingsVideoAutorecordSelectionCb
 *fill*         0x000000000005077d        0x3 
 .text.ARCOMMANDS_Decoder_SetARDrone3PictureSettingsVideoAutorecordSelectionCallback
                0x0000000000050780       0x4c /home/sunho/bebop_ws/devel/arsdk/out/arsdk-native/build/libARCommands/obj/gen/Sources/ARCOMMANDS_Decoder.c.o
                0x0000000000050780                ARCOMMANDS_Decoder_SetARDrone3PictureSettingsVideoAutorecordSelectionCallback
 *fill*         0x00000000000507cc        0x4 
 .text.ARCOMMANDS_Decoder_SetARDrone3PictureSettingsVideoStabilizationModeCb
                0x00000000000507d0       0x3d /home/sunho/bebop_ws/devel/arsdk/out/arsdk-native/build/libARCommands/obj/gen/Sources/ARCOMMANDS_Decoder.c.o
                0x00000000000507d0                ARCOMMANDS_Decoder_SetARDrone3PictureSettingsVideoStabilizationModeCb
 *fill*         0x000000000005080d        0x3 
 .text.ARCOMMANDS_Decoder_SetARDrone3PictureSettingsVideoStabilizationModeCallback
                0x0000000000050810       0x4c /home/sunho/bebop_ws/devel/arsdk/out/arsdk-native/build/libARCommands/obj/gen/Sources/ARCOMMANDS_Decoder.c.o
                0x0000000000050810                ARCOMMANDS_Decoder_SetARDrone3PictureSettingsVideoStabilizationModeCallback
 *fill*         0x000000000005085c        0x4 
 .text.ARCOMMANDS_Decoder_SetARDrone3PictureSettingsVideoRecordingModeCb
                0x0000000000050860       0x3d /home/sunho/bebop_ws/devel/arsdk/out/arsdk-native/build/libARCommands/obj/gen/Sources/ARCOMMANDS_Decoder.c.o
                0x0000000000050860                ARCOMMANDS_Decoder_SetARDrone3PictureSettingsVideoRecordingModeCb
 *fill*         0x000000000005089d        0x3 
 .text.ARCOMMANDS_Decoder_SetARDrone3PictureSettingsVideoRecordingModeCallback
                0x00000000000508a0       0x4c /home/sunho/bebop_ws/devel/arsdk/out/arsdk-native/build/libARCommands/obj/gen/Sources/ARCOMMANDS_Decoder.c.o
                0x00000000000508a0                ARCOMMANDS_Decoder_SetARDrone3PictureSettingsVideoRecordingModeCallback
 *fill*         0x00000000000508ec        0x4 
 .text.ARCOMMANDS_Decoder_SetARDrone3PictureSettingsVideoFramerateCb
                0x00000000000508f0       0x3d /home/sunho/bebop_ws/devel/arsdk/out/arsdk-native/build/libARCommands/obj/gen/Sources/ARCOMMANDS_Decoder.c.o
                0x00000000000508f0                ARCOMMANDS_Decoder_SetARDrone3PictureSettingsVideoFramerateCb
 *fill*         0x000000000005092d        0x3 
 .text.ARCOMMANDS_Decoder_SetARDrone3PictureSettingsVideoFramerateCallback
                0x0000000000050930       0x4c /home/sunho/bebop_ws/devel/arsdk/out/arsdk-native/build/libARCommands/obj/gen/Sources/ARCOMMANDS_Decoder.c.o
                0x0000000000050930                ARCOMMANDS_Decoder_SetARDrone3PictureSettingsVideoFramerateCallback
 *fill*         0x000000000005097c        0x4 
 .text.ARCOMMANDS_Decoder_SetARDrone3PictureSettingsVideoResolutionsCb
                0x0000000000050980       0x3d /home/sunho/bebop_ws/devel/arsdk/out/arsdk-native/build/libARCommands/obj/gen/Sources/ARCOMMANDS_Decoder.c.o
                0x0000000000050980                ARCOMMANDS_Decoder_SetARDrone3PictureSettingsVideoResolutionsCb
 *fill*         0x00000000000509bd        0x3 
 .text.ARCOMMANDS_Decoder_SetARDrone3PictureSettingsVideoResolutionsCallback
                0x00000000000509c0       0x4c /home/sunho/bebop_ws/devel/arsdk/out/arsdk-native/build/libARCommands/obj/gen/Sources/ARCOMMANDS_Decoder.c.o
                0x00000000000509c0                ARCOMMANDS_Decoder_SetARDrone3PictureSettingsVideoResolutionsCallback
 *fill*         0x0000000000050a0c        0x4 
 .text.ARCOMMANDS_Decoder_SetARDrone3MediaStreamingVideoEnableCb
                0x0000000000050a10       0x3d /home/sunho/bebop_ws/devel/arsdk/out/arsdk-native/build/libARCommands/obj/gen/Sources/ARCOMMANDS_Decoder.c.o
                0x0000000000050a10                ARCOMMANDS_Decoder_SetARDrone3MediaStreamingVideoEnableCb
 *fill*         0x0000000000050a4d        0x3 
 .text.ARCOMMANDS_Decoder_SetARDrone3MediaStreamingVideoEnableCallback
                0x0000000000050a50       0x4c /home/sunho/bebop_ws/devel/arsdk/out/arsdk-native/build/libARCommands/obj/gen/Sources/ARCOMMANDS_Decoder.c.o
                0x0000000000050a50                ARCOMMANDS_Decoder_SetARDrone3MediaStreamingVideoEnableCallback
 *fill*         0x0000000000050a9c        0x4 
 .text.ARCOMMANDS_Decoder_SetARDrone3MediaStreamingVideoStreamModeCb
                0x0000000000050aa0       0x3d /home/sunho/bebop_ws/devel/arsdk/out/arsdk-native/build/libARCommands/obj/gen/Sources/ARCOMMANDS_Decoder.c.o
                0x0000000000050aa0                ARCOMMANDS_Decoder_SetARDrone3MediaStreamingVideoStreamModeCb
 *fill*         0x0000000000050add        0x3 
 .text.ARCOMMANDS_Decoder_SetARDrone3MediaStreamingVideoStreamModeCallback
                0x0000000000050ae0       0x4c /home/sunho/bebop_ws/devel/arsdk/out/arsdk-native/build/libARCommands/obj/gen/Sources/ARCOMMANDS_Decoder.c.o
                0x0000000000050ae0                ARCOMMANDS_Decoder_SetARDrone3MediaStreamingVideoStreamModeCallback
 *fill*         0x0000000000050b2c        0x4 
 .text.ARCOMMANDS_Decoder_SetARDrone3GPSSettingsSetHomeCb
                0x0000000000050b30       0x3d /home/sunho/bebop_ws/devel/arsdk/out/arsdk-native/build/libARCommands/obj/gen/Sources/ARCOMMANDS_Decoder.c.o
                0x0000000000050b30                ARCOMMANDS_Decoder_SetARDrone3GPSSettingsSetHomeCb
 *fill*         0x0000000000050b6d        0x3 
 .text.ARCOMMANDS_Decoder_SetARDrone3GPSSettingsSetHomeCallback
                0x0000000000050b70       0x4c /home/sunho/bebop_ws/devel/arsdk/out/arsdk-native/build/libARCommands/obj/gen/Sources/ARCOMMANDS_Decoder.c.o
                0x0000000000050b70                ARCOMMANDS_Decoder_SetARDrone3GPSSettingsSetHomeCallback
 *fill*         0x0000000000050bbc        0x4 
 .text.ARCOMMANDS_Decoder_SetARDrone3GPSSettingsResetHomeCb
                0x0000000000050bc0       0x3d /home/sunho/bebop_ws/devel/arsdk/out/arsdk-native/build/libARCommands/obj/gen/Sources/ARCOMMANDS_Decoder.c.o
                0x0000000000050bc0                ARCOMMANDS_Decoder_SetARDrone3GPSSettingsResetHomeCb
 *fill*         0x0000000000050bfd        0x3 
 .text.ARCOMMANDS_Decoder_SetARDrone3GPSSettingsResetHomeCallback
                0x0000000000050c00       0x4c /home/sunho/bebop_ws/devel/arsdk/out/arsdk-native/build/libARCommands/obj/gen/Sources/ARCOMMANDS_Decoder.c.o
                0x0000000000050c00                ARCOMMANDS_Decoder_SetARDrone3GPSSettingsResetHomeCallback
 *fill*         0x0000000000050c4c        0x4 
 .text.ARCOMMANDS_Decoder_SetARDrone3GPSSettingsSendControllerGPSCb
                0x0000000000050c50       0x3d /home/sunho/bebop_ws/devel/arsdk/out/arsdk-native/build/libARCommands/obj/gen/Sources/ARCOMMANDS_Decoder.c.o
                0x0000000000050c50                ARCOMMANDS_Decoder_SetARDrone3GPSSettingsSendControllerGPSCb
 *fill*         0x0000000000050c8d        0x3 
 .text.ARCOMMANDS_Decoder_SetARDrone3GPSSettingsSendControllerGPSCallback
                0x0000000000050c90       0x4c /home/sunho/bebop_ws/devel/arsdk/out/arsdk-native/build/libARCommands/obj/gen/Sources/ARCOMMANDS_Decoder.c.o
                0x0000000000050c90                ARCOMMANDS_Decoder_SetARDrone3GPSSettingsSendControllerGPSCallback
 *fill*         0x0000000000050cdc        0x4 
 .text.ARCOMMANDS_Decoder_SetARDrone3GPSSettingsHomeTypeCb
                0x0000000000050ce0       0x3d /home/sunho/bebop_ws/devel/arsdk/out/arsdk-native/build/libARCommands/obj/gen/Sources/ARCOMMANDS_Decoder.c.o
                0x0000000000050ce0                ARCOMMANDS_Decoder_SetARDrone3GPSSettingsHomeTypeCb
 *fill*         0x0000000000050d1d        0x3 
 .text.ARCOMMANDS_Decoder_SetARDrone3GPSSettingsHomeTypeCallback
                0x0000000000050d20       0x4c /home/sunho/bebop_ws/devel/arsdk/out/arsdk-native/build/libARCommands/obj/gen/Sources/ARCOMMANDS_Decoder.c.o
                0x0000000000050d20                ARCOMMANDS_Decoder_SetARDrone3GPSSettingsHomeTypeCallback
 *fill*         0x0000000000050d6c        0x4 
 .text.ARCOMMANDS_Decoder_SetARDrone3GPSSettingsReturnHomeDelayCb
                0x0000000000050d70       0x3d /home/sunho/bebop_ws/devel/arsdk/out/arsdk-native/build/libARCommands/obj/gen/Sources/ARCOMMANDS_Decoder.c.o
                0x0000000000050d70                ARCOMMANDS_Decoder_SetARDrone3GPSSettingsReturnHomeDelayCb
 *fill*         0x0000000000050dad        0x3 
 .text.ARCOMMANDS_Decoder_SetARDrone3GPSSettingsReturnHomeDelayCallback
                0x0000000000050db0       0x4c /home/sunho/bebop_ws/devel/arsdk/out/arsdk-native/build/libARCommands/obj/gen/Sources/ARCOMMANDS_Decoder.c.o
                0x0000000000050db0                ARCOMMANDS_Decoder_SetARDrone3GPSSettingsReturnHomeDelayCallback
 *fill*         0x0000000000050dfc        0x4 
 .text.ARCOMMANDS_Decoder_SetARDrone3AntiflickeringElectricFrequencyCb
                0x0000000000050e00       0x3d /home/sunho/bebop_ws/devel/arsdk/out/arsdk-native/build/libARCommands/obj/gen/Sources/ARCOMMANDS_Decoder.c.o
                0x0000000000050e00                ARCOMMANDS_Decoder_SetARDrone3AntiflickeringElectricFrequencyCb
 *fill*         0x0000000000050e3d        0x3 
 .text.ARCOMMANDS_Decoder_SetARDrone3AntiflickeringElectricFrequencyCallback
                0x0000000000050e40       0x4c /home/sunho/bebop_ws/devel/arsdk/out/arsdk-native/build/libARCommands/obj/gen/Sources/ARCOMMANDS_Decoder.c.o
                0x0000000000050e40                ARCOMMANDS_Decoder_SetARDrone3AntiflickeringElectricFrequencyCallback
 *fill*         0x0000000000050e8c        0x4 
 .text.ARCOMMANDS_Decoder_SetARDrone3AntiflickeringSetModeCb
                0x0000000000050e90       0x3d /home/sunho/bebop_ws/devel/arsdk/out/arsdk-native/build/libARCommands/obj/gen/Sources/ARCOMMANDS_Decoder.c.o
                0x0000000000050e90                ARCOMMANDS_Decoder_SetARDrone3AntiflickeringSetModeCb
 *fill*         0x0000000000050ecd        0x3 
 .text.ARCOMMANDS_Decoder_SetARDrone3AntiflickeringSetModeCallback
                0x0000000000050ed0       0x4c /home/sunho/bebop_ws/devel/arsdk/out/arsdk-native/build/libARCommands/obj/gen/Sources/ARCOMMANDS_Decoder.c.o
                0x0000000000050ed0                ARCOMMANDS_Decoder_SetARDrone3AntiflickeringSetModeCallback
 *fill*         0x0000000000050f1c        0x4 
 .text.ARCOMMANDS_Decoder_SetARDrone3MediaRecordStatePictureStateChangedCb
                0x0000000000050f20       0x3d /home/sunho/bebop_ws/devel/arsdk/out/arsdk-native/build/libARCommands/obj/gen/Sources/ARCOMMANDS_Decoder.c.o
                0x0000000000050f20                ARCOMMANDS_Decoder_SetARDrone3MediaRecordStatePictureStateChangedCb
 *fill*         0x0000000000050f5d        0x3 
 .text.ARCOMMANDS_Decoder_SetARDrone3MediaRecordStatePictureStateChangedCallback
                0x0000000000050f60       0x4c /home/sunho/bebop_ws/devel/arsdk/out/arsdk-native/build/libARCommands/obj/gen/Sources/ARCOMMANDS_Decoder.c.o
                0x0000000000050f60                ARCOMMANDS_Decoder_SetARDrone3MediaRecordStatePictureStateChangedCallback
 *fill*         0x0000000000050fac        0x4 
 .text.ARCOMMANDS_Decoder_SetARDrone3MediaRecordStateVideoStateChangedCb
                0x0000000000050fb0       0x3d /home/sunho/bebop_ws/devel/arsdk/out/arsdk-native/build/libARCommands/obj/gen/Sources/ARCOMMANDS_Decoder.c.o
                0x0000000000050fb0                ARCOMMANDS_Decoder_SetARDrone3MediaRecordStateVideoStateChangedCb
 *fill*         0x0000000000050fed        0x3 
 .text.ARCOMMANDS_Decoder_SetARDrone3MediaRecordStateVideoStateChangedCallback
                0x0000000000050ff0       0x4c /home/sunho/bebop_ws/devel/arsdk/out/arsdk-native/build/libARCommands/obj/gen/Sources/ARCOMMANDS_Decoder.c.o
                0x0000000000050ff0                ARCOMMANDS_Decoder_SetARDrone3MediaRecordStateVideoStateChangedCallback
 *fill*         0x000000000005103c        0x4 
 .text.ARCOMMANDS_Decoder_SetARDrone3MediaRecordStatePictureStateChangedV2Cb
                0x0000000000051040       0x3d /home/sunho/bebop_ws/devel/arsdk/out/arsdk-native/build/libARCommands/obj/gen/Sources/ARCOMMANDS_Decoder.c.o
                0x0000000000051040                ARCOMMANDS_Decoder_SetARDrone3MediaRecordStatePictureStateChangedV2Cb
 *fill*         0x000000000005107d        0x3 
 .text.ARCOMMANDS_Decoder_SetARDrone3MediaRecordStatePictureStateChangedV2Callback
                0x0000000000051080       0x4c /home/sunho/bebop_ws/devel/arsdk/out/arsdk-native/build/libARCommands/obj/gen/Sources/ARCOMMANDS_Decoder.c.o
                0x0000000000051080                ARCOMMANDS_Decoder_SetARDrone3MediaRecordStatePictureStateChangedV2Callback
 *fill*         0x00000000000510cc        0x4 
 .text.ARCOMMANDS_Decoder_SetARDrone3MediaRecordStateVideoStateChangedV2Cb
                0x00000000000510d0       0x3d /home/sunho/bebop_ws/devel/arsdk/out/arsdk-native/build/libARCommands/obj/gen/Sources/ARCOMMANDS_Decoder.c.o
                0x00000000000510d0                ARCOMMANDS_Decoder_SetARDrone3MediaRecordStateVideoStateChangedV2Cb
 *fill*         0x000000000005110d        0x3 
 .text.ARCOMMANDS_Decoder_SetARDrone3MediaRecordStateVideoStateChangedV2Callback
                0x0000000000051110       0x4c /home/sunho/bebop_ws/devel/arsdk/out/arsdk-native/build/libARCommands/obj/gen/Sources/ARCOMMANDS_Decoder.c.o
                0x0000000000051110                ARCOMMANDS_Decoder_SetARDrone3MediaRecordStateVideoStateChangedV2Callback
 *fill*         0x000000000005115c        0x4 
 .text.ARCOMMANDS_Decoder_SetARDrone3MediaRecordStateVideoResolutionStateCb
                0x0000000000051160       0x3d /home/sunho/bebop_ws/devel/arsdk/out/arsdk-native/build/libARCommands/obj/gen/Sources/ARCOMMANDS_Decoder.c.o
                0x0000000000051160                ARCOMMANDS_Decoder_SetARDrone3MediaRecordStateVideoResolutionStateCb
 *fill*         0x000000000005119d        0x3 
 .text.ARCOMMANDS_Decoder_SetARDrone3MediaRecordStateVideoResolutionStateCallback
                0x00000000000511a0       0x4c /home/sunho/bebop_ws/devel/arsdk/out/arsdk-native/build/libARCommands/obj/gen/Sources/ARCOMMANDS_Decoder.c.o
                0x00000000000511a0                ARCOMMANDS_Decoder_SetARDrone3MediaRecordStateVideoResolutionStateCallback
 *fill*         0x00000000000511ec        0x4 
 .text.ARCOMMANDS_Decoder_SetARDrone3MediaRecordEventPictureEventChangedCb
                0x00000000000511f0       0x3d /home/sunho/bebop_ws/devel/arsdk/out/arsdk-native/build/libARCommands/obj/gen/Sources/ARCOMMANDS_Decoder.c.o
                0x00000000000511f0                ARCOMMANDS_Decoder_SetARDrone3MediaRecordEventPictureEventChangedCb
 *fill*         0x000000000005122d        0x3 
 .text.ARCOMMANDS_Decoder_SetARDrone3MediaRecordEventPictureEventChangedCallback
                0x0000000000051230       0x4c /home/sunho/bebop_ws/devel/arsdk/out/arsdk-native/build/libARCommands/obj/gen/Sources/ARCOMMANDS_Decoder.c.o
                0x0000000000051230                ARCOMMANDS_Decoder_SetARDrone3MediaRecordEventPictureEventChangedCallback
 *fill*         0x000000000005127c        0x4 
 .text.ARCOMMANDS_Decoder_SetARDrone3MediaRecordEventVideoEventChangedCb
                0x0000000000051280       0x3d /home/sunho/bebop_ws/devel/arsdk/out/arsdk-native/build/libARCommands/obj/gen/Sources/ARCOMMANDS_Decoder.c.o
                0x0000000000051280                ARCOMMANDS_Decoder_SetARDrone3MediaRecordEventVideoEventChangedCb
 *fill*         0x00000000000512bd        0x3 
 .text.ARCOMMANDS_Decoder_SetARDrone3MediaRecordEventVideoEventChangedCallback
                0x00000000000512c0       0x4c /home/sunho/bebop_ws/devel/arsdk/out/arsdk-native/build/libARCommands/obj/gen/Sources/ARCOMMANDS_Decoder.c.o
                0x00000000000512c0                ARCOMMANDS_Decoder_SetARDrone3MediaRecordEventVideoEventChangedCallback
 *fill*         0x000000000005130c        0x4 
 .text.ARCOMMANDS_Decoder_SetARDrone3PilotingStateFlatTrimChangedCb
                0x0000000000051310       0x3d /home/sunho/bebop_ws/devel/arsdk/out/arsdk-native/build/libARCommands/obj/gen/Sources/ARCOMMANDS_Decoder.c.o
                0x0000000000051310                ARCOMMANDS_Decoder_SetARDrone3PilotingStateFlatTrimChangedCb
 *fill*         0x000000000005134d        0x3 
 .text.ARCOMMANDS_Decoder_SetARDrone3PilotingStateFlatTrimChangedCallback
                0x0000000000051350       0x4c /home/sunho/bebop_ws/devel/arsdk/out/arsdk-native/build/libARCommands/obj/gen/Sources/ARCOMMANDS_Decoder.c.o
                0x0000000000051350                ARCOMMANDS_Decoder_SetARDrone3PilotingStateFlatTrimChangedCallback
 *fill*         0x000000000005139c        0x4 
 .text.ARCOMMANDS_Decoder_SetARDrone3PilotingStateFlyingStateChangedCb
                0x00000000000513a0       0x3d /home/sunho/bebop_ws/devel/arsdk/out/arsdk-native/build/libARCommands/obj/gen/Sources/ARCOMMANDS_Decoder.c.o
                0x00000000000513a0                ARCOMMANDS_Decoder_SetARDrone3PilotingStateFlyingStateChangedCb
 *fill*         0x00000000000513dd        0x3 
 .text.ARCOMMANDS_Decoder_SetARDrone3PilotingStateFlyingStateChangedCallback
                0x00000000000513e0       0x4c /home/sunho/bebop_ws/devel/arsdk/out/arsdk-native/build/libARCommands/obj/gen/Sources/ARCOMMANDS_Decoder.c.o
                0x00000000000513e0                ARCOMMANDS_Decoder_SetARDrone3PilotingStateFlyingStateChangedCallback
 *fill*         0x000000000005142c        0x4 
 .text.ARCOMMANDS_Decoder_SetARDrone3PilotingStateAlertStateChangedCb
                0x0000000000051430       0x3d /home/sunho/bebop_ws/devel/arsdk/out/arsdk-native/build/libARCommands/obj/gen/Sources/ARCOMMANDS_Decoder.c.o
                0x0000000000051430                ARCOMMANDS_Decoder_SetARDrone3PilotingStateAlertStateChangedCb
 *fill*         0x000000000005146d        0x3 
 .text.ARCOMMANDS_Decoder_SetARDrone3PilotingStateAlertStateChangedCallback
                0x0000000000051470       0x4c /home/sunho/bebop_ws/devel/arsdk/out/arsdk-native/build/libARCommands/obj/gen/Sources/ARCOMMANDS_Decoder.c.o
                0x0000000000051470                ARCOMMANDS_Decoder_SetARDrone3PilotingStateAlertStateChangedCallback
 *fill*         0x00000000000514bc        0x4 
 .text.ARCOMMANDS_Decoder_SetARDrone3PilotingStateNavigateHomeStateChangedCb
                0x00000000000514c0       0x3d /home/sunho/bebop_ws/devel/arsdk/out/arsdk-native/build/libARCommands/obj/gen/Sources/ARCOMMANDS_Decoder.c.o
                0x00000000000514c0                ARCOMMANDS_Decoder_SetARDrone3PilotingStateNavigateHomeStateChangedCb
 *fill*         0x00000000000514fd        0x3 
 .text.ARCOMMANDS_Decoder_SetARDrone3PilotingStateNavigateHomeStateChangedCallback
                0x0000000000051500       0x4c /home/sunho/bebop_ws/devel/arsdk/out/arsdk-native/build/libARCommands/obj/gen/Sources/ARCOMMANDS_Decoder.c.o
                0x0000000000051500                ARCOMMANDS_Decoder_SetARDrone3PilotingStateNavigateHomeStateChangedCallback
 *fill*         0x000000000005154c        0x4 
 .text.ARCOMMANDS_Decoder_SetARDrone3PilotingStatePositionChangedCb
                0x0000000000051550       0x3d /home/sunho/bebop_ws/devel/arsdk/out/arsdk-native/build/libARCommands/obj/gen/Sources/ARCOMMANDS_Decoder.c.o
                0x0000000000051550                ARCOMMANDS_Decoder_SetARDrone3PilotingStatePositionChangedCb
 *fill*         0x000000000005158d        0x3 
 .text.ARCOMMANDS_Decoder_SetARDrone3PilotingStatePositionChangedCallback
                0x0000000000051590       0x4c /home/sunho/bebop_ws/devel/arsdk/out/arsdk-native/build/libARCommands/obj/gen/Sources/ARCOMMANDS_Decoder.c.o
                0x0000000000051590                ARCOMMANDS_Decoder_SetARDrone3PilotingStatePositionChangedCallback
 *fill*         0x00000000000515dc        0x4 
 .text.ARCOMMANDS_Decoder_SetARDrone3PilotingStateSpeedChangedCb
                0x00000000000515e0       0x3d /home/sunho/bebop_ws/devel/arsdk/out/arsdk-native/build/libARCommands/obj/gen/Sources/ARCOMMANDS_Decoder.c.o
                0x00000000000515e0                ARCOMMANDS_Decoder_SetARDrone3PilotingStateSpeedChangedCb
 *fill*         0x000000000005161d        0x3 
 .text.ARCOMMANDS_Decoder_SetARDrone3PilotingStateSpeedChangedCallback
                0x0000000000051620       0x4c /home/sunho/bebop_ws/devel/arsdk/out/arsdk-native/build/libARCommands/obj/gen/Sources/ARCOMMANDS_Decoder.c.o
                0x0000000000051620                ARCOMMANDS_Decoder_SetARDrone3PilotingStateSpeedChangedCallback
 *fill*         0x000000000005166c        0x4 
 .text.ARCOMMANDS_Decoder_SetARDrone3PilotingStateAttitudeChangedCb
                0x0000000000051670       0x3d /home/sunho/bebop_ws/devel/arsdk/out/arsdk-native/build/libARCommands/obj/gen/Sources/ARCOMMANDS_Decoder.c.o
                0x0000000000051670                ARCOMMANDS_Decoder_SetARDrone3PilotingStateAttitudeChangedCb
 *fill*         0x00000000000516ad        0x3 
 .text.ARCOMMANDS_Decoder_SetARDrone3PilotingStateAttitudeChangedCallback
                0x00000000000516b0       0x4c /home/sunho/bebop_ws/devel/arsdk/out/arsdk-native/build/libARCommands/obj/gen/Sources/ARCOMMANDS_Decoder.c.o
                0x00000000000516b0                ARCOMMANDS_Decoder_SetARDrone3PilotingStateAttitudeChangedCallback
 *fill*         0x00000000000516fc        0x4 
 .text.ARCOMMANDS_Decoder_SetARDrone3PilotingStateAutoTakeOffModeChangedCb
                0x0000000000051700       0x3d /home/sunho/bebop_ws/devel/arsdk/out/arsdk-native/build/libARCommands/obj/gen/Sources/ARCOMMANDS_Decoder.c.o
                0x0000000000051700                ARCOMMANDS_Decoder_SetARDrone3PilotingStateAutoTakeOffModeChangedCb
 *fill*         0x000000000005173d        0x3 
 .text.ARCOMMANDS_Decoder_SetARDrone3PilotingStateAutoTakeOffModeChangedCallback
                0x0000000000051740       0x4c /home/sunho/bebop_ws/devel/arsdk/out/arsdk-native/build/libARCommands/obj/gen/Sources/ARCOMMANDS_Decoder.c.o
                0x0000000000051740                ARCOMMANDS_Decoder_SetARDrone3PilotingStateAutoTakeOffModeChangedCallback
 *fill*         0x000000000005178c        0x4 
 .text.ARCOMMANDS_Decoder_SetARDrone3PilotingStateAltitudeChangedCb
                0x0000000000051790       0x3d /home/sunho/bebop_ws/devel/arsdk/out/arsdk-native/build/libARCommands/obj/gen/Sources/ARCOMMANDS_Decoder.c.o
                0x0000000000051790                ARCOMMANDS_Decoder_SetARDrone3PilotingStateAltitudeChangedCb
 *fill*         0x00000000000517cd        0x3 
 .text.ARCOMMANDS_Decoder_SetARDrone3PilotingStateAltitudeChangedCallback
                0x00000000000517d0       0x4c /home/sunho/bebop_ws/devel/arsdk/out/arsdk-native/build/libARCommands/obj/gen/Sources/ARCOMMANDS_Decoder.c.o
                0x00000000000517d0                ARCOMMANDS_Decoder_SetARDrone3PilotingStateAltitudeChangedCallback
 *fill*         0x000000000005181c        0x4 
 .text.ARCOMMANDS_Decoder_SetARDrone3PilotingStateGpsLocationChangedCb
                0x0000000000051820       0x3d /home/sunho/bebop_ws/devel/arsdk/out/arsdk-native/build/libARCommands/obj/gen/Sources/ARCOMMANDS_Decoder.c.o
                0x0000000000051820                ARCOMMANDS_Decoder_SetARDrone3PilotingStateGpsLocationChangedCb
 *fill*         0x000000000005185d        0x3 
 .text.ARCOMMANDS_Decoder_SetARDrone3PilotingStateGpsLocationChangedCallback
                0x0000000000051860       0x4c /home/sunho/bebop_ws/devel/arsdk/out/arsdk-native/build/libARCommands/obj/gen/Sources/ARCOMMANDS_Decoder.c.o
                0x0000000000051860                ARCOMMANDS_Decoder_SetARDrone3PilotingStateGpsLocationChangedCallback
 *fill*         0x00000000000518ac        0x4 
 .text.ARCOMMANDS_Decoder_SetARDrone3PilotingStateLandingStateChangedCb
                0x00000000000518b0       0x3d /home/sunho/bebop_ws/devel/arsdk/out/arsdk-native/build/libARCommands/obj/gen/Sources/ARCOMMANDS_Decoder.c.o
                0x00000000000518b0                ARCOMMANDS_Decoder_SetARDrone3PilotingStateLandingStateChangedCb
 *fill*         0x00000000000518ed        0x3 
 .text.ARCOMMANDS_Decoder_SetARDrone3PilotingStateLandingStateChangedCallback
                0x00000000000518f0       0x4c /home/sunho/bebop_ws/devel/arsdk/out/arsdk-native/build/libARCommands/obj/gen/Sources/ARCOMMANDS_Decoder.c.o
                0x00000000000518f0                ARCOMMANDS_Decoder_SetARDrone3PilotingStateLandingStateChangedCallback
 *fill*         0x000000000005193c        0x4 
 .text.ARCOMMANDS_Decoder_SetARDrone3PilotingEventMoveByEndCb
                0x0000000000051940       0x3d /home/sunho/bebop_ws/devel/arsdk/out/arsdk-native/build/libARCommands/obj/gen/Sources/ARCOMMANDS_Decoder.c.o
                0x0000000000051940                ARCOMMANDS_Decoder_SetARDrone3PilotingEventMoveByEndCb
 *fill*         0x000000000005197d        0x3 
 .text.ARCOMMANDS_Decoder_SetARDrone3PilotingEventMoveByEndCallback
                0x0000000000051980       0x4c /home/sunho/bebop_ws/devel/arsdk/out/arsdk-native/build/libARCommands/obj/gen/Sources/ARCOMMANDS_Decoder.c.o
                0x0000000000051980                ARCOMMANDS_Decoder_SetARDrone3PilotingEventMoveByEndCallback
 *fill*         0x00000000000519cc        0x4 
 .text.ARCOMMANDS_Decoder_SetARDrone3NetworkStateWifiScanListChangedCb
                0x00000000000519d0       0x3d /home/sunho/bebop_ws/devel/arsdk/out/arsdk-native/build/libARCommands/obj/gen/Sources/ARCOMMANDS_Decoder.c.o
                0x00000000000519d0                ARCOMMANDS_Decoder_SetARDrone3NetworkStateWifiScanListChangedCb
 *fill*         0x0000000000051a0d        0x3 
 .text.ARCOMMANDS_Decoder_SetARDrone3NetworkStateWifiScanListChangedCallback
                0x0000000000051a10       0x4c /home/sunho/bebop_ws/devel/arsdk/out/arsdk-native/build/libARCommands/obj/gen/Sources/ARCOMMANDS_Decoder.c.o
                0x0000000000051a10                ARCOMMANDS_Decoder_SetARDrone3NetworkStateWifiScanListChangedCallback
 *fill*         0x0000000000051a5c        0x4 
 .text.ARCOMMANDS_Decoder_SetARDrone3NetworkStateAllWifiScanChangedCb
                0x0000000000051a60       0x3d /home/sunho/bebop_ws/devel/arsdk/out/arsdk-native/build/libARCommands/obj/gen/Sources/ARCOMMANDS_Decoder.c.o
                0x0000000000051a60                ARCOMMANDS_Decoder_SetARDrone3NetworkStateAllWifiScanChangedCb
 *fill*         0x0000000000051a9d        0x3 
 .text.ARCOMMANDS_Decoder_SetARDrone3NetworkStateAllWifiScanChangedCallback
                0x0000000000051aa0       0x4c /home/sunho/bebop_ws/devel/arsdk/out/arsdk-native/build/libARCommands/obj/gen/Sources/ARCOMMANDS_Decoder.c.o
                0x0000000000051aa0                ARCOMMANDS_Decoder_SetARDrone3NetworkStateAllWifiScanChangedCallback
 *fill*         0x0000000000051aec        0x4 
 .text.ARCOMMANDS_Decoder_SetARDrone3NetworkStateWifiAuthChannelListChangedCb
                0x0000000000051af0       0x3d /home/sunho/bebop_ws/devel/arsdk/out/arsdk-native/build/libARCommands/obj/gen/Sources/ARCOMMANDS_Decoder.c.o
                0x0000000000051af0                ARCOMMANDS_Decoder_SetARDrone3NetworkStateWifiAuthChannelListChangedCb
 *fill*         0x0000000000051b2d        0x3 
 .text.ARCOMMANDS_Decoder_SetARDrone3NetworkStateWifiAuthChannelListChangedCallback
                0x0000000000051b30       0x4c /home/sunho/bebop_ws/devel/arsdk/out/arsdk-native/build/libARCommands/obj/gen/Sources/ARCOMMANDS_Decoder.c.o
                0x0000000000051b30                ARCOMMANDS_Decoder_SetARDrone3NetworkStateWifiAuthChannelListChangedCallback
 *fill*         0x0000000000051b7c        0x4 
 .text.ARCOMMANDS_Decoder_SetARDrone3NetworkStateAllWifiAuthChannelChangedCb
                0x0000000000051b80       0x3d /home/sunho/bebop_ws/devel/arsdk/out/arsdk-native/build/libARCommands/obj/gen/Sources/ARCOMMANDS_Decoder.c.o
                0x0000000000051b80                ARCOMMANDS_Decoder_SetARDrone3NetworkStateAllWifiAuthChannelChangedCb
 *fill*         0x0000000000051bbd        0x3 
 .text.ARCOMMANDS_Decoder_SetARDrone3NetworkStateAllWifiAuthChannelChangedCallback
                0x0000000000051bc0       0x4c /home/sunho/bebop_ws/devel/arsdk/out/arsdk-native/build/libARCommands/obj/gen/Sources/ARCOMMANDS_Decoder.c.o
                0x0000000000051bc0                ARCOMMANDS_Decoder_SetARDrone3NetworkStateAllWifiAuthChannelChangedCallback
 *fill*         0x0000000000051c0c        0x4 
 .text.ARCOMMANDS_Decoder_SetARDrone3PilotingSettingsStateMaxAltitudeChangedCb
                0x0000000000051c10       0x3d /home/sunho/bebop_ws/devel/arsdk/out/arsdk-native/build/libARCommands/obj/gen/Sources/ARCOMMANDS_Decoder.c.o
                0x0000000000051c10                ARCOMMANDS_Decoder_SetARDrone3PilotingSettingsStateMaxAltitudeChangedCb
 *fill*         0x0000000000051c4d        0x3 
 .text.ARCOMMANDS_Decoder_SetARDrone3PilotingSettingsStateMaxAltitudeChangedCallback
                0x0000000000051c50       0x4c /home/sunho/bebop_ws/devel/arsdk/out/arsdk-native/build/libARCommands/obj/gen/Sources/ARCOMMANDS_Decoder.c.o
                0x0000000000051c50                ARCOMMANDS_Decoder_SetARDrone3PilotingSettingsStateMaxAltitudeChangedCallback
 *fill*         0x0000000000051c9c        0x4 
 .text.ARCOMMANDS_Decoder_SetARDrone3PilotingSettingsStateMaxTiltChangedCb
                0x0000000000051ca0       0x3d /home/sunho/bebop_ws/devel/arsdk/out/arsdk-native/build/libARCommands/obj/gen/Sources/ARCOMMANDS_Decoder.c.o
                0x0000000000051ca0                ARCOMMANDS_Decoder_SetARDrone3PilotingSettingsStateMaxTiltChangedCb
 *fill*         0x0000000000051cdd        0x3 
 .text.ARCOMMANDS_Decoder_SetARDrone3PilotingSettingsStateMaxTiltChangedCallback
                0x0000000000051ce0       0x4c /home/sunho/bebop_ws/devel/arsdk/out/arsdk-native/build/libARCommands/obj/gen/Sources/ARCOMMANDS_Decoder.c.o
                0x0000000000051ce0                ARCOMMANDS_Decoder_SetARDrone3PilotingSettingsStateMaxTiltChangedCallback
 *fill*         0x0000000000051d2c        0x4 
 .text.ARCOMMANDS_Decoder_SetARDrone3PilotingSettingsStateAbsolutControlChangedCb
                0x0000000000051d30       0x3d /home/sunho/bebop_ws/devel/arsdk/out/arsdk-native/build/libARCommands/obj/gen/Sources/ARCOMMANDS_Decoder.c.o
                0x0000000000051d30                ARCOMMANDS_Decoder_SetARDrone3PilotingSettingsStateAbsolutControlChangedCb
 *fill*         0x0000000000051d6d        0x3 
 .text.ARCOMMANDS_Decoder_SetARDrone3PilotingSettingsStateAbsolutControlChangedCallback
                0x0000000000051d70       0x4c /home/sunho/bebop_ws/devel/arsdk/out/arsdk-native/build/libARCommands/obj/gen/Sources/ARCOMMANDS_Decoder.c.o
                0x0000000000051d70                ARCOMMANDS_Decoder_SetARDrone3PilotingSettingsStateAbsolutControlChangedCallback
 *fill*         0x0000000000051dbc        0x4 
 .text.ARCOMMANDS_Decoder_SetARDrone3PilotingSettingsStateMaxDistanceChangedCb
                0x0000000000051dc0       0x3d /home/sunho/bebop_ws/devel/arsdk/out/arsdk-native/build/libARCommands/obj/gen/Sources/ARCOMMANDS_Decoder.c.o
                0x0000000000051dc0                ARCOMMANDS_Decoder_SetARDrone3PilotingSettingsStateMaxDistanceChangedCb
 *fill*         0x0000000000051dfd        0x3 
 .text.ARCOMMANDS_Decoder_SetARDrone3PilotingSettingsStateMaxDistanceChangedCallback
                0x0000000000051e00       0x4c /home/sunho/bebop_ws/devel/arsdk/out/arsdk-native/build/libARCommands/obj/gen/Sources/ARCOMMANDS_Decoder.c.o
                0x0000000000051e00                ARCOMMANDS_Decoder_SetARDrone3PilotingSettingsStateMaxDistanceChangedCallback
 *fill*         0x0000000000051e4c        0x4 
 .text.ARCOMMANDS_Decoder_SetARDrone3PilotingSettingsStateNoFlyOverMaxDistanceChangedCb
                0x0000000000051e50       0x3d /home/sunho/bebop_ws/devel/arsdk/out/arsdk-native/build/libARCommands/obj/gen/Sources/ARCOMMANDS_Decoder.c.o
                0x0000000000051e50                ARCOMMANDS_Decoder_SetARDrone3PilotingSettingsStateNoFlyOverMaxDistanceChangedCb
 *fill*         0x0000000000051e8d        0x3 
 .text.ARCOMMANDS_Decoder_SetARDrone3PilotingSettingsStateNoFlyOverMaxDistanceChangedCallback
                0x0000000000051e90       0x4c /home/sunho/bebop_ws/devel/arsdk/out/arsdk-native/build/libARCommands/obj/gen/Sources/ARCOMMANDS_Decoder.c.o
                0x0000000000051e90                ARCOMMANDS_Decoder_SetARDrone3PilotingSettingsStateNoFlyOverMaxDistanceChangedCallback
 *fill*         0x0000000000051edc        0x4 
 .text.ARCOMMANDS_Decoder_SetARDrone3PilotingSettingsStateAutonomousFlightMaxHorizontalSpeedCb
                0x0000000000051ee0       0x3d /home/sunho/bebop_ws/devel/arsdk/out/arsdk-native/build/libARCommands/obj/gen/Sources/ARCOMMANDS_Decoder.c.o
                0x0000000000051ee0                ARCOMMANDS_Decoder_SetARDrone3PilotingSettingsStateAutonomousFlightMaxHorizontalSpeedCb
 *fill*         0x0000000000051f1d        0x3 
 .text.ARCOMMANDS_Decoder_SetARDrone3PilotingSettingsStateAutonomousFlightMaxHorizontalSpeedCallback
                0x0000000000051f20       0x4c /home/sunho/bebop_ws/devel/arsdk/out/arsdk-native/build/libARCommands/obj/gen/Sources/ARCOMMANDS_Decoder.c.o
                0x0000000000051f20                ARCOMMANDS_Decoder_SetARDrone3PilotingSettingsStateAutonomousFlightMaxHorizontalSpeedCallback
 *fill*         0x0000000000051f6c        0x4 
 .text.ARCOMMANDS_Decoder_SetARDrone3PilotingSettingsStateAutonomousFlightMaxVerticalSpeedCb
                0x0000000000051f70       0x3d /home/sunho/bebop_ws/devel/arsdk/out/arsdk-native/build/libARCommands/obj/gen/Sources/ARCOMMANDS_Decoder.c.o
                0x0000000000051f70                ARCOMMANDS_Decoder_SetARDrone3PilotingSettingsStateAutonomousFlightMaxVerticalSpeedCb
 *fill*         0x0000000000051fad        0x3 
 .text.ARCOMMANDS_Decoder_SetARDrone3PilotingSettingsStateAutonomousFlightMaxVerticalSpeedCallback
                0x0000000000051fb0       0x4c /home/sunho/bebop_ws/devel/arsdk/out/arsdk-native/build/libARCommands/obj/gen/Sources/ARCOMMANDS_Decoder.c.o
                0x0000000000051fb0                ARCOMMANDS_Decoder_SetARDrone3PilotingSettingsStateAutonomousFlightMaxVerticalSpeedCallback
 *fill*         0x0000000000051ffc        0x4 
 .text.ARCOMMANDS_Decoder_SetARDrone3PilotingSettingsStateAutonomousFlightMaxHorizontalAccelerationCb
                0x0000000000052000       0x3d /home/sunho/bebop_ws/devel/arsdk/out/arsdk-native/build/libARCommands/obj/gen/Sources/ARCOMMANDS_Decoder.c.o
                0x0000000000052000                ARCOMMANDS_Decoder_SetARDrone3PilotingSettingsStateAutonomousFlightMaxHorizontalAccelerationCb
 *fill*         0x000000000005203d        0x3 
 .text.ARCOMMANDS_Decoder_SetARDrone3PilotingSettingsStateAutonomousFlightMaxHorizontalAccelerationCallback
                0x0000000000052040       0x4c /home/sunho/bebop_ws/devel/arsdk/out/arsdk-native/build/libARCommands/obj/gen/Sources/ARCOMMANDS_Decoder.c.o
                0x0000000000052040                ARCOMMANDS_Decoder_SetARDrone3PilotingSettingsStateAutonomousFlightMaxHorizontalAccelerationCallback
 *fill*         0x000000000005208c        0x4 
 .text.ARCOMMANDS_Decoder_SetARDrone3PilotingSettingsStateAutonomousFlightMaxVerticalAccelerationCb
                0x0000000000052090       0x3d /home/sunho/bebop_ws/devel/arsdk/out/arsdk-native/build/libARCommands/obj/gen/Sources/ARCOMMANDS_Decoder.c.o
                0x0000000000052090                ARCOMMANDS_Decoder_SetARDrone3PilotingSettingsStateAutonomousFlightMaxVerticalAccelerationCb
 *fill*         0x00000000000520cd        0x3 
 .text.ARCOMMANDS_Decoder_SetARDrone3PilotingSettingsStateAutonomousFlightMaxVerticalAccelerationCallback
                0x00000000000520d0       0x4c /home/sunho/bebop_ws/devel/arsdk/out/arsdk-native/build/libARCommands/obj/gen/Sources/ARCOMMANDS_Decoder.c.o
                0x00000000000520d0                ARCOMMANDS_Decoder_SetARDrone3PilotingSettingsStateAutonomousFlightMaxVerticalAccelerationCallback
 *fill*         0x000000000005211c        0x4 
 .text.ARCOMMANDS_Decoder_SetARDrone3PilotingSettingsStateAutonomousFlightMaxRotationSpeedCb
                0x0000000000052120       0x3d /home/sunho/bebop_ws/devel/arsdk/out/arsdk-native/build/libARCommands/obj/gen/Sources/ARCOMMANDS_Decoder.c.o
                0x0000000000052120                ARCOMMANDS_Decoder_SetARDrone3PilotingSettingsStateAutonomousFlightMaxRotationSpeedCb
 *fill*         0x000000000005215d        0x3 
 .text.ARCOMMANDS_Decoder_SetARDrone3PilotingSettingsStateAutonomousFlightMaxRotationSpeedCallback
                0x0000000000052160       0x4c /home/sunho/bebop_ws/devel/arsdk/out/arsdk-native/build/libARCommands/obj/gen/Sources/ARCOMMANDS_Decoder.c.o
                0x0000000000052160                ARCOMMANDS_Decoder_SetARDrone3PilotingSettingsStateAutonomousFlightMaxRotationSpeedCallback
 *fill*         0x00000000000521ac        0x4 
 .text.ARCOMMANDS_Decoder_SetARDrone3PilotingSettingsStateBankedTurnChangedCb
                0x00000000000521b0       0x3d /home/sunho/bebop_ws/devel/arsdk/out/arsdk-native/build/libARCommands/obj/gen/Sources/ARCOMMANDS_Decoder.c.o
                0x00000000000521b0                ARCOMMANDS_Decoder_SetARDrone3PilotingSettingsStateBankedTurnChangedCb
 *fill*         0x00000000000521ed        0x3 
 .text.ARCOMMANDS_Decoder_SetARDrone3PilotingSettingsStateBankedTurnChangedCallback
                0x00000000000521f0       0x4c /home/sunho/bebop_ws/devel/arsdk/out/arsdk-native/build/libARCommands/obj/gen/Sources/ARCOMMANDS_Decoder.c.o
                0x00000000000521f0                ARCOMMANDS_Decoder_SetARDrone3PilotingSettingsStateBankedTurnChangedCallback
 *fill*         0x000000000005223c        0x4 
 .text.ARCOMMANDS_Decoder_SetARDrone3PilotingSettingsStateMinAltitudeChangedCb
                0x0000000000052240       0x3d /home/sunho/bebop_ws/devel/arsdk/out/arsdk-native/build/libARCommands/obj/gen/Sources/ARCOMMANDS_Decoder.c.o
                0x0000000000052240                ARCOMMANDS_Decoder_SetARDrone3PilotingSettingsStateMinAltitudeChangedCb
 *fill*         0x000000000005227d        0x3 
 .text.ARCOMMANDS_Decoder_SetARDrone3PilotingSettingsStateMinAltitudeChangedCallback
                0x0000000000052280       0x4c /home/sunho/bebop_ws/devel/arsdk/out/arsdk-native/build/libARCommands/obj/gen/Sources/ARCOMMANDS_Decoder.c.o
                0x0000000000052280                ARCOMMANDS_Decoder_SetARDrone3PilotingSettingsStateMinAltitudeChangedCallback
 *fill*         0x00000000000522cc        0x4 
 .text.ARCOMMANDS_Decoder_SetARDrone3PilotingSettingsStateCirclingDirectionChangedCb
                0x00000000000522d0       0x3d /home/sunho/bebop_ws/devel/arsdk/out/arsdk-native/build/libARCommands/obj/gen/Sources/ARCOMMANDS_Decoder.c.o
                0x00000000000522d0                ARCOMMANDS_Decoder_SetARDrone3PilotingSettingsStateCirclingDirectionChangedCb
 *fill*         0x000000000005230d        0x3 
 .text.ARCOMMANDS_Decoder_SetARDrone3PilotingSettingsStateCirclingDirectionChangedCallback
                0x0000000000052310       0x4c /home/sunho/bebop_ws/devel/arsdk/out/arsdk-native/build/libARCommands/obj/gen/Sources/ARCOMMANDS_Decoder.c.o
                0x0000000000052310                ARCOMMANDS_Decoder_SetARDrone3PilotingSettingsStateCirclingDirectionChangedCallback
 *fill*         0x000000000005235c        0x4 
 .text.ARCOMMANDS_Decoder_SetARDrone3PilotingSettingsStateCirclingRadiusChangedCb
                0x0000000000052360       0x3d /home/sunho/bebop_ws/devel/arsdk/out/arsdk-native/build/libARCommands/obj/gen/Sources/ARCOMMANDS_Decoder.c.o
                0x0000000000052360                ARCOMMANDS_Decoder_SetARDrone3PilotingSettingsStateCirclingRadiusChangedCb
 *fill*         0x000000000005239d        0x3 
 .text.ARCOMMANDS_Decoder_SetARDrone3PilotingSettingsStateCirclingRadiusChangedCallback
                0x00000000000523a0       0x4c /home/sunho/bebop_ws/devel/arsdk/out/arsdk-native/build/libARCommands/obj/gen/Sources/ARCOMMANDS_Decoder.c.o
                0x00000000000523a0                ARCOMMANDS_Decoder_SetARDrone3PilotingSettingsStateCirclingRadiusChangedCallback
 *fill*         0x00000000000523ec        0x4 
 .text.ARCOMMANDS_Decoder_SetARDrone3PilotingSettingsStateCirclingAltitudeChangedCb
                0x00000000000523f0       0x3d /home/sunho/bebop_ws/devel/arsdk/out/arsdk-native/build/libARCommands/obj/gen/Sources/ARCOMMANDS_Decoder.c.o
                0x00000000000523f0                ARCOMMANDS_Decoder_SetARDrone3PilotingSettingsStateCirclingAltitudeChangedCb
 *fill*         0x000000000005242d        0x3 
 .text.ARCOMMANDS_Decoder_SetARDrone3PilotingSettingsStateCirclingAltitudeChangedCallback
                0x0000000000052430       0x4c /home/sunho/bebop_ws/devel/arsdk/out/arsdk-native/build/libARCommands/obj/gen/Sources/ARCOMMANDS_Decoder.c.o
                0x0000000000052430                ARCOMMANDS_Decoder_SetARDrone3PilotingSettingsStateCirclingAltitudeChangedCallback
 *fill*         0x000000000005247c        0x4 
 .text.ARCOMMANDS_Decoder_SetARDrone3PilotingSettingsStatePitchModeChangedCb
                0x0000000000052480       0x3d /home/sunho/bebop_ws/devel/arsdk/out/arsdk-native/build/libARCommands/obj/gen/Sources/ARCOMMANDS_Decoder.c.o
                0x0000000000052480                ARCOMMANDS_Decoder_SetARDrone3PilotingSettingsStatePitchModeChangedCb
 *fill*         0x00000000000524bd        0x3 
 .text.ARCOMMANDS_Decoder_SetARDrone3PilotingSettingsStatePitchModeChangedCallback
                0x00000000000524c0       0x4c /home/sunho/bebop_ws/devel/arsdk/out/arsdk-native/build/libARCommands/obj/gen/Sources/ARCOMMANDS_Decoder.c.o
                0x00000000000524c0                ARCOMMANDS_Decoder_SetARDrone3PilotingSettingsStatePitchModeChangedCallback
 *fill*         0x000000000005250c        0x4 
 .text.ARCOMMANDS_Decoder_SetARDrone3SpeedSettingsStateMaxVerticalSpeedChangedCb
                0x0000000000052510       0x3d /home/sunho/bebop_ws/devel/arsdk/out/arsdk-native/build/libARCommands/obj/gen/Sources/ARCOMMANDS_Decoder.c.o
                0x0000000000052510                ARCOMMANDS_Decoder_SetARDrone3SpeedSettingsStateMaxVerticalSpeedChangedCb
 *fill*         0x000000000005254d        0x3 
 .text.ARCOMMANDS_Decoder_SetARDrone3SpeedSettingsStateMaxVerticalSpeedChangedCallback
                0x0000000000052550       0x4c /home/sunho/bebop_ws/devel/arsdk/out/arsdk-native/build/libARCommands/obj/gen/Sources/ARCOMMANDS_Decoder.c.o
                0x0000000000052550                ARCOMMANDS_Decoder_SetARDrone3SpeedSettingsStateMaxVerticalSpeedChangedCallback
 *fill*         0x000000000005259c        0x4 
 .text.ARCOMMANDS_Decoder_SetARDrone3SpeedSettingsStateMaxRotationSpeedChangedCb
                0x00000000000525a0       0x3d /home/sunho/bebop_ws/devel/arsdk/out/arsdk-native/build/libARCommands/obj/gen/Sources/ARCOMMANDS_Decoder.c.o
                0x00000000000525a0                ARCOMMANDS_Decoder_SetARDrone3SpeedSettingsStateMaxRotationSpeedChangedCb
 *fill*         0x00000000000525dd        0x3 
 .text.ARCOMMANDS_Decoder_SetARDrone3SpeedSettingsStateMaxRotationSpeedChangedCallback
                0x00000000000525e0       0x4c /home/sunho/bebop_ws/devel/arsdk/out/arsdk-native/build/libARCommands/obj/gen/Sources/ARCOMMANDS_Decoder.c.o
                0x00000000000525e0                ARCOMMANDS_Decoder_SetARDrone3SpeedSettingsStateMaxRotationSpeedChangedCallback
 *fill*         0x000000000005262c        0x4 
 .text.ARCOMMANDS_Decoder_SetARDrone3SpeedSettingsStateHullProtectionChangedCb
                0x0000000000052630       0x3d /home/sunho/bebop_ws/devel/arsdk/out/arsdk-native/build/libARCommands/obj/gen/Sources/ARCOMMANDS_Decoder.c.o
                0x0000000000052630                ARCOMMANDS_Decoder_SetARDrone3SpeedSettingsStateHullProtectionChangedCb
 *fill*         0x000000000005266d        0x3 
 .text.ARCOMMANDS_Decoder_SetARDrone3SpeedSettingsStateHullProtectionChangedCallback
                0x0000000000052670       0x4c /home/sunho/bebop_ws/devel/arsdk/out/arsdk-native/build/libARCommands/obj/gen/Sources/ARCOMMANDS_Decoder.c.o
                0x0000000000052670                ARCOMMANDS_Decoder_SetARDrone3SpeedSettingsStateHullProtectionChangedCallback
 *fill*         0x00000000000526bc        0x4 
 .text.ARCOMMANDS_Decoder_SetARDrone3SpeedSettingsStateOutdoorChangedCb
                0x00000000000526c0       0x3d /home/sunho/bebop_ws/devel/arsdk/out/arsdk-native/build/libARCommands/obj/gen/Sources/ARCOMMANDS_Decoder.c.o
                0x00000000000526c0                ARCOMMANDS_Decoder_SetARDrone3SpeedSettingsStateOutdoorChangedCb
 *fill*         0x00000000000526fd        0x3 
 .text.ARCOMMANDS_Decoder_SetARDrone3SpeedSettingsStateOutdoorChangedCallback
                0x0000000000052700       0x4c /home/sunho/bebop_ws/devel/arsdk/out/arsdk-native/build/libARCommands/obj/gen/Sources/ARCOMMANDS_Decoder.c.o
                0x0000000000052700                ARCOMMANDS_Decoder_SetARDrone3SpeedSettingsStateOutdoorChangedCallback
 *fill*         0x000000000005274c        0x4 
 .text.ARCOMMANDS_Decoder_SetARDrone3SpeedSettingsStateMaxPitchRollRotationSpeedChangedCb
                0x0000000000052750       0x3d /home/sunho/bebop_ws/devel/arsdk/out/arsdk-native/build/libARCommands/obj/gen/Sources/ARCOMMANDS_Decoder.c.o
                0x0000000000052750                ARCOMMANDS_Decoder_SetARDrone3SpeedSettingsStateMaxPitchRollRotationSpeedChangedCb
 *fill*         0x000000000005278d        0x3 
 .text.ARCOMMANDS_Decoder_SetARDrone3SpeedSettingsStateMaxPitchRollRotationSpeedChangedCallback
                0x0000000000052790       0x4c /home/sunho/bebop_ws/devel/arsdk/out/arsdk-native/build/libARCommands/obj/gen/Sources/ARCOMMANDS_Decoder.c.o
                0x0000000000052790                ARCOMMANDS_Decoder_SetARDrone3SpeedSettingsStateMaxPitchRollRotationSpeedChangedCallback
 *fill*         0x00000000000527dc        0x4 
 .text.ARCOMMANDS_Decoder_SetARDrone3NetworkSettingsStateWifiSelectionChangedCb
                0x00000000000527e0       0x3d /home/sunho/bebop_ws/devel/arsdk/out/arsdk-native/build/libARCommands/obj/gen/Sources/ARCOMMANDS_Decoder.c.o
                0x00000000000527e0                ARCOMMANDS_Decoder_SetARDrone3NetworkSettingsStateWifiSelectionChangedCb
 *fill*         0x000000000005281d        0x3 
 .text.ARCOMMANDS_Decoder_SetARDrone3NetworkSettingsStateWifiSelectionChangedCallback
                0x0000000000052820       0x4c /home/sunho/bebop_ws/devel/arsdk/out/arsdk-native/build/libARCommands/obj/gen/Sources/ARCOMMANDS_Decoder.c.o
                0x0000000000052820                ARCOMMANDS_Decoder_SetARDrone3NetworkSettingsStateWifiSelectionChangedCallback
 *fill*         0x000000000005286c        0x4 
 .text.ARCOMMANDS_Decoder_SetARDrone3NetworkSettingsStateWifiSecurityChangedCb
                0x0000000000052870       0x3d /home/sunho/bebop_ws/devel/arsdk/out/arsdk-native/build/libARCommands/obj/gen/Sources/ARCOMMANDS_Decoder.c.o
                0x0000000000052870                ARCOMMANDS_Decoder_SetARDrone3NetworkSettingsStateWifiSecurityChangedCb
 *fill*         0x00000000000528ad        0x3 
 .text.ARCOMMANDS_Decoder_SetARDrone3NetworkSettingsStateWifiSecurityChangedCallback
                0x00000000000528b0       0x4c /home/sunho/bebop_ws/devel/arsdk/out/arsdk-native/build/libARCommands/obj/gen/Sources/ARCOMMANDS_Decoder.c.o
                0x00000000000528b0                ARCOMMANDS_Decoder_SetARDrone3NetworkSettingsStateWifiSecurityChangedCallback
 *fill*         0x00000000000528fc        0x4 
 .text.ARCOMMANDS_Decoder_SetARDrone3NetworkSettingsStateWifiSecurityCb
                0x0000000000052900       0x3d /home/sunho/bebop_ws/devel/arsdk/out/arsdk-native/build/libARCommands/obj/gen/Sources/ARCOMMANDS_Decoder.c.o
                0x0000000000052900                ARCOMMANDS_Decoder_SetARDrone3NetworkSettingsStateWifiSecurityCb
 *fill*         0x000000000005293d        0x3 
 .text.ARCOMMANDS_Decoder_SetARDrone3NetworkSettingsStateWifiSecurityCallback
                0x0000000000052940       0x4c /home/sunho/bebop_ws/devel/arsdk/out/arsdk-native/build/libARCommands/obj/gen/Sources/ARCOMMANDS_Decoder.c.o
                0x0000000000052940                ARCOMMANDS_Decoder_SetARDrone3NetworkSettingsStateWifiSecurityCallback
 *fill*         0x000000000005298c        0x4 
 .text.ARCOMMANDS_Decoder_SetARDrone3SettingsStateProductMotorVersionListChangedCb
                0x0000000000052990       0x3d /home/sunho/bebop_ws/devel/arsdk/out/arsdk-native/build/libARCommands/obj/gen/Sources/ARCOMMANDS_Decoder.c.o
                0x0000000000052990                ARCOMMANDS_Decoder_SetARDrone3SettingsStateProductMotorVersionListChangedCb
 *fill*         0x00000000000529cd        0x3 
 .text.ARCOMMANDS_Decoder_SetARDrone3SettingsStateProductMotorVersionListChangedCallback
                0x00000000000529d0       0x4c /home/sunho/bebop_ws/devel/arsdk/out/arsdk-native/build/libARCommands/obj/gen/Sources/ARCOMMANDS_Decoder.c.o
                0x00000000000529d0                ARCOMMANDS_Decoder_SetARDrone3SettingsStateProductMotorVersionListChangedCallback
 *fill*         0x0000000000052a1c        0x4 
 .text.ARCOMMANDS_Decoder_SetARDrone3SettingsStateProductGPSVersionChangedCb
                0x0000000000052a20       0x3d /home/sunho/bebop_ws/devel/arsdk/out/arsdk-native/build/libARCommands/obj/gen/Sources/ARCOMMANDS_Decoder.c.o
                0x0000000000052a20                ARCOMMANDS_Decoder_SetARDrone3SettingsStateProductGPSVersionChangedCb
 *fill*         0x0000000000052a5d        0x3 
 .text.ARCOMMANDS_Decoder_SetARDrone3SettingsStateProductGPSVersionChangedCallback
                0x0000000000052a60       0x4c /home/sunho/bebop_ws/devel/arsdk/out/arsdk-native/build/libARCommands/obj/gen/Sources/ARCOMMANDS_Decoder.c.o
                0x0000000000052a60                ARCOMMANDS_Decoder_SetARDrone3SettingsStateProductGPSVersionChangedCallback
 *fill*         0x0000000000052aac        0x4 
 .text.ARCOMMANDS_Decoder_SetARDrone3SettingsStateMotorErrorStateChangedCb
                0x0000000000052ab0       0x3d /home/sunho/bebop_ws/devel/arsdk/out/arsdk-native/build/libARCommands/obj/gen/Sources/ARCOMMANDS_Decoder.c.o
                0x0000000000052ab0                ARCOMMANDS_Decoder_SetARDrone3SettingsStateMotorErrorStateChangedCb
 *fill*         0x0000000000052aed        0x3 
 .text.ARCOMMANDS_Decoder_SetARDrone3SettingsStateMotorErrorStateChangedCallback
                0x0000000000052af0       0x4c /home/sunho/bebop_ws/devel/arsdk/out/arsdk-native/build/libARCommands/obj/gen/Sources/ARCOMMANDS_Decoder.c.o
                0x0000000000052af0                ARCOMMANDS_Decoder_SetARDrone3SettingsStateMotorErrorStateChangedCallback
 *fill*         0x0000000000052b3c        0x4 
 .text.ARCOMMANDS_Decoder_SetARDrone3SettingsStateMotorSoftwareVersionChangedCb
                0x0000000000052b40       0x3d /home/sunho/bebop_ws/devel/arsdk/out/arsdk-native/build/libARCommands/obj/gen/Sources/ARCOMMANDS_Decoder.c.o
                0x0000000000052b40                ARCOMMANDS_Decoder_SetARDrone3SettingsStateMotorSoftwareVersionChangedCb
 *fill*         0x0000000000052b7d        0x3 
 .text.ARCOMMANDS_Decoder_SetARDrone3SettingsStateMotorSoftwareVersionChangedCallback
                0x0000000000052b80       0x4c /home/sunho/bebop_ws/devel/arsdk/out/arsdk-native/build/libARCommands/obj/gen/Sources/ARCOMMANDS_Decoder.c.o
                0x0000000000052b80                ARCOMMANDS_Decoder_SetARDrone3SettingsStateMotorSoftwareVersionChangedCallback
 *fill*         0x0000000000052bcc        0x4 
 .text.ARCOMMANDS_Decoder_SetARDrone3SettingsStateMotorFlightsStatusChangedCb
                0x0000000000052bd0       0x3d /home/sunho/bebop_ws/devel/arsdk/out/arsdk-native/build/libARCommands/obj/gen/Sources/ARCOMMANDS_Decoder.c.o
                0x0000000000052bd0                ARCOMMANDS_Decoder_SetARDrone3SettingsStateMotorFlightsStatusChangedCb
 *fill*         0x0000000000052c0d        0x3 
 .text.ARCOMMANDS_Decoder_SetARDrone3SettingsStateMotorFlightsStatusChangedCallback
                0x0000000000052c10       0x4c /home/sunho/bebop_ws/devel/arsdk/out/arsdk-native/build/libARCommands/obj/gen/Sources/ARCOMMANDS_Decoder.c.o
                0x0000000000052c10                ARCOMMANDS_Decoder_SetARDrone3SettingsStateMotorFlightsStatusChangedCallback
 *fill*         0x0000000000052c5c        0x4 
 .text.ARCOMMANDS_Decoder_SetARDrone3SettingsStateMotorErrorLastErrorChangedCb
                0x0000000000052c60       0x3d /home/sunho/bebop_ws/devel/arsdk/out/arsdk-native/build/libARCommands/obj/gen/Sources/ARCOMMANDS_Decoder.c.o
                0x0000000000052c60                ARCOMMANDS_Decoder_SetARDrone3SettingsStateMotorErrorLastErrorChangedCb
 *fill*         0x0000000000052c9d        0x3 
 .text.ARCOMMANDS_Decoder_SetARDrone3SettingsStateMotorErrorLastErrorChangedCallback
                0x0000000000052ca0       0x4c /home/sunho/bebop_ws/devel/arsdk/out/arsdk-native/build/libARCommands/obj/gen/Sources/ARCOMMANDS_Decoder.c.o
                0x0000000000052ca0                ARCOMMANDS_Decoder_SetARDrone3SettingsStateMotorErrorLastErrorChangedCallback
 *fill*         0x0000000000052cec        0x4 
 .text.ARCOMMANDS_Decoder_SetARDrone3SettingsStateP7IDCb
                0x0000000000052cf0       0x3d /home/sunho/bebop_ws/devel/arsdk/out/arsdk-native/build/libARCommands/obj/gen/Sources/ARCOMMANDS_Decoder.c.o
                0x0000000000052cf0                ARCOMMANDS_Decoder_SetARDrone3SettingsStateP7IDCb
 *fill*         0x0000000000052d2d        0x3 
 .text.ARCOMMANDS_Decoder_SetARDrone3SettingsStateP7IDCallback
                0x0000000000052d30       0x4c /home/sunho/bebop_ws/devel/arsdk/out/arsdk-native/build/libARCommands/obj/gen/Sources/ARCOMMANDS_Decoder.c.o
                0x0000000000052d30                ARCOMMANDS_Decoder_SetARDrone3SettingsStateP7IDCallback
 *fill*         0x0000000000052d7c        0x4 
 .text.ARCOMMANDS_Decoder_SetARDrone3SettingsStateCPUIDCb
                0x0000000000052d80       0x3d /home/sunho/bebop_ws/devel/arsdk/out/arsdk-native/build/libARCommands/obj/gen/Sources/ARCOMMANDS_Decoder.c.o
                0x0000000000052d80                ARCOMMANDS_Decoder_SetARDrone3SettingsStateCPUIDCb
 *fill*         0x0000000000052dbd        0x3 
 .text.ARCOMMANDS_Decoder_SetARDrone3SettingsStateCPUIDCallback
                0x0000000000052dc0       0x4c /home/sunho/bebop_ws/devel/arsdk/out/arsdk-native/build/libARCommands/obj/gen/Sources/ARCOMMANDS_Decoder.c.o
                0x0000000000052dc0                ARCOMMANDS_Decoder_SetARDrone3SettingsStateCPUIDCallback
 *fill*         0x0000000000052e0c        0x4 
 .text.ARCOMMANDS_Decoder_SetARDrone3PictureSettingsStatePictureFormatChangedCb
                0x0000000000052e10       0x3d /home/sunho/bebop_ws/devel/arsdk/out/arsdk-native/build/libARCommands/obj/gen/Sources/ARCOMMANDS_Decoder.c.o
                0x0000000000052e10                ARCOMMANDS_Decoder_SetARDrone3PictureSettingsStatePictureFormatChangedCb
 *fill*         0x0000000000052e4d        0x3 
 .text.ARCOMMANDS_Decoder_SetARDrone3PictureSettingsStatePictureFormatChangedCallback
                0x0000000000052e50       0x4c /home/sunho/bebop_ws/devel/arsdk/out/arsdk-native/build/libARCommands/obj/gen/Sources/ARCOMMANDS_Decoder.c.o
                0x0000000000052e50                ARCOMMANDS_Decoder_SetARDrone3PictureSettingsStatePictureFormatChangedCallback
 *fill*         0x0000000000052e9c        0x4 
 .text.ARCOMMANDS_Decoder_SetARDrone3PictureSettingsStateAutoWhiteBalanceChangedCb
                0x0000000000052ea0       0x3d /home/sunho/bebop_ws/devel/arsdk/out/arsdk-native/build/libARCommands/obj/gen/Sources/ARCOMMANDS_Decoder.c.o
                0x0000000000052ea0                ARCOMMANDS_Decoder_SetARDrone3PictureSettingsStateAutoWhiteBalanceChangedCb
 *fill*         0x0000000000052edd        0x3 
 .text.ARCOMMANDS_Decoder_SetARDrone3PictureSettingsStateAutoWhiteBalanceChangedCallback
                0x0000000000052ee0       0x4c /home/sunho/bebop_ws/devel/arsdk/out/arsdk-native/build/libARCommands/obj/gen/Sources/ARCOMMANDS_Decoder.c.o
                0x0000000000052ee0                ARCOMMANDS_Decoder_SetARDrone3PictureSettingsStateAutoWhiteBalanceChangedCallback
 *fill*         0x0000000000052f2c        0x4 
 .text.ARCOMMANDS_Decoder_SetARDrone3PictureSettingsStateExpositionChangedCb
                0x0000000000052f30       0x3d /home/sunho/bebop_ws/devel/arsdk/out/arsdk-native/build/libARCommands/obj/gen/Sources/ARCOMMANDS_Decoder.c.o
                0x0000000000052f30                ARCOMMANDS_Decoder_SetARDrone3PictureSettingsStateExpositionChangedCb
 *fill*         0x0000000000052f6d        0x3 
 .text.ARCOMMANDS_Decoder_SetARDrone3PictureSettingsStateExpositionChangedCallback
                0x0000000000052f70       0x4c /home/sunho/bebop_ws/devel/arsdk/out/arsdk-native/build/libARCommands/obj/gen/Sources/ARCOMMANDS_Decoder.c.o
                0x0000000000052f70                ARCOMMANDS_Decoder_SetARDrone3PictureSettingsStateExpositionChangedCallback
 *fill*         0x0000000000052fbc        0x4 
 .text.ARCOMMANDS_Decoder_SetARDrone3PictureSettingsStateSaturationChangedCb
                0x0000000000052fc0       0x3d /home/sunho/bebop_ws/devel/arsdk/out/arsdk-native/build/libARCommands/obj/gen/Sources/ARCOMMANDS_Decoder.c.o
                0x0000000000052fc0                ARCOMMANDS_Decoder_SetARDrone3PictureSettingsStateSaturationChangedCb
 *fill*         0x0000000000052ffd        0x3 
 .text.ARCOMMANDS_Decoder_SetARDrone3PictureSettingsStateSaturationChangedCallback
                0x0000000000053000       0x4c /home/sunho/bebop_ws/devel/arsdk/out/arsdk-native/build/libARCommands/obj/gen/Sources/ARCOMMANDS_Decoder.c.o
                0x0000000000053000                ARCOMMANDS_Decoder_SetARDrone3PictureSettingsStateSaturationChangedCallback
 *fill*         0x000000000005304c        0x4 
 .text.ARCOMMANDS_Decoder_SetARDrone3PictureSettingsStateTimelapseChangedCb
                0x0000000000053050       0x3d /home/sunho/bebop_ws/devel/arsdk/out/arsdk-native/build/libARCommands/obj/gen/Sources/ARCOMMANDS_Decoder.c.o
                0x0000000000053050                ARCOMMANDS_Decoder_SetARDrone3PictureSettingsStateTimelapseChangedCb
 *fill*         0x000000000005308d        0x3 
 .text.ARCOMMANDS_Decoder_SetARDrone3PictureSettingsStateTimelapseChangedCallback
                0x0000000000053090       0x4c /home/sunho/bebop_ws/devel/arsdk/out/arsdk-native/build/libARCommands/obj/gen/Sources/ARCOMMANDS_Decoder.c.o
                0x0000000000053090                ARCOMMANDS_Decoder_SetARDrone3PictureSettingsStateTimelapseChangedCallback
 *fill*         0x00000000000530dc        0x4 
 .text.ARCOMMANDS_Decoder_SetARDrone3PictureSettingsStateVideoAutorecordChangedCb
                0x00000000000530e0       0x3d /home/sunho/bebop_ws/devel/arsdk/out/arsdk-native/build/libARCommands/obj/gen/Sources/ARCOMMANDS_Decoder.c.o
                0x00000000000530e0                ARCOMMANDS_Decoder_SetARDrone3PictureSettingsStateVideoAutorecordChangedCb
 *fill*         0x000000000005311d        0x3 
 .text.ARCOMMANDS_Decoder_SetARDrone3PictureSettingsStateVideoAutorecordChangedCallback
                0x0000000000053120       0x4c /home/sunho/bebop_ws/devel/arsdk/out/arsdk-native/build/libARCommands/obj/gen/Sources/ARCOMMANDS_Decoder.c.o
                0x0000000000053120                ARCOMMANDS_Decoder_SetARDrone3PictureSettingsStateVideoAutorecordChangedCallback
 *fill*         0x000000000005316c        0x4 
 .text.ARCOMMANDS_Decoder_SetARDrone3PictureSettingsStateVideoStabilizationModeChangedCb
                0x0000000000053170       0x3d /home/sunho/bebop_ws/devel/arsdk/out/arsdk-native/build/libARCommands/obj/gen/Sources/ARCOMMANDS_Decoder.c.o
                0x0000000000053170                ARCOMMANDS_Decoder_SetARDrone3PictureSettingsStateVideoStabilizationModeChangedCb
 *fill*         0x00000000000531ad        0x3 
 .text.ARCOMMANDS_Decoder_SetARDrone3PictureSettingsStateVideoStabilizationModeChangedCallback
                0x00000000000531b0       0x4c /home/sunho/bebop_ws/devel/arsdk/out/arsdk-native/build/libARCommands/obj/gen/Sources/ARCOMMANDS_Decoder.c.o
                0x00000000000531b0                ARCOMMANDS_Decoder_SetARDrone3PictureSettingsStateVideoStabilizationModeChangedCallback
 *fill*         0x00000000000531fc        0x4 
 .text.ARCOMMANDS_Decoder_SetARDrone3PictureSettingsStateVideoRecordingModeChangedCb
                0x0000000000053200       0x3d /home/sunho/bebop_ws/devel/arsdk/out/arsdk-native/build/libARCommands/obj/gen/Sources/ARCOMMANDS_Decoder.c.o
                0x0000000000053200                ARCOMMANDS_Decoder_SetARDrone3PictureSettingsStateVideoRecordingModeChangedCb
 *fill*         0x000000000005323d        0x3 
 .text.ARCOMMANDS_Decoder_SetARDrone3PictureSettingsStateVideoRecordingModeChangedCallback
                0x0000000000053240       0x4c /home/sunho/bebop_ws/devel/arsdk/out/arsdk-native/build/libARCommands/obj/gen/Sources/ARCOMMANDS_Decoder.c.o
                0x0000000000053240                ARCOMMANDS_Decoder_SetARDrone3PictureSettingsStateVideoRecordingModeChangedCallback
 *fill*         0x000000000005328c        0x4 
 .text.ARCOMMANDS_Decoder_SetARDrone3PictureSettingsStateVideoFramerateChangedCb
                0x0000000000053290       0x3d /home/sunho/bebop_ws/devel/arsdk/out/arsdk-native/build/libARCommands/obj/gen/Sources/ARCOMMANDS_Decoder.c.o
                0x0000000000053290                ARCOMMANDS_Decoder_SetARDrone3PictureSettingsStateVideoFramerateChangedCb
 *fill*         0x00000000000532cd        0x3 
 .text.ARCOMMANDS_Decoder_SetARDrone3PictureSettingsStateVideoFramerateChangedCallback
                0x00000000000532d0       0x4c /home/sunho/bebop_ws/devel/arsdk/out/arsdk-native/build/libARCommands/obj/gen/Sources/ARCOMMANDS_Decoder.c.o
                0x00000000000532d0                ARCOMMANDS_Decoder_SetARDrone3PictureSettingsStateVideoFramerateChangedCallback
 *fill*         0x000000000005331c        0x4 
 .text.ARCOMMANDS_Decoder_SetARDrone3PictureSettingsStateVideoResolutionsChangedCb
                0x0000000000053320       0x3d /home/sunho/bebop_ws/devel/arsdk/out/arsdk-native/build/libARCommands/obj/gen/Sources/ARCOMMANDS_Decoder.c.o
                0x0000000000053320                ARCOMMANDS_Decoder_SetARDrone3PictureSettingsStateVideoResolutionsChangedCb
 *fill*         0x000000000005335d        0x3 
 .text.ARCOMMANDS_Decoder_SetARDrone3PictureSettingsStateVideoResolutionsChangedCallback
                0x0000000000053360       0x4c /home/sunho/bebop_ws/devel/arsdk/out/arsdk-native/build/libARCommands/obj/gen/Sources/ARCOMMANDS_Decoder.c.o
                0x0000000000053360                ARCOMMANDS_Decoder_SetARDrone3PictureSettingsStateVideoResolutionsChangedCallback
 *fill*         0x00000000000533ac        0x4 
 .text.ARCOMMANDS_Decoder_SetARDrone3MediaStreamingStateVideoEnableChangedCb
                0x00000000000533b0       0x3d /home/sunho/bebop_ws/devel/arsdk/out/arsdk-native/build/libARCommands/obj/gen/Sources/ARCOMMANDS_Decoder.c.o
                0x00000000000533b0                ARCOMMANDS_Decoder_SetARDrone3MediaStreamingStateVideoEnableChangedCb
 *fill*         0x00000000000533ed        0x3 
 .text.ARCOMMANDS_Decoder_SetARDrone3MediaStreamingStateVideoEnableChangedCallback
                0x00000000000533f0       0x4c /home/sunho/bebop_ws/devel/arsdk/out/arsdk-native/build/libARCommands/obj/gen/Sources/ARCOMMANDS_Decoder.c.o
                0x00000000000533f0                ARCOMMANDS_Decoder_SetARDrone3MediaStreamingStateVideoEnableChangedCallback
 *fill*         0x000000000005343c        0x4 
 .text.ARCOMMANDS_Decoder_SetARDrone3MediaStreamingStateVideoStreamModeChangedCb
                0x0000000000053440       0x3d /home/sunho/bebop_ws/devel/arsdk/out/arsdk-native/build/libARCommands/obj/gen/Sources/ARCOMMANDS_Decoder.c.o
                0x0000000000053440                ARCOMMANDS_Decoder_SetARDrone3MediaStreamingStateVideoStreamModeChangedCb
 *fill*         0x000000000005347d        0x3 
 .text.ARCOMMANDS_Decoder_SetARDrone3MediaStreamingStateVideoStreamModeChangedCallback
                0x0000000000053480       0x4c /home/sunho/bebop_ws/devel/arsdk/out/arsdk-native/build/libARCommands/obj/gen/Sources/ARCOMMANDS_Decoder.c.o
                0x0000000000053480                ARCOMMANDS_Decoder_SetARDrone3MediaStreamingStateVideoStreamModeChangedCallback
 *fill*         0x00000000000534cc        0x4 
 .text.ARCOMMANDS_Decoder_SetARDrone3GPSSettingsStateHomeChangedCb
                0x00000000000534d0       0x3d /home/sunho/bebop_ws/devel/arsdk/out/arsdk-native/build/libARCommands/obj/gen/Sources/ARCOMMANDS_Decoder.c.o
                0x00000000000534d0                ARCOMMANDS_Decoder_SetARDrone3GPSSettingsStateHomeChangedCb
 *fill*         0x000000000005350d        0x3 
 .text.ARCOMMANDS_Decoder_SetARDrone3GPSSettingsStateHomeChangedCallback
                0x0000000000053510       0x4c /home/sunho/bebop_ws/devel/arsdk/out/arsdk-native/build/libARCommands/obj/gen/Sources/ARCOMMANDS_Decoder.c.o
                0x0000000000053510                ARCOMMANDS_Decoder_SetARDrone3GPSSettingsStateHomeChangedCallback
 *fill*         0x000000000005355c        0x4 
 .text.ARCOMMANDS_Decoder_SetARDrone3GPSSettingsStateResetHomeChangedCb
                0x0000000000053560       0x3d /home/sunho/bebop_ws/devel/arsdk/out/arsdk-native/build/libARCommands/obj/gen/Sources/ARCOMMANDS_Decoder.c.o
                0x0000000000053560                ARCOMMANDS_Decoder_SetARDrone3GPSSettingsStateResetHomeChangedCb
 *fill*         0x000000000005359d        0x3 
 .text.ARCOMMANDS_Decoder_SetARDrone3GPSSettingsStateResetHomeChangedCallback
                0x00000000000535a0       0x4c /home/sunho/bebop_ws/devel/arsdk/out/arsdk-native/build/libARCommands/obj/gen/Sources/ARCOMMANDS_Decoder.c.o
                0x00000000000535a0                ARCOMMANDS_Decoder_SetARDrone3GPSSettingsStateResetHomeChangedCallback
 *fill*         0x00000000000535ec        0x4 
 .text.ARCOMMANDS_Decoder_SetARDrone3GPSSettingsStateGPSFixStateChangedCb
                0x00000000000535f0       0x3d /home/sunho/bebop_ws/devel/arsdk/out/arsdk-native/build/libARCommands/obj/gen/Sources/ARCOMMANDS_Decoder.c.o
                0x00000000000535f0                ARCOMMANDS_Decoder_SetARDrone3GPSSettingsStateGPSFixStateChangedCb
 *fill*         0x000000000005362d        0x3 
 .text.ARCOMMANDS_Decoder_SetARDrone3GPSSettingsStateGPSFixStateChangedCallback
                0x0000000000053630       0x4c /home/sunho/bebop_ws/devel/arsdk/out/arsdk-native/build/libARCommands/obj/gen/Sources/ARCOMMANDS_Decoder.c.o
                0x0000000000053630                ARCOMMANDS_Decoder_SetARDrone3GPSSettingsStateGPSFixStateChangedCallback
 *fill*         0x000000000005367c        0x4 
 .text.ARCOMMANDS_Decoder_SetARDrone3GPSSettingsStateGPSUpdateStateChangedCb
                0x0000000000053680       0x3d /home/sunho/bebop_ws/devel/arsdk/out/arsdk-native/build/libARCommands/obj/gen/Sources/ARCOMMANDS_Decoder.c.o
                0x0000000000053680                ARCOMMANDS_Decoder_SetARDrone3GPSSettingsStateGPSUpdateStateChangedCb
 *fill*         0x00000000000536bd        0x3 
 .text.ARCOMMANDS_Decoder_SetARDrone3GPSSettingsStateGPSUpdateStateChangedCallback
                0x00000000000536c0       0x4c /home/sunho/bebop_ws/devel/arsdk/out/arsdk-native/build/libARCommands/obj/gen/Sources/ARCOMMANDS_Decoder.c.o
                0x00000000000536c0                ARCOMMANDS_Decoder_SetARDrone3GPSSettingsStateGPSUpdateStateChangedCallback
 *fill*         0x000000000005370c        0x4 
 .text.ARCOMMANDS_Decoder_SetARDrone3GPSSettingsStateHomeTypeChangedCb
                0x0000000000053710       0x3d /home/sunho/bebop_ws/devel/arsdk/out/arsdk-native/build/libARCommands/obj/gen/Sources/ARCOMMANDS_Decoder.c.o
                0x0000000000053710                ARCOMMANDS_Decoder_SetARDrone3GPSSettingsStateHomeTypeChangedCb
 *fill*         0x000000000005374d        0x3 
 .text.ARCOMMANDS_Decoder_SetARDrone3GPSSettingsStateHomeTypeChangedCallback
                0x0000000000053750       0x4c /home/sunho/bebop_ws/devel/arsdk/out/arsdk-native/build/libARCommands/obj/gen/Sources/ARCOMMANDS_Decoder.c.o
                0x0000000000053750                ARCOMMANDS_Decoder_SetARDrone3GPSSettingsStateHomeTypeChangedCallback
 *fill*         0x000000000005379c        0x4 
 .text.ARCOMMANDS_Decoder_SetARDrone3GPSSettingsStateReturnHomeDelayChangedCb
                0x00000000000537a0       0x3d /home/sunho/bebop_ws/devel/arsdk/out/arsdk-native/build/libARCommands/obj/gen/Sources/ARCOMMANDS_Decoder.c.o
                0x00000000000537a0                ARCOMMANDS_Decoder_SetARDrone3GPSSettingsStateReturnHomeDelayChangedCb
 *fill*         0x00000000000537dd        0x3 
 .text.ARCOMMANDS_Decoder_SetARDrone3GPSSettingsStateReturnHomeDelayChangedCallback
                0x00000000000537e0       0x4c /home/sunho/bebop_ws/devel/arsdk/out/arsdk-native/build/libARCommands/obj/gen/Sources/ARCOMMANDS_Decoder.c.o
                0x00000000000537e0                ARCOMMANDS_Decoder_SetARDrone3GPSSettingsStateReturnHomeDelayChangedCallback
 *fill*         0x000000000005382c        0x4 
 .text.ARCOMMANDS_Decoder_SetARDrone3CameraStateOrientationCb
                0x0000000000053830       0x3d /home/sunho/bebop_ws/devel/arsdk/out/arsdk-native/build/libARCommands/obj/gen/Sources/ARCOMMANDS_Decoder.c.o
                0x0000000000053830                ARCOMMANDS_Decoder_SetARDrone3CameraStateOrientationCb
 *fill*         0x000000000005386d        0x3 
 .text.ARCOMMANDS_Decoder_SetARDrone3CameraStateOrientationCallback
                0x0000000000053870       0x4c /home/sunho/bebop_ws/devel/arsdk/out/arsdk-native/build/libARCommands/obj/gen/Sources/ARCOMMANDS_Decoder.c.o
                0x0000000000053870                ARCOMMANDS_Decoder_SetARDrone3CameraStateOrientationCallback
 *fill*         0x00000000000538bc        0x4 
 .text.ARCOMMANDS_Decoder_SetARDrone3CameraStateDefaultCameraOrientationCb
                0x00000000000538c0       0x3d /home/sunho/bebop_ws/devel/arsdk/out/arsdk-native/build/libARCommands/obj/gen/Sources/ARCOMMANDS_Decoder.c.o
                0x00000000000538c0                ARCOMMANDS_Decoder_SetARDrone3CameraStateDefaultCameraOrientationCb
 *fill*         0x00000000000538fd        0x3 
 .text.ARCOMMANDS_Decoder_SetARDrone3CameraStateDefaultCameraOrientationCallback
                0x0000000000053900       0x4c /home/sunho/bebop_ws/devel/arsdk/out/arsdk-native/build/libARCommands/obj/gen/Sources/ARCOMMANDS_Decoder.c.o
                0x0000000000053900                ARCOMMANDS_Decoder_SetARDrone3CameraStateDefaultCameraOrientationCallback
 *fill*         0x000000000005394c        0x4 
 .text.ARCOMMANDS_Decoder_SetARDrone3AntiflickeringStateElectricFrequencyChangedCb
                0x0000000000053950       0x3d /home/sunho/bebop_ws/devel/arsdk/out/arsdk-native/build/libARCommands/obj/gen/Sources/ARCOMMANDS_Decoder.c.o
                0x0000000000053950                ARCOMMANDS_Decoder_SetARDrone3AntiflickeringStateElectricFrequencyChangedCb
 *fill*         0x000000000005398d        0x3 
 .text.ARCOMMANDS_Decoder_SetARDrone3AntiflickeringStateElectricFrequencyChangedCallback
                0x0000000000053990       0x4c /home/sunho/bebop_ws/devel/arsdk/out/arsdk-native/build/libARCommands/obj/gen/Sources/ARCOMMANDS_Decoder.c.o
                0x0000000000053990                ARCOMMANDS_Decoder_SetARDrone3AntiflickeringStateElectricFrequencyChangedCallback
 *fill*         0x00000000000539dc        0x4 
 .text.ARCOMMANDS_Decoder_SetARDrone3AntiflickeringStateModeChangedCb
                0x00000000000539e0       0x3d /home/sunho/bebop_ws/devel/arsdk/out/arsdk-native/build/libARCommands/obj/gen/Sources/ARCOMMANDS_Decoder.c.o
                0x00000000000539e0                ARCOMMANDS_Decoder_SetARDrone3AntiflickeringStateModeChangedCb
 *fill*         0x0000000000053a1d        0x3 
 .text.ARCOMMANDS_Decoder_SetARDrone3AntiflickeringStateModeChangedCallback
                0x0000000000053a20       0x4c /home/sunho/bebop_ws/devel/arsdk/out/arsdk-native/build/libARCommands/obj/gen/Sources/ARCOMMANDS_Decoder.c.o
                0x0000000000053a20                ARCOMMANDS_Decoder_SetARDrone3AntiflickeringStateModeChangedCallback
 *fill*         0x0000000000053a6c        0x4 
 .text.ARCOMMANDS_Decoder_SetARDrone3GPSStateNumberOfSatelliteChangedCb
                0x0000000000053a70       0x3d /home/sunho/bebop_ws/devel/arsdk/out/arsdk-native/build/libARCommands/obj/gen/Sources/ARCOMMANDS_Decoder.c.o
                0x0000000000053a70                ARCOMMANDS_Decoder_SetARDrone3GPSStateNumberOfSatelliteChangedCb
 *fill*         0x0000000000053aad        0x3 
 .text.ARCOMMANDS_Decoder_SetARDrone3GPSStateNumberOfSatelliteChangedCallback
                0x0000000000053ab0       0x4c /home/sunho/bebop_ws/devel/arsdk/out/arsdk-native/build/libARCommands/obj/gen/Sources/ARCOMMANDS_Decoder.c.o
                0x0000000000053ab0                ARCOMMANDS_Decoder_SetARDrone3GPSStateNumberOfSatelliteChangedCallback
 *fill*         0x0000000000053afc        0x4 
 .text.ARCOMMANDS_Decoder_SetARDrone3GPSStateHomeTypeAvailabilityChangedCb
                0x0000000000053b00       0x3d /home/sunho/bebop_ws/devel/arsdk/out/arsdk-native/build/libARCommands/obj/gen/Sources/ARCOMMANDS_Decoder.c.o
                0x0000000000053b00                ARCOMMANDS_Decoder_SetARDrone3GPSStateHomeTypeAvailabilityChangedCb
 *fill*         0x0000000000053b3d        0x3 
 .text.ARCOMMANDS_Decoder_SetARDrone3GPSStateHomeTypeAvailabilityChangedCallback
                0x0000000000053b40       0x4c /home/sunho/bebop_ws/devel/arsdk/out/arsdk-native/build/libARCommands/obj/gen/Sources/ARCOMMANDS_Decoder.c.o
                0x0000000000053b40                ARCOMMANDS_Decoder_SetARDrone3GPSStateHomeTypeAvailabilityChangedCallback
 *fill*         0x0000000000053b8c        0x4 
 .text.ARCOMMANDS_Decoder_SetARDrone3GPSStateHomeTypeChosenChangedCb
                0x0000000000053b90       0x3d /home/sunho/bebop_ws/devel/arsdk/out/arsdk-native/build/libARCommands/obj/gen/Sources/ARCOMMANDS_Decoder.c.o
                0x0000000000053b90                ARCOMMANDS_Decoder_SetARDrone3GPSStateHomeTypeChosenChangedCb
 *fill*         0x0000000000053bcd        0x3 
 .text.ARCOMMANDS_Decoder_SetARDrone3GPSStateHomeTypeChosenChangedCallback
                0x0000000000053bd0       0x4c /home/sunho/bebop_ws/devel/arsdk/out/arsdk-native/build/libARCommands/obj/gen/Sources/ARCOMMANDS_Decoder.c.o
                0x0000000000053bd0                ARCOMMANDS_Decoder_SetARDrone3GPSStateHomeTypeChosenChangedCallback
 *fill*         0x0000000000053c1c        0x4 
 .text.ARCOMMANDS_Decoder_SetARDrone3PROStateFeaturesCb
                0x0000000000053c20       0x3d /home/sunho/bebop_ws/devel/arsdk/out/arsdk-native/build/libARCommands/obj/gen/Sources/ARCOMMANDS_Decoder.c.o
                0x0000000000053c20                ARCOMMANDS_Decoder_SetARDrone3PROStateFeaturesCb
 *fill*         0x0000000000053c5d        0x3 
 .text.ARCOMMANDS_Decoder_SetARDrone3PROStateFeaturesCallback
                0x0000000000053c60       0x4c /home/sunho/bebop_ws/devel/arsdk/out/arsdk-native/build/libARCommands/obj/gen/Sources/ARCOMMANDS_Decoder.c.o
                0x0000000000053c60                ARCOMMANDS_Decoder_SetARDrone3PROStateFeaturesCallback
 *fill*         0x0000000000053cac        0x4 
 .text.ARCOMMANDS_Decoder_SetCommonNetworkDisconnectCb
                0x0000000000053cb0       0x3d /home/sunho/bebop_ws/devel/arsdk/out/arsdk-native/build/libARCommands/obj/gen/Sources/ARCOMMANDS_Decoder.c.o
                0x0000000000053cb0                ARCOMMANDS_Decoder_SetCommonNetworkDisconnectCb
 *fill*         0x0000000000053ced        0x3 
 .text.ARCOMMANDS_Decoder_SetCommonNetworkDisconnectCallback
                0x0000000000053cf0       0x4c /home/sunho/bebop_ws/devel/arsdk/out/arsdk-native/build/libARCommands/obj/gen/Sources/ARCOMMANDS_Decoder.c.o
                0x0000000000053cf0                ARCOMMANDS_Decoder_SetCommonNetworkDisconnectCallback
 *fill*         0x0000000000053d3c        0x4 
 .text.ARCOMMANDS_Decoder_SetCommonSettingsAllSettingsCb
                0x0000000000053d40       0x3d /home/sunho/bebop_ws/devel/arsdk/out/arsdk-native/build/libARCommands/obj/gen/Sources/ARCOMMANDS_Decoder.c.o
                0x0000000000053d40                ARCOMMANDS_Decoder_SetCommonSettingsAllSettingsCb
 *fill*         0x0000000000053d7d        0x3 
 .text.ARCOMMANDS_Decoder_SetCommonSettingsAllSettingsCallback
                0x0000000000053d80       0x4c /home/sunho/bebop_ws/devel/arsdk/out/arsdk-native/build/libARCommands/obj/gen/Sources/ARCOMMANDS_Decoder.c.o
                0x0000000000053d80                ARCOMMANDS_Decoder_SetCommonSettingsAllSettingsCallback
 *fill*         0x0000000000053dcc        0x4 
 .text.ARCOMMANDS_Decoder_SetCommonSettingsResetCb
                0x0000000000053dd0       0x3d /home/sunho/bebop_ws/devel/arsdk/out/arsdk-native/build/libARCommands/obj/gen/Sources/ARCOMMANDS_Decoder.c.o
                0x0000000000053dd0                ARCOMMANDS_Decoder_SetCommonSettingsResetCb
 *fill*         0x0000000000053e0d        0x3 
 .text.ARCOMMANDS_Decoder_SetCommonSettingsResetCallback
                0x0000000000053e10       0x4c /home/sunho/bebop_ws/devel/arsdk/out/arsdk-native/build/libARCommands/obj/gen/Sources/ARCOMMANDS_Decoder.c.o
                0x0000000000053e10                ARCOMMANDS_Decoder_SetCommonSettingsResetCallback
 *fill*         0x0000000000053e5c        0x4 
 .text.ARCOMMANDS_Decoder_SetCommonSettingsProductNameCb
                0x0000000000053e60       0x3d /home/sunho/bebop_ws/devel/arsdk/out/arsdk-native/build/libARCommands/obj/gen/Sources/ARCOMMANDS_Decoder.c.o
                0x0000000000053e60                ARCOMMANDS_Decoder_SetCommonSettingsProductNameCb
 *fill*         0x0000000000053e9d        0x3 
 .text.ARCOMMANDS_Decoder_SetCommonSettingsProductNameCallback
                0x0000000000053ea0       0x4c /home/sunho/bebop_ws/devel/arsdk/out/arsdk-native/build/libARCommands/obj/gen/Sources/ARCOMMANDS_Decoder.c.o
                0x0000000000053ea0                ARCOMMANDS_Decoder_SetCommonSettingsProductNameCallback
 *fill*         0x0000000000053eec        0x4 
 .text.ARCOMMANDS_Decoder_SetCommonSettingsCountryCb
                0x0000000000053ef0       0x3d /home/sunho/bebop_ws/devel/arsdk/out/arsdk-native/build/libARCommands/obj/gen/Sources/ARCOMMANDS_Decoder.c.o
                0x0000000000053ef0                ARCOMMANDS_Decoder_SetCommonSettingsCountryCb
 *fill*         0x0000000000053f2d        0x3 
 .text.ARCOMMANDS_Decoder_SetCommonSettingsCountryCallback
                0x0000000000053f30       0x4c /home/sunho/bebop_ws/devel/arsdk/out/arsdk-native/build/libARCommands/obj/gen/Sources/ARCOMMANDS_Decoder.c.o
                0x0000000000053f30                ARCOMMANDS_Decoder_SetCommonSettingsCountryCallback
 *fill*         0x0000000000053f7c        0x4 
 .text.ARCOMMANDS_Decoder_SetCommonSettingsAutoCountryCb
                0x0000000000053f80       0x3d /home/sunho/bebop_ws/devel/arsdk/out/arsdk-native/build/libARCommands/obj/gen/Sources/ARCOMMANDS_Decoder.c.o
                0x0000000000053f80                ARCOMMANDS_Decoder_SetCommonSettingsAutoCountryCb
 *fill*         0x0000000000053fbd        0x3 
 .text.ARCOMMANDS_Decoder_SetCommonSettingsAutoCountryCallback
                0x0000000000053fc0       0x4c /home/sunho/bebop_ws/devel/arsdk/out/arsdk-native/build/libARCommands/obj/gen/Sources/ARCOMMANDS_Decoder.c.o
                0x0000000000053fc0                ARCOMMANDS_Decoder_SetCommonSettingsAutoCountryCallback
 *fill*         0x000000000005400c        0x4 
 .text.ARCOMMANDS_Decoder_SetCommonCommonAllStatesCb
                0x0000000000054010       0x3d /home/sunho/bebop_ws/devel/arsdk/out/arsdk-native/build/libARCommands/obj/gen/Sources/ARCOMMANDS_Decoder.c.o
                0x0000000000054010                ARCOMMANDS_Decoder_SetCommonCommonAllStatesCb
 *fill*         0x000000000005404d        0x3 
 .text.ARCOMMANDS_Decoder_SetCommonCommonAllStatesCallback
                0x0000000000054050       0x4c /home/sunho/bebop_ws/devel/arsdk/out/arsdk-native/build/libARCommands/obj/gen/Sources/ARCOMMANDS_Decoder.c.o
                0x0000000000054050                ARCOMMANDS_Decoder_SetCommonCommonAllStatesCallback
 *fill*         0x000000000005409c        0x4 
 .text.ARCOMMANDS_Decoder_SetCommonCommonCurrentDateCb
                0x00000000000540a0       0x3d /home/sunho/bebop_ws/devel/arsdk/out/arsdk-native/build/libARCommands/obj/gen/Sources/ARCOMMANDS_Decoder.c.o
                0x00000000000540a0                ARCOMMANDS_Decoder_SetCommonCommonCurrentDateCb
 *fill*         0x00000000000540dd        0x3 
 .text.ARCOMMANDS_Decoder_SetCommonCommonCurrentDateCallback
                0x00000000000540e0       0x4c /home/sunho/bebop_ws/devel/arsdk/out/arsdk-native/build/libARCommands/obj/gen/Sources/ARCOMMANDS_Decoder.c.o
                0x00000000000540e0                ARCOMMANDS_Decoder_SetCommonCommonCurrentDateCallback
 *fill*         0x000000000005412c        0x4 
 .text.ARCOMMANDS_Decoder_SetCommonCommonCurrentTimeCb
                0x0000000000054130       0x3d /home/sunho/bebop_ws/devel/arsdk/out/arsdk-native/build/libARCommands/obj/gen/Sources/ARCOMMANDS_Decoder.c.o
                0x0000000000054130                ARCOMMANDS_Decoder_SetCommonCommonCurrentTimeCb
 *fill*         0x000000000005416d        0x3 
 .text.ARCOMMANDS_Decoder_SetCommonCommonCurrentTimeCallback
                0x0000000000054170       0x4c /home/sunho/bebop_ws/devel/arsdk/out/arsdk-native/build/libARCommands/obj/gen/Sources/ARCOMMANDS_Decoder.c.o
                0x0000000000054170                ARCOMMANDS_Decoder_SetCommonCommonCurrentTimeCallback
 *fill*         0x00000000000541bc        0x4 
 .text.ARCOMMANDS_Decoder_SetCommonCommonRebootCb
                0x00000000000541c0       0x3d /home/sunho/bebop_ws/devel/arsdk/out/arsdk-native/build/libARCommands/obj/gen/Sources/ARCOMMANDS_Decoder.c.o
                0x00000000000541c0                ARCOMMANDS_Decoder_SetCommonCommonRebootCb
 *fill*         0x00000000000541fd        0x3 
 .text.ARCOMMANDS_Decoder_SetCommonCommonRebootCallback
                0x0000000000054200       0x4c /home/sunho/bebop_ws/devel/arsdk/out/arsdk-native/build/libARCommands/obj/gen/Sources/ARCOMMANDS_Decoder.c.o
                0x0000000000054200                ARCOMMANDS_Decoder_SetCommonCommonRebootCallback
 *fill*         0x000000000005424c        0x4 
 .text.ARCOMMANDS_Decoder_SetCommonOverHeatSwitchOffCb
                0x0000000000054250       0x3d /home/sunho/bebop_ws/devel/arsdk/out/arsdk-native/build/libARCommands/obj/gen/Sources/ARCOMMANDS_Decoder.c.o
                0x0000000000054250                ARCOMMANDS_Decoder_SetCommonOverHeatSwitchOffCb
 *fill*         0x000000000005428d        0x3 
 .text.ARCOMMANDS_Decoder_SetCommonOverHeatSwitchOffCallback
                0x0000000000054290       0x4c /home/sunho/bebop_ws/devel/arsdk/out/arsdk-native/build/libARCommands/obj/gen/Sources/ARCOMMANDS_Decoder.c.o
                0x0000000000054290                ARCOMMANDS_Decoder_SetCommonOverHeatSwitchOffCallback
 *fill*         0x00000000000542dc        0x4 
 .text.ARCOMMANDS_Decoder_SetCommonOverHeatVentilateCb
                0x00000000000542e0       0x3d /home/sunho/bebop_ws/devel/arsdk/out/arsdk-native/build/libARCommands/obj/gen/Sources/ARCOMMANDS_Decoder.c.o
                0x00000000000542e0                ARCOMMANDS_Decoder_SetCommonOverHeatVentilateCb
 *fill*         0x000000000005431d        0x3 
 .text.ARCOMMANDS_Decoder_SetCommonOverHeatVentilateCallback
                0x0000000000054320       0x4c /home/sunho/bebop_ws/devel/arsdk/out/arsdk-native/build/libARCommands/obj/gen/Sources/ARCOMMANDS_Decoder.c.o
                0x0000000000054320                ARCOMMANDS_Decoder_SetCommonOverHeatVentilateCallback
 *fill*         0x000000000005436c        0x4 
 .text.ARCOMMANDS_Decoder_SetCommonControllerIsPilotingCb
                0x0000000000054370       0x3d /home/sunho/bebop_ws/devel/arsdk/out/arsdk-native/build/libARCommands/obj/gen/Sources/ARCOMMANDS_Decoder.c.o
                0x0000000000054370                ARCOMMANDS_Decoder_SetCommonControllerIsPilotingCb
 *fill*         0x00000000000543ad        0x3 
 .text.ARCOMMANDS_Decoder_SetCommonControllerIsPilotingCallback
                0x00000000000543b0       0x4c /home/sunho/bebop_ws/devel/arsdk/out/arsdk-native/build/libARCommands/obj/gen/Sources/ARCOMMANDS_Decoder.c.o
                0x00000000000543b0                ARCOMMANDS_Decoder_SetCommonControllerIsPilotingCallback
 *fill*         0x00000000000543fc        0x4 
 .text.ARCOMMANDS_Decoder_SetCommonWifiSettingsOutdoorSettingCb
                0x0000000000054400       0x3d /home/sunho/bebop_ws/devel/arsdk/out/arsdk-native/build/libARCommands/obj/gen/Sources/ARCOMMANDS_Decoder.c.o
                0x0000000000054400                ARCOMMANDS_Decoder_SetCommonWifiSettingsOutdoorSettingCb
 *fill*         0x000000000005443d        0x3 
 .text.ARCOMMANDS_Decoder_SetCommonWifiSettingsOutdoorSettingCallback
                0x0000000000054440       0x4c /home/sunho/bebop_ws/devel/arsdk/out/arsdk-native/build/libARCommands/obj/gen/Sources/ARCOMMANDS_Decoder.c.o
                0x0000000000054440                ARCOMMANDS_Decoder_SetCommonWifiSettingsOutdoorSettingCallback
 *fill*         0x000000000005448c        0x4 
 .text.ARCOMMANDS_Decoder_SetCommonMavlinkStartCb
                0x0000000000054490       0x3d /home/sunho/bebop_ws/devel/arsdk/out/arsdk-native/build/libARCommands/obj/gen/Sources/ARCOMMANDS_Decoder.c.o
                0x0000000000054490                ARCOMMANDS_Decoder_SetCommonMavlinkStartCb
 *fill*         0x00000000000544cd        0x3 
 .text.ARCOMMANDS_Decoder_SetCommonMavlinkStartCallback
                0x00000000000544d0       0x4c /home/sunho/bebop_ws/devel/arsdk/out/arsdk-native/build/libARCommands/obj/gen/Sources/ARCOMMANDS_Decoder.c.o
                0x00000000000544d0                ARCOMMANDS_Decoder_SetCommonMavlinkStartCallback
 *fill*         0x000000000005451c        0x4 
 .text.ARCOMMANDS_Decoder_SetCommonMavlinkPauseCb
                0x0000000000054520       0x3d /home/sunho/bebop_ws/devel/arsdk/out/arsdk-native/build/libARCommands/obj/gen/Sources/ARCOMMANDS_Decoder.c.o
                0x0000000000054520                ARCOMMANDS_Decoder_SetCommonMavlinkPauseCb
 *fill*         0x000000000005455d        0x3 
 .text.ARCOMMANDS_Decoder_SetCommonMavlinkPauseCallback
                0x0000000000054560       0x4c /home/sunho/bebop_ws/devel/arsdk/out/arsdk-native/build/libARCommands/obj/gen/Sources/ARCOMMANDS_Decoder.c.o
                0x0000000000054560                ARCOMMANDS_Decoder_SetCommonMavlinkPauseCallback
 *fill*         0x00000000000545ac        0x4 
 .text.ARCOMMANDS_Decoder_SetCommonMavlinkStopCb
                0x00000000000545b0       0x3d /home/sunho/bebop_ws/devel/arsdk/out/arsdk-native/build/libARCommands/obj/gen/Sources/ARCOMMANDS_Decoder.c.o
                0x00000000000545b0                ARCOMMANDS_Decoder_SetCommonMavlinkStopCb
 *fill*         0x00000000000545ed        0x3 
 .text.ARCOMMANDS_Decoder_SetCommonMavlinkStopCallback
                0x00000000000545f0       0x4c /home/sunho/bebop_ws/devel/arsdk/out/arsdk-native/build/libARCommands/obj/gen/Sources/ARCOMMANDS_Decoder.c.o
                0x00000000000545f0                ARCOMMANDS_Decoder_SetCommonMavlinkStopCallback
 *fill*         0x000000000005463c        0x4 
 .text.ARCOMMANDS_Decoder_SetCommonCalibrationMagnetoCalibrationCb
                0x0000000000054640       0x3d /home/sunho/bebop_ws/devel/arsdk/out/arsdk-native/build/libARCommands/obj/gen/Sources/ARCOMMANDS_Decoder.c.o
                0x0000000000054640                ARCOMMANDS_Decoder_SetCommonCalibrationMagnetoCalibrationCb
 *fill*         0x000000000005467d        0x3 
 .text.ARCOMMANDS_Decoder_SetCommonCalibrationMagnetoCalibrationCallback
                0x0000000000054680       0x4c /home/sunho/bebop_ws/devel/arsdk/out/arsdk-native/build/libARCommands/obj/gen/Sources/ARCOMMANDS_Decoder.c.o
                0x0000000000054680                ARCOMMANDS_Decoder_SetCommonCalibrationMagnetoCalibrationCallback
 *fill*         0x00000000000546cc        0x4 
 .text.ARCOMMANDS_Decoder_SetCommonCalibrationPitotCalibrationCb
                0x00000000000546d0       0x3d /home/sunho/bebop_ws/devel/arsdk/out/arsdk-native/build/libARCommands/obj/gen/Sources/ARCOMMANDS_Decoder.c.o
                0x00000000000546d0                ARCOMMANDS_Decoder_SetCommonCalibrationPitotCalibrationCb
 *fill*         0x000000000005470d        0x3 
 .text.ARCOMMANDS_Decoder_SetCommonCalibrationPitotCalibrationCallback
                0x0000000000054710       0x4c /home/sunho/bebop_ws/devel/arsdk/out/arsdk-native/build/libARCommands/obj/gen/Sources/ARCOMMANDS_Decoder.c.o
                0x0000000000054710                ARCOMMANDS_Decoder_SetCommonCalibrationPitotCalibrationCallback
 *fill*         0x000000000005475c        0x4 
 .text.ARCOMMANDS_Decoder_SetCommonGPSControllerPositionForRunCb
                0x0000000000054760       0x3d /home/sunho/bebop_ws/devel/arsdk/out/arsdk-native/build/libARCommands/obj/gen/Sources/ARCOMMANDS_Decoder.c.o
                0x0000000000054760                ARCOMMANDS_Decoder_SetCommonGPSControllerPositionForRunCb
 *fill*         0x000000000005479d        0x3 
 .text.ARCOMMANDS_Decoder_SetCommonGPSControllerPositionForRunCallback
                0x00000000000547a0       0x4c /home/sunho/bebop_ws/devel/arsdk/out/arsdk-native/build/libARCommands/obj/gen/Sources/ARCOMMANDS_Decoder.c.o
                0x00000000000547a0                ARCOMMANDS_Decoder_SetCommonGPSControllerPositionForRunCallback
 *fill*         0x00000000000547ec        0x4 
 .text.ARCOMMANDS_Decoder_SetCommonAudioControllerReadyForStreamingCb
                0x00000000000547f0       0x3d /home/sunho/bebop_ws/devel/arsdk/out/arsdk-native/build/libARCommands/obj/gen/Sources/ARCOMMANDS_Decoder.c.o
                0x00000000000547f0                ARCOMMANDS_Decoder_SetCommonAudioControllerReadyForStreamingCb
 *fill*         0x000000000005482d        0x3 
 .text.ARCOMMANDS_Decoder_SetCommonAudioControllerReadyForStreamingCallback
                0x0000000000054830       0x4c /home/sunho/bebop_ws/devel/arsdk/out/arsdk-native/build/libARCommands/obj/gen/Sources/ARCOMMANDS_Decoder.c.o
                0x0000000000054830                ARCOMMANDS_Decoder_SetCommonAudioControllerReadyForStreamingCallback
 *fill*         0x000000000005487c        0x4 
 .text.ARCOMMANDS_Decoder_SetCommonHeadlightsIntensityCb
                0x0000000000054880       0x3d /home/sunho/bebop_ws/devel/arsdk/out/arsdk-native/build/libARCommands/obj/gen/Sources/ARCOMMANDS_Decoder.c.o
                0x0000000000054880                ARCOMMANDS_Decoder_SetCommonHeadlightsIntensityCb
 *fill*         0x00000000000548bd        0x3 
 .text.ARCOMMANDS_Decoder_SetCommonHeadlightsIntensityCallback
                0x00000000000548c0       0x4c /home/sunho/bebop_ws/devel/arsdk/out/arsdk-native/build/libARCommands/obj/gen/Sources/ARCOMMANDS_Decoder.c.o
                0x00000000000548c0                ARCOMMANDS_Decoder_SetCommonHeadlightsIntensityCallback
 *fill*         0x000000000005490c        0x4 
 .text.ARCOMMANDS_Decoder_SetCommonAnimationsStartAnimationCb
                0x0000000000054910       0x3d /home/sunho/bebop_ws/devel/arsdk/out/arsdk-native/build/libARCommands/obj/gen/Sources/ARCOMMANDS_Decoder.c.o
                0x0000000000054910                ARCOMMANDS_Decoder_SetCommonAnimationsStartAnimationCb
 *fill*         0x000000000005494d        0x3 
 .text.ARCOMMANDS_Decoder_SetCommonAnimationsStartAnimationCallback
                0x0000000000054950       0x4c /home/sunho/bebop_ws/devel/arsdk/out/arsdk-native/build/libARCommands/obj/gen/Sources/ARCOMMANDS_Decoder.c.o
                0x0000000000054950                ARCOMMANDS_Decoder_SetCommonAnimationsStartAnimationCallback
 *fill*         0x000000000005499c        0x4 
 .text.ARCOMMANDS_Decoder_SetCommonAnimationsStopAnimationCb
                0x00000000000549a0       0x3d /home/sunho/bebop_ws/devel/arsdk/out/arsdk-native/build/libARCommands/obj/gen/Sources/ARCOMMANDS_Decoder.c.o
                0x00000000000549a0                ARCOMMANDS_Decoder_SetCommonAnimationsStopAnimationCb
 *fill*         0x00000000000549dd        0x3 
 .text.ARCOMMANDS_Decoder_SetCommonAnimationsStopAnimationCallback
                0x00000000000549e0       0x4c /home/sunho/bebop_ws/devel/arsdk/out/arsdk-native/build/libARCommands/obj/gen/Sources/ARCOMMANDS_Decoder.c.o
                0x00000000000549e0                ARCOMMANDS_Decoder_SetCommonAnimationsStopAnimationCallback
 *fill*         0x0000000000054a2c        0x4 
 .text.ARCOMMANDS_Decoder_SetCommonAnimationsStopAllAnimationsCb
                0x0000000000054a30       0x3d /home/sunho/bebop_ws/devel/arsdk/out/arsdk-native/build/libARCommands/obj/gen/Sources/ARCOMMANDS_Decoder.c.o
                0x0000000000054a30                ARCOMMANDS_Decoder_SetCommonAnimationsStopAllAnimationsCb
 *fill*         0x0000000000054a6d        0x3 
 .text.ARCOMMANDS_Decoder_SetCommonAnimationsStopAllAnimationsCallback
                0x0000000000054a70       0x4c /home/sunho/bebop_ws/devel/arsdk/out/arsdk-native/build/libARCommands/obj/gen/Sources/ARCOMMANDS_Decoder.c.o
                0x0000000000054a70                ARCOMMANDS_Decoder_SetCommonAnimationsStopAllAnimationsCallback
 *fill*         0x0000000000054abc        0x4 
 .text.ARCOMMANDS_Decoder_SetCommonAccessoryConfigCb
                0x0000000000054ac0       0x3d /home/sunho/bebop_ws/devel/arsdk/out/arsdk-native/build/libARCommands/obj/gen/Sources/ARCOMMANDS_Decoder.c.o
                0x0000000000054ac0                ARCOMMANDS_Decoder_SetCommonAccessoryConfigCb
 *fill*         0x0000000000054afd        0x3 
 .text.ARCOMMANDS_Decoder_SetCommonAccessoryConfigCallback
                0x0000000000054b00       0x4c /home/sunho/bebop_ws/devel/arsdk/out/arsdk-native/build/libARCommands/obj/gen/Sources/ARCOMMANDS_Decoder.c.o
                0x0000000000054b00                ARCOMMANDS_Decoder_SetCommonAccessoryConfigCallback
 *fill*         0x0000000000054b4c        0x4 
 .text.ARCOMMANDS_Decoder_SetCommonChargerSetMaxChargeRateCb
                0x0000000000054b50       0x3d /home/sunho/bebop_ws/devel/arsdk/out/arsdk-native/build/libARCommands/obj/gen/Sources/ARCOMMANDS_Decoder.c.o
                0x0000000000054b50                ARCOMMANDS_Decoder_SetCommonChargerSetMaxChargeRateCb
 *fill*         0x0000000000054b8d        0x3 
 .text.ARCOMMANDS_Decoder_SetCommonChargerSetMaxChargeRateCallback
                0x0000000000054b90       0x4c /home/sunho/bebop_ws/devel/arsdk/out/arsdk-native/build/libARCommands/obj/gen/Sources/ARCOMMANDS_Decoder.c.o
                0x0000000000054b90                ARCOMMANDS_Decoder_SetCommonChargerSetMaxChargeRateCallback
 *fill*         0x0000000000054bdc        0x4 
 .text.ARCOMMANDS_Decoder_SetCommonNetworkEventDisconnectionCb
                0x0000000000054be0       0x3d /home/sunho/bebop_ws/devel/arsdk/out/arsdk-native/build/libARCommands/obj/gen/Sources/ARCOMMANDS_Decoder.c.o
                0x0000000000054be0                ARCOMMANDS_Decoder_SetCommonNetworkEventDisconnectionCb
 *fill*         0x0000000000054c1d        0x3 
 .text.ARCOMMANDS_Decoder_SetCommonNetworkEventDisconnectionCallback
                0x0000000000054c20       0x4c /home/sunho/bebop_ws/devel/arsdk/out/arsdk-native/build/libARCommands/obj/gen/Sources/ARCOMMANDS_Decoder.c.o
                0x0000000000054c20                ARCOMMANDS_Decoder_SetCommonNetworkEventDisconnectionCallback
 *fill*         0x0000000000054c6c        0x4 
 .text.ARCOMMANDS_Decoder_SetCommonSettingsStateAllSettingsChangedCb
                0x0000000000054c70       0x3d /home/sunho/bebop_ws/devel/arsdk/out/arsdk-native/build/libARCommands/obj/gen/Sources/ARCOMMANDS_Decoder.c.o
                0x0000000000054c70                ARCOMMANDS_Decoder_SetCommonSettingsStateAllSettingsChangedCb
 *fill*         0x0000000000054cad        0x3 
 .text.ARCOMMANDS_Decoder_SetCommonSettingsStateAllSettingsChangedCallback
                0x0000000000054cb0       0x4c /home/sunho/bebop_ws/devel/arsdk/out/arsdk-native/build/libARCommands/obj/gen/Sources/ARCOMMANDS_Decoder.c.o
                0x0000000000054cb0                ARCOMMANDS_Decoder_SetCommonSettingsStateAllSettingsChangedCallback
 *fill*         0x0000000000054cfc        0x4 
 .text.ARCOMMANDS_Decoder_SetCommonSettingsStateResetChangedCb
                0x0000000000054d00       0x3d /home/sunho/bebop_ws/devel/arsdk/out/arsdk-native/build/libARCommands/obj/gen/Sources/ARCOMMANDS_Decoder.c.o
                0x0000000000054d00                ARCOMMANDS_Decoder_SetCommonSettingsStateResetChangedCb
 *fill*         0x0000000000054d3d        0x3 
 .text.ARCOMMANDS_Decoder_SetCommonSettingsStateResetChangedCallback
                0x0000000000054d40       0x4c /home/sunho/bebop_ws/devel/arsdk/out/arsdk-native/build/libARCommands/obj/gen/Sources/ARCOMMANDS_Decoder.c.o
                0x0000000000054d40                ARCOMMANDS_Decoder_SetCommonSettingsStateResetChangedCallback
 *fill*         0x0000000000054d8c        0x4 
 .text.ARCOMMANDS_Decoder_SetCommonSettingsStateProductNameChangedCb
                0x0000000000054d90       0x3d /home/sunho/bebop_ws/devel/arsdk/out/arsdk-native/build/libARCommands/obj/gen/Sources/ARCOMMANDS_Decoder.c.o
                0x0000000000054d90                ARCOMMANDS_Decoder_SetCommonSettingsStateProductNameChangedCb
 *fill*         0x0000000000054dcd        0x3 
 .text.ARCOMMANDS_Decoder_SetCommonSettingsStateProductNameChangedCallback
                0x0000000000054dd0       0x4c /home/sunho/bebop_ws/devel/arsdk/out/arsdk-native/build/libARCommands/obj/gen/Sources/ARCOMMANDS_Decoder.c.o
                0x0000000000054dd0                ARCOMMANDS_Decoder_SetCommonSettingsStateProductNameChangedCallback
 *fill*         0x0000000000054e1c        0x4 
 .text.ARCOMMANDS_Decoder_SetCommonSettingsStateProductVersionChangedCb
                0x0000000000054e20       0x3d /home/sunho/bebop_ws/devel/arsdk/out/arsdk-native/build/libARCommands/obj/gen/Sources/ARCOMMANDS_Decoder.c.o
                0x0000000000054e20                ARCOMMANDS_Decoder_SetCommonSettingsStateProductVersionChangedCb
 *fill*         0x0000000000054e5d        0x3 
 .text.ARCOMMANDS_Decoder_SetCommonSettingsStateProductVersionChangedCallback
                0x0000000000054e60       0x4c /home/sunho/bebop_ws/devel/arsdk/out/arsdk-native/build/libARCommands/obj/gen/Sources/ARCOMMANDS_Decoder.c.o
                0x0000000000054e60                ARCOMMANDS_Decoder_SetCommonSettingsStateProductVersionChangedCallback
 *fill*         0x0000000000054eac        0x4 
 .text.ARCOMMANDS_Decoder_SetCommonSettingsStateProductSerialHighChangedCb
                0x0000000000054eb0       0x3d /home/sunho/bebop_ws/devel/arsdk/out/arsdk-native/build/libARCommands/obj/gen/Sources/ARCOMMANDS_Decoder.c.o
                0x0000000000054eb0                ARCOMMANDS_Decoder_SetCommonSettingsStateProductSerialHighChangedCb
 *fill*         0x0000000000054eed        0x3 
 .text.ARCOMMANDS_Decoder_SetCommonSettingsStateProductSerialHighChangedCallback
                0x0000000000054ef0       0x4c /home/sunho/bebop_ws/devel/arsdk/out/arsdk-native/build/libARCommands/obj/gen/Sources/ARCOMMANDS_Decoder.c.o
                0x0000000000054ef0                ARCOMMANDS_Decoder_SetCommonSettingsStateProductSerialHighChangedCallback
 *fill*         0x0000000000054f3c        0x4 
 .text.ARCOMMANDS_Decoder_SetCommonSettingsStateProductSerialLowChangedCb
                0x0000000000054f40       0x3d /home/sunho/bebop_ws/devel/arsdk/out/arsdk-native/build/libARCommands/obj/gen/Sources/ARCOMMANDS_Decoder.c.o
                0x0000000000054f40                ARCOMMANDS_Decoder_SetCommonSettingsStateProductSerialLowChangedCb
 *fill*         0x0000000000054f7d        0x3 
 .text.ARCOMMANDS_Decoder_SetCommonSettingsStateProductSerialLowChangedCallback
                0x0000000000054f80       0x4c /home/sunho/bebop_ws/devel/arsdk/out/arsdk-native/build/libARCommands/obj/gen/Sources/ARCOMMANDS_Decoder.c.o
                0x0000000000054f80                ARCOMMANDS_Decoder_SetCommonSettingsStateProductSerialLowChangedCallback
 *fill*         0x0000000000054fcc        0x4 
 .text.ARCOMMANDS_Decoder_SetCommonSettingsStateCountryChangedCb
                0x0000000000054fd0       0x3d /home/sunho/bebop_ws/devel/arsdk/out/arsdk-native/build/libARCommands/obj/gen/Sources/ARCOMMANDS_Decoder.c.o
                0x0000000000054fd0                ARCOMMANDS_Decoder_SetCommonSettingsStateCountryChangedCb
 *fill*         0x000000000005500d        0x3 
 .text.ARCOMMANDS_Decoder_SetCommonSettingsStateCountryChangedCallback
                0x0000000000055010       0x4c /home/sunho/bebop_ws/devel/arsdk/out/arsdk-native/build/libARCommands/obj/gen/Sources/ARCOMMANDS_Decoder.c.o
                0x0000000000055010                ARCOMMANDS_Decoder_SetCommonSettingsStateCountryChangedCallback
 *fill*         0x000000000005505c        0x4 
 .text.ARCOMMANDS_Decoder_SetCommonSettingsStateAutoCountryChangedCb
                0x0000000000055060       0x3d /home/sunho/bebop_ws/devel/arsdk/out/arsdk-native/build/libARCommands/obj/gen/Sources/ARCOMMANDS_Decoder.c.o
                0x0000000000055060                ARCOMMANDS_Decoder_SetCommonSettingsStateAutoCountryChangedCb
 *fill*         0x000000000005509d        0x3 
 .text.ARCOMMANDS_Decoder_SetCommonSettingsStateAutoCountryChangedCallback
                0x00000000000550a0       0x4c /home/sunho/bebop_ws/devel/arsdk/out/arsdk-native/build/libARCommands/obj/gen/Sources/ARCOMMANDS_Decoder.c.o
                0x00000000000550a0                ARCOMMANDS_Decoder_SetCommonSettingsStateAutoCountryChangedCallback
 *fill*         0x00000000000550ec        0x4 
 .text.ARCOMMANDS_Decoder_SetCommonCommonStateAllStatesChangedCb
                0x00000000000550f0       0x3d /home/sunho/bebop_ws/devel/arsdk/out/arsdk-native/build/libARCommands/obj/gen/Sources/ARCOMMANDS_Decoder.c.o
                0x00000000000550f0                ARCOMMANDS_Decoder_SetCommonCommonStateAllStatesChangedCb
 *fill*         0x000000000005512d        0x3 
 .text.ARCOMMANDS_Decoder_SetCommonCommonStateAllStatesChangedCallback
                0x0000000000055130       0x4c /home/sunho/bebop_ws/devel/arsdk/out/arsdk-native/build/libARCommands/obj/gen/Sources/ARCOMMANDS_Decoder.c.o
                0x0000000000055130                ARCOMMANDS_Decoder_SetCommonCommonStateAllStatesChangedCallback
 *fill*         0x000000000005517c        0x4 
 .text.ARCOMMANDS_Decoder_SetCommonCommonStateBatteryStateChangedCb
                0x0000000000055180       0x3d /home/sunho/bebop_ws/devel/arsdk/out/arsdk-native/build/libARCommands/obj/gen/Sources/ARCOMMANDS_Decoder.c.o
                0x0000000000055180                ARCOMMANDS_Decoder_SetCommonCommonStateBatteryStateChangedCb
 *fill*         0x00000000000551bd        0x3 
 .text.ARCOMMANDS_Decoder_SetCommonCommonStateBatteryStateChangedCallback
                0x00000000000551c0       0x4c /home/sunho/bebop_ws/devel/arsdk/out/arsdk-native/build/libARCommands/obj/gen/Sources/ARCOMMANDS_Decoder.c.o
                0x00000000000551c0                ARCOMMANDS_Decoder_SetCommonCommonStateBatteryStateChangedCallback
 *fill*         0x000000000005520c        0x4 
 .text.ARCOMMANDS_Decoder_SetCommonCommonStateMassStorageStateListChangedCb
                0x0000000000055210       0x3d /home/sunho/bebop_ws/devel/arsdk/out/arsdk-native/build/libARCommands/obj/gen/Sources/ARCOMMANDS_Decoder.c.o
                0x0000000000055210                ARCOMMANDS_Decoder_SetCommonCommonStateMassStorageStateListChangedCb
 *fill*         0x000000000005524d        0x3 
 .text.ARCOMMANDS_Decoder_SetCommonCommonStateMassStorageStateListChangedCallback
                0x0000000000055250       0x4c /home/sunho/bebop_ws/devel/arsdk/out/arsdk-native/build/libARCommands/obj/gen/Sources/ARCOMMANDS_Decoder.c.o
                0x0000000000055250                ARCOMMANDS_Decoder_SetCommonCommonStateMassStorageStateListChangedCallback
 *fill*         0x000000000005529c        0x4 
 .text.ARCOMMANDS_Decoder_SetCommonCommonStateMassStorageInfoStateListChangedCb
                0x00000000000552a0       0x3d /home/sunho/bebop_ws/devel/arsdk/out/arsdk-native/build/libARCommands/obj/gen/Sources/ARCOMMANDS_Decoder.c.o
                0x00000000000552a0                ARCOMMANDS_Decoder_SetCommonCommonStateMassStorageInfoStateListChangedCb
 *fill*         0x00000000000552dd        0x3 
 .text.ARCOMMANDS_Decoder_SetCommonCommonStateMassStorageInfoStateListChangedCallback
                0x00000000000552e0       0x4c /home/sunho/bebop_ws/devel/arsdk/out/arsdk-native/build/libARCommands/obj/gen/Sources/ARCOMMANDS_Decoder.c.o
                0x00000000000552e0                ARCOMMANDS_Decoder_SetCommonCommonStateMassStorageInfoStateListChangedCallback
 *fill*         0x000000000005532c        0x4 
 .text.ARCOMMANDS_Decoder_SetCommonCommonStateCurrentDateChangedCb
                0x0000000000055330       0x3d /home/sunho/bebop_ws/devel/arsdk/out/arsdk-native/build/libARCommands/obj/gen/Sources/ARCOMMANDS_Decoder.c.o
                0x0000000000055330                ARCOMMANDS_Decoder_SetCommonCommonStateCurrentDateChangedCb
 *fill*         0x000000000005536d        0x3 
 .text.ARCOMMANDS_Decoder_SetCommonCommonStateCurrentDateChangedCallback
                0x0000000000055370       0x4c /home/sunho/bebop_ws/devel/arsdk/out/arsdk-native/build/libARCommands/obj/gen/Sources/ARCOMMANDS_Decoder.c.o
                0x0000000000055370                ARCOMMANDS_Decoder_SetCommonCommonStateCurrentDateChangedCallback
 *fill*         0x00000000000553bc        0x4 
 .text.ARCOMMANDS_Decoder_SetCommonCommonStateCurrentTimeChangedCb
                0x00000000000553c0       0x3d /home/sunho/bebop_ws/devel/arsdk/out/arsdk-native/build/libARCommands/obj/gen/Sources/ARCOMMANDS_Decoder.c.o
                0x00000000000553c0                ARCOMMANDS_Decoder_SetCommonCommonStateCurrentTimeChangedCb
 *fill*         0x00000000000553fd        0x3 
 .text.ARCOMMANDS_Decoder_SetCommonCommonStateCurrentTimeChangedCallback
                0x0000000000055400       0x4c /home/sunho/bebop_ws/devel/arsdk/out/arsdk-native/build/libARCommands/obj/gen/Sources/ARCOMMANDS_Decoder.c.o
                0x0000000000055400                ARCOMMANDS_Decoder_SetCommonCommonStateCurrentTimeChangedCallback
 *fill*         0x000000000005544c        0x4 
 .text.ARCOMMANDS_Decoder_SetCommonCommonStateMassStorageInfoRemainingListChangedCb
                0x0000000000055450       0x3d /home/sunho/bebop_ws/devel/arsdk/out/arsdk-native/build/libARCommands/obj/gen/Sources/ARCOMMANDS_Decoder.c.o
                0x0000000000055450                ARCOMMANDS_Decoder_SetCommonCommonStateMassStorageInfoRemainingListChangedCb
 *fill*         0x000000000005548d        0x3 
 .text.ARCOMMANDS_Decoder_SetCommonCommonStateMassStorageInfoRemainingListChangedCallback
                0x0000000000055490       0x4c /home/sunho/bebop_ws/devel/arsdk/out/arsdk-native/build/libARCommands/obj/gen/Sources/ARCOMMANDS_Decoder.c.o
                0x0000000000055490                ARCOMMANDS_Decoder_SetCommonCommonStateMassStorageInfoRemainingListChangedCallback
 *fill*         0x00000000000554dc        0x4 
 .text.ARCOMMANDS_Decoder_SetCommonCommonStateWifiSignalChangedCb
                0x00000000000554e0       0x3d /home/sunho/bebop_ws/devel/arsdk/out/arsdk-native/build/libARCommands/obj/gen/Sources/ARCOMMANDS_Decoder.c.o
                0x00000000000554e0                ARCOMMANDS_Decoder_SetCommonCommonStateWifiSignalChangedCb
 *fill*         0x000000000005551d        0x3 
 .text.ARCOMMANDS_Decoder_SetCommonCommonStateWifiSignalChangedCallback
                0x0000000000055520       0x4c /home/sunho/bebop_ws/devel/arsdk/out/arsdk-native/build/libARCommands/obj/gen/Sources/ARCOMMANDS_Decoder.c.o
                0x0000000000055520                ARCOMMANDS_Decoder_SetCommonCommonStateWifiSignalChangedCallback
 *fill*         0x000000000005556c        0x4 
 .text.ARCOMMANDS_Decoder_SetCommonCommonStateSensorsStatesListChangedCb
                0x0000000000055570       0x3d /home/sunho/bebop_ws/devel/arsdk/out/arsdk-native/build/libARCommands/obj/gen/Sources/ARCOMMANDS_Decoder.c.o
                0x0000000000055570                ARCOMMANDS_Decoder_SetCommonCommonStateSensorsStatesListChangedCb
 *fill*         0x00000000000555ad        0x3 
 .text.ARCOMMANDS_Decoder_SetCommonCommonStateSensorsStatesListChangedCallback
                0x00000000000555b0       0x4c /home/sunho/bebop_ws/devel/arsdk/out/arsdk-native/build/libARCommands/obj/gen/Sources/ARCOMMANDS_Decoder.c.o
                0x00000000000555b0                ARCOMMANDS_Decoder_SetCommonCommonStateSensorsStatesListChangedCallback
 *fill*         0x00000000000555fc        0x4 
 .text.ARCOMMANDS_Decoder_SetCommonCommonStateProductModelCb
                0x0000000000055600       0x3d /home/sunho/bebop_ws/devel/arsdk/out/arsdk-native/build/libARCommands/obj/gen/Sources/ARCOMMANDS_Decoder.c.o
                0x0000000000055600                ARCOMMANDS_Decoder_SetCommonCommonStateProductModelCb
 *fill*         0x000000000005563d        0x3 
 .text.ARCOMMANDS_Decoder_SetCommonCommonStateProductModelCallback
                0x0000000000055640       0x4c /home/sunho/bebop_ws/devel/arsdk/out/arsdk-native/build/libARCommands/obj/gen/Sources/ARCOMMANDS_Decoder.c.o
                0x0000000000055640                ARCOMMANDS_Decoder_SetCommonCommonStateProductModelCallback
 *fill*         0x000000000005568c        0x4 
 .text.ARCOMMANDS_Decoder_SetCommonCommonStateCountryListKnownCb
                0x0000000000055690       0x3d /home/sunho/bebop_ws/devel/arsdk/out/arsdk-native/build/libARCommands/obj/gen/Sources/ARCOMMANDS_Decoder.c.o
                0x0000000000055690                ARCOMMANDS_Decoder_SetCommonCommonStateCountryListKnownCb
 *fill*         0x00000000000556cd        0x3 
 .text.ARCOMMANDS_Decoder_SetCommonCommonStateCountryListKnownCallback
                0x00000000000556d0       0x4c /home/sunho/bebop_ws/devel/arsdk/out/arsdk-native/build/libARCommands/obj/gen/Sources/ARCOMMANDS_Decoder.c.o
                0x00000000000556d0                ARCOMMANDS_Decoder_SetCommonCommonStateCountryListKnownCallback
 *fill*         0x000000000005571c        0x4 
 .text.ARCOMMANDS_Decoder_SetCommonCommonStateDeprecatedMassStorageContentChangedCb
                0x0000000000055720       0x3d /home/sunho/bebop_ws/devel/arsdk/out/arsdk-native/build/libARCommands/obj/gen/Sources/ARCOMMANDS_Decoder.c.o
                0x0000000000055720                ARCOMMANDS_Decoder_SetCommonCommonStateDeprecatedMassStorageContentChangedCb
 *fill*         0x000000000005575d        0x3 
 .text.ARCOMMANDS_Decoder_SetCommonCommonStateDeprecatedMassStorageContentChangedCallback
                0x0000000000055760       0x4c /home/sunho/bebop_ws/devel/arsdk/out/arsdk-native/build/libARCommands/obj/gen/Sources/ARCOMMANDS_Decoder.c.o
                0x0000000000055760                ARCOMMANDS_Decoder_SetCommonCommonStateDeprecatedMassStorageContentChangedCallback
 *fill*         0x00000000000557ac        0x4 
 .text.ARCOMMANDS_Decoder_SetCommonCommonStateMassStorageContentCb
                0x00000000000557b0       0x3d /home/sunho/bebop_ws/devel/arsdk/out/arsdk-native/build/libARCommands/obj/gen/Sources/ARCOMMANDS_Decoder.c.o
                0x00000000000557b0                ARCOMMANDS_Decoder_SetCommonCommonStateMassStorageContentCb
 *fill*         0x00000000000557ed        0x3 
 .text.ARCOMMANDS_Decoder_SetCommonCommonStateMassStorageContentCallback
                0x00000000000557f0       0x4c /home/sunho/bebop_ws/devel/arsdk/out/arsdk-native/build/libARCommands/obj/gen/Sources/ARCOMMANDS_Decoder.c.o
                0x00000000000557f0                ARCOMMANDS_Decoder_SetCommonCommonStateMassStorageContentCallback
 *fill*         0x000000000005583c        0x4 
 .text.ARCOMMANDS_Decoder_SetCommonCommonStateMassStorageContentForCurrentRunCb
                0x0000000000055840       0x3d /home/sunho/bebop_ws/devel/arsdk/out/arsdk-native/build/libARCommands/obj/gen/Sources/ARCOMMANDS_Decoder.c.o
                0x0000000000055840                ARCOMMANDS_Decoder_SetCommonCommonStateMassStorageContentForCurrentRunCb
 *fill*         0x000000000005587d        0x3 
 .text.ARCOMMANDS_Decoder_SetCommonCommonStateMassStorageContentForCurrentRunCallback
                0x0000000000055880       0x4c /home/sunho/bebop_ws/devel/arsdk/out/arsdk-native/build/libARCommands/obj/gen/Sources/ARCOMMANDS_Decoder.c.o
                0x0000000000055880                ARCOMMANDS_Decoder_SetCommonCommonStateMassStorageContentForCurrentRunCallback
 *fill*         0x00000000000558cc        0x4 
 .text.ARCOMMANDS_Decoder_SetCommonOverHeatStateOverHeatChangedCb
                0x00000000000558d0       0x3d /home/sunho/bebop_ws/devel/arsdk/out/arsdk-native/build/libARCommands/obj/gen/Sources/ARCOMMANDS_Decoder.c.o
                0x00000000000558d0                ARCOMMANDS_Decoder_SetCommonOverHeatStateOverHeatChangedCb
 *fill*         0x000000000005590d        0x3 
 .text.ARCOMMANDS_Decoder_SetCommonOverHeatStateOverHeatChangedCallback
                0x0000000000055910       0x4c /home/sunho/bebop_ws/devel/arsdk/out/arsdk-native/build/libARCommands/obj/gen/Sources/ARCOMMANDS_Decoder.c.o
                0x0000000000055910                ARCOMMANDS_Decoder_SetCommonOverHeatStateOverHeatChangedCallback
 *fill*         0x000000000005595c        0x4 
 .text.ARCOMMANDS_Decoder_SetCommonOverHeatStateOverHeatRegulationChangedCb
                0x0000000000055960       0x3d /home/sunho/bebop_ws/devel/arsdk/out/arsdk-native/build/libARCommands/obj/gen/Sources/ARCOMMANDS_Decoder.c.o
                0x0000000000055960                ARCOMMANDS_Decoder_SetCommonOverHeatStateOverHeatRegulationChangedCb
 *fill*         0x000000000005599d        0x3 
 .text.ARCOMMANDS_Decoder_SetCommonOverHeatStateOverHeatRegulationChangedCallback
                0x00000000000559a0       0x4c /home/sunho/bebop_ws/devel/arsdk/out/arsdk-native/build/libARCommands/obj/gen/Sources/ARCOMMANDS_Decoder.c.o
                0x00000000000559a0                ARCOMMANDS_Decoder_SetCommonOverHeatStateOverHeatRegulationChangedCallback
 *fill*         0x00000000000559ec        0x4 
 .text.ARCOMMANDS_Decoder_SetCommonWifiSettingsStateOutdoorSettingsChangedCb
                0x00000000000559f0       0x3d /home/sunho/bebop_ws/devel/arsdk/out/arsdk-native/build/libARCommands/obj/gen/Sources/ARCOMMANDS_Decoder.c.o
                0x00000000000559f0                ARCOMMANDS_Decoder_SetCommonWifiSettingsStateOutdoorSettingsChangedCb
 *fill*         0x0000000000055a2d        0x3 
 .text.ARCOMMANDS_Decoder_SetCommonWifiSettingsStateOutdoorSettingsChangedCallback
                0x0000000000055a30       0x4c /home/sunho/bebop_ws/devel/arsdk/out/arsdk-native/build/libARCommands/obj/gen/Sources/ARCOMMANDS_Decoder.c.o
                0x0000000000055a30                ARCOMMANDS_Decoder_SetCommonWifiSettingsStateOutdoorSettingsChangedCallback
 *fill*         0x0000000000055a7c        0x4 
 .text.ARCOMMANDS_Decoder_SetCommonMavlinkStateMavlinkFilePlayingStateChangedCb
                0x0000000000055a80       0x3d /home/sunho/bebop_ws/devel/arsdk/out/arsdk-native/build/libARCommands/obj/gen/Sources/ARCOMMANDS_Decoder.c.o
                0x0000000000055a80                ARCOMMANDS_Decoder_SetCommonMavlinkStateMavlinkFilePlayingStateChangedCb
 *fill*         0x0000000000055abd        0x3 
 .text.ARCOMMANDS_Decoder_SetCommonMavlinkStateMavlinkFilePlayingStateChangedCallback
                0x0000000000055ac0       0x4c /home/sunho/bebop_ws/devel/arsdk/out/arsdk-native/build/libARCommands/obj/gen/Sources/ARCOMMANDS_Decoder.c.o
                0x0000000000055ac0                ARCOMMANDS_Decoder_SetCommonMavlinkStateMavlinkFilePlayingStateChangedCallback
 *fill*         0x0000000000055b0c        0x4 
 .text.ARCOMMANDS_Decoder_SetCommonMavlinkStateMavlinkPlayErrorStateChangedCb
                0x0000000000055b10       0x3d /home/sunho/bebop_ws/devel/arsdk/out/arsdk-native/build/libARCommands/obj/gen/Sources/ARCOMMANDS_Decoder.c.o
                0x0000000000055b10                ARCOMMANDS_Decoder_SetCommonMavlinkStateMavlinkPlayErrorStateChangedCb
 *fill*         0x0000000000055b4d        0x3 
 .text.ARCOMMANDS_Decoder_SetCommonMavlinkStateMavlinkPlayErrorStateChangedCallback
                0x0000000000055b50       0x4c /home/sunho/bebop_ws/devel/arsdk/out/arsdk-native/build/libARCommands/obj/gen/Sources/ARCOMMANDS_Decoder.c.o
                0x0000000000055b50                ARCOMMANDS_Decoder_SetCommonMavlinkStateMavlinkPlayErrorStateChangedCallback
 *fill*         0x0000000000055b9c        0x4 
 .text.ARCOMMANDS_Decoder_SetCommonCalibrationStateMagnetoCalibrationStateChangedCb
                0x0000000000055ba0       0x3d /home/sunho/bebop_ws/devel/arsdk/out/arsdk-native/build/libARCommands/obj/gen/Sources/ARCOMMANDS_Decoder.c.o
                0x0000000000055ba0                ARCOMMANDS_Decoder_SetCommonCalibrationStateMagnetoCalibrationStateChangedCb
 *fill*         0x0000000000055bdd        0x3 
 .text.ARCOMMANDS_Decoder_SetCommonCalibrationStateMagnetoCalibrationStateChangedCallback
                0x0000000000055be0       0x4c /home/sunho/bebop_ws/devel/arsdk/out/arsdk-native/build/libARCommands/obj/gen/Sources/ARCOMMANDS_Decoder.c.o
                0x0000000000055be0                ARCOMMANDS_Decoder_SetCommonCalibrationStateMagnetoCalibrationStateChangedCallback
 *fill*         0x0000000000055c2c        0x4 
 .text.ARCOMMANDS_Decoder_SetCommonCalibrationStateMagnetoCalibrationRequiredStateCb
                0x0000000000055c30       0x3d /home/sunho/bebop_ws/devel/arsdk/out/arsdk-native/build/libARCommands/obj/gen/Sources/ARCOMMANDS_Decoder.c.o
                0x0000000000055c30                ARCOMMANDS_Decoder_SetCommonCalibrationStateMagnetoCalibrationRequiredStateCb
 *fill*         0x0000000000055c6d        0x3 
 .text.ARCOMMANDS_Decoder_SetCommonCalibrationStateMagnetoCalibrationRequiredStateCallback
                0x0000000000055c70       0x4c /home/sunho/bebop_ws/devel/arsdk/out/arsdk-native/build/libARCommands/obj/gen/Sources/ARCOMMANDS_Decoder.c.o
                0x0000000000055c70                ARCOMMANDS_Decoder_SetCommonCalibrationStateMagnetoCalibrationRequiredStateCallback
 *fill*         0x0000000000055cbc        0x4 
 .text.ARCOMMANDS_Decoder_SetCommonCalibrationStateMagnetoCalibrationAxisToCalibrateChangedCb
                0x0000000000055cc0       0x3d /home/sunho/bebop_ws/devel/arsdk/out/arsdk-native/build/libARCommands/obj/gen/Sources/ARCOMMANDS_Decoder.c.o
                0x0000000000055cc0                ARCOMMANDS_Decoder_SetCommonCalibrationStateMagnetoCalibrationAxisToCalibrateChangedCb
 *fill*         0x0000000000055cfd        0x3 
 .text.ARCOMMANDS_Decoder_SetCommonCalibrationStateMagnetoCalibrationAxisToCalibrateChangedCallback
                0x0000000000055d00       0x4c /home/sunho/bebop_ws/devel/arsdk/out/arsdk-native/build/libARCommands/obj/gen/Sources/ARCOMMANDS_Decoder.c.o
                0x0000000000055d00                ARCOMMANDS_Decoder_SetCommonCalibrationStateMagnetoCalibrationAxisToCalibrateChangedCallback
 *fill*         0x0000000000055d4c        0x4 
 .text.ARCOMMANDS_Decoder_SetCommonCalibrationStateMagnetoCalibrationStartedChangedCb
                0x0000000000055d50       0x3d /home/sunho/bebop_ws/devel/arsdk/out/arsdk-native/build/libARCommands/obj/gen/Sources/ARCOMMANDS_Decoder.c.o
                0x0000000000055d50                ARCOMMANDS_Decoder_SetCommonCalibrationStateMagnetoCalibrationStartedChangedCb
 *fill*         0x0000000000055d8d        0x3 
 .text.ARCOMMANDS_Decoder_SetCommonCalibrationStateMagnetoCalibrationStartedChangedCallback
                0x0000000000055d90       0x4c /home/sunho/bebop_ws/devel/arsdk/out/arsdk-native/build/libARCommands/obj/gen/Sources/ARCOMMANDS_Decoder.c.o
                0x0000000000055d90                ARCOMMANDS_Decoder_SetCommonCalibrationStateMagnetoCalibrationStartedChangedCallback
 *fill*         0x0000000000055ddc        0x4 
 .text.ARCOMMANDS_Decoder_SetCommonCalibrationStatePitotCalibrationStateChangedCb
                0x0000000000055de0       0x3d /home/sunho/bebop_ws/devel/arsdk/out/arsdk-native/build/libARCommands/obj/gen/Sources/ARCOMMANDS_Decoder.c.o
                0x0000000000055de0                ARCOMMANDS_Decoder_SetCommonCalibrationStatePitotCalibrationStateChangedCb
 *fill*         0x0000000000055e1d        0x3 
 .text.ARCOMMANDS_Decoder_SetCommonCalibrationStatePitotCalibrationStateChangedCallback
                0x0000000000055e20       0x4c /home/sunho/bebop_ws/devel/arsdk/out/arsdk-native/build/libARCommands/obj/gen/Sources/ARCOMMANDS_Decoder.c.o
                0x0000000000055e20                ARCOMMANDS_Decoder_SetCommonCalibrationStatePitotCalibrationStateChangedCallback
 *fill*         0x0000000000055e6c        0x4 
 .text.ARCOMMANDS_Decoder_SetCommonCameraSettingsStateCameraSettingsChangedCb
                0x0000000000055e70       0x3d /home/sunho/bebop_ws/devel/arsdk/out/arsdk-native/build/libARCommands/obj/gen/Sources/ARCOMMANDS_Decoder.c.o
                0x0000000000055e70                ARCOMMANDS_Decoder_SetCommonCameraSettingsStateCameraSettingsChangedCb
 *fill*         0x0000000000055ead        0x3 
 .text.ARCOMMANDS_Decoder_SetCommonCameraSettingsStateCameraSettingsChangedCallback
                0x0000000000055eb0       0x4c /home/sunho/bebop_ws/devel/arsdk/out/arsdk-native/build/libARCommands/obj/gen/Sources/ARCOMMANDS_Decoder.c.o
                0x0000000000055eb0                ARCOMMANDS_Decoder_SetCommonCameraSettingsStateCameraSettingsChangedCallback
 *fill*         0x0000000000055efc        0x4 
 .text.ARCOMMANDS_Decoder_SetCommonFlightPlanStateAvailabilityStateChangedCb
                0x0000000000055f00       0x3d /home/sunho/bebop_ws/devel/arsdk/out/arsdk-native/build/libARCommands/obj/gen/Sources/ARCOMMANDS_Decoder.c.o
                0x0000000000055f00                ARCOMMANDS_Decoder_SetCommonFlightPlanStateAvailabilityStateChangedCb
 *fill*         0x0000000000055f3d        0x3 
 .text.ARCOMMANDS_Decoder_SetCommonFlightPlanStateAvailabilityStateChangedCallback
                0x0000000000055f40       0x4c /home/sunho/bebop_ws/devel/arsdk/out/arsdk-native/build/libARCommands/obj/gen/Sources/ARCOMMANDS_Decoder.c.o
                0x0000000000055f40                ARCOMMANDS_Decoder_SetCommonFlightPlanStateAvailabilityStateChangedCallback
 *fill*         0x0000000000055f8c        0x4 
 .text.ARCOMMANDS_Decoder_SetCommonFlightPlanStateComponentStateListChangedCb
                0x0000000000055f90       0x3d /home/sunho/bebop_ws/devel/arsdk/out/arsdk-native/build/libARCommands/obj/gen/Sources/ARCOMMANDS_Decoder.c.o
                0x0000000000055f90                ARCOMMANDS_Decoder_SetCommonFlightPlanStateComponentStateListChangedCb
 *fill*         0x0000000000055fcd        0x3 
 .text.ARCOMMANDS_Decoder_SetCommonFlightPlanStateComponentStateListChangedCallback
                0x0000000000055fd0       0x4c /home/sunho/bebop_ws/devel/arsdk/out/arsdk-native/build/libARCommands/obj/gen/Sources/ARCOMMANDS_Decoder.c.o
                0x0000000000055fd0                ARCOMMANDS_Decoder_SetCommonFlightPlanStateComponentStateListChangedCallback
 *fill*         0x000000000005601c        0x4 
 .text.ARCOMMANDS_Decoder_SetCommonFlightPlanStateLockStateChangedCb
                0x0000000000056020       0x3d /home/sunho/bebop_ws/devel/arsdk/out/arsdk-native/build/libARCommands/obj/gen/Sources/ARCOMMANDS_Decoder.c.o
                0x0000000000056020                ARCOMMANDS_Decoder_SetCommonFlightPlanStateLockStateChangedCb
 *fill*         0x000000000005605d        0x3 
 .text.ARCOMMANDS_Decoder_SetCommonFlightPlanStateLockStateChangedCallback
                0x0000000000056060       0x4c /home/sunho/bebop_ws/devel/arsdk/out/arsdk-native/build/libARCommands/obj/gen/Sources/ARCOMMANDS_Decoder.c.o
                0x0000000000056060                ARCOMMANDS_Decoder_SetCommonFlightPlanStateLockStateChangedCallback
 *fill*         0x00000000000560ac        0x4 
 .text.ARCOMMANDS_Decoder_SetCommonFlightPlanEventStartingErrorEventCb
                0x00000000000560b0       0x3d /home/sunho/bebop_ws/devel/arsdk/out/arsdk-native/build/libARCommands/obj/gen/Sources/ARCOMMANDS_Decoder.c.o
                0x00000000000560b0                ARCOMMANDS_Decoder_SetCommonFlightPlanEventStartingErrorEventCb
 *fill*         0x00000000000560ed        0x3 
 .text.ARCOMMANDS_Decoder_SetCommonFlightPlanEventStartingErrorEventCallback
                0x00000000000560f0       0x4c /home/sunho/bebop_ws/devel/arsdk/out/arsdk-native/build/libARCommands/obj/gen/Sources/ARCOMMANDS_Decoder.c.o
                0x00000000000560f0                ARCOMMANDS_Decoder_SetCommonFlightPlanEventStartingErrorEventCallback
 *fill*         0x000000000005613c        0x4 
 .text.ARCOMMANDS_Decoder_SetCommonFlightPlanEventSpeedBridleEventCb
                0x0000000000056140       0x3d /home/sunho/bebop_ws/devel/arsdk/out/arsdk-native/build/libARCommands/obj/gen/Sources/ARCOMMANDS_Decoder.c.o
                0x0000000000056140                ARCOMMANDS_Decoder_SetCommonFlightPlanEventSpeedBridleEventCb
 *fill*         0x000000000005617d        0x3 
 .text.ARCOMMANDS_Decoder_SetCommonFlightPlanEventSpeedBridleEventCallback
                0x0000000000056180       0x4c /home/sunho/bebop_ws/devel/arsdk/out/arsdk-native/build/libARCommands/obj/gen/Sources/ARCOMMANDS_Decoder.c.o
                0x0000000000056180                ARCOMMANDS_Decoder_SetCommonFlightPlanEventSpeedBridleEventCallback
 *fill*         0x00000000000561cc        0x4 
 .text.ARCOMMANDS_Decoder_SetCommonARLibsVersionsStateControllerLibARCommandsVersionCb
                0x00000000000561d0       0x3d /home/sunho/bebop_ws/devel/arsdk/out/arsdk-native/build/libARCommands/obj/gen/Sources/ARCOMMANDS_Decoder.c.o
                0x00000000000561d0                ARCOMMANDS_Decoder_SetCommonARLibsVersionsStateControllerLibARCommandsVersionCb
 *fill*         0x000000000005620d        0x3 
 .text.ARCOMMANDS_Decoder_SetCommonARLibsVersionsStateControllerLibARCommandsVersionCallback
                0x0000000000056210       0x4c /home/sunho/bebop_ws/devel/arsdk/out/arsdk-native/build/libARCommands/obj/gen/Sources/ARCOMMANDS_Decoder.c.o
                0x0000000000056210                ARCOMMANDS_Decoder_SetCommonARLibsVersionsStateControllerLibARCommandsVersionCallback
 *fill*         0x000000000005625c        0x4 
 .text.ARCOMMANDS_Decoder_SetCommonARLibsVersionsStateSkyControllerLibARCommandsVersionCb
                0x0000000000056260       0x3d /home/sunho/bebop_ws/devel/arsdk/out/arsdk-native/build/libARCommands/obj/gen/Sources/ARCOMMANDS_Decoder.c.o
                0x0000000000056260                ARCOMMANDS_Decoder_SetCommonARLibsVersionsStateSkyControllerLibARCommandsVersionCb
 *fill*         0x000000000005629d        0x3 
 .text.ARCOMMANDS_Decoder_SetCommonARLibsVersionsStateSkyControllerLibARCommandsVersionCallback
                0x00000000000562a0       0x4c /home/sunho/bebop_ws/devel/arsdk/out/arsdk-native/build/libARCommands/obj/gen/Sources/ARCOMMANDS_Decoder.c.o
                0x00000000000562a0                ARCOMMANDS_Decoder_SetCommonARLibsVersionsStateSkyControllerLibARCommandsVersionCallback
 *fill*         0x00000000000562ec        0x4 
 .text.ARCOMMANDS_Decoder_SetCommonARLibsVersionsStateDeviceLibARCommandsVersionCb
                0x00000000000562f0       0x3d /home/sunho/bebop_ws/devel/arsdk/out/arsdk-native/build/libARCommands/obj/gen/Sources/ARCOMMANDS_Decoder.c.o
                0x00000000000562f0                ARCOMMANDS_Decoder_SetCommonARLibsVersionsStateDeviceLibARCommandsVersionCb
 *fill*         0x000000000005632d        0x3 
 .text.ARCOMMANDS_Decoder_SetCommonARLibsVersionsStateDeviceLibARCommandsVersionCallback
                0x0000000000056330       0x4c /home/sunho/bebop_ws/devel/arsdk/out/arsdk-native/build/libARCommands/obj/gen/Sources/ARCOMMANDS_Decoder.c.o
                0x0000000000056330                ARCOMMANDS_Decoder_SetCommonARLibsVersionsStateDeviceLibARCommandsVersionCallback
 *fill*         0x000000000005637c        0x4 
 .text.ARCOMMANDS_Decoder_SetCommonAudioStateAudioStreamingRunningCb
                0x0000000000056380       0x3d /home/sunho/bebop_ws/devel/arsdk/out/arsdk-native/build/libARCommands/obj/gen/Sources/ARCOMMANDS_Decoder.c.o
                0x0000000000056380                ARCOMMANDS_Decoder_SetCommonAudioStateAudioStreamingRunningCb
 *fill*         0x00000000000563bd        0x3 
 .text.ARCOMMANDS_Decoder_SetCommonAudioStateAudioStreamingRunningCallback
                0x00000000000563c0       0x4c /home/sunho/bebop_ws/devel/arsdk/out/arsdk-native/build/libARCommands/obj/gen/Sources/ARCOMMANDS_Decoder.c.o
                0x00000000000563c0                ARCOMMANDS_Decoder_SetCommonAudioStateAudioStreamingRunningCallback
 *fill*         0x000000000005640c        0x4 
 .text.ARCOMMANDS_Decoder_SetCommonHeadlightsStateIntensityChangedCb
                0x0000000000056410       0x3d /home/sunho/bebop_ws/devel/arsdk/out/arsdk-native/build/libARCommands/obj/gen/Sources/ARCOMMANDS_Decoder.c.o
                0x0000000000056410                ARCOMMANDS_Decoder_SetCommonHeadlightsStateIntensityChangedCb
 *fill*         0x000000000005644d        0x3 
 .text.ARCOMMANDS_Decoder_SetCommonHeadlightsStateIntensityChangedCallback
                0x0000000000056450       0x4c /home/sunho/bebop_ws/devel/arsdk/out/arsdk-native/build/libARCommands/obj/gen/Sources/ARCOMMANDS_Decoder.c.o
                0x0000000000056450                ARCOMMANDS_Decoder_SetCommonHeadlightsStateIntensityChangedCallback
 *fill*         0x000000000005649c        0x4 
 .text.ARCOMMANDS_Decoder_SetCommonAnimationsStateListCb
                0x00000000000564a0       0x3d /home/sunho/bebop_ws/devel/arsdk/out/arsdk-native/build/libARCommands/obj/gen/Sources/ARCOMMANDS_Decoder.c.o
                0x00000000000564a0                ARCOMMANDS_Decoder_SetCommonAnimationsStateListCb
 *fill*         0x00000000000564dd        0x3 
 .text.ARCOMMANDS_Decoder_SetCommonAnimationsStateListCallback
                0x00000000000564e0       0x4c /home/sunho/bebop_ws/devel/arsdk/out/arsdk-native/build/libARCommands/obj/gen/Sources/ARCOMMANDS_Decoder.c.o
                0x00000000000564e0                ARCOMMANDS_Decoder_SetCommonAnimationsStateListCallback
 *fill*         0x000000000005652c        0x4 
 .text.ARCOMMANDS_Decoder_SetCommonAccessoryStateSupportedAccessoriesListChangedCb
                0x0000000000056530       0x3d /home/sunho/bebop_ws/devel/arsdk/out/arsdk-native/build/libARCommands/obj/gen/Sources/ARCOMMANDS_Decoder.c.o
                0x0000000000056530                ARCOMMANDS_Decoder_SetCommonAccessoryStateSupportedAccessoriesListChangedCb
 *fill*         0x000000000005656d        0x3 
 .text.ARCOMMANDS_Decoder_SetCommonAccessoryStateSupportedAccessoriesListChangedCallback
                0x0000000000056570       0x4c /home/sunho/bebop_ws/devel/arsdk/out/arsdk-native/build/libARCommands/obj/gen/Sources/ARCOMMANDS_Decoder.c.o
                0x0000000000056570                ARCOMMANDS_Decoder_SetCommonAccessoryStateSupportedAccessoriesListChangedCallback
 *fill*         0x00000000000565bc        0x4 
 .text.ARCOMMANDS_Decoder_SetCommonAccessoryStateAccessoryConfigChangedCb
                0x00000000000565c0       0x3d /home/sunho/bebop_ws/devel/arsdk/out/arsdk-native/build/libARCommands/obj/gen/Sources/ARCOMMANDS_Decoder.c.o
                0x00000000000565c0                ARCOMMANDS_Decoder_SetCommonAccessoryStateAccessoryConfigChangedCb
 *fill*         0x00000000000565fd        0x3 
 .text.ARCOMMANDS_Decoder_SetCommonAccessoryStateAccessoryConfigChangedCallback
                0x0000000000056600       0x4c /home/sunho/bebop_ws/devel/arsdk/out/arsdk-native/build/libARCommands/obj/gen/Sources/ARCOMMANDS_Decoder.c.o
                0x0000000000056600                ARCOMMANDS_Decoder_SetCommonAccessoryStateAccessoryConfigChangedCallback
 *fill*         0x000000000005664c        0x4 
 .text.ARCOMMANDS_Decoder_SetCommonAccessoryStateAccessoryConfigModificationEnabledCb
                0x0000000000056650       0x3d /home/sunho/bebop_ws/devel/arsdk/out/arsdk-native/build/libARCommands/obj/gen/Sources/ARCOMMANDS_Decoder.c.o
                0x0000000000056650                ARCOMMANDS_Decoder_SetCommonAccessoryStateAccessoryConfigModificationEnabledCb
 *fill*         0x000000000005668d        0x3 
 .text.ARCOMMANDS_Decoder_SetCommonAccessoryStateAccessoryConfigModificationEnabledCallback
                0x0000000000056690       0x4c /home/sunho/bebop_ws/devel/arsdk/out/arsdk-native/build/libARCommands/obj/gen/Sources/ARCOMMANDS_Decoder.c.o
                0x0000000000056690                ARCOMMANDS_Decoder_SetCommonAccessoryStateAccessoryConfigModificationEnabledCallback
 *fill*         0x00000000000566dc        0x4 
 .text.ARCOMMANDS_Decoder_SetCommonChargerStateMaxChargeRateChangedCb
                0x00000000000566e0       0x3d /home/sunho/bebop_ws/devel/arsdk/out/arsdk-native/build/libARCommands/obj/gen/Sources/ARCOMMANDS_Decoder.c.o
                0x00000000000566e0                ARCOMMANDS_Decoder_SetCommonChargerStateMaxChargeRateChangedCb
 *fill*         0x000000000005671d        0x3 
 .text.ARCOMMANDS_Decoder_SetCommonChargerStateMaxChargeRateChangedCallback
                0x0000000000056720       0x4c /home/sunho/bebop_ws/devel/arsdk/out/arsdk-native/build/libARCommands/obj/gen/Sources/ARCOMMANDS_Decoder.c.o
                0x0000000000056720                ARCOMMANDS_Decoder_SetCommonChargerStateMaxChargeRateChangedCallback
 *fill*         0x000000000005676c        0x4 
 .text.ARCOMMANDS_Decoder_SetCommonChargerStateCurrentChargeStateChangedCb
                0x0000000000056770       0x3d /home/sunho/bebop_ws/devel/arsdk/out/arsdk-native/build/libARCommands/obj/gen/Sources/ARCOMMANDS_Decoder.c.o
                0x0000000000056770                ARCOMMANDS_Decoder_SetCommonChargerStateCurrentChargeStateChangedCb
 *fill*         0x00000000000567ad        0x3 
 .text.ARCOMMANDS_Decoder_SetCommonChargerStateCurrentChargeStateChangedCallback
                0x00000000000567b0       0x4c /home/sunho/bebop_ws/devel/arsdk/out/arsdk-native/build/libARCommands/obj/gen/Sources/ARCOMMANDS_Decoder.c.o
                0x00000000000567b0                ARCOMMANDS_Decoder_SetCommonChargerStateCurrentChargeStateChangedCallback
 *fill*         0x00000000000567fc        0x4 
 .text.ARCOMMANDS_Decoder_SetCommonChargerStateLastChargeRateChangedCb
                0x0000000000056800       0x3d /home/sunho/bebop_ws/devel/arsdk/out/arsdk-native/build/libARCommands/obj/gen/Sources/ARCOMMANDS_Decoder.c.o
                0x0000000000056800                ARCOMMANDS_Decoder_SetCommonChargerStateLastChargeRateChangedCb
 *fill*         0x000000000005683d        0x3 
 .text.ARCOMMANDS_Decoder_SetCommonChargerStateLastChargeRateChangedCallback
                0x0000000000056840       0x4c /home/sunho/bebop_ws/devel/arsdk/out/arsdk-native/build/libARCommands/obj/gen/Sources/ARCOMMANDS_Decoder.c.o
                0x0000000000056840                ARCOMMANDS_Decoder_SetCommonChargerStateLastChargeRateChangedCallback
 *fill*         0x000000000005688c        0x4 
 .text.ARCOMMANDS_Decoder_SetCommonChargerStateChargingInfoCb
                0x0000000000056890       0x3d /home/sunho/bebop_ws/devel/arsdk/out/arsdk-native/build/libARCommands/obj/gen/Sources/ARCOMMANDS_Decoder.c.o
                0x0000000000056890                ARCOMMANDS_Decoder_SetCommonChargerStateChargingInfoCb
 *fill*         0x00000000000568cd        0x3 
 .text.ARCOMMANDS_Decoder_SetCommonChargerStateChargingInfoCallback
                0x00000000000568d0       0x4c /home/sunho/bebop_ws/devel/arsdk/out/arsdk-native/build/libARCommands/obj/gen/Sources/ARCOMMANDS_Decoder.c.o
                0x00000000000568d0                ARCOMMANDS_Decoder_SetCommonChargerStateChargingInfoCallback
 *fill*         0x000000000005691c        0x4 
 .text.ARCOMMANDS_Decoder_SetCommonRunStateRunIdChangedCb
                0x0000000000056920       0x3d /home/sunho/bebop_ws/devel/arsdk/out/arsdk-native/build/libARCommands/obj/gen/Sources/ARCOMMANDS_Decoder.c.o
                0x0000000000056920                ARCOMMANDS_Decoder_SetCommonRunStateRunIdChangedCb
 *fill*         0x000000000005695d        0x3 
 .text.ARCOMMANDS_Decoder_SetCommonRunStateRunIdChangedCallback
                0x0000000000056960       0x4c /home/sunho/bebop_ws/devel/arsdk/out/arsdk-native/build/libARCommands/obj/gen/Sources/ARCOMMANDS_Decoder.c.o
                0x0000000000056960                ARCOMMANDS_Decoder_SetCommonRunStateRunIdChangedCallback
 *fill*         0x00000000000569ac        0x4 
 .text.ARCOMMANDS_Decoder_SetControllerInfoGpsCb
                0x00000000000569b0       0x3d /home/sunho/bebop_ws/devel/arsdk/out/arsdk-native/build/libARCommands/obj/gen/Sources/ARCOMMANDS_Decoder.c.o
                0x00000000000569b0                ARCOMMANDS_Decoder_SetControllerInfoGpsCb
 *fill*         0x00000000000569ed        0x3 
 .text.ARCOMMANDS_Decoder_SetControllerInfoGpsCallback
                0x00000000000569f0       0x4c /home/sunho/bebop_ws/devel/arsdk/out/arsdk-native/build/libARCommands/obj/gen/Sources/ARCOMMANDS_Decoder.c.o
                0x00000000000569f0                ARCOMMANDS_Decoder_SetControllerInfoGpsCallback
 *fill*         0x0000000000056a3c        0x4 
 .text.ARCOMMANDS_Decoder_SetControllerInfoBarometerCb
                0x0000000000056a40       0x3d /home/sunho/bebop_ws/devel/arsdk/out/arsdk-native/build/libARCommands/obj/gen/Sources/ARCOMMANDS_Decoder.c.o
                0x0000000000056a40                ARCOMMANDS_Decoder_SetControllerInfoBarometerCb
 *fill*         0x0000000000056a7d        0x3 
 .text.ARCOMMANDS_Decoder_SetControllerInfoBarometerCallback
                0x0000000000056a80       0x4c /home/sunho/bebop_ws/devel/arsdk/out/arsdk-native/build/libARCommands/obj/gen/Sources/ARCOMMANDS_Decoder.c.o
                0x0000000000056a80                ARCOMMANDS_Decoder_SetControllerInfoBarometerCallback
 *fill*         0x0000000000056acc        0x4 
 .text.ARCOMMANDS_Decoder_SetDebugGetAllSettingsCb
                0x0000000000056ad0       0x3d /home/sunho/bebop_ws/devel/arsdk/out/arsdk-native/build/libARCommands/obj/gen/Sources/ARCOMMANDS_Decoder.c.o
                0x0000000000056ad0                ARCOMMANDS_Decoder_SetDebugGetAllSettingsCb
 *fill*         0x0000000000056b0d        0x3 
 .text.ARCOMMANDS_Decoder_SetDebugGetAllSettingsCallback
                0x0000000000056b10       0x4c /home/sunho/bebop_ws/devel/arsdk/out/arsdk-native/build/libARCommands/obj/gen/Sources/ARCOMMANDS_Decoder.c.o
                0x0000000000056b10                ARCOMMANDS_Decoder_SetDebugGetAllSettingsCallback
 *fill*         0x0000000000056b5c        0x4 
 .text.ARCOMMANDS_Decoder_SetDebugSetSettingCb
                0x0000000000056b60       0x3d /home/sunho/bebop_ws/devel/arsdk/out/arsdk-native/build/libARCommands/obj/gen/Sources/ARCOMMANDS_Decoder.c.o
                0x0000000000056b60                ARCOMMANDS_Decoder_SetDebugSetSettingCb
 *fill*         0x0000000000056b9d        0x3 
 .text.ARCOMMANDS_Decoder_SetDebugSetSettingCallback
                0x0000000000056ba0       0x4c /home/sunho/bebop_ws/devel/arsdk/out/arsdk-native/build/libARCommands/obj/gen/Sources/ARCOMMANDS_Decoder.c.o
                0x0000000000056ba0                ARCOMMANDS_Decoder_SetDebugSetSettingCallback
 *fill*         0x0000000000056bec        0x4 
 .text.ARCOMMANDS_Decoder_SetDebugSettingsInfoCb
                0x0000000000056bf0       0x3d /home/sunho/bebop_ws/devel/arsdk/out/arsdk-native/build/libARCommands/obj/gen/Sources/ARCOMMANDS_Decoder.c.o
                0x0000000000056bf0                ARCOMMANDS_Decoder_SetDebugSettingsInfoCb
 *fill*         0x0000000000056c2d        0x3 
 .text.ARCOMMANDS_Decoder_SetDebugSettingsInfoCallback
                0x0000000000056c30       0x4c /home/sunho/bebop_ws/devel/arsdk/out/arsdk-native/build/libARCommands/obj/gen/Sources/ARCOMMANDS_Decoder.c.o
                0x0000000000056c30                ARCOMMANDS_Decoder_SetDebugSettingsInfoCallback
 *fill*         0x0000000000056c7c        0x4 
 .text.ARCOMMANDS_Decoder_SetDebugSettingsListCb
                0x0000000000056c80       0x3d /home/sunho/bebop_ws/devel/arsdk/out/arsdk-native/build/libARCommands/obj/gen/Sources/ARCOMMANDS_Decoder.c.o
                0x0000000000056c80                ARCOMMANDS_Decoder_SetDebugSettingsListCb
 *fill*         0x0000000000056cbd        0x3 
 .text.ARCOMMANDS_Decoder_SetDebugSettingsListCallback
                0x0000000000056cc0       0x4c /home/sunho/bebop_ws/devel/arsdk/out/arsdk-native/build/libARCommands/obj/gen/Sources/ARCOMMANDS_Decoder.c.o
                0x0000000000056cc0                ARCOMMANDS_Decoder_SetDebugSettingsListCallback
 *fill*         0x0000000000056d0c        0x4 
 .text.ARCOMMANDS_Decoder_SetDroneManagerDiscoverDronesCb
                0x0000000000056d10       0x3d /home/sunho/bebop_ws/devel/arsdk/out/arsdk-native/build/libARCommands/obj/gen/Sources/ARCOMMANDS_Decoder.c.o
                0x0000000000056d10                ARCOMMANDS_Decoder_SetDroneManagerDiscoverDronesCb
 *fill*         0x0000000000056d4d        0x3 
 .text.ARCOMMANDS_Decoder_SetDroneManagerDiscoverDronesCallback
                0x0000000000056d50       0x4c /home/sunho/bebop_ws/devel/arsdk/out/arsdk-native/build/libARCommands/obj/gen/Sources/ARCOMMANDS_Decoder.c.o
                0x0000000000056d50                ARCOMMANDS_Decoder_SetDroneManagerDiscoverDronesCallback
 *fill*         0x0000000000056d9c        0x4 
 .text.ARCOMMANDS_Decoder_SetDroneManagerConnectCb
                0x0000000000056da0       0x3d /home/sunho/bebop_ws/devel/arsdk/out/arsdk-native/build/libARCommands/obj/gen/Sources/ARCOMMANDS_Decoder.c.o
                0x0000000000056da0                ARCOMMANDS_Decoder_SetDroneManagerConnectCb
 *fill*         0x0000000000056ddd        0x3 
 .text.ARCOMMANDS_Decoder_SetDroneManagerConnectCallback
                0x0000000000056de0       0x4c /home/sunho/bebop_ws/devel/arsdk/out/arsdk-native/build/libARCommands/obj/gen/Sources/ARCOMMANDS_Decoder.c.o
                0x0000000000056de0                ARCOMMANDS_Decoder_SetDroneManagerConnectCallback
 *fill*         0x0000000000056e2c        0x4 
 .text.ARCOMMANDS_Decoder_SetDroneManagerForgetCb
                0x0000000000056e30       0x3d /home/sunho/bebop_ws/devel/arsdk/out/arsdk-native/build/libARCommands/obj/gen/Sources/ARCOMMANDS_Decoder.c.o
                0x0000000000056e30                ARCOMMANDS_Decoder_SetDroneManagerForgetCb
 *fill*         0x0000000000056e6d        0x3 
 .text.ARCOMMANDS_Decoder_SetDroneManagerForgetCallback
                0x0000000000056e70       0x4c /home/sunho/bebop_ws/devel/arsdk/out/arsdk-native/build/libARCommands/obj/gen/Sources/ARCOMMANDS_Decoder.c.o
                0x0000000000056e70                ARCOMMANDS_Decoder_SetDroneManagerForgetCallback
 *fill*         0x0000000000056ebc        0x4 
 .text.ARCOMMANDS_Decoder_SetDroneManagerDroneListItemCb
                0x0000000000056ec0       0x3d /home/sunho/bebop_ws/devel/arsdk/out/arsdk-native/build/libARCommands/obj/gen/Sources/ARCOMMANDS_Decoder.c.o
                0x0000000000056ec0                ARCOMMANDS_Decoder_SetDroneManagerDroneListItemCb
 *fill*         0x0000000000056efd        0x3 
 .text.ARCOMMANDS_Decoder_SetDroneManagerDroneListItemCallback
                0x0000000000056f00       0x4c /home/sunho/bebop_ws/devel/arsdk/out/arsdk-native/build/libARCommands/obj/gen/Sources/ARCOMMANDS_Decoder.c.o
                0x0000000000056f00                ARCOMMANDS_Decoder_SetDroneManagerDroneListItemCallback
 *fill*         0x0000000000056f4c        0x4 
 .text.ARCOMMANDS_Decoder_SetDroneManagerConnectionStateCb
                0x0000000000056f50       0x3d /home/sunho/bebop_ws/devel/arsdk/out/arsdk-native/build/libARCommands/obj/gen/Sources/ARCOMMANDS_Decoder.c.o
                0x0000000000056f50                ARCOMMANDS_Decoder_SetDroneManagerConnectionStateCb
 *fill*         0x0000000000056f8d        0x3 
 .text.ARCOMMANDS_Decoder_SetDroneManagerConnectionStateCallback
                0x0000000000056f90       0x4c /home/sunho/bebop_ws/devel/arsdk/out/arsdk-native/build/libARCommands/obj/gen/Sources/ARCOMMANDS_Decoder.c.o
                0x0000000000056f90                ARCOMMANDS_Decoder_SetDroneManagerConnectionStateCallback
 *fill*         0x0000000000056fdc        0x4 
 .text.ARCOMMANDS_Decoder_SetDroneManagerAuthenticationFailedCb
                0x0000000000056fe0       0x3d /home/sunho/bebop_ws/devel/arsdk/out/arsdk-native/build/libARCommands/obj/gen/Sources/ARCOMMANDS_Decoder.c.o
                0x0000000000056fe0                ARCOMMANDS_Decoder_SetDroneManagerAuthenticationFailedCb
 *fill*         0x000000000005701d        0x3 
 .text.ARCOMMANDS_Decoder_SetDroneManagerAuthenticationFailedCallback
                0x0000000000057020       0x4c /home/sunho/bebop_ws/devel/arsdk/out/arsdk-native/build/libARCommands/obj/gen/Sources/ARCOMMANDS_Decoder.c.o
                0x0000000000057020                ARCOMMANDS_Decoder_SetDroneManagerAuthenticationFailedCallback
 *fill*         0x000000000005706c        0x4 
 .text.ARCOMMANDS_Decoder_SetDroneManagerConnectionRefusedCb
                0x0000000000057070       0x3d /home/sunho/bebop_ws/devel/arsdk/out/arsdk-native/build/libARCommands/obj/gen/Sources/ARCOMMANDS_Decoder.c.o
                0x0000000000057070                ARCOMMANDS_Decoder_SetDroneManagerConnectionRefusedCb
 *fill*         0x00000000000570ad        0x3 
 .text.ARCOMMANDS_Decoder_SetDroneManagerConnectionRefusedCallback
                0x00000000000570b0       0x4c /home/sunho/bebop_ws/devel/arsdk/out/arsdk-native/build/libARCommands/obj/gen/Sources/ARCOMMANDS_Decoder.c.o
                0x00000000000570b0                ARCOMMANDS_Decoder_SetDroneManagerConnectionRefusedCallback
 *fill*         0x00000000000570fc        0x4 
 .text.ARCOMMANDS_Decoder_SetJumpingSumoPilotingPCMDCb
                0x0000000000057100       0x3d /home/sunho/bebop_ws/devel/arsdk/out/arsdk-native/build/libARCommands/obj/gen/Sources/ARCOMMANDS_Decoder.c.o
                0x0000000000057100                ARCOMMANDS_Decoder_SetJumpingSumoPilotingPCMDCb
 *fill*         0x000000000005713d        0x3 
 .text.ARCOMMANDS_Decoder_SetJumpingSumoPilotingPCMDCallback
                0x0000000000057140       0x4c /home/sunho/bebop_ws/devel/arsdk/out/arsdk-native/build/libARCommands/obj/gen/Sources/ARCOMMANDS_Decoder.c.o
                0x0000000000057140                ARCOMMANDS_Decoder_SetJumpingSumoPilotingPCMDCallback
 *fill*         0x000000000005718c        0x4 
 .text.ARCOMMANDS_Decoder_SetJumpingSumoPilotingPostureCb
                0x0000000000057190       0x3d /home/sunho/bebop_ws/devel/arsdk/out/arsdk-native/build/libARCommands/obj/gen/Sources/ARCOMMANDS_Decoder.c.o
                0x0000000000057190                ARCOMMANDS_Decoder_SetJumpingSumoPilotingPostureCb
 *fill*         0x00000000000571cd        0x3 
 .text.ARCOMMANDS_Decoder_SetJumpingSumoPilotingPostureCallback
                0x00000000000571d0       0x4c /home/sunho/bebop_ws/devel/arsdk/out/arsdk-native/build/libARCommands/obj/gen/Sources/ARCOMMANDS_Decoder.c.o
                0x00000000000571d0                ARCOMMANDS_Decoder_SetJumpingSumoPilotingPostureCallback
 *fill*         0x000000000005721c        0x4 
 .text.ARCOMMANDS_Decoder_SetJumpingSumoPilotingAddCapOffsetCb
                0x0000000000057220       0x3d /home/sunho/bebop_ws/devel/arsdk/out/arsdk-native/build/libARCommands/obj/gen/Sources/ARCOMMANDS_Decoder.c.o
                0x0000000000057220                ARCOMMANDS_Decoder_SetJumpingSumoPilotingAddCapOffsetCb
 *fill*         0x000000000005725d        0x3 
 .text.ARCOMMANDS_Decoder_SetJumpingSumoPilotingAddCapOffsetCallback
                0x0000000000057260       0x4c /home/sunho/bebop_ws/devel/arsdk/out/arsdk-native/build/libARCommands/obj/gen/Sources/ARCOMMANDS_Decoder.c.o
                0x0000000000057260                ARCOMMANDS_Decoder_SetJumpingSumoPilotingAddCapOffsetCallback
 *fill*         0x00000000000572ac        0x4 
 .text.ARCOMMANDS_Decoder_SetJumpingSumoAnimationsJumpStopCb
                0x00000000000572b0       0x3d /home/sunho/bebop_ws/devel/arsdk/out/arsdk-native/build/libARCommands/obj/gen/Sources/ARCOMMANDS_Decoder.c.o
                0x00000000000572b0                ARCOMMANDS_Decoder_SetJumpingSumoAnimationsJumpStopCb
 *fill*         0x00000000000572ed        0x3 
 .text.ARCOMMANDS_Decoder_SetJumpingSumoAnimationsJumpStopCallback
                0x00000000000572f0       0x4c /home/sunho/bebop_ws/devel/arsdk/out/arsdk-native/build/libARCommands/obj/gen/Sources/ARCOMMANDS_Decoder.c.o
                0x00000000000572f0                ARCOMMANDS_Decoder_SetJumpingSumoAnimationsJumpStopCallback
 *fill*         0x000000000005733c        0x4 
 .text.ARCOMMANDS_Decoder_SetJumpingSumoAnimationsJumpCancelCb
                0x0000000000057340       0x3d /home/sunho/bebop_ws/devel/arsdk/out/arsdk-native/build/libARCommands/obj/gen/Sources/ARCOMMANDS_Decoder.c.o
                0x0000000000057340                ARCOMMANDS_Decoder_SetJumpingSumoAnimationsJumpCancelCb
 *fill*         0x000000000005737d        0x3 
 .text.ARCOMMANDS_Decoder_SetJumpingSumoAnimationsJumpCancelCallback
                0x0000000000057380       0x4c /home/sunho/bebop_ws/devel/arsdk/out/arsdk-native/build/libARCommands/obj/gen/Sources/ARCOMMANDS_Decoder.c.o
                0x0000000000057380                ARCOMMANDS_Decoder_SetJumpingSumoAnimationsJumpCancelCallback
 *fill*         0x00000000000573cc        0x4 
 .text.ARCOMMANDS_Decoder_SetJumpingSumoAnimationsJumpLoadCb
                0x00000000000573d0       0x3d /home/sunho/bebop_ws/devel/arsdk/out/arsdk-native/build/libARCommands/obj/gen/Sources/ARCOMMANDS_Decoder.c.o
                0x00000000000573d0                ARCOMMANDS_Decoder_SetJumpingSumoAnimationsJumpLoadCb
 *fill*         0x000000000005740d        0x3 
 .text.ARCOMMANDS_Decoder_SetJumpingSumoAnimationsJumpLoadCallback
                0x0000000000057410       0x4c /home/sunho/bebop_ws/devel/arsdk/out/arsdk-native/build/libARCommands/obj/gen/Sources/ARCOMMANDS_Decoder.c.o
                0x0000000000057410                ARCOMMANDS_Decoder_SetJumpingSumoAnimationsJumpLoadCallback
 *fill*         0x000000000005745c        0x4 
 .text.ARCOMMANDS_Decoder_SetJumpingSumoAnimationsJumpCb
                0x0000000000057460       0x3d /home/sunho/bebop_ws/devel/arsdk/out/arsdk-native/build/libARCommands/obj/gen/Sources/ARCOMMANDS_Decoder.c.o
                0x0000000000057460                ARCOMMANDS_Decoder_SetJumpingSumoAnimationsJumpCb
 *fill*         0x000000000005749d        0x3 
 .text.ARCOMMANDS_Decoder_SetJumpingSumoAnimationsJumpCallback
                0x00000000000574a0       0x4c /home/sunho/bebop_ws/devel/arsdk/out/arsdk-native/build/libARCommands/obj/gen/Sources/ARCOMMANDS_Decoder.c.o
                0x00000000000574a0                ARCOMMANDS_Decoder_SetJumpingSumoAnimationsJumpCallback
 *fill*         0x00000000000574ec        0x4 
 .text.ARCOMMANDS_Decoder_SetJumpingSumoAnimationsSimpleAnimationCb
                0x00000000000574f0       0x3d /home/sunho/bebop_ws/devel/arsdk/out/arsdk-native/build/libARCommands/obj/gen/Sources/ARCOMMANDS_Decoder.c.o
                0x00000000000574f0                ARCOMMANDS_Decoder_SetJumpingSumoAnimationsSimpleAnimationCb
 *fill*         0x000000000005752d        0x3 
 .text.ARCOMMANDS_Decoder_SetJumpingSumoAnimationsSimpleAnimationCallback
                0x0000000000057530       0x4c /home/sunho/bebop_ws/devel/arsdk/out/arsdk-native/build/libARCommands/obj/gen/Sources/ARCOMMANDS_Decoder.c.o
                0x0000000000057530                ARCOMMANDS_Decoder_SetJumpingSumoAnimationsSimpleAnimationCallback
 *fill*         0x000000000005757c        0x4 
 .text.ARCOMMANDS_Decoder_SetJumpingSumoMediaRecordPictureCb
                0x0000000000057580       0x3d /home/sunho/bebop_ws/devel/arsdk/out/arsdk-native/build/libARCommands/obj/gen/Sources/ARCOMMANDS_Decoder.c.o
                0x0000000000057580                ARCOMMANDS_Decoder_SetJumpingSumoMediaRecordPictureCb
 *fill*         0x00000000000575bd        0x3 
 .text.ARCOMMANDS_Decoder_SetJumpingSumoMediaRecordPictureCallback
                0x00000000000575c0       0x4c /home/sunho/bebop_ws/devel/arsdk/out/arsdk-native/build/libARCommands/obj/gen/Sources/ARCOMMANDS_Decoder.c.o
                0x00000000000575c0                ARCOMMANDS_Decoder_SetJumpingSumoMediaRecordPictureCallback
 *fill*         0x000000000005760c        0x4 
 .text.ARCOMMANDS_Decoder_SetJumpingSumoMediaRecordVideoCb
                0x0000000000057610       0x3d /home/sunho/bebop_ws/devel/arsdk/out/arsdk-native/build/libARCommands/obj/gen/Sources/ARCOMMANDS_Decoder.c.o
                0x0000000000057610                ARCOMMANDS_Decoder_SetJumpingSumoMediaRecordVideoCb
 *fill*         0x000000000005764d        0x3 
 .text.ARCOMMANDS_Decoder_SetJumpingSumoMediaRecordVideoCallback
                0x0000000000057650       0x4c /home/sunho/bebop_ws/devel/arsdk/out/arsdk-native/build/libARCommands/obj/gen/Sources/ARCOMMANDS_Decoder.c.o
                0x0000000000057650                ARCOMMANDS_Decoder_SetJumpingSumoMediaRecordVideoCallback
 *fill*         0x000000000005769c        0x4 
 .text.ARCOMMANDS_Decoder_SetJumpingSumoMediaRecordPictureV2Cb
                0x00000000000576a0       0x3d /home/sunho/bebop_ws/devel/arsdk/out/arsdk-native/build/libARCommands/obj/gen/Sources/ARCOMMANDS_Decoder.c.o
                0x00000000000576a0                ARCOMMANDS_Decoder_SetJumpingSumoMediaRecordPictureV2Cb
 *fill*         0x00000000000576dd        0x3 
 .text.ARCOMMANDS_Decoder_SetJumpingSumoMediaRecordPictureV2Callback
                0x00000000000576e0       0x4c /home/sunho/bebop_ws/devel/arsdk/out/arsdk-native/build/libARCommands/obj/gen/Sources/ARCOMMANDS_Decoder.c.o
                0x00000000000576e0                ARCOMMANDS_Decoder_SetJumpingSumoMediaRecordPictureV2Callback
 *fill*         0x000000000005772c        0x4 
 .text.ARCOMMANDS_Decoder_SetJumpingSumoMediaRecordVideoV2Cb
                0x0000000000057730       0x3d /home/sunho/bebop_ws/devel/arsdk/out/arsdk-native/build/libARCommands/obj/gen/Sources/ARCOMMANDS_Decoder.c.o
                0x0000000000057730                ARCOMMANDS_Decoder_SetJumpingSumoMediaRecordVideoV2Cb
 *fill*         0x000000000005776d        0x3 
 .text.ARCOMMANDS_Decoder_SetJumpingSumoMediaRecordVideoV2Callback
                0x0000000000057770       0x4c /home/sunho/bebop_ws/devel/arsdk/out/arsdk-native/build/libARCommands/obj/gen/Sources/ARCOMMANDS_Decoder.c.o
                0x0000000000057770                ARCOMMANDS_Decoder_SetJumpingSumoMediaRecordVideoV2Callback
 *fill*         0x00000000000577bc        0x4 
 .text.ARCOMMANDS_Decoder_SetJumpingSumoNetworkSettingsWifiSelectionCb
                0x00000000000577c0       0x3d /home/sunho/bebop_ws/devel/arsdk/out/arsdk-native/build/libARCommands/obj/gen/Sources/ARCOMMANDS_Decoder.c.o
                0x00000000000577c0                ARCOMMANDS_Decoder_SetJumpingSumoNetworkSettingsWifiSelectionCb
 *fill*         0x00000000000577fd        0x3 
 .text.ARCOMMANDS_Decoder_SetJumpingSumoNetworkSettingsWifiSelectionCallback
                0x0000000000057800       0x4c /home/sunho/bebop_ws/devel/arsdk/out/arsdk-native/build/libARCommands/obj/gen/Sources/ARCOMMANDS_Decoder.c.o
                0x0000000000057800                ARCOMMANDS_Decoder_SetJumpingSumoNetworkSettingsWifiSelectionCallback
 *fill*         0x000000000005784c        0x4 
 .text.ARCOMMANDS_Decoder_SetJumpingSumoNetworkWifiScanCb
                0x0000000000057850       0x3d /home/sunho/bebop_ws/devel/arsdk/out/arsdk-native/build/libARCommands/obj/gen/Sources/ARCOMMANDS_Decoder.c.o
                0x0000000000057850                ARCOMMANDS_Decoder_SetJumpingSumoNetworkWifiScanCb
 *fill*         0x000000000005788d        0x3 
 .text.ARCOMMANDS_Decoder_SetJumpingSumoNetworkWifiScanCallback
                0x0000000000057890       0x4c /home/sunho/bebop_ws/devel/arsdk/out/arsdk-native/build/libARCommands/obj/gen/Sources/ARCOMMANDS_Decoder.c.o
                0x0000000000057890                ARCOMMANDS_Decoder_SetJumpingSumoNetworkWifiScanCallback
 *fill*         0x00000000000578dc        0x4 
 .text.ARCOMMANDS_Decoder_SetJumpingSumoNetworkWifiAuthChannelCb
                0x00000000000578e0       0x3d /home/sunho/bebop_ws/devel/arsdk/out/arsdk-native/build/libARCommands/obj/gen/Sources/ARCOMMANDS_Decoder.c.o
                0x00000000000578e0                ARCOMMANDS_Decoder_SetJumpingSumoNetworkWifiAuthChannelCb
 *fill*         0x000000000005791d        0x3 
 .text.ARCOMMANDS_Decoder_SetJumpingSumoNetworkWifiAuthChannelCallback
                0x0000000000057920       0x4c /home/sunho/bebop_ws/devel/arsdk/out/arsdk-native/build/libARCommands/obj/gen/Sources/ARCOMMANDS_Decoder.c.o
                0x0000000000057920                ARCOMMANDS_Decoder_SetJumpingSumoNetworkWifiAuthChannelCallback
 *fill*         0x000000000005796c        0x4 
 .text.ARCOMMANDS_Decoder_SetJumpingSumoAudioSettingsMasterVolumeCb
                0x0000000000057970       0x3d /home/sunho/bebop_ws/devel/arsdk/out/arsdk-native/build/libARCommands/obj/gen/Sources/ARCOMMANDS_Decoder.c.o
                0x0000000000057970                ARCOMMANDS_Decoder_SetJumpingSumoAudioSettingsMasterVolumeCb
 *fill*         0x00000000000579ad        0x3 
 .text.ARCOMMANDS_Decoder_SetJumpingSumoAudioSettingsMasterVolumeCallback
                0x00000000000579b0       0x4c /home/sunho/bebop_ws/devel/arsdk/out/arsdk-native/build/libARCommands/obj/gen/Sources/ARCOMMANDS_Decoder.c.o
                0x00000000000579b0                ARCOMMANDS_Decoder_SetJumpingSumoAudioSettingsMasterVolumeCallback
 *fill*         0x00000000000579fc        0x4 
 .text.ARCOMMANDS_Decoder_SetJumpingSumoAudioSettingsThemeCb
                0x0000000000057a00       0x3d /home/sunho/bebop_ws/devel/arsdk/out/arsdk-native/build/libARCommands/obj/gen/Sources/ARCOMMANDS_Decoder.c.o
                0x0000000000057a00                ARCOMMANDS_Decoder_SetJumpingSumoAudioSettingsThemeCb
 *fill*         0x0000000000057a3d        0x3 
 .text.ARCOMMANDS_Decoder_SetJumpingSumoAudioSettingsThemeCallback
                0x0000000000057a40       0x4c /home/sunho/bebop_ws/devel/arsdk/out/arsdk-native/build/libARCommands/obj/gen/Sources/ARCOMMANDS_Decoder.c.o
                0x0000000000057a40                ARCOMMANDS_Decoder_SetJumpingSumoAudioSettingsThemeCallback
 *fill*         0x0000000000057a8c        0x4 
 .text.ARCOMMANDS_Decoder_SetJumpingSumoRoadPlanAllScriptsMetadataCb
                0x0000000000057a90       0x3d /home/sunho/bebop_ws/devel/arsdk/out/arsdk-native/build/libARCommands/obj/gen/Sources/ARCOMMANDS_Decoder.c.o
                0x0000000000057a90                ARCOMMANDS_Decoder_SetJumpingSumoRoadPlanAllScriptsMetadataCb
 *fill*         0x0000000000057acd        0x3 
 .text.ARCOMMANDS_Decoder_SetJumpingSumoRoadPlanAllScriptsMetadataCallback
                0x0000000000057ad0       0x4c /home/sunho/bebop_ws/devel/arsdk/out/arsdk-native/build/libARCommands/obj/gen/Sources/ARCOMMANDS_Decoder.c.o
                0x0000000000057ad0                ARCOMMANDS_Decoder_SetJumpingSumoRoadPlanAllScriptsMetadataCallback
 *fill*         0x0000000000057b1c        0x4 
 .text.ARCOMMANDS_Decoder_SetJumpingSumoRoadPlanScriptUploadedCb
                0x0000000000057b20       0x3d /home/sunho/bebop_ws/devel/arsdk/out/arsdk-native/build/libARCommands/obj/gen/Sources/ARCOMMANDS_Decoder.c.o
                0x0000000000057b20                ARCOMMANDS_Decoder_SetJumpingSumoRoadPlanScriptUploadedCb
 *fill*         0x0000000000057b5d        0x3 
 .text.ARCOMMANDS_Decoder_SetJumpingSumoRoadPlanScriptUploadedCallback
                0x0000000000057b60       0x4c /home/sunho/bebop_ws/devel/arsdk/out/arsdk-native/build/libARCommands/obj/gen/Sources/ARCOMMANDS_Decoder.c.o
                0x0000000000057b60                ARCOMMANDS_Decoder_SetJumpingSumoRoadPlanScriptUploadedCallback
 *fill*         0x0000000000057bac        0x4 
 .text.ARCOMMANDS_Decoder_SetJumpingSumoRoadPlanScriptDeleteCb
                0x0000000000057bb0       0x3d /home/sunho/bebop_ws/devel/arsdk/out/arsdk-native/build/libARCommands/obj/gen/Sources/ARCOMMANDS_Decoder.c.o
                0x0000000000057bb0                ARCOMMANDS_Decoder_SetJumpingSumoRoadPlanScriptDeleteCb
 *fill*         0x0000000000057bed        0x3 
 .text.ARCOMMANDS_Decoder_SetJumpingSumoRoadPlanScriptDeleteCallback
                0x0000000000057bf0       0x4c /home/sunho/bebop_ws/devel/arsdk/out/arsdk-native/build/libARCommands/obj/gen/Sources/ARCOMMANDS_Decoder.c.o
                0x0000000000057bf0                ARCOMMANDS_Decoder_SetJumpingSumoRoadPlanScriptDeleteCallback
 *fill*         0x0000000000057c3c        0x4 
 .text.ARCOMMANDS_Decoder_SetJumpingSumoRoadPlanPlayScriptCb
                0x0000000000057c40       0x3d /home/sunho/bebop_ws/devel/arsdk/out/arsdk-native/build/libARCommands/obj/gen/Sources/ARCOMMANDS_Decoder.c.o
                0x0000000000057c40                ARCOMMANDS_Decoder_SetJumpingSumoRoadPlanPlayScriptCb
 *fill*         0x0000000000057c7d        0x3 
 .text.ARCOMMANDS_Decoder_SetJumpingSumoRoadPlanPlayScriptCallback
                0x0000000000057c80       0x4c /home/sunho/bebop_ws/devel/arsdk/out/arsdk-native/build/libARCommands/obj/gen/Sources/ARCOMMANDS_Decoder.c.o
                0x0000000000057c80                ARCOMMANDS_Decoder_SetJumpingSumoRoadPlanPlayScriptCallback
 *fill*         0x0000000000057ccc        0x4 
 .text.ARCOMMANDS_Decoder_SetJumpingSumoSpeedSettingsOutdoorCb
                0x0000000000057cd0       0x3d /home/sunho/bebop_ws/devel/arsdk/out/arsdk-native/build/libARCommands/obj/gen/Sources/ARCOMMANDS_Decoder.c.o
                0x0000000000057cd0                ARCOMMANDS_Decoder_SetJumpingSumoSpeedSettingsOutdoorCb
 *fill*         0x0000000000057d0d        0x3 
 .text.ARCOMMANDS_Decoder_SetJumpingSumoSpeedSettingsOutdoorCallback
                0x0000000000057d10       0x4c /home/sunho/bebop_ws/devel/arsdk/out/arsdk-native/build/libARCommands/obj/gen/Sources/ARCOMMANDS_Decoder.c.o
                0x0000000000057d10                ARCOMMANDS_Decoder_SetJumpingSumoSpeedSettingsOutdoorCallback
 *fill*         0x0000000000057d5c        0x4 
 .text.ARCOMMANDS_Decoder_SetJumpingSumoMediaStreamingVideoEnableCb
                0x0000000000057d60       0x3d /home/sunho/bebop_ws/devel/arsdk/out/arsdk-native/build/libARCommands/obj/gen/Sources/ARCOMMANDS_Decoder.c.o
                0x0000000000057d60                ARCOMMANDS_Decoder_SetJumpingSumoMediaStreamingVideoEnableCb
 *fill*         0x0000000000057d9d        0x3 
 .text.ARCOMMANDS_Decoder_SetJumpingSumoMediaStreamingVideoEnableCallback
                0x0000000000057da0       0x4c /home/sunho/bebop_ws/devel/arsdk/out/arsdk-native/build/libARCommands/obj/gen/Sources/ARCOMMANDS_Decoder.c.o
                0x0000000000057da0                ARCOMMANDS_Decoder_SetJumpingSumoMediaStreamingVideoEnableCallback
 *fill*         0x0000000000057dec        0x4 
 .text.ARCOMMANDS_Decoder_SetJumpingSumoVideoSettingsAutorecordCb
                0x0000000000057df0       0x3d /home/sunho/bebop_ws/devel/arsdk/out/arsdk-native/build/libARCommands/obj/gen/Sources/ARCOMMANDS_Decoder.c.o
                0x0000000000057df0                ARCOMMANDS_Decoder_SetJumpingSumoVideoSettingsAutorecordCb
 *fill*         0x0000000000057e2d        0x3 
 .text.ARCOMMANDS_Decoder_SetJumpingSumoVideoSettingsAutorecordCallback
                0x0000000000057e30       0x4c /home/sunho/bebop_ws/devel/arsdk/out/arsdk-native/build/libARCommands/obj/gen/Sources/ARCOMMANDS_Decoder.c.o
                0x0000000000057e30                ARCOMMANDS_Decoder_SetJumpingSumoVideoSettingsAutorecordCallback
 *fill*         0x0000000000057e7c        0x4 
 .text.ARCOMMANDS_Decoder_SetJumpingSumoPilotingStatePostureChangedCb
                0x0000000000057e80       0x3d /home/sunho/bebop_ws/devel/arsdk/out/arsdk-native/build/libARCommands/obj/gen/Sources/ARCOMMANDS_Decoder.c.o
                0x0000000000057e80                ARCOMMANDS_Decoder_SetJumpingSumoPilotingStatePostureChangedCb
 *fill*         0x0000000000057ebd        0x3 
 .text.ARCOMMANDS_Decoder_SetJumpingSumoPilotingStatePostureChangedCallback
                0x0000000000057ec0       0x4c /home/sunho/bebop_ws/devel/arsdk/out/arsdk-native/build/libARCommands/obj/gen/Sources/ARCOMMANDS_Decoder.c.o
                0x0000000000057ec0                ARCOMMANDS_Decoder_SetJumpingSumoPilotingStatePostureChangedCallback
 *fill*         0x0000000000057f0c        0x4 
 .text.ARCOMMANDS_Decoder_SetJumpingSumoPilotingStateAlertStateChangedCb
                0x0000000000057f10       0x3d /home/sunho/bebop_ws/devel/arsdk/out/arsdk-native/build/libARCommands/obj/gen/Sources/ARCOMMANDS_Decoder.c.o
                0x0000000000057f10                ARCOMMANDS_Decoder_SetJumpingSumoPilotingStateAlertStateChangedCb
 *fill*         0x0000000000057f4d        0x3 
 .text.ARCOMMANDS_Decoder_SetJumpingSumoPilotingStateAlertStateChangedCallback
                0x0000000000057f50       0x4c /home/sunho/bebop_ws/devel/arsdk/out/arsdk-native/build/libARCommands/obj/gen/Sources/ARCOMMANDS_Decoder.c.o
                0x0000000000057f50                ARCOMMANDS_Decoder_SetJumpingSumoPilotingStateAlertStateChangedCallback
 *fill*         0x0000000000057f9c        0x4 
 .text.ARCOMMANDS_Decoder_SetJumpingSumoPilotingStateSpeedChangedCb
                0x0000000000057fa0       0x3d /home/sunho/bebop_ws/devel/arsdk/out/arsdk-native/build/libARCommands/obj/gen/Sources/ARCOMMANDS_Decoder.c.o
                0x0000000000057fa0                ARCOMMANDS_Decoder_SetJumpingSumoPilotingStateSpeedChangedCb
 *fill*         0x0000000000057fdd        0x3 
 .text.ARCOMMANDS_Decoder_SetJumpingSumoPilotingStateSpeedChangedCallback
                0x0000000000057fe0       0x4c /home/sunho/bebop_ws/devel/arsdk/out/arsdk-native/build/libARCommands/obj/gen/Sources/ARCOMMANDS_Decoder.c.o
                0x0000000000057fe0                ARCOMMANDS_Decoder_SetJumpingSumoPilotingStateSpeedChangedCallback
 *fill*         0x000000000005802c        0x4 
 .text.ARCOMMANDS_Decoder_SetJumpingSumoAnimationsStateJumpLoadChangedCb
                0x0000000000058030       0x3d /home/sunho/bebop_ws/devel/arsdk/out/arsdk-native/build/libARCommands/obj/gen/Sources/ARCOMMANDS_Decoder.c.o
                0x0000000000058030                ARCOMMANDS_Decoder_SetJumpingSumoAnimationsStateJumpLoadChangedCb
 *fill*         0x000000000005806d        0x3 
 .text.ARCOMMANDS_Decoder_SetJumpingSumoAnimationsStateJumpLoadChangedCallback
                0x0000000000058070       0x4c /home/sunho/bebop_ws/devel/arsdk/out/arsdk-native/build/libARCommands/obj/gen/Sources/ARCOMMANDS_Decoder.c.o
                0x0000000000058070                ARCOMMANDS_Decoder_SetJumpingSumoAnimationsStateJumpLoadChangedCallback
 *fill*         0x00000000000580bc        0x4 
 .text.ARCOMMANDS_Decoder_SetJumpingSumoAnimationsStateJumpTypeChangedCb
                0x00000000000580c0       0x3d /home/sunho/bebop_ws/devel/arsdk/out/arsdk-native/build/libARCommands/obj/gen/Sources/ARCOMMANDS_Decoder.c.o
                0x00000000000580c0                ARCOMMANDS_Decoder_SetJumpingSumoAnimationsStateJumpTypeChangedCb
 *fill*         0x00000000000580fd        0x3 
 .text.ARCOMMANDS_Decoder_SetJumpingSumoAnimationsStateJumpTypeChangedCallback
                0x0000000000058100       0x4c /home/sunho/bebop_ws/devel/arsdk/out/arsdk-native/build/libARCommands/obj/gen/Sources/ARCOMMANDS_Decoder.c.o
                0x0000000000058100                ARCOMMANDS_Decoder_SetJumpingSumoAnimationsStateJumpTypeChangedCallback
 *fill*         0x000000000005814c        0x4 
 .text.ARCOMMANDS_Decoder_SetJumpingSumoAnimationsStateJumpMotorProblemChangedCb
                0x0000000000058150       0x3d /home/sunho/bebop_ws/devel/arsdk/out/arsdk-native/build/libARCommands/obj/gen/Sources/ARCOMMANDS_Decoder.c.o
                0x0000000000058150                ARCOMMANDS_Decoder_SetJumpingSumoAnimationsStateJumpMotorProblemChangedCb
 *fill*         0x000000000005818d        0x3 
 .text.ARCOMMANDS_Decoder_SetJumpingSumoAnimationsStateJumpMotorProblemChangedCallback
                0x0000000000058190       0x4c /home/sunho/bebop_ws/devel/arsdk/out/arsdk-native/build/libARCommands/obj/gen/Sources/ARCOMMANDS_Decoder.c.o
                0x0000000000058190                ARCOMMANDS_Decoder_SetJumpingSumoAnimationsStateJumpMotorProblemChangedCallback
 *fill*         0x00000000000581dc        0x4 
 .text.ARCOMMANDS_Decoder_SetJumpingSumoSettingsStateProductGPSVersionChangedCb
                0x00000000000581e0       0x3d /home/sunho/bebop_ws/devel/arsdk/out/arsdk-native/build/libARCommands/obj/gen/Sources/ARCOMMANDS_Decoder.c.o
                0x00000000000581e0                ARCOMMANDS_Decoder_SetJumpingSumoSettingsStateProductGPSVersionChangedCb
 *fill*         0x000000000005821d        0x3 
 .text.ARCOMMANDS_Decoder_SetJumpingSumoSettingsStateProductGPSVersionChangedCallback
                0x0000000000058220       0x4c /home/sunho/bebop_ws/devel/arsdk/out/arsdk-native/build/libARCommands/obj/gen/Sources/ARCOMMANDS_Decoder.c.o
                0x0000000000058220                ARCOMMANDS_Decoder_SetJumpingSumoSettingsStateProductGPSVersionChangedCallback
 *fill*         0x000000000005826c        0x4 
 .text.ARCOMMANDS_Decoder_SetJumpingSumoMediaRecordStatePictureStateChangedCb
                0x0000000000058270       0x3d /home/sunho/bebop_ws/devel/arsdk/out/arsdk-native/build/libARCommands/obj/gen/Sources/ARCOMMANDS_Decoder.c.o
                0x0000000000058270                ARCOMMANDS_Decoder_SetJumpingSumoMediaRecordStatePictureStateChangedCb
 *fill*         0x00000000000582ad        0x3 
 .text.ARCOMMANDS_Decoder_SetJumpingSumoMediaRecordStatePictureStateChangedCallback
                0x00000000000582b0       0x4c /home/sunho/bebop_ws/devel/arsdk/out/arsdk-native/build/libARCommands/obj/gen/Sources/ARCOMMANDS_Decoder.c.o
                0x00000000000582b0                ARCOMMANDS_Decoder_SetJumpingSumoMediaRecordStatePictureStateChangedCallback
 *fill*         0x00000000000582fc        0x4 
 .text.ARCOMMANDS_Decoder_SetJumpingSumoMediaRecordStateVideoStateChangedCb
                0x0000000000058300       0x3d /home/sunho/bebop_ws/devel/arsdk/out/arsdk-native/build/libARCommands/obj/gen/Sources/ARCOMMANDS_Decoder.c.o
                0x0000000000058300                ARCOMMANDS_Decoder_SetJumpingSumoMediaRecordStateVideoStateChangedCb
 *fill*         0x000000000005833d        0x3 
 .text.ARCOMMANDS_Decoder_SetJumpingSumoMediaRecordStateVideoStateChangedCallback
                0x0000000000058340       0x4c /home/sunho/bebop_ws/devel/arsdk/out/arsdk-native/build/libARCommands/obj/gen/Sources/ARCOMMANDS_Decoder.c.o
                0x0000000000058340                ARCOMMANDS_Decoder_SetJumpingSumoMediaRecordStateVideoStateChangedCallback
 *fill*         0x000000000005838c        0x4 
 .text.ARCOMMANDS_Decoder_SetJumpingSumoMediaRecordStatePictureStateChangedV2Cb
                0x0000000000058390       0x3d /home/sunho/bebop_ws/devel/arsdk/out/arsdk-native/build/libARCommands/obj/gen/Sources/ARCOMMANDS_Decoder.c.o
                0x0000000000058390                ARCOMMANDS_Decoder_SetJumpingSumoMediaRecordStatePictureStateChangedV2Cb
 *fill*         0x00000000000583cd        0x3 
 .text.ARCOMMANDS_Decoder_SetJumpingSumoMediaRecordStatePictureStateChangedV2Callback
                0x00000000000583d0       0x4c /home/sunho/bebop_ws/devel/arsdk/out/arsdk-native/build/libARCommands/obj/gen/Sources/ARCOMMANDS_Decoder.c.o
                0x00000000000583d0                ARCOMMANDS_Decoder_SetJumpingSumoMediaRecordStatePictureStateChangedV2Callback
 *fill*         0x000000000005841c        0x4 
 .text.ARCOMMANDS_Decoder_SetJumpingSumoMediaRecordStateVideoStateChangedV2Cb
                0x0000000000058420       0x3d /home/sunho/bebop_ws/devel/arsdk/out/arsdk-native/build/libARCommands/obj/gen/Sources/ARCOMMANDS_Decoder.c.o
                0x0000000000058420                ARCOMMANDS_Decoder_SetJumpingSumoMediaRecordStateVideoStateChangedV2Cb
 *fill*         0x000000000005845d        0x3 
 .text.ARCOMMANDS_Decoder_SetJumpingSumoMediaRecordStateVideoStateChangedV2Callback
                0x0000000000058460       0x4c /home/sunho/bebop_ws/devel/arsdk/out/arsdk-native/build/libARCommands/obj/gen/Sources/ARCOMMANDS_Decoder.c.o
                0x0000000000058460                ARCOMMANDS_Decoder_SetJumpingSumoMediaRecordStateVideoStateChangedV2Callback
 *fill*         0x00000000000584ac        0x4 
 .text.ARCOMMANDS_Decoder_SetJumpingSumoMediaRecordEventPictureEventChangedCb
                0x00000000000584b0       0x3d /home/sunho/bebop_ws/devel/arsdk/out/arsdk-native/build/libARCommands/obj/gen/Sources/ARCOMMANDS_Decoder.c.o
                0x00000000000584b0                ARCOMMANDS_Decoder_SetJumpingSumoMediaRecordEventPictureEventChangedCb
 *fill*         0x00000000000584ed        0x3 
 .text.ARCOMMANDS_Decoder_SetJumpingSumoMediaRecordEventPictureEventChangedCallback
                0x00000000000584f0       0x4c /home/sunho/bebop_ws/devel/arsdk/out/arsdk-native/build/libARCommands/obj/gen/Sources/ARCOMMANDS_Decoder.c.o
                0x00000000000584f0                ARCOMMANDS_Decoder_SetJumpingSumoMediaRecordEventPictureEventChangedCallback
 *fill*         0x000000000005853c        0x4 
 .text.ARCOMMANDS_Decoder_SetJumpingSumoMediaRecordEventVideoEventChangedCb
                0x0000000000058540       0x3d /home/sunho/bebop_ws/devel/arsdk/out/arsdk-native/build/libARCommands/obj/gen/Sources/ARCOMMANDS_Decoder.c.o
                0x0000000000058540                ARCOMMANDS_Decoder_SetJumpingSumoMediaRecordEventVideoEventChangedCb
 *fill*         0x000000000005857d        0x3 
 .text.ARCOMMANDS_Decoder_SetJumpingSumoMediaRecordEventVideoEventChangedCallback
                0x0000000000058580       0x4c /home/sunho/bebop_ws/devel/arsdk/out/arsdk-native/build/libARCommands/obj/gen/Sources/ARCOMMANDS_Decoder.c.o
                0x0000000000058580                ARCOMMANDS_Decoder_SetJumpingSumoMediaRecordEventVideoEventChangedCallback
 *fill*         0x00000000000585cc        0x4 
 .text.ARCOMMANDS_Decoder_SetJumpingSumoNetworkSettingsStateWifiSelectionChangedCb
                0x00000000000585d0       0x3d /home/sunho/bebop_ws/devel/arsdk/out/arsdk-native/build/libARCommands/obj/gen/Sources/ARCOMMANDS_Decoder.c.o
                0x00000000000585d0                ARCOMMANDS_Decoder_SetJumpingSumoNetworkSettingsStateWifiSelectionChangedCb
 *fill*         0x000000000005860d        0x3 
 .text.ARCOMMANDS_Decoder_SetJumpingSumoNetworkSettingsStateWifiSelectionChangedCallback
                0x0000000000058610       0x4c /home/sunho/bebop_ws/devel/arsdk/out/arsdk-native/build/libARCommands/obj/gen/Sources/ARCOMMANDS_Decoder.c.o
                0x0000000000058610                ARCOMMANDS_Decoder_SetJumpingSumoNetworkSettingsStateWifiSelectionChangedCallback
 *fill*         0x000000000005865c        0x4 
 .text.ARCOMMANDS_Decoder_SetJumpingSumoNetworkStateWifiScanListChangedCb
                0x0000000000058660       0x3d /home/sunho/bebop_ws/devel/arsdk/out/arsdk-native/build/libARCommands/obj/gen/Sources/ARCOMMANDS_Decoder.c.o
                0x0000000000058660                ARCOMMANDS_Decoder_SetJumpingSumoNetworkStateWifiScanListChangedCb
 *fill*         0x000000000005869d        0x3 
 .text.ARCOMMANDS_Decoder_SetJumpingSumoNetworkStateWifiScanListChangedCallback
                0x00000000000586a0       0x4c /home/sunho/bebop_ws/devel/arsdk/out/arsdk-native/build/libARCommands/obj/gen/Sources/ARCOMMANDS_Decoder.c.o
                0x00000000000586a0                ARCOMMANDS_Decoder_SetJumpingSumoNetworkStateWifiScanListChangedCallback
 *fill*         0x00000000000586ec        0x4 
 .text.ARCOMMANDS_Decoder_SetJumpingSumoNetworkStateAllWifiScanChangedCb
                0x00000000000586f0       0x3d /home/sunho/bebop_ws/devel/arsdk/out/arsdk-native/build/libARCommands/obj/gen/Sources/ARCOMMANDS_Decoder.c.o
                0x00000000000586f0                ARCOMMANDS_Decoder_SetJumpingSumoNetworkStateAllWifiScanChangedCb
 *fill*         0x000000000005872d        0x3 
 .text.ARCOMMANDS_Decoder_SetJumpingSumoNetworkStateAllWifiScanChangedCallback
                0x0000000000058730       0x4c /home/sunho/bebop_ws/devel/arsdk/out/arsdk-native/build/libARCommands/obj/gen/Sources/ARCOMMANDS_Decoder.c.o
                0x0000000000058730                ARCOMMANDS_Decoder_SetJumpingSumoNetworkStateAllWifiScanChangedCallback
 *fill*         0x000000000005877c        0x4 
 .text.ARCOMMANDS_Decoder_SetJumpingSumoNetworkStateWifiAuthChannelListChangedCb
                0x0000000000058780       0x3d /home/sunho/bebop_ws/devel/arsdk/out/arsdk-native/build/libARCommands/obj/gen/Sources/ARCOMMANDS_Decoder.c.o
                0x0000000000058780                ARCOMMANDS_Decoder_SetJumpingSumoNetworkStateWifiAuthChannelListChangedCb
 *fill*         0x00000000000587bd        0x3 
 .text.ARCOMMANDS_Decoder_SetJumpingSumoNetworkStateWifiAuthChannelListChangedCallback
                0x00000000000587c0       0x4c /home/sunho/bebop_ws/devel/arsdk/out/arsdk-native/build/libARCommands/obj/gen/Sources/ARCOMMANDS_Decoder.c.o
                0x00000000000587c0                ARCOMMANDS_Decoder_SetJumpingSumoNetworkStateWifiAuthChannelListChangedCallback
 *fill*         0x000000000005880c        0x4 
 .text.ARCOMMANDS_Decoder_SetJumpingSumoNetworkStateAllWifiAuthChannelChangedCb
                0x0000000000058810       0x3d /home/sunho/bebop_ws/devel/arsdk/out/arsdk-native/build/libARCommands/obj/gen/Sources/ARCOMMANDS_Decoder.c.o
                0x0000000000058810                ARCOMMANDS_Decoder_SetJumpingSumoNetworkStateAllWifiAuthChannelChangedCb
 *fill*         0x000000000005884d        0x3 
 .text.ARCOMMANDS_Decoder_SetJumpingSumoNetworkStateAllWifiAuthChannelChangedCallback
                0x0000000000058850       0x4c /home/sunho/bebop_ws/devel/arsdk/out/arsdk-native/build/libARCommands/obj/gen/Sources/ARCOMMANDS_Decoder.c.o
                0x0000000000058850                ARCOMMANDS_Decoder_SetJumpingSumoNetworkStateAllWifiAuthChannelChangedCallback
 *fill*         0x000000000005889c        0x4 
 .text.ARCOMMANDS_Decoder_SetJumpingSumoNetworkStateLinkQualityChangedCb
                0x00000000000588a0       0x3d /home/sunho/bebop_ws/devel/arsdk/out/arsdk-native/build/libARCommands/obj/gen/Sources/ARCOMMANDS_Decoder.c.o
                0x00000000000588a0                ARCOMMANDS_Decoder_SetJumpingSumoNetworkStateLinkQualityChangedCb
 *fill*         0x00000000000588dd        0x3 
 .text.ARCOMMANDS_Decoder_SetJumpingSumoNetworkStateLinkQualityChangedCallback
                0x00000000000588e0       0x4c /home/sunho/bebop_ws/devel/arsdk/out/arsdk-native/build/libARCommands/obj/gen/Sources/ARCOMMANDS_Decoder.c.o
                0x00000000000588e0                ARCOMMANDS_Decoder_SetJumpingSumoNetworkStateLinkQualityChangedCallback
 *fill*         0x000000000005892c        0x4 
 .text.ARCOMMANDS_Decoder_SetJumpingSumoAudioSettingsStateMasterVolumeChangedCb
                0x0000000000058930       0x3d /home/sunho/bebop_ws/devel/arsdk/out/arsdk-native/build/libARCommands/obj/gen/Sources/ARCOMMANDS_Decoder.c.o
                0x0000000000058930                ARCOMMANDS_Decoder_SetJumpingSumoAudioSettingsStateMasterVolumeChangedCb
 *fill*         0x000000000005896d        0x3 
 .text.ARCOMMANDS_Decoder_SetJumpingSumoAudioSettingsStateMasterVolumeChangedCallback
                0x0000000000058970       0x4c /home/sunho/bebop_ws/devel/arsdk/out/arsdk-native/build/libARCommands/obj/gen/Sources/ARCOMMANDS_Decoder.c.o
                0x0000000000058970                ARCOMMANDS_Decoder_SetJumpingSumoAudioSettingsStateMasterVolumeChangedCallback
 *fill*         0x00000000000589bc        0x4 
 .text.ARCOMMANDS_Decoder_SetJumpingSumoAudioSettingsStateThemeChangedCb
                0x00000000000589c0       0x3d /home/sunho/bebop_ws/devel/arsdk/out/arsdk-native/build/libARCommands/obj/gen/Sources/ARCOMMANDS_Decoder.c.o
                0x00000000000589c0                ARCOMMANDS_Decoder_SetJumpingSumoAudioSettingsStateThemeChangedCb
 *fill*         0x00000000000589fd        0x3 
 .text.ARCOMMANDS_Decoder_SetJumpingSumoAudioSettingsStateThemeChangedCallback
                0x0000000000058a00       0x4c /home/sunho/bebop_ws/devel/arsdk/out/arsdk-native/build/libARCommands/obj/gen/Sources/ARCOMMANDS_Decoder.c.o
                0x0000000000058a00                ARCOMMANDS_Decoder_SetJumpingSumoAudioSettingsStateThemeChangedCallback
 *fill*         0x0000000000058a4c        0x4 
 .text.ARCOMMANDS_Decoder_SetJumpingSumoRoadPlanStateScriptMetadataListChangedCb
                0x0000000000058a50       0x3d /home/sunho/bebop_ws/devel/arsdk/out/arsdk-native/build/libARCommands/obj/gen/Sources/ARCOMMANDS_Decoder.c.o
                0x0000000000058a50                ARCOMMANDS_Decoder_SetJumpingSumoRoadPlanStateScriptMetadataListChangedCb
 *fill*         0x0000000000058a8d        0x3 
 .text.ARCOMMANDS_Decoder_SetJumpingSumoRoadPlanStateScriptMetadataListChangedCallback
                0x0000000000058a90       0x4c /home/sunho/bebop_ws/devel/arsdk/out/arsdk-native/build/libARCommands/obj/gen/Sources/ARCOMMANDS_Decoder.c.o
                0x0000000000058a90                ARCOMMANDS_Decoder_SetJumpingSumoRoadPlanStateScriptMetadataListChangedCallback
 *fill*         0x0000000000058adc        0x4 
 .text.ARCOMMANDS_Decoder_SetJumpingSumoRoadPlanStateAllScriptsMetadataChangedCb
                0x0000000000058ae0       0x3d /home/sunho/bebop_ws/devel/arsdk/out/arsdk-native/build/libARCommands/obj/gen/Sources/ARCOMMANDS_Decoder.c.o
                0x0000000000058ae0                ARCOMMANDS_Decoder_SetJumpingSumoRoadPlanStateAllScriptsMetadataChangedCb
 *fill*         0x0000000000058b1d        0x3 
 .text.ARCOMMANDS_Decoder_SetJumpingSumoRoadPlanStateAllScriptsMetadataChangedCallback
                0x0000000000058b20       0x4c /home/sunho/bebop_ws/devel/arsdk/out/arsdk-native/build/libARCommands/obj/gen/Sources/ARCOMMANDS_Decoder.c.o
                0x0000000000058b20                ARCOMMANDS_Decoder_SetJumpingSumoRoadPlanStateAllScriptsMetadataChangedCallback
 *fill*         0x0000000000058b6c        0x4 
 .text.ARCOMMANDS_Decoder_SetJumpingSumoRoadPlanStateScriptUploadChangedCb
                0x0000000000058b70       0x3d /home/sunho/bebop_ws/devel/arsdk/out/arsdk-native/build/libARCommands/obj/gen/Sources/ARCOMMANDS_Decoder.c.o
                0x0000000000058b70                ARCOMMANDS_Decoder_SetJumpingSumoRoadPlanStateScriptUploadChangedCb
 *fill*         0x0000000000058bad        0x3 
 .text.ARCOMMANDS_Decoder_SetJumpingSumoRoadPlanStateScriptUploadChangedCallback
                0x0000000000058bb0       0x4c /home/sunho/bebop_ws/devel/arsdk/out/arsdk-native/build/libARCommands/obj/gen/Sources/ARCOMMANDS_Decoder.c.o
                0x0000000000058bb0                ARCOMMANDS_Decoder_SetJumpingSumoRoadPlanStateScriptUploadChangedCallback
 *fill*         0x0000000000058bfc        0x4 
 .text.ARCOMMANDS_Decoder_SetJumpingSumoRoadPlanStateScriptDeleteChangedCb
                0x0000000000058c00       0x3d /home/sunho/bebop_ws/devel/arsdk/out/arsdk-native/build/libARCommands/obj/gen/Sources/ARCOMMANDS_Decoder.c.o
                0x0000000000058c00                ARCOMMANDS_Decoder_SetJumpingSumoRoadPlanStateScriptDeleteChangedCb
 *fill*         0x0000000000058c3d        0x3 
 .text.ARCOMMANDS_Decoder_SetJumpingSumoRoadPlanStateScriptDeleteChangedCallback
                0x0000000000058c40       0x4c /home/sunho/bebop_ws/devel/arsdk/out/arsdk-native/build/libARCommands/obj/gen/Sources/ARCOMMANDS_Decoder.c.o
                0x0000000000058c40                ARCOMMANDS_Decoder_SetJumpingSumoRoadPlanStateScriptDeleteChangedCallback
 *fill*         0x0000000000058c8c        0x4 
 .text.ARCOMMANDS_Decoder_SetJumpingSumoRoadPlanStatePlayScriptChangedCb
                0x0000000000058c90       0x3d /home/sunho/bebop_ws/devel/arsdk/out/arsdk-native/build/libARCommands/obj/gen/Sources/ARCOMMANDS_Decoder.c.o
                0x0000000000058c90                ARCOMMANDS_Decoder_SetJumpingSumoRoadPlanStatePlayScriptChangedCb
 *fill*         0x0000000000058ccd        0x3 
 .text.ARCOMMANDS_Decoder_SetJumpingSumoRoadPlanStatePlayScriptChangedCallback
                0x0000000000058cd0       0x4c /home/sunho/bebop_ws/devel/arsdk/out/arsdk-native/build/libARCommands/obj/gen/Sources/ARCOMMANDS_Decoder.c.o
                0x0000000000058cd0                ARCOMMANDS_Decoder_SetJumpingSumoRoadPlanStatePlayScriptChangedCallback
 *fill*         0x0000000000058d1c        0x4 
 .text.ARCOMMANDS_Decoder_SetJumpingSumoSpeedSettingsStateOutdoorChangedCb
                0x0000000000058d20       0x3d /home/sunho/bebop_ws/devel/arsdk/out/arsdk-native/build/libARCommands/obj/gen/Sources/ARCOMMANDS_Decoder.c.o
                0x0000000000058d20                ARCOMMANDS_Decoder_SetJumpingSumoSpeedSettingsStateOutdoorChangedCb
 *fill*         0x0000000000058d5d        0x3 
 .text.ARCOMMANDS_Decoder_SetJumpingSumoSpeedSettingsStateOutdoorChangedCallback
                0x0000000000058d60       0x4c /home/sunho/bebop_ws/devel/arsdk/out/arsdk-native/build/libARCommands/obj/gen/Sources/ARCOMMANDS_Decoder.c.o
                0x0000000000058d60                ARCOMMANDS_Decoder_SetJumpingSumoSpeedSettingsStateOutdoorChangedCallback
 *fill*         0x0000000000058dac        0x4 
 .text.ARCOMMANDS_Decoder_SetJumpingSumoMediaStreamingStateVideoEnableChangedCb
                0x0000000000058db0       0x3d /home/sunho/bebop_ws/devel/arsdk/out/arsdk-native/build/libARCommands/obj/gen/Sources/ARCOMMANDS_Decoder.c.o
                0x0000000000058db0                ARCOMMANDS_Decoder_SetJumpingSumoMediaStreamingStateVideoEnableChangedCb
 *fill*         0x0000000000058ded        0x3 
 .text.ARCOMMANDS_Decoder_SetJumpingSumoMediaStreamingStateVideoEnableChangedCallback
                0x0000000000058df0       0x4c /home/sunho/bebop_ws/devel/arsdk/out/arsdk-native/build/libARCommands/obj/gen/Sources/ARCOMMANDS_Decoder.c.o
                0x0000000000058df0                ARCOMMANDS_Decoder_SetJumpingSumoMediaStreamingStateVideoEnableChangedCallback
 *fill*         0x0000000000058e3c        0x4 
 .text.ARCOMMANDS_Decoder_SetJumpingSumoVideoSettingsStateAutorecordChangedCb
                0x0000000000058e40       0x3d /home/sunho/bebop_ws/devel/arsdk/out/arsdk-native/build/libARCommands/obj/gen/Sources/ARCOMMANDS_Decoder.c.o
                0x0000000000058e40                ARCOMMANDS_Decoder_SetJumpingSumoVideoSettingsStateAutorecordChangedCb
 *fill*         0x0000000000058e7d        0x3 
 .text.ARCOMMANDS_Decoder_SetJumpingSumoVideoSettingsStateAutorecordChangedCallback
                0x0000000000058e80       0x4c /home/sunho/bebop_ws/devel/arsdk/out/arsdk-native/build/libARCommands/obj/gen/Sources/ARCOMMANDS_Decoder.c.o
                0x0000000000058e80                ARCOMMANDS_Decoder_SetJumpingSumoVideoSettingsStateAutorecordChangedCallback
 *fill*         0x0000000000058ecc        0x4 
 .text.ARCOMMANDS_Decoder_SetMapperGrabCb
                0x0000000000058ed0       0x3d /home/sunho/bebop_ws/devel/arsdk/out/arsdk-native/build/libARCommands/obj/gen/Sources/ARCOMMANDS_Decoder.c.o
                0x0000000000058ed0                ARCOMMANDS_Decoder_SetMapperGrabCb
 *fill*         0x0000000000058f0d        0x3 
 .text.ARCOMMANDS_Decoder_SetMapperGrabCallback
                0x0000000000058f10       0x4c /home/sunho/bebop_ws/devel/arsdk/out/arsdk-native/build/libARCommands/obj/gen/Sources/ARCOMMANDS_Decoder.c.o
                0x0000000000058f10                ARCOMMANDS_Decoder_SetMapperGrabCallback
 *fill*         0x0000000000058f5c        0x4 
 .text.ARCOMMANDS_Decoder_SetMapperMapButtonActionCb
                0x0000000000058f60       0x3d /home/sunho/bebop_ws/devel/arsdk/out/arsdk-native/build/libARCommands/obj/gen/Sources/ARCOMMANDS_Decoder.c.o
                0x0000000000058f60                ARCOMMANDS_Decoder_SetMapperMapButtonActionCb
 *fill*         0x0000000000058f9d        0x3 
 .text.ARCOMMANDS_Decoder_SetMapperMapButtonActionCallback
                0x0000000000058fa0       0x4c /home/sunho/bebop_ws/devel/arsdk/out/arsdk-native/build/libARCommands/obj/gen/Sources/ARCOMMANDS_Decoder.c.o
                0x0000000000058fa0                ARCOMMANDS_Decoder_SetMapperMapButtonActionCallback
 *fill*         0x0000000000058fec        0x4 
 .text.ARCOMMANDS_Decoder_SetMapperMapAxisActionCb
                0x0000000000058ff0       0x3d /home/sunho/bebop_ws/devel/arsdk/out/arsdk-native/build/libARCommands/obj/gen/Sources/ARCOMMANDS_Decoder.c.o
                0x0000000000058ff0                ARCOMMANDS_Decoder_SetMapperMapAxisActionCb
 *fill*         0x000000000005902d        0x3 
 .text.ARCOMMANDS_Decoder_SetMapperMapAxisActionCallback
                0x0000000000059030       0x4c /home/sunho/bebop_ws/devel/arsdk/out/arsdk-native/build/libARCommands/obj/gen/Sources/ARCOMMANDS_Decoder.c.o
                0x0000000000059030                ARCOMMANDS_Decoder_SetMapperMapAxisActionCallback
 *fill*         0x000000000005907c        0x4 
 .text.ARCOMMANDS_Decoder_SetMapperResetMappingCb
                0x0000000000059080       0x3d /home/sunho/bebop_ws/devel/arsdk/out/arsdk-native/build/libARCommands/obj/gen/Sources/ARCOMMANDS_Decoder.c.o
                0x0000000000059080                ARCOMMANDS_Decoder_SetMapperResetMappingCb
 *fill*         0x00000000000590bd        0x3 
 .text.ARCOMMANDS_Decoder_SetMapperResetMappingCallback
                0x00000000000590c0       0x4c /home/sunho/bebop_ws/devel/arsdk/out/arsdk-native/build/libARCommands/obj/gen/Sources/ARCOMMANDS_Decoder.c.o
                0x00000000000590c0                ARCOMMANDS_Decoder_SetMapperResetMappingCallback
 *fill*         0x000000000005910c        0x4 
 .text.ARCOMMANDS_Decoder_SetMapperSetExpoCb
                0x0000000000059110       0x3d /home/sunho/bebop_ws/devel/arsdk/out/arsdk-native/build/libARCommands/obj/gen/Sources/ARCOMMANDS_Decoder.c.o
                0x0000000000059110                ARCOMMANDS_Decoder_SetMapperSetExpoCb
 *fill*         0x000000000005914d        0x3 
 .text.ARCOMMANDS_Decoder_SetMapperSetExpoCallback
                0x0000000000059150       0x4c /home/sunho/bebop_ws/devel/arsdk/out/arsdk-native/build/libARCommands/obj/gen/Sources/ARCOMMANDS_Decoder.c.o
                0x0000000000059150                ARCOMMANDS_Decoder_SetMapperSetExpoCallback
 *fill*         0x000000000005919c        0x4 
 .text.ARCOMMANDS_Decoder_SetMapperSetInvertedCb
                0x00000000000591a0       0x3d /home/sunho/bebop_ws/devel/arsdk/out/arsdk-native/build/libARCommands/obj/gen/Sources/ARCOMMANDS_Decoder.c.o
                0x00000000000591a0                ARCOMMANDS_Decoder_SetMapperSetInvertedCb
 *fill*         0x00000000000591dd        0x3 
 .text.ARCOMMANDS_Decoder_SetMapperSetInvertedCallback
                0x00000000000591e0       0x4c /home/sunho/bebop_ws/devel/arsdk/out/arsdk-native/build/libARCommands/obj/gen/Sources/ARCOMMANDS_Decoder.c.o
                0x00000000000591e0                ARCOMMANDS_Decoder_SetMapperSetInvertedCallback
 *fill*         0x000000000005922c        0x4 
 .text.ARCOMMANDS_Decoder_SetMapperGrabStateCb
                0x0000000000059230       0x3d /home/sunho/bebop_ws/devel/arsdk/out/arsdk-native/build/libARCommands/obj/gen/Sources/ARCOMMANDS_Decoder.c.o
                0x0000000000059230                ARCOMMANDS_Decoder_SetMapperGrabStateCb
 *fill*         0x000000000005926d        0x3 
 .text.ARCOMMANDS_Decoder_SetMapperGrabStateCallback
                0x0000000000059270       0x4c /home/sunho/bebop_ws/devel/arsdk/out/arsdk-native/build/libARCommands/obj/gen/Sources/ARCOMMANDS_Decoder.c.o
                0x0000000000059270                ARCOMMANDS_Decoder_SetMapperGrabStateCallback
 *fill*         0x00000000000592bc        0x4 
 .text.ARCOMMANDS_Decoder_SetMapperGrabButtonEventCb
                0x00000000000592c0       0x3d /home/sunho/bebop_ws/devel/arsdk/out/arsdk-native/build/libARCommands/obj/gen/Sources/ARCOMMANDS_Decoder.c.o
                0x00000000000592c0                ARCOMMANDS_Decoder_SetMapperGrabButtonEventCb
 *fill*         0x00000000000592fd        0x3 
 .text.ARCOMMANDS_Decoder_SetMapperGrabButtonEventCallback
                0x0000000000059300       0x4c /home/sunho/bebop_ws/devel/arsdk/out/arsdk-native/build/libARCommands/obj/gen/Sources/ARCOMMANDS_Decoder.c.o
                0x0000000000059300                ARCOMMANDS_Decoder_SetMapperGrabButtonEventCallback
 *fill*         0x000000000005934c        0x4 
 .text.ARCOMMANDS_Decoder_SetMapperGrabAxisEventCb
                0x0000000000059350       0x3d /home/sunho/bebop_ws/devel/arsdk/out/arsdk-native/build/libARCommands/obj/gen/Sources/ARCOMMANDS_Decoder.c.o
                0x0000000000059350                ARCOMMANDS_Decoder_SetMapperGrabAxisEventCb
 *fill*         0x000000000005938d        0x3 
 .text.ARCOMMANDS_Decoder_SetMapperGrabAxisEventCallback
                0x0000000000059390       0x4c /home/sunho/bebop_ws/devel/arsdk/out/arsdk-native/build/libARCommands/obj/gen/Sources/ARCOMMANDS_Decoder.c.o
                0x0000000000059390                ARCOMMANDS_Decoder_SetMapperGrabAxisEventCallback
 *fill*         0x00000000000593dc        0x4 
 .text.ARCOMMANDS_Decoder_SetMapperButtonMappingItemCb
                0x00000000000593e0       0x3d /home/sunho/bebop_ws/devel/arsdk/out/arsdk-native/build/libARCommands/obj/gen/Sources/ARCOMMANDS_Decoder.c.o
                0x00000000000593e0                ARCOMMANDS_Decoder_SetMapperButtonMappingItemCb
 *fill*         0x000000000005941d        0x3 
 .text.ARCOMMANDS_Decoder_SetMapperButtonMappingItemCallback
                0x0000000000059420       0x4c /home/sunho/bebop_ws/devel/arsdk/out/arsdk-native/build/libARCommands/obj/gen/Sources/ARCOMMANDS_Decoder.c.o
                0x0000000000059420                ARCOMMANDS_Decoder_SetMapperButtonMappingItemCallback
 *fill*         0x000000000005946c        0x4 
 .text.ARCOMMANDS_Decoder_SetMapperAxisMappingItemCb
                0x0000000000059470       0x3d /home/sunho/bebop_ws/devel/arsdk/out/arsdk-native/build/libARCommands/obj/gen/Sources/ARCOMMANDS_Decoder.c.o
                0x0000000000059470                ARCOMMANDS_Decoder_SetMapperAxisMappingItemCb
 *fill*         0x00000000000594ad        0x3 
 .text.ARCOMMANDS_Decoder_SetMapperAxisMappingItemCallback
                0x00000000000594b0       0x4c /home/sunho/bebop_ws/devel/arsdk/out/arsdk-native/build/libARCommands/obj/gen/Sources/ARCOMMANDS_Decoder.c.o
                0x00000000000594b0                ARCOMMANDS_Decoder_SetMapperAxisMappingItemCallback
 *fill*         0x00000000000594fc        0x4 
 .text.ARCOMMANDS_Decoder_SetMapperApplicationAxisEventCb
                0x0000000000059500       0x3d /home/sunho/bebop_ws/devel/arsdk/out/arsdk-native/build/libARCommands/obj/gen/Sources/ARCOMMANDS_Decoder.c.o
                0x0000000000059500                ARCOMMANDS_Decoder_SetMapperApplicationAxisEventCb
 *fill*         0x000000000005953d        0x3 
 .text.ARCOMMANDS_Decoder_SetMapperApplicationAxisEventCallback
                0x0000000000059540       0x4c /home/sunho/bebop_ws/devel/arsdk/out/arsdk-native/build/libARCommands/obj/gen/Sources/ARCOMMANDS_Decoder.c.o
                0x0000000000059540                ARCOMMANDS_Decoder_SetMapperApplicationAxisEventCallback
 *fill*         0x000000000005958c        0x4 
 .text.ARCOMMANDS_Decoder_SetMapperApplicationButtonEventCb
                0x0000000000059590       0x3d /home/sunho/bebop_ws/devel/arsdk/out/arsdk-native/build/libARCommands/obj/gen/Sources/ARCOMMANDS_Decoder.c.o
                0x0000000000059590                ARCOMMANDS_Decoder_SetMapperApplicationButtonEventCb
 *fill*         0x00000000000595cd        0x3 
 .text.ARCOMMANDS_Decoder_SetMapperApplicationButtonEventCallback
                0x00000000000595d0       0x4c /home/sunho/bebop_ws/devel/arsdk/out/arsdk-native/build/libARCommands/obj/gen/Sources/ARCOMMANDS_Decoder.c.o
                0x00000000000595d0                ARCOMMANDS_Decoder_SetMapperApplicationButtonEventCallback
 *fill*         0x000000000005961c        0x4 
 .text.ARCOMMANDS_Decoder_SetMapperExpoMapItemCb
                0x0000000000059620       0x3d /home/sunho/bebop_ws/devel/arsdk/out/arsdk-native/build/libARCommands/obj/gen/Sources/ARCOMMANDS_Decoder.c.o
                0x0000000000059620                ARCOMMANDS_Decoder_SetMapperExpoMapItemCb
 *fill*         0x000000000005965d        0x3 
 .text.ARCOMMANDS_Decoder_SetMapperExpoMapItemCallback
                0x0000000000059660       0x4c /home/sunho/bebop_ws/devel/arsdk/out/arsdk-native/build/libARCommands/obj/gen/Sources/ARCOMMANDS_Decoder.c.o
                0x0000000000059660                ARCOMMANDS_Decoder_SetMapperExpoMapItemCallback
 *fill*         0x00000000000596ac        0x4 
 .text.ARCOMMANDS_Decoder_SetMapperInvertedMapItemCb
                0x00000000000596b0       0x3d /home/sunho/bebop_ws/devel/arsdk/out/arsdk-native/build/libARCommands/obj/gen/Sources/ARCOMMANDS_Decoder.c.o
                0x00000000000596b0                ARCOMMANDS_Decoder_SetMapperInvertedMapItemCb
 *fill*         0x00000000000596ed        0x3 
 .text.ARCOMMANDS_Decoder_SetMapperInvertedMapItemCallback
                0x00000000000596f0       0x4c /home/sunho/bebop_ws/devel/arsdk/out/arsdk-native/build/libARCommands/obj/gen/Sources/ARCOMMANDS_Decoder.c.o
                0x00000000000596f0                ARCOMMANDS_Decoder_SetMapperInvertedMapItemCallback
 *fill*         0x000000000005973c        0x4 
 .text.ARCOMMANDS_Decoder_SetMiniDronePilotingFlatTrimCb
                0x0000000000059740       0x3d /home/sunho/bebop_ws/devel/arsdk/out/arsdk-native/build/libARCommands/obj/gen/Sources/ARCOMMANDS_Decoder.c.o
                0x0000000000059740                ARCOMMANDS_Decoder_SetMiniDronePilotingFlatTrimCb
 *fill*         0x000000000005977d        0x3 
 .text.ARCOMMANDS_Decoder_SetMiniDronePilotingFlatTrimCallback
                0x0000000000059780       0x4c /home/sunho/bebop_ws/devel/arsdk/out/arsdk-native/build/libARCommands/obj/gen/Sources/ARCOMMANDS_Decoder.c.o
                0x0000000000059780                ARCOMMANDS_Decoder_SetMiniDronePilotingFlatTrimCallback
 *fill*         0x00000000000597cc        0x4 
 .text.ARCOMMANDS_Decoder_SetMiniDronePilotingTakeOffCb
                0x00000000000597d0       0x3d /home/sunho/bebop_ws/devel/arsdk/out/arsdk-native/build/libARCommands/obj/gen/Sources/ARCOMMANDS_Decoder.c.o
                0x00000000000597d0                ARCOMMANDS_Decoder_SetMiniDronePilotingTakeOffCb
 *fill*         0x000000000005980d        0x3 
 .text.ARCOMMANDS_Decoder_SetMiniDronePilotingTakeOffCallback
                0x0000000000059810       0x4c /home/sunho/bebop_ws/devel/arsdk/out/arsdk-native/build/libARCommands/obj/gen/Sources/ARCOMMANDS_Decoder.c.o
                0x0000000000059810                ARCOMMANDS_Decoder_SetMiniDronePilotingTakeOffCallback
 *fill*         0x000000000005985c        0x4 
 .text.ARCOMMANDS_Decoder_SetMiniDronePilotingPCMDCb
                0x0000000000059860       0x3d /home/sunho/bebop_ws/devel/arsdk/out/arsdk-native/build/libARCommands/obj/gen/Sources/ARCOMMANDS_Decoder.c.o
                0x0000000000059860                ARCOMMANDS_Decoder_SetMiniDronePilotingPCMDCb
 *fill*         0x000000000005989d        0x3 
 .text.ARCOMMANDS_Decoder_SetMiniDronePilotingPCMDCallback
                0x00000000000598a0       0x4c /home/sunho/bebop_ws/devel/arsdk/out/arsdk-native/build/libARCommands/obj/gen/Sources/ARCOMMANDS_Decoder.c.o
                0x00000000000598a0                ARCOMMANDS_Decoder_SetMiniDronePilotingPCMDCallback
 *fill*         0x00000000000598ec        0x4 
 .text.ARCOMMANDS_Decoder_SetMiniDronePilotingLandingCb
                0x00000000000598f0       0x3d /home/sunho/bebop_ws/devel/arsdk/out/arsdk-native/build/libARCommands/obj/gen/Sources/ARCOMMANDS_Decoder.c.o
                0x00000000000598f0                ARCOMMANDS_Decoder_SetMiniDronePilotingLandingCb
 *fill*         0x000000000005992d        0x3 
 .text.ARCOMMANDS_Decoder_SetMiniDronePilotingLandingCallback
                0x0000000000059930       0x4c /home/sunho/bebop_ws/devel/arsdk/out/arsdk-native/build/libARCommands/obj/gen/Sources/ARCOMMANDS_Decoder.c.o
                0x0000000000059930                ARCOMMANDS_Decoder_SetMiniDronePilotingLandingCallback
 *fill*         0x000000000005997c        0x4 
 .text.ARCOMMANDS_Decoder_SetMiniDronePilotingEmergencyCb
                0x0000000000059980       0x3d /home/sunho/bebop_ws/devel/arsdk/out/arsdk-native/build/libARCommands/obj/gen/Sources/ARCOMMANDS_Decoder.c.o
                0x0000000000059980                ARCOMMANDS_Decoder_SetMiniDronePilotingEmergencyCb
 *fill*         0x00000000000599bd        0x3 
 .text.ARCOMMANDS_Decoder_SetMiniDronePilotingEmergencyCallback
                0x00000000000599c0       0x4c /home/sunho/bebop_ws/devel/arsdk/out/arsdk-native/build/libARCommands/obj/gen/Sources/ARCOMMANDS_Decoder.c.o
                0x00000000000599c0                ARCOMMANDS_Decoder_SetMiniDronePilotingEmergencyCallback
 *fill*         0x0000000000059a0c        0x4 
 .text.ARCOMMANDS_Decoder_SetMiniDronePilotingAutoTakeOffModeCb
                0x0000000000059a10       0x3d /home/sunho/bebop_ws/devel/arsdk/out/arsdk-native/build/libARCommands/obj/gen/Sources/ARCOMMANDS_Decoder.c.o
                0x0000000000059a10                ARCOMMANDS_Decoder_SetMiniDronePilotingAutoTakeOffModeCb
 *fill*         0x0000000000059a4d        0x3 
 .text.ARCOMMANDS_Decoder_SetMiniDronePilotingAutoTakeOffModeCallback
                0x0000000000059a50       0x4c /home/sunho/bebop_ws/devel/arsdk/out/arsdk-native/build/libARCommands/obj/gen/Sources/ARCOMMANDS_Decoder.c.o
                0x0000000000059a50                ARCOMMANDS_Decoder_SetMiniDronePilotingAutoTakeOffModeCallback
 *fill*         0x0000000000059a9c        0x4 
 .text.ARCOMMANDS_Decoder_SetMiniDronePilotingFlyingModeCb
                0x0000000000059aa0       0x3d /home/sunho/bebop_ws/devel/arsdk/out/arsdk-native/build/libARCommands/obj/gen/Sources/ARCOMMANDS_Decoder.c.o
                0x0000000000059aa0                ARCOMMANDS_Decoder_SetMiniDronePilotingFlyingModeCb
 *fill*         0x0000000000059add        0x3 
 .text.ARCOMMANDS_Decoder_SetMiniDronePilotingFlyingModeCallback
                0x0000000000059ae0       0x4c /home/sunho/bebop_ws/devel/arsdk/out/arsdk-native/build/libARCommands/obj/gen/Sources/ARCOMMANDS_Decoder.c.o
                0x0000000000059ae0                ARCOMMANDS_Decoder_SetMiniDronePilotingFlyingModeCallback
 *fill*         0x0000000000059b2c        0x4 
 .text.ARCOMMANDS_Decoder_SetMiniDronePilotingPlaneGearBoxCb
                0x0000000000059b30       0x3d /home/sunho/bebop_ws/devel/arsdk/out/arsdk-native/build/libARCommands/obj/gen/Sources/ARCOMMANDS_Decoder.c.o
                0x0000000000059b30                ARCOMMANDS_Decoder_SetMiniDronePilotingPlaneGearBoxCb
 *fill*         0x0000000000059b6d        0x3 
 .text.ARCOMMANDS_Decoder_SetMiniDronePilotingPlaneGearBoxCallback
                0x0000000000059b70       0x4c /home/sunho/bebop_ws/devel/arsdk/out/arsdk-native/build/libARCommands/obj/gen/Sources/ARCOMMANDS_Decoder.c.o
                0x0000000000059b70                ARCOMMANDS_Decoder_SetMiniDronePilotingPlaneGearBoxCallback
 *fill*         0x0000000000059bbc        0x4 
 .text.ARCOMMANDS_Decoder_SetMiniDroneAnimationsFlipCb
                0x0000000000059bc0       0x3d /home/sunho/bebop_ws/devel/arsdk/out/arsdk-native/build/libARCommands/obj/gen/Sources/ARCOMMANDS_Decoder.c.o
                0x0000000000059bc0                ARCOMMANDS_Decoder_SetMiniDroneAnimationsFlipCb
 *fill*         0x0000000000059bfd        0x3 
 .text.ARCOMMANDS_Decoder_SetMiniDroneAnimationsFlipCallback
                0x0000000000059c00       0x4c /home/sunho/bebop_ws/devel/arsdk/out/arsdk-native/build/libARCommands/obj/gen/Sources/ARCOMMANDS_Decoder.c.o
                0x0000000000059c00                ARCOMMANDS_Decoder_SetMiniDroneAnimationsFlipCallback
 *fill*         0x0000000000059c4c        0x4 
 .text.ARCOMMANDS_Decoder_SetMiniDroneAnimationsCapCb
                0x0000000000059c50       0x3d /home/sunho/bebop_ws/devel/arsdk/out/arsdk-native/build/libARCommands/obj/gen/Sources/ARCOMMANDS_Decoder.c.o
                0x0000000000059c50                ARCOMMANDS_Decoder_SetMiniDroneAnimationsCapCb
 *fill*         0x0000000000059c8d        0x3 
 .text.ARCOMMANDS_Decoder_SetMiniDroneAnimationsCapCallback
                0x0000000000059c90       0x4c /home/sunho/bebop_ws/devel/arsdk/out/arsdk-native/build/libARCommands/obj/gen/Sources/ARCOMMANDS_Decoder.c.o
                0x0000000000059c90                ARCOMMANDS_Decoder_SetMiniDroneAnimationsCapCallback
 *fill*         0x0000000000059cdc        0x4 
 .text.ARCOMMANDS_Decoder_SetMiniDroneMediaRecordPictureCb
                0x0000000000059ce0       0x3d /home/sunho/bebop_ws/devel/arsdk/out/arsdk-native/build/libARCommands/obj/gen/Sources/ARCOMMANDS_Decoder.c.o
                0x0000000000059ce0                ARCOMMANDS_Decoder_SetMiniDroneMediaRecordPictureCb
 *fill*         0x0000000000059d1d        0x3 
 .text.ARCOMMANDS_Decoder_SetMiniDroneMediaRecordPictureCallback
                0x0000000000059d20       0x4c /home/sunho/bebop_ws/devel/arsdk/out/arsdk-native/build/libARCommands/obj/gen/Sources/ARCOMMANDS_Decoder.c.o
                0x0000000000059d20                ARCOMMANDS_Decoder_SetMiniDroneMediaRecordPictureCallback
 *fill*         0x0000000000059d6c        0x4 
 .text.ARCOMMANDS_Decoder_SetMiniDroneMediaRecordPictureV2Cb
                0x0000000000059d70       0x3d /home/sunho/bebop_ws/devel/arsdk/out/arsdk-native/build/libARCommands/obj/gen/Sources/ARCOMMANDS_Decoder.c.o
                0x0000000000059d70                ARCOMMANDS_Decoder_SetMiniDroneMediaRecordPictureV2Cb
 *fill*         0x0000000000059dad        0x3 
 .text.ARCOMMANDS_Decoder_SetMiniDroneMediaRecordPictureV2Callback
                0x0000000000059db0       0x4c /home/sunho/bebop_ws/devel/arsdk/out/arsdk-native/build/libARCommands/obj/gen/Sources/ARCOMMANDS_Decoder.c.o
                0x0000000000059db0                ARCOMMANDS_Decoder_SetMiniDroneMediaRecordPictureV2Callback
 *fill*         0x0000000000059dfc        0x4 
 .text.ARCOMMANDS_Decoder_SetMiniDronePilotingSettingsMaxAltitudeCb
                0x0000000000059e00       0x3d /home/sunho/bebop_ws/devel/arsdk/out/arsdk-native/build/libARCommands/obj/gen/Sources/ARCOMMANDS_Decoder.c.o
                0x0000000000059e00                ARCOMMANDS_Decoder_SetMiniDronePilotingSettingsMaxAltitudeCb
 *fill*         0x0000000000059e3d        0x3 
 .text.ARCOMMANDS_Decoder_SetMiniDronePilotingSettingsMaxAltitudeCallback
                0x0000000000059e40       0x4c /home/sunho/bebop_ws/devel/arsdk/out/arsdk-native/build/libARCommands/obj/gen/Sources/ARCOMMANDS_Decoder.c.o
                0x0000000000059e40                ARCOMMANDS_Decoder_SetMiniDronePilotingSettingsMaxAltitudeCallback
 *fill*         0x0000000000059e8c        0x4 
 .text.ARCOMMANDS_Decoder_SetMiniDronePilotingSettingsMaxTiltCb
                0x0000000000059e90       0x3d /home/sunho/bebop_ws/devel/arsdk/out/arsdk-native/build/libARCommands/obj/gen/Sources/ARCOMMANDS_Decoder.c.o
                0x0000000000059e90                ARCOMMANDS_Decoder_SetMiniDronePilotingSettingsMaxTiltCb
 *fill*         0x0000000000059ecd        0x3 
 .text.ARCOMMANDS_Decoder_SetMiniDronePilotingSettingsMaxTiltCallback
                0x0000000000059ed0       0x4c /home/sunho/bebop_ws/devel/arsdk/out/arsdk-native/build/libARCommands/obj/gen/Sources/ARCOMMANDS_Decoder.c.o
                0x0000000000059ed0                ARCOMMANDS_Decoder_SetMiniDronePilotingSettingsMaxTiltCallback
 *fill*         0x0000000000059f1c        0x4 
 .text.ARCOMMANDS_Decoder_SetMiniDronePilotingSettingsPlaneModePitchCb
                0x0000000000059f20       0x3d /home/sunho/bebop_ws/devel/arsdk/out/arsdk-native/build/libARCommands/obj/gen/Sources/ARCOMMANDS_Decoder.c.o
                0x0000000000059f20                ARCOMMANDS_Decoder_SetMiniDronePilotingSettingsPlaneModePitchCb
 *fill*         0x0000000000059f5d        0x3 
 .text.ARCOMMANDS_Decoder_SetMiniDronePilotingSettingsPlaneModePitchCallback
                0x0000000000059f60       0x4c /home/sunho/bebop_ws/devel/arsdk/out/arsdk-native/build/libARCommands/obj/gen/Sources/ARCOMMANDS_Decoder.c.o
                0x0000000000059f60                ARCOMMANDS_Decoder_SetMiniDronePilotingSettingsPlaneModePitchCallback
 *fill*         0x0000000000059fac        0x4 
 .text.ARCOMMANDS_Decoder_SetMiniDroneSpeedSettingsMaxVerticalSpeedCb
                0x0000000000059fb0       0x3d /home/sunho/bebop_ws/devel/arsdk/out/arsdk-native/build/libARCommands/obj/gen/Sources/ARCOMMANDS_Decoder.c.o
                0x0000000000059fb0                ARCOMMANDS_Decoder_SetMiniDroneSpeedSettingsMaxVerticalSpeedCb
 *fill*         0x0000000000059fed        0x3 
 .text.ARCOMMANDS_Decoder_SetMiniDroneSpeedSettingsMaxVerticalSpeedCallback
                0x0000000000059ff0       0x4c /home/sunho/bebop_ws/devel/arsdk/out/arsdk-native/build/libARCommands/obj/gen/Sources/ARCOMMANDS_Decoder.c.o
                0x0000000000059ff0                ARCOMMANDS_Decoder_SetMiniDroneSpeedSettingsMaxVerticalSpeedCallback
 *fill*         0x000000000005a03c        0x4 
 .text.ARCOMMANDS_Decoder_SetMiniDroneSpeedSettingsMaxRotationSpeedCb
                0x000000000005a040       0x3d /home/sunho/bebop_ws/devel/arsdk/out/arsdk-native/build/libARCommands/obj/gen/Sources/ARCOMMANDS_Decoder.c.o
                0x000000000005a040                ARCOMMANDS_Decoder_SetMiniDroneSpeedSettingsMaxRotationSpeedCb
 *fill*         0x000000000005a07d        0x3 
 .text.ARCOMMANDS_Decoder_SetMiniDroneSpeedSettingsMaxRotationSpeedCallback
                0x000000000005a080       0x4c /home/sunho/bebop_ws/devel/arsdk/out/arsdk-native/build/libARCommands/obj/gen/Sources/ARCOMMANDS_Decoder.c.o
                0x000000000005a080                ARCOMMANDS_Decoder_SetMiniDroneSpeedSettingsMaxRotationSpeedCallback
 *fill*         0x000000000005a0cc        0x4 
 .text.ARCOMMANDS_Decoder_SetMiniDroneSpeedSettingsWheelsCb
                0x000000000005a0d0       0x3d /home/sunho/bebop_ws/devel/arsdk/out/arsdk-native/build/libARCommands/obj/gen/Sources/ARCOMMANDS_Decoder.c.o
                0x000000000005a0d0                ARCOMMANDS_Decoder_SetMiniDroneSpeedSettingsWheelsCb
 *fill*         0x000000000005a10d        0x3 
 .text.ARCOMMANDS_Decoder_SetMiniDroneSpeedSettingsWheelsCallback
                0x000000000005a110       0x4c /home/sunho/bebop_ws/devel/arsdk/out/arsdk-native/build/libARCommands/obj/gen/Sources/ARCOMMANDS_Decoder.c.o
                0x000000000005a110                ARCOMMANDS_Decoder_SetMiniDroneSpeedSettingsWheelsCallback
 *fill*         0x000000000005a15c        0x4 
 .text.ARCOMMANDS_Decoder_SetMiniDroneSpeedSettingsMaxHorizontalSpeedCb
                0x000000000005a160       0x3d /home/sunho/bebop_ws/devel/arsdk/out/arsdk-native/build/libARCommands/obj/gen/Sources/ARCOMMANDS_Decoder.c.o
                0x000000000005a160                ARCOMMANDS_Decoder_SetMiniDroneSpeedSettingsMaxHorizontalSpeedCb
 *fill*         0x000000000005a19d        0x3 
 .text.ARCOMMANDS_Decoder_SetMiniDroneSpeedSettingsMaxHorizontalSpeedCallback
                0x000000000005a1a0       0x4c /home/sunho/bebop_ws/devel/arsdk/out/arsdk-native/build/libARCommands/obj/gen/Sources/ARCOMMANDS_Decoder.c.o
                0x000000000005a1a0                ARCOMMANDS_Decoder_SetMiniDroneSpeedSettingsMaxHorizontalSpeedCallback
 *fill*         0x000000000005a1ec        0x4 
 .text.ARCOMMANDS_Decoder_SetMiniDroneSpeedSettingsMaxPlaneModeRotationSpeedCb
                0x000000000005a1f0       0x3d /home/sunho/bebop_ws/devel/arsdk/out/arsdk-native/build/libARCommands/obj/gen/Sources/ARCOMMANDS_Decoder.c.o
                0x000000000005a1f0                ARCOMMANDS_Decoder_SetMiniDroneSpeedSettingsMaxPlaneModeRotationSpeedCb
 *fill*         0x000000000005a22d        0x3 
 .text.ARCOMMANDS_Decoder_SetMiniDroneSpeedSettingsMaxPlaneModeRotationSpeedCallback
                0x000000000005a230       0x4c /home/sunho/bebop_ws/devel/arsdk/out/arsdk-native/build/libARCommands/obj/gen/Sources/ARCOMMANDS_Decoder.c.o
                0x000000000005a230                ARCOMMANDS_Decoder_SetMiniDroneSpeedSettingsMaxPlaneModeRotationSpeedCallback
 *fill*         0x000000000005a27c        0x4 
 .text.ARCOMMANDS_Decoder_SetMiniDroneSettingsCutOutModeCb
                0x000000000005a280       0x3d /home/sunho/bebop_ws/devel/arsdk/out/arsdk-native/build/libARCommands/obj/gen/Sources/ARCOMMANDS_Decoder.c.o
                0x000000000005a280                ARCOMMANDS_Decoder_SetMiniDroneSettingsCutOutModeCb
 *fill*         0x000000000005a2bd        0x3 
 .text.ARCOMMANDS_Decoder_SetMiniDroneSettingsCutOutModeCallback
                0x000000000005a2c0       0x4c /home/sunho/bebop_ws/devel/arsdk/out/arsdk-native/build/libARCommands/obj/gen/Sources/ARCOMMANDS_Decoder.c.o
                0x000000000005a2c0                ARCOMMANDS_Decoder_SetMiniDroneSettingsCutOutModeCallback
 *fill*         0x000000000005a30c        0x4 
 .text.ARCOMMANDS_Decoder_SetMiniDroneGPSControllerLatitudeForRunCb
                0x000000000005a310       0x3d /home/sunho/bebop_ws/devel/arsdk/out/arsdk-native/build/libARCommands/obj/gen/Sources/ARCOMMANDS_Decoder.c.o
                0x000000000005a310                ARCOMMANDS_Decoder_SetMiniDroneGPSControllerLatitudeForRunCb
 *fill*         0x000000000005a34d        0x3 
 .text.ARCOMMANDS_Decoder_SetMiniDroneGPSControllerLatitudeForRunCallback
                0x000000000005a350       0x4c /home/sunho/bebop_ws/devel/arsdk/out/arsdk-native/build/libARCommands/obj/gen/Sources/ARCOMMANDS_Decoder.c.o
                0x000000000005a350                ARCOMMANDS_Decoder_SetMiniDroneGPSControllerLatitudeForRunCallback
 *fill*         0x000000000005a39c        0x4 
 .text.ARCOMMANDS_Decoder_SetMiniDroneGPSControllerLongitudeForRunCb
                0x000000000005a3a0       0x3d /home/sunho/bebop_ws/devel/arsdk/out/arsdk-native/build/libARCommands/obj/gen/Sources/ARCOMMANDS_Decoder.c.o
                0x000000000005a3a0                ARCOMMANDS_Decoder_SetMiniDroneGPSControllerLongitudeForRunCb
 *fill*         0x000000000005a3dd        0x3 
 .text.ARCOMMANDS_Decoder_SetMiniDroneGPSControllerLongitudeForRunCallback
                0x000000000005a3e0       0x4c /home/sunho/bebop_ws/devel/arsdk/out/arsdk-native/build/libARCommands/obj/gen/Sources/ARCOMMANDS_Decoder.c.o
                0x000000000005a3e0                ARCOMMANDS_Decoder_SetMiniDroneGPSControllerLongitudeForRunCallback
 *fill*         0x000000000005a42c        0x4 
 .text.ARCOMMANDS_Decoder_SetMiniDroneConfigurationControllerTypeCb
                0x000000000005a430       0x3d /home/sunho/bebop_ws/devel/arsdk/out/arsdk-native/build/libARCommands/obj/gen/Sources/ARCOMMANDS_Decoder.c.o
                0x000000000005a430                ARCOMMANDS_Decoder_SetMiniDroneConfigurationControllerTypeCb
 *fill*         0x000000000005a46d        0x3 
 .text.ARCOMMANDS_Decoder_SetMiniDroneConfigurationControllerTypeCallback
                0x000000000005a470       0x4c /home/sunho/bebop_ws/devel/arsdk/out/arsdk-native/build/libARCommands/obj/gen/Sources/ARCOMMANDS_Decoder.c.o
                0x000000000005a470                ARCOMMANDS_Decoder_SetMiniDroneConfigurationControllerTypeCallback
 *fill*         0x000000000005a4bc        0x4 
 .text.ARCOMMANDS_Decoder_SetMiniDroneConfigurationControllerNameCb
                0x000000000005a4c0       0x3d /home/sunho/bebop_ws/devel/arsdk/out/arsdk-native/build/libARCommands/obj/gen/Sources/ARCOMMANDS_Decoder.c.o
                0x000000000005a4c0                ARCOMMANDS_Decoder_SetMiniDroneConfigurationControllerNameCb
 *fill*         0x000000000005a4fd        0x3 
 .text.ARCOMMANDS_Decoder_SetMiniDroneConfigurationControllerNameCallback
                0x000000000005a500       0x4c /home/sunho/bebop_ws/devel/arsdk/out/arsdk-native/build/libARCommands/obj/gen/Sources/ARCOMMANDS_Decoder.c.o
                0x000000000005a500                ARCOMMANDS_Decoder_SetMiniDroneConfigurationControllerNameCallback
 *fill*         0x000000000005a54c        0x4 
 .text.ARCOMMANDS_Decoder_SetMiniDroneUsbAccessoryLightControlCb
                0x000000000005a550       0x3d /home/sunho/bebop_ws/devel/arsdk/out/arsdk-native/build/libARCommands/obj/gen/Sources/ARCOMMANDS_Decoder.c.o
                0x000000000005a550                ARCOMMANDS_Decoder_SetMiniDroneUsbAccessoryLightControlCb
 *fill*         0x000000000005a58d        0x3 
 .text.ARCOMMANDS_Decoder_SetMiniDroneUsbAccessoryLightControlCallback
                0x000000000005a590       0x4c /home/sunho/bebop_ws/devel/arsdk/out/arsdk-native/build/libARCommands/obj/gen/Sources/ARCOMMANDS_Decoder.c.o
                0x000000000005a590                ARCOMMANDS_Decoder_SetMiniDroneUsbAccessoryLightControlCallback
 *fill*         0x000000000005a5dc        0x4 
 .text.ARCOMMANDS_Decoder_SetMiniDroneUsbAccessoryClawControlCb
                0x000000000005a5e0       0x3d /home/sunho/bebop_ws/devel/arsdk/out/arsdk-native/build/libARCommands/obj/gen/Sources/ARCOMMANDS_Decoder.c.o
                0x000000000005a5e0                ARCOMMANDS_Decoder_SetMiniDroneUsbAccessoryClawControlCb
 *fill*         0x000000000005a61d        0x3 
 .text.ARCOMMANDS_Decoder_SetMiniDroneUsbAccessoryClawControlCallback
                0x000000000005a620       0x4c /home/sunho/bebop_ws/devel/arsdk/out/arsdk-native/build/libARCommands/obj/gen/Sources/ARCOMMANDS_Decoder.c.o
                0x000000000005a620                ARCOMMANDS_Decoder_SetMiniDroneUsbAccessoryClawControlCallback
 *fill*         0x000000000005a66c        0x4 
 .text.ARCOMMANDS_Decoder_SetMiniDroneUsbAccessoryGunControlCb
                0x000000000005a670       0x3d /home/sunho/bebop_ws/devel/arsdk/out/arsdk-native/build/libARCommands/obj/gen/Sources/ARCOMMANDS_Decoder.c.o
                0x000000000005a670                ARCOMMANDS_Decoder_SetMiniDroneUsbAccessoryGunControlCb
 *fill*         0x000000000005a6ad        0x3 
 .text.ARCOMMANDS_Decoder_SetMiniDroneUsbAccessoryGunControlCallback
                0x000000000005a6b0       0x4c /home/sunho/bebop_ws/devel/arsdk/out/arsdk-native/build/libARCommands/obj/gen/Sources/ARCOMMANDS_Decoder.c.o
                0x000000000005a6b0                ARCOMMANDS_Decoder_SetMiniDroneUsbAccessoryGunControlCallback
 *fill*         0x000000000005a6fc        0x4 
 .text.ARCOMMANDS_Decoder_SetMiniDroneRemoteControllerSetPairedRemoteCb
                0x000000000005a700       0x3d /home/sunho/bebop_ws/devel/arsdk/out/arsdk-native/build/libARCommands/obj/gen/Sources/ARCOMMANDS_Decoder.c.o
                0x000000000005a700                ARCOMMANDS_Decoder_SetMiniDroneRemoteControllerSetPairedRemoteCb
 *fill*         0x000000000005a73d        0x3 
 .text.ARCOMMANDS_Decoder_SetMiniDroneRemoteControllerSetPairedRemoteCallback
                0x000000000005a740       0x4c /home/sunho/bebop_ws/devel/arsdk/out/arsdk-native/build/libARCommands/obj/gen/Sources/ARCOMMANDS_Decoder.c.o
                0x000000000005a740                ARCOMMANDS_Decoder_SetMiniDroneRemoteControllerSetPairedRemoteCallback
 *fill*         0x000000000005a78c        0x4 
 .text.ARCOMMANDS_Decoder_SetMiniDronePilotingStateFlatTrimChangedCb
                0x000000000005a790       0x3d /home/sunho/bebop_ws/devel/arsdk/out/arsdk-native/build/libARCommands/obj/gen/Sources/ARCOMMANDS_Decoder.c.o
                0x000000000005a790                ARCOMMANDS_Decoder_SetMiniDronePilotingStateFlatTrimChangedCb
 *fill*         0x000000000005a7cd        0x3 
 .text.ARCOMMANDS_Decoder_SetMiniDronePilotingStateFlatTrimChangedCallback
                0x000000000005a7d0       0x4c /home/sunho/bebop_ws/devel/arsdk/out/arsdk-native/build/libARCommands/obj/gen/Sources/ARCOMMANDS_Decoder.c.o
                0x000000000005a7d0                ARCOMMANDS_Decoder_SetMiniDronePilotingStateFlatTrimChangedCallback
 *fill*         0x000000000005a81c        0x4 
 .text.ARCOMMANDS_Decoder_SetMiniDronePilotingStateFlyingStateChangedCb
                0x000000000005a820       0x3d /home/sunho/bebop_ws/devel/arsdk/out/arsdk-native/build/libARCommands/obj/gen/Sources/ARCOMMANDS_Decoder.c.o
                0x000000000005a820                ARCOMMANDS_Decoder_SetMiniDronePilotingStateFlyingStateChangedCb
 *fill*         0x000000000005a85d        0x3 
 .text.ARCOMMANDS_Decoder_SetMiniDronePilotingStateFlyingStateChangedCallback
                0x000000000005a860       0x4c /home/sunho/bebop_ws/devel/arsdk/out/arsdk-native/build/libARCommands/obj/gen/Sources/ARCOMMANDS_Decoder.c.o
                0x000000000005a860                ARCOMMANDS_Decoder_SetMiniDronePilotingStateFlyingStateChangedCallback
 *fill*         0x000000000005a8ac        0x4 
 .text.ARCOMMANDS_Decoder_SetMiniDronePilotingStateAlertStateChangedCb
                0x000000000005a8b0       0x3d /home/sunho/bebop_ws/devel/arsdk/out/arsdk-native/build/libARCommands/obj/gen/Sources/ARCOMMANDS_Decoder.c.o
                0x000000000005a8b0                ARCOMMANDS_Decoder_SetMiniDronePilotingStateAlertStateChangedCb
 *fill*         0x000000000005a8ed        0x3 
 .text.ARCOMMANDS_Decoder_SetMiniDronePilotingStateAlertStateChangedCallback
                0x000000000005a8f0       0x4c /home/sunho/bebop_ws/devel/arsdk/out/arsdk-native/build/libARCommands/obj/gen/Sources/ARCOMMANDS_Decoder.c.o
                0x000000000005a8f0                ARCOMMANDS_Decoder_SetMiniDronePilotingStateAlertStateChangedCallback
 *fill*         0x000000000005a93c        0x4 
 .text.ARCOMMANDS_Decoder_SetMiniDronePilotingStateAutoTakeOffModeChangedCb
                0x000000000005a940       0x3d /home/sunho/bebop_ws/devel/arsdk/out/arsdk-native/build/libARCommands/obj/gen/Sources/ARCOMMANDS_Decoder.c.o
                0x000000000005a940                ARCOMMANDS_Decoder_SetMiniDronePilotingStateAutoTakeOffModeChangedCb
 *fill*         0x000000000005a97d        0x3 
 .text.ARCOMMANDS_Decoder_SetMiniDronePilotingStateAutoTakeOffModeChangedCallback
                0x000000000005a980       0x4c /home/sunho/bebop_ws/devel/arsdk/out/arsdk-native/build/libARCommands/obj/gen/Sources/ARCOMMANDS_Decoder.c.o
                0x000000000005a980                ARCOMMANDS_Decoder_SetMiniDronePilotingStateAutoTakeOffModeChangedCallback
 *fill*         0x000000000005a9cc        0x4 
 .text.ARCOMMANDS_Decoder_SetMiniDronePilotingStateFlyingModeChangedCb
                0x000000000005a9d0       0x3d /home/sunho/bebop_ws/devel/arsdk/out/arsdk-native/build/libARCommands/obj/gen/Sources/ARCOMMANDS_Decoder.c.o
                0x000000000005a9d0                ARCOMMANDS_Decoder_SetMiniDronePilotingStateFlyingModeChangedCb
 *fill*         0x000000000005aa0d        0x3 
 .text.ARCOMMANDS_Decoder_SetMiniDronePilotingStateFlyingModeChangedCallback
                0x000000000005aa10       0x4c /home/sunho/bebop_ws/devel/arsdk/out/arsdk-native/build/libARCommands/obj/gen/Sources/ARCOMMANDS_Decoder.c.o
                0x000000000005aa10                ARCOMMANDS_Decoder_SetMiniDronePilotingStateFlyingModeChangedCallback
 *fill*         0x000000000005aa5c        0x4 
 .text.ARCOMMANDS_Decoder_SetMiniDronePilotingStatePlaneGearBoxChangedCb
                0x000000000005aa60       0x3d /home/sunho/bebop_ws/devel/arsdk/out/arsdk-native/build/libARCommands/obj/gen/Sources/ARCOMMANDS_Decoder.c.o
                0x000000000005aa60                ARCOMMANDS_Decoder_SetMiniDronePilotingStatePlaneGearBoxChangedCb
 *fill*         0x000000000005aa9d        0x3 
 .text.ARCOMMANDS_Decoder_SetMiniDronePilotingStatePlaneGearBoxChangedCallback
                0x000000000005aaa0       0x4c /home/sunho/bebop_ws/devel/arsdk/out/arsdk-native/build/libARCommands/obj/gen/Sources/ARCOMMANDS_Decoder.c.o
                0x000000000005aaa0                ARCOMMANDS_Decoder_SetMiniDronePilotingStatePlaneGearBoxChangedCallback
 *fill*         0x000000000005aaec        0x4 
 .text.ARCOMMANDS_Decoder_SetMiniDroneMediaRecordStatePictureStateChangedCb
                0x000000000005aaf0       0x3d /home/sunho/bebop_ws/devel/arsdk/out/arsdk-native/build/libARCommands/obj/gen/Sources/ARCOMMANDS_Decoder.c.o
                0x000000000005aaf0                ARCOMMANDS_Decoder_SetMiniDroneMediaRecordStatePictureStateChangedCb
 *fill*         0x000000000005ab2d        0x3 
 .text.ARCOMMANDS_Decoder_SetMiniDroneMediaRecordStatePictureStateChangedCallback
                0x000000000005ab30       0x4c /home/sunho/bebop_ws/devel/arsdk/out/arsdk-native/build/libARCommands/obj/gen/Sources/ARCOMMANDS_Decoder.c.o
                0x000000000005ab30                ARCOMMANDS_Decoder_SetMiniDroneMediaRecordStatePictureStateChangedCallback
 *fill*         0x000000000005ab7c        0x4 
 .text.ARCOMMANDS_Decoder_SetMiniDroneMediaRecordStatePictureStateChangedV2Cb
                0x000000000005ab80       0x3d /home/sunho/bebop_ws/devel/arsdk/out/arsdk-native/build/libARCommands/obj/gen/Sources/ARCOMMANDS_Decoder.c.o
                0x000000000005ab80                ARCOMMANDS_Decoder_SetMiniDroneMediaRecordStatePictureStateChangedV2Cb
 *fill*         0x000000000005abbd        0x3 
 .text.ARCOMMANDS_Decoder_SetMiniDroneMediaRecordStatePictureStateChangedV2Callback
                0x000000000005abc0       0x4c /home/sunho/bebop_ws/devel/arsdk/out/arsdk-native/build/libARCommands/obj/gen/Sources/ARCOMMANDS_Decoder.c.o
                0x000000000005abc0                ARCOMMANDS_Decoder_SetMiniDroneMediaRecordStatePictureStateChangedV2Callback
 *fill*         0x000000000005ac0c        0x4 
 .text.ARCOMMANDS_Decoder_SetMiniDroneMediaRecordEventPictureEventChangedCb
                0x000000000005ac10       0x3d /home/sunho/bebop_ws/devel/arsdk/out/arsdk-native/build/libARCommands/obj/gen/Sources/ARCOMMANDS_Decoder.c.o
                0x000000000005ac10                ARCOMMANDS_Decoder_SetMiniDroneMediaRecordEventPictureEventChangedCb
 *fill*         0x000000000005ac4d        0x3 
 .text.ARCOMMANDS_Decoder_SetMiniDroneMediaRecordEventPictureEventChangedCallback
                0x000000000005ac50       0x4c /home/sunho/bebop_ws/devel/arsdk/out/arsdk-native/build/libARCommands/obj/gen/Sources/ARCOMMANDS_Decoder.c.o
                0x000000000005ac50                ARCOMMANDS_Decoder_SetMiniDroneMediaRecordEventPictureEventChangedCallback
 *fill*         0x000000000005ac9c        0x4 
 .text.ARCOMMANDS_Decoder_SetMiniDronePilotingSettingsStateMaxAltitudeChangedCb
                0x000000000005aca0       0x3d /home/sunho/bebop_ws/devel/arsdk/out/arsdk-native/build/libARCommands/obj/gen/Sources/ARCOMMANDS_Decoder.c.o
                0x000000000005aca0                ARCOMMANDS_Decoder_SetMiniDronePilotingSettingsStateMaxAltitudeChangedCb
 *fill*         0x000000000005acdd        0x3 
 .text.ARCOMMANDS_Decoder_SetMiniDronePilotingSettingsStateMaxAltitudeChangedCallback
                0x000000000005ace0       0x4c /home/sunho/bebop_ws/devel/arsdk/out/arsdk-native/build/libARCommands/obj/gen/Sources/ARCOMMANDS_Decoder.c.o
                0x000000000005ace0                ARCOMMANDS_Decoder_SetMiniDronePilotingSettingsStateMaxAltitudeChangedCallback
 *fill*         0x000000000005ad2c        0x4 
 .text.ARCOMMANDS_Decoder_SetMiniDronePilotingSettingsStateMaxTiltChangedCb
                0x000000000005ad30       0x3d /home/sunho/bebop_ws/devel/arsdk/out/arsdk-native/build/libARCommands/obj/gen/Sources/ARCOMMANDS_Decoder.c.o
                0x000000000005ad30                ARCOMMANDS_Decoder_SetMiniDronePilotingSettingsStateMaxTiltChangedCb
 *fill*         0x000000000005ad6d        0x3 
 .text.ARCOMMANDS_Decoder_SetMiniDronePilotingSettingsStateMaxTiltChangedCallback
                0x000000000005ad70       0x4c /home/sunho/bebop_ws/devel/arsdk/out/arsdk-native/build/libARCommands/obj/gen/Sources/ARCOMMANDS_Decoder.c.o
                0x000000000005ad70                ARCOMMANDS_Decoder_SetMiniDronePilotingSettingsStateMaxTiltChangedCallback
 *fill*         0x000000000005adbc        0x4 
 .text.ARCOMMANDS_Decoder_SetMiniDronePilotingSettingsStatePlaneModePitchChangedCb
                0x000000000005adc0       0x3d /home/sunho/bebop_ws/devel/arsdk/out/arsdk-native/build/libARCommands/obj/gen/Sources/ARCOMMANDS_Decoder.c.o
                0x000000000005adc0                ARCOMMANDS_Decoder_SetMiniDronePilotingSettingsStatePlaneModePitchChangedCb
 *fill*         0x000000000005adfd        0x3 
 .text.ARCOMMANDS_Decoder_SetMiniDronePilotingSettingsStatePlaneModePitchChangedCallback
                0x000000000005ae00       0x4c /home/sunho/bebop_ws/devel/arsdk/out/arsdk-native/build/libARCommands/obj/gen/Sources/ARCOMMANDS_Decoder.c.o
                0x000000000005ae00                ARCOMMANDS_Decoder_SetMiniDronePilotingSettingsStatePlaneModePitchChangedCallback
 *fill*         0x000000000005ae4c        0x4 
 .text.ARCOMMANDS_Decoder_SetMiniDroneSpeedSettingsStateMaxVerticalSpeedChangedCb
                0x000000000005ae50       0x3d /home/sunho/bebop_ws/devel/arsdk/out/arsdk-native/build/libARCommands/obj/gen/Sources/ARCOMMANDS_Decoder.c.o
                0x000000000005ae50                ARCOMMANDS_Decoder_SetMiniDroneSpeedSettingsStateMaxVerticalSpeedChangedCb
 *fill*         0x000000000005ae8d        0x3 
 .text.ARCOMMANDS_Decoder_SetMiniDroneSpeedSettingsStateMaxVerticalSpeedChangedCallback
                0x000000000005ae90       0x4c /home/sunho/bebop_ws/devel/arsdk/out/arsdk-native/build/libARCommands/obj/gen/Sources/ARCOMMANDS_Decoder.c.o
                0x000000000005ae90                ARCOMMANDS_Decoder_SetMiniDroneSpeedSettingsStateMaxVerticalSpeedChangedCallback
 *fill*         0x000000000005aedc        0x4 
 .text.ARCOMMANDS_Decoder_SetMiniDroneSpeedSettingsStateMaxRotationSpeedChangedCb
                0x000000000005aee0       0x3d /home/sunho/bebop_ws/devel/arsdk/out/arsdk-native/build/libARCommands/obj/gen/Sources/ARCOMMANDS_Decoder.c.o
                0x000000000005aee0                ARCOMMANDS_Decoder_SetMiniDroneSpeedSettingsStateMaxRotationSpeedChangedCb
 *fill*         0x000000000005af1d        0x3 
 .text.ARCOMMANDS_Decoder_SetMiniDroneSpeedSettingsStateMaxRotationSpeedChangedCallback
                0x000000000005af20       0x4c /home/sunho/bebop_ws/devel/arsdk/out/arsdk-native/build/libARCommands/obj/gen/Sources/ARCOMMANDS_Decoder.c.o
                0x000000000005af20                ARCOMMANDS_Decoder_SetMiniDroneSpeedSettingsStateMaxRotationSpeedChangedCallback
 *fill*         0x000000000005af6c        0x4 
 .text.ARCOMMANDS_Decoder_SetMiniDroneSpeedSettingsStateWheelsChangedCb
                0x000000000005af70       0x3d /home/sunho/bebop_ws/devel/arsdk/out/arsdk-native/build/libARCommands/obj/gen/Sources/ARCOMMANDS_Decoder.c.o
                0x000000000005af70                ARCOMMANDS_Decoder_SetMiniDroneSpeedSettingsStateWheelsChangedCb
 *fill*         0x000000000005afad        0x3 
 .text.ARCOMMANDS_Decoder_SetMiniDroneSpeedSettingsStateWheelsChangedCallback
                0x000000000005afb0       0x4c /home/sunho/bebop_ws/devel/arsdk/out/arsdk-native/build/libARCommands/obj/gen/Sources/ARCOMMANDS_Decoder.c.o
                0x000000000005afb0                ARCOMMANDS_Decoder_SetMiniDroneSpeedSettingsStateWheelsChangedCallback
 *fill*         0x000000000005affc        0x4 
 .text.ARCOMMANDS_Decoder_SetMiniDroneSpeedSettingsStateMaxHorizontalSpeedChangedCb
                0x000000000005b000       0x3d /home/sunho/bebop_ws/devel/arsdk/out/arsdk-native/build/libARCommands/obj/gen/Sources/ARCOMMANDS_Decoder.c.o
                0x000000000005b000                ARCOMMANDS_Decoder_SetMiniDroneSpeedSettingsStateMaxHorizontalSpeedChangedCb
 *fill*         0x000000000005b03d        0x3 
 .text.ARCOMMANDS_Decoder_SetMiniDroneSpeedSettingsStateMaxHorizontalSpeedChangedCallback
                0x000000000005b040       0x4c /home/sunho/bebop_ws/devel/arsdk/out/arsdk-native/build/libARCommands/obj/gen/Sources/ARCOMMANDS_Decoder.c.o
                0x000000000005b040                ARCOMMANDS_Decoder_SetMiniDroneSpeedSettingsStateMaxHorizontalSpeedChangedCallback
 *fill*         0x000000000005b08c        0x4 
 .text.ARCOMMANDS_Decoder_SetMiniDroneSpeedSettingsStateMaxPlaneModeRotationSpeedChangedCb
                0x000000000005b090       0x3d /home/sunho/bebop_ws/devel/arsdk/out/arsdk-native/build/libARCommands/obj/gen/Sources/ARCOMMANDS_Decoder.c.o
                0x000000000005b090                ARCOMMANDS_Decoder_SetMiniDroneSpeedSettingsStateMaxPlaneModeRotationSpeedChangedCb
 *fill*         0x000000000005b0cd        0x3 
 .text.ARCOMMANDS_Decoder_SetMiniDroneSpeedSettingsStateMaxPlaneModeRotationSpeedChangedCallback
                0x000000000005b0d0       0x4c /home/sunho/bebop_ws/devel/arsdk/out/arsdk-native/build/libARCommands/obj/gen/Sources/ARCOMMANDS_Decoder.c.o
                0x000000000005b0d0                ARCOMMANDS_Decoder_SetMiniDroneSpeedSettingsStateMaxPlaneModeRotationSpeedChangedCallback
 *fill*         0x000000000005b11c        0x4 
 .text.ARCOMMANDS_Decoder_SetMiniDroneSettingsStateProductMotorsVersionChangedCb
                0x000000000005b120       0x3d /home/sunho/bebop_ws/devel/arsdk/out/arsdk-native/build/libARCommands/obj/gen/Sources/ARCOMMANDS_Decoder.c.o
                0x000000000005b120                ARCOMMANDS_Decoder_SetMiniDroneSettingsStateProductMotorsVersionChangedCb
 *fill*         0x000000000005b15d        0x3 
 .text.ARCOMMANDS_Decoder_SetMiniDroneSettingsStateProductMotorsVersionChangedCallback
                0x000000000005b160       0x4c /home/sunho/bebop_ws/devel/arsdk/out/arsdk-native/build/libARCommands/obj/gen/Sources/ARCOMMANDS_Decoder.c.o
                0x000000000005b160                ARCOMMANDS_Decoder_SetMiniDroneSettingsStateProductMotorsVersionChangedCallback
 *fill*         0x000000000005b1ac        0x4 
 .text.ARCOMMANDS_Decoder_SetMiniDroneSettingsStateProductInertialVersionChangedCb
                0x000000000005b1b0       0x3d /home/sunho/bebop_ws/devel/arsdk/out/arsdk-native/build/libARCommands/obj/gen/Sources/ARCOMMANDS_Decoder.c.o
                0x000000000005b1b0                ARCOMMANDS_Decoder_SetMiniDroneSettingsStateProductInertialVersionChangedCb
 *fill*         0x000000000005b1ed        0x3 
 .text.ARCOMMANDS_Decoder_SetMiniDroneSettingsStateProductInertialVersionChangedCallback
                0x000000000005b1f0       0x4c /home/sunho/bebop_ws/devel/arsdk/out/arsdk-native/build/libARCommands/obj/gen/Sources/ARCOMMANDS_Decoder.c.o
                0x000000000005b1f0                ARCOMMANDS_Decoder_SetMiniDroneSettingsStateProductInertialVersionChangedCallback
 *fill*         0x000000000005b23c        0x4 
 .text.ARCOMMANDS_Decoder_SetMiniDroneSettingsStateCutOutModeChangedCb
                0x000000000005b240       0x3d /home/sunho/bebop_ws/devel/arsdk/out/arsdk-native/build/libARCommands/obj/gen/Sources/ARCOMMANDS_Decoder.c.o
                0x000000000005b240                ARCOMMANDS_Decoder_SetMiniDroneSettingsStateCutOutModeChangedCb
 *fill*         0x000000000005b27d        0x3 
 .text.ARCOMMANDS_Decoder_SetMiniDroneSettingsStateCutOutModeChangedCallback
                0x000000000005b280       0x4c /home/sunho/bebop_ws/devel/arsdk/out/arsdk-native/build/libARCommands/obj/gen/Sources/ARCOMMANDS_Decoder.c.o
                0x000000000005b280                ARCOMMANDS_Decoder_SetMiniDroneSettingsStateCutOutModeChangedCallback
 *fill*         0x000000000005b2cc        0x4 
 .text.ARCOMMANDS_Decoder_SetMiniDroneFloodControlStateFloodControlChangedCb
                0x000000000005b2d0       0x3d /home/sunho/bebop_ws/devel/arsdk/out/arsdk-native/build/libARCommands/obj/gen/Sources/ARCOMMANDS_Decoder.c.o
                0x000000000005b2d0                ARCOMMANDS_Decoder_SetMiniDroneFloodControlStateFloodControlChangedCb
 *fill*         0x000000000005b30d        0x3 
 .text.ARCOMMANDS_Decoder_SetMiniDroneFloodControlStateFloodControlChangedCallback
                0x000000000005b310       0x4c /home/sunho/bebop_ws/devel/arsdk/out/arsdk-native/build/libARCommands/obj/gen/Sources/ARCOMMANDS_Decoder.c.o
                0x000000000005b310                ARCOMMANDS_Decoder_SetMiniDroneFloodControlStateFloodControlChangedCallback
 *fill*         0x000000000005b35c        0x4 
 .text.ARCOMMANDS_Decoder_SetMiniDroneUsbAccessoryStateLightStateCb
                0x000000000005b360       0x3d /home/sunho/bebop_ws/devel/arsdk/out/arsdk-native/build/libARCommands/obj/gen/Sources/ARCOMMANDS_Decoder.c.o
                0x000000000005b360                ARCOMMANDS_Decoder_SetMiniDroneUsbAccessoryStateLightStateCb
 *fill*         0x000000000005b39d        0x3 
 .text.ARCOMMANDS_Decoder_SetMiniDroneUsbAccessoryStateLightStateCallback
                0x000000000005b3a0       0x4c /home/sunho/bebop_ws/devel/arsdk/out/arsdk-native/build/libARCommands/obj/gen/Sources/ARCOMMANDS_Decoder.c.o
                0x000000000005b3a0                ARCOMMANDS_Decoder_SetMiniDroneUsbAccessoryStateLightStateCallback
 *fill*         0x000000000005b3ec        0x4 
 .text.ARCOMMANDS_Decoder_SetMiniDroneUsbAccessoryStateClawStateCb
                0x000000000005b3f0       0x3d /home/sunho/bebop_ws/devel/arsdk/out/arsdk-native/build/libARCommands/obj/gen/Sources/ARCOMMANDS_Decoder.c.o
                0x000000000005b3f0                ARCOMMANDS_Decoder_SetMiniDroneUsbAccessoryStateClawStateCb
 *fill*         0x000000000005b42d        0x3 
 .text.ARCOMMANDS_Decoder_SetMiniDroneUsbAccessoryStateClawStateCallback
                0x000000000005b430       0x4c /home/sunho/bebop_ws/devel/arsdk/out/arsdk-native/build/libARCommands/obj/gen/Sources/ARCOMMANDS_Decoder.c.o
                0x000000000005b430                ARCOMMANDS_Decoder_SetMiniDroneUsbAccessoryStateClawStateCallback
 *fill*         0x000000000005b47c        0x4 
 .text.ARCOMMANDS_Decoder_SetMiniDroneUsbAccessoryStateGunStateCb
                0x000000000005b480       0x3d /home/sunho/bebop_ws/devel/arsdk/out/arsdk-native/build/libARCommands/obj/gen/Sources/ARCOMMANDS_Decoder.c.o
                0x000000000005b480                ARCOMMANDS_Decoder_SetMiniDroneUsbAccessoryStateGunStateCb
 *fill*         0x000000000005b4bd        0x3 
 .text.ARCOMMANDS_Decoder_SetMiniDroneUsbAccessoryStateGunStateCallback
                0x000000000005b4c0       0x4c /home/sunho/bebop_ws/devel/arsdk/out/arsdk-native/build/libARCommands/obj/gen/Sources/ARCOMMANDS_Decoder.c.o
                0x000000000005b4c0                ARCOMMANDS_Decoder_SetMiniDroneUsbAccessoryStateGunStateCallback
 *fill*         0x000000000005b50c        0x4 
 .text.ARCOMMANDS_Decoder_SetMiniDroneNavigationDataStateDronePositionCb
                0x000000000005b510       0x3d /home/sunho/bebop_ws/devel/arsdk/out/arsdk-native/build/libARCommands/obj/gen/Sources/ARCOMMANDS_Decoder.c.o
                0x000000000005b510                ARCOMMANDS_Decoder_SetMiniDroneNavigationDataStateDronePositionCb
 *fill*         0x000000000005b54d        0x3 
 .text.ARCOMMANDS_Decoder_SetMiniDroneNavigationDataStateDronePositionCallback
                0x000000000005b550       0x4c /home/sunho/bebop_ws/devel/arsdk/out/arsdk-native/build/libARCommands/obj/gen/Sources/ARCOMMANDS_Decoder.c.o
                0x000000000005b550                ARCOMMANDS_Decoder_SetMiniDroneNavigationDataStateDronePositionCallback
 *fill*         0x000000000005b59c        0x4 
 .text.ARCOMMANDS_Decoder_SetPowerupPilotingPCMDCb
                0x000000000005b5a0       0x3d /home/sunho/bebop_ws/devel/arsdk/out/arsdk-native/build/libARCommands/obj/gen/Sources/ARCOMMANDS_Decoder.c.o
                0x000000000005b5a0                ARCOMMANDS_Decoder_SetPowerupPilotingPCMDCb
 *fill*         0x000000000005b5dd        0x3 
 .text.ARCOMMANDS_Decoder_SetPowerupPilotingPCMDCallback
                0x000000000005b5e0       0x4c /home/sunho/bebop_ws/devel/arsdk/out/arsdk-native/build/libARCommands/obj/gen/Sources/ARCOMMANDS_Decoder.c.o
                0x000000000005b5e0                ARCOMMANDS_Decoder_SetPowerupPilotingPCMDCallback
 *fill*         0x000000000005b62c        0x4 
 .text.ARCOMMANDS_Decoder_SetPowerupPilotingUserTakeOffCb
                0x000000000005b630       0x3d /home/sunho/bebop_ws/devel/arsdk/out/arsdk-native/build/libARCommands/obj/gen/Sources/ARCOMMANDS_Decoder.c.o
                0x000000000005b630                ARCOMMANDS_Decoder_SetPowerupPilotingUserTakeOffCb
 *fill*         0x000000000005b66d        0x3 
 .text.ARCOMMANDS_Decoder_SetPowerupPilotingUserTakeOffCallback
                0x000000000005b670       0x4c /home/sunho/bebop_ws/devel/arsdk/out/arsdk-native/build/libARCommands/obj/gen/Sources/ARCOMMANDS_Decoder.c.o
                0x000000000005b670                ARCOMMANDS_Decoder_SetPowerupPilotingUserTakeOffCallback
 *fill*         0x000000000005b6bc        0x4 
 .text.ARCOMMANDS_Decoder_SetPowerupPilotingMotorModeCb
                0x000000000005b6c0       0x3d /home/sunho/bebop_ws/devel/arsdk/out/arsdk-native/build/libARCommands/obj/gen/Sources/ARCOMMANDS_Decoder.c.o
                0x000000000005b6c0                ARCOMMANDS_Decoder_SetPowerupPilotingMotorModeCb
 *fill*         0x000000000005b6fd        0x3 
 .text.ARCOMMANDS_Decoder_SetPowerupPilotingMotorModeCallback
                0x000000000005b700       0x4c /home/sunho/bebop_ws/devel/arsdk/out/arsdk-native/build/libARCommands/obj/gen/Sources/ARCOMMANDS_Decoder.c.o
                0x000000000005b700                ARCOMMANDS_Decoder_SetPowerupPilotingMotorModeCallback
 *fill*         0x000000000005b74c        0x4 
 .text.ARCOMMANDS_Decoder_SetPowerupPilotingSettingsSetCb
                0x000000000005b750       0x3d /home/sunho/bebop_ws/devel/arsdk/out/arsdk-native/build/libARCommands/obj/gen/Sources/ARCOMMANDS_Decoder.c.o
                0x000000000005b750                ARCOMMANDS_Decoder_SetPowerupPilotingSettingsSetCb
 *fill*         0x000000000005b78d        0x3 
 .text.ARCOMMANDS_Decoder_SetPowerupPilotingSettingsSetCallback
                0x000000000005b790       0x4c /home/sunho/bebop_ws/devel/arsdk/out/arsdk-native/build/libARCommands/obj/gen/Sources/ARCOMMANDS_Decoder.c.o
                0x000000000005b790                ARCOMMANDS_Decoder_SetPowerupPilotingSettingsSetCallback
 *fill*         0x000000000005b7dc        0x4 
 .text.ARCOMMANDS_Decoder_SetPowerupMediaRecordPictureV2Cb
                0x000000000005b7e0       0x3d /home/sunho/bebop_ws/devel/arsdk/out/arsdk-native/build/libARCommands/obj/gen/Sources/ARCOMMANDS_Decoder.c.o
                0x000000000005b7e0                ARCOMMANDS_Decoder_SetPowerupMediaRecordPictureV2Cb
 *fill*         0x000000000005b81d        0x3 
 .text.ARCOMMANDS_Decoder_SetPowerupMediaRecordPictureV2Callback
                0x000000000005b820       0x4c /home/sunho/bebop_ws/devel/arsdk/out/arsdk-native/build/libARCommands/obj/gen/Sources/ARCOMMANDS_Decoder.c.o
                0x000000000005b820                ARCOMMANDS_Decoder_SetPowerupMediaRecordPictureV2Callback
 *fill*         0x000000000005b86c        0x4 
 .text.ARCOMMANDS_Decoder_SetPowerupMediaRecordVideoV2Cb
                0x000000000005b870       0x3d /home/sunho/bebop_ws/devel/arsdk/out/arsdk-native/build/libARCommands/obj/gen/Sources/ARCOMMANDS_Decoder.c.o
                0x000000000005b870                ARCOMMANDS_Decoder_SetPowerupMediaRecordVideoV2Cb
 *fill*         0x000000000005b8ad        0x3 
 .text.ARCOMMANDS_Decoder_SetPowerupMediaRecordVideoV2Callback
                0x000000000005b8b0       0x4c /home/sunho/bebop_ws/devel/arsdk/out/arsdk-native/build/libARCommands/obj/gen/Sources/ARCOMMANDS_Decoder.c.o
                0x000000000005b8b0                ARCOMMANDS_Decoder_SetPowerupMediaRecordVideoV2Callback
 *fill*         0x000000000005b8fc        0x4 
 .text.ARCOMMANDS_Decoder_SetPowerupNetworkSettingsWifiSelectionCb
                0x000000000005b900       0x3d /home/sunho/bebop_ws/devel/arsdk/out/arsdk-native/build/libARCommands/obj/gen/Sources/ARCOMMANDS_Decoder.c.o
                0x000000000005b900                ARCOMMANDS_Decoder_SetPowerupNetworkSettingsWifiSelectionCb
 *fill*         0x000000000005b93d        0x3 
 .text.ARCOMMANDS_Decoder_SetPowerupNetworkSettingsWifiSelectionCallback
                0x000000000005b940       0x4c /home/sunho/bebop_ws/devel/arsdk/out/arsdk-native/build/libARCommands/obj/gen/Sources/ARCOMMANDS_Decoder.c.o
                0x000000000005b940                ARCOMMANDS_Decoder_SetPowerupNetworkSettingsWifiSelectionCallback
 *fill*         0x000000000005b98c        0x4 
 .text.ARCOMMANDS_Decoder_SetPowerupNetworkWifiScanCb
                0x000000000005b990       0x3d /home/sunho/bebop_ws/devel/arsdk/out/arsdk-native/build/libARCommands/obj/gen/Sources/ARCOMMANDS_Decoder.c.o
                0x000000000005b990                ARCOMMANDS_Decoder_SetPowerupNetworkWifiScanCb
 *fill*         0x000000000005b9cd        0x3 
 .text.ARCOMMANDS_Decoder_SetPowerupNetworkWifiScanCallback
                0x000000000005b9d0       0x4c /home/sunho/bebop_ws/devel/arsdk/out/arsdk-native/build/libARCommands/obj/gen/Sources/ARCOMMANDS_Decoder.c.o
                0x000000000005b9d0                ARCOMMANDS_Decoder_SetPowerupNetworkWifiScanCallback
 *fill*         0x000000000005ba1c        0x4 
 .text.ARCOMMANDS_Decoder_SetPowerupNetworkWifiAuthChannelCb
                0x000000000005ba20       0x3d /home/sunho/bebop_ws/devel/arsdk/out/arsdk-native/build/libARCommands/obj/gen/Sources/ARCOMMANDS_Decoder.c.o
                0x000000000005ba20                ARCOMMANDS_Decoder_SetPowerupNetworkWifiAuthChannelCb
 *fill*         0x000000000005ba5d        0x3 
 .text.ARCOMMANDS_Decoder_SetPowerupNetworkWifiAuthChannelCallback
                0x000000000005ba60       0x4c /home/sunho/bebop_ws/devel/arsdk/out/arsdk-native/build/libARCommands/obj/gen/Sources/ARCOMMANDS_Decoder.c.o
                0x000000000005ba60                ARCOMMANDS_Decoder_SetPowerupNetworkWifiAuthChannelCallback
 *fill*         0x000000000005baac        0x4 
 .text.ARCOMMANDS_Decoder_SetPowerupMediaStreamingVideoEnableCb
                0x000000000005bab0       0x3d /home/sunho/bebop_ws/devel/arsdk/out/arsdk-native/build/libARCommands/obj/gen/Sources/ARCOMMANDS_Decoder.c.o
                0x000000000005bab0                ARCOMMANDS_Decoder_SetPowerupMediaStreamingVideoEnableCb
 *fill*         0x000000000005baed        0x3 
 .text.ARCOMMANDS_Decoder_SetPowerupMediaStreamingVideoEnableCallback
                0x000000000005baf0       0x4c /home/sunho/bebop_ws/devel/arsdk/out/arsdk-native/build/libARCommands/obj/gen/Sources/ARCOMMANDS_Decoder.c.o
                0x000000000005baf0                ARCOMMANDS_Decoder_SetPowerupMediaStreamingVideoEnableCallback
 *fill*         0x000000000005bb3c        0x4 
 .text.ARCOMMANDS_Decoder_SetPowerupVideoSettingsAutorecordCb
                0x000000000005bb40       0x3d /home/sunho/bebop_ws/devel/arsdk/out/arsdk-native/build/libARCommands/obj/gen/Sources/ARCOMMANDS_Decoder.c.o
                0x000000000005bb40                ARCOMMANDS_Decoder_SetPowerupVideoSettingsAutorecordCb
 *fill*         0x000000000005bb7d        0x3 
 .text.ARCOMMANDS_Decoder_SetPowerupVideoSettingsAutorecordCallback
                0x000000000005bb80       0x4c /home/sunho/bebop_ws/devel/arsdk/out/arsdk-native/build/libARCommands/obj/gen/Sources/ARCOMMANDS_Decoder.c.o
                0x000000000005bb80                ARCOMMANDS_Decoder_SetPowerupVideoSettingsAutorecordCallback
 *fill*         0x000000000005bbcc        0x4 
 .text.ARCOMMANDS_Decoder_SetPowerupVideoSettingsVideoModeCb
                0x000000000005bbd0       0x3d /home/sunho/bebop_ws/devel/arsdk/out/arsdk-native/build/libARCommands/obj/gen/Sources/ARCOMMANDS_Decoder.c.o
                0x000000000005bbd0                ARCOMMANDS_Decoder_SetPowerupVideoSettingsVideoModeCb
 *fill*         0x000000000005bc0d        0x3 
 .text.ARCOMMANDS_Decoder_SetPowerupVideoSettingsVideoModeCallback
                0x000000000005bc10       0x4c /home/sunho/bebop_ws/devel/arsdk/out/arsdk-native/build/libARCommands/obj/gen/Sources/ARCOMMANDS_Decoder.c.o
                0x000000000005bc10                ARCOMMANDS_Decoder_SetPowerupVideoSettingsVideoModeCallback
 *fill*         0x000000000005bc5c        0x4 
 .text.ARCOMMANDS_Decoder_SetPowerupSoundsBuzzCb
                0x000000000005bc60       0x3d /home/sunho/bebop_ws/devel/arsdk/out/arsdk-native/build/libARCommands/obj/gen/Sources/ARCOMMANDS_Decoder.c.o
                0x000000000005bc60                ARCOMMANDS_Decoder_SetPowerupSoundsBuzzCb
 *fill*         0x000000000005bc9d        0x3 
 .text.ARCOMMANDS_Decoder_SetPowerupSoundsBuzzCallback
                0x000000000005bca0       0x4c /home/sunho/bebop_ws/devel/arsdk/out/arsdk-native/build/libARCommands/obj/gen/Sources/ARCOMMANDS_Decoder.c.o
                0x000000000005bca0                ARCOMMANDS_Decoder_SetPowerupSoundsBuzzCallback
 *fill*         0x000000000005bcec        0x4 
 .text.ARCOMMANDS_Decoder_SetPowerupPilotingStateAlertStateChangedCb
                0x000000000005bcf0       0x3d /home/sunho/bebop_ws/devel/arsdk/out/arsdk-native/build/libARCommands/obj/gen/Sources/ARCOMMANDS_Decoder.c.o
                0x000000000005bcf0                ARCOMMANDS_Decoder_SetPowerupPilotingStateAlertStateChangedCb
 *fill*         0x000000000005bd2d        0x3 
 .text.ARCOMMANDS_Decoder_SetPowerupPilotingStateAlertStateChangedCallback
                0x000000000005bd30       0x4c /home/sunho/bebop_ws/devel/arsdk/out/arsdk-native/build/libARCommands/obj/gen/Sources/ARCOMMANDS_Decoder.c.o
                0x000000000005bd30                ARCOMMANDS_Decoder_SetPowerupPilotingStateAlertStateChangedCallback
 *fill*         0x000000000005bd7c        0x4 
 .text.ARCOMMANDS_Decoder_SetPowerupPilotingStateFlyingStateChangedCb
                0x000000000005bd80       0x3d /home/sunho/bebop_ws/devel/arsdk/out/arsdk-native/build/libARCommands/obj/gen/Sources/ARCOMMANDS_Decoder.c.o
                0x000000000005bd80                ARCOMMANDS_Decoder_SetPowerupPilotingStateFlyingStateChangedCb
 *fill*         0x000000000005bdbd        0x3 
 .text.ARCOMMANDS_Decoder_SetPowerupPilotingStateFlyingStateChangedCallback
                0x000000000005bdc0       0x4c /home/sunho/bebop_ws/devel/arsdk/out/arsdk-native/build/libARCommands/obj/gen/Sources/ARCOMMANDS_Decoder.c.o
                0x000000000005bdc0                ARCOMMANDS_Decoder_SetPowerupPilotingStateFlyingStateChangedCallback
 *fill*         0x000000000005be0c        0x4 
 .text.ARCOMMANDS_Decoder_SetPowerupPilotingStateMotorModeChangedCb
                0x000000000005be10       0x3d /home/sunho/bebop_ws/devel/arsdk/out/arsdk-native/build/libARCommands/obj/gen/Sources/ARCOMMANDS_Decoder.c.o
                0x000000000005be10                ARCOMMANDS_Decoder_SetPowerupPilotingStateMotorModeChangedCb
 *fill*         0x000000000005be4d        0x3 
 .text.ARCOMMANDS_Decoder_SetPowerupPilotingStateMotorModeChangedCallback
                0x000000000005be50       0x4c /home/sunho/bebop_ws/devel/arsdk/out/arsdk-native/build/libARCommands/obj/gen/Sources/ARCOMMANDS_Decoder.c.o
                0x000000000005be50                ARCOMMANDS_Decoder_SetPowerupPilotingStateMotorModeChangedCallback
 *fill*         0x000000000005be9c        0x4 
 .text.ARCOMMANDS_Decoder_SetPowerupPilotingStateAttitudeChangedCb
                0x000000000005bea0       0x3d /home/sunho/bebop_ws/devel/arsdk/out/arsdk-native/build/libARCommands/obj/gen/Sources/ARCOMMANDS_Decoder.c.o
                0x000000000005bea0                ARCOMMANDS_Decoder_SetPowerupPilotingStateAttitudeChangedCb
 *fill*         0x000000000005bedd        0x3 
 .text.ARCOMMANDS_Decoder_SetPowerupPilotingStateAttitudeChangedCallback
                0x000000000005bee0       0x4c /home/sunho/bebop_ws/devel/arsdk/out/arsdk-native/build/libARCommands/obj/gen/Sources/ARCOMMANDS_Decoder.c.o
                0x000000000005bee0                ARCOMMANDS_Decoder_SetPowerupPilotingStateAttitudeChangedCallback
 *fill*         0x000000000005bf2c        0x4 
 .text.ARCOMMANDS_Decoder_SetPowerupPilotingStateAltitudeChangedCb
                0x000000000005bf30       0x3d /home/sunho/bebop_ws/devel/arsdk/out/arsdk-native/build/libARCommands/obj/gen/Sources/ARCOMMANDS_Decoder.c.o
                0x000000000005bf30                ARCOMMANDS_Decoder_SetPowerupPilotingStateAltitudeChangedCb
 *fill*         0x000000000005bf6d        0x3 
 .text.ARCOMMANDS_Decoder_SetPowerupPilotingStateAltitudeChangedCallback
                0x000000000005bf70       0x4c /home/sunho/bebop_ws/devel/arsdk/out/arsdk-native/build/libARCommands/obj/gen/Sources/ARCOMMANDS_Decoder.c.o
                0x000000000005bf70                ARCOMMANDS_Decoder_SetPowerupPilotingStateAltitudeChangedCallback
 *fill*         0x000000000005bfbc        0x4 
 .text.ARCOMMANDS_Decoder_SetPowerupPilotingSettingsStateSettingChangedCb
                0x000000000005bfc0       0x3d /home/sunho/bebop_ws/devel/arsdk/out/arsdk-native/build/libARCommands/obj/gen/Sources/ARCOMMANDS_Decoder.c.o
                0x000000000005bfc0                ARCOMMANDS_Decoder_SetPowerupPilotingSettingsStateSettingChangedCb
 *fill*         0x000000000005bffd        0x3 
 .text.ARCOMMANDS_Decoder_SetPowerupPilotingSettingsStateSettingChangedCallback
                0x000000000005c000       0x4c /home/sunho/bebop_ws/devel/arsdk/out/arsdk-native/build/libARCommands/obj/gen/Sources/ARCOMMANDS_Decoder.c.o
                0x000000000005c000                ARCOMMANDS_Decoder_SetPowerupPilotingSettingsStateSettingChangedCallback
 *fill*         0x000000000005c04c        0x4 
 .text.ARCOMMANDS_Decoder_SetPowerupMediaRecordStatePictureStateChangedV2Cb
                0x000000000005c050       0x3d /home/sunho/bebop_ws/devel/arsdk/out/arsdk-native/build/libARCommands/obj/gen/Sources/ARCOMMANDS_Decoder.c.o
                0x000000000005c050                ARCOMMANDS_Decoder_SetPowerupMediaRecordStatePictureStateChangedV2Cb
 *fill*         0x000000000005c08d        0x3 
 .text.ARCOMMANDS_Decoder_SetPowerupMediaRecordStatePictureStateChangedV2Callback
                0x000000000005c090       0x4c /home/sunho/bebop_ws/devel/arsdk/out/arsdk-native/build/libARCommands/obj/gen/Sources/ARCOMMANDS_Decoder.c.o
                0x000000000005c090                ARCOMMANDS_Decoder_SetPowerupMediaRecordStatePictureStateChangedV2Callback
 *fill*         0x000000000005c0dc        0x4 
 .text.ARCOMMANDS_Decoder_SetPowerupMediaRecordStateVideoStateChangedV2Cb
                0x000000000005c0e0       0x3d /home/sunho/bebop_ws/devel/arsdk/out/arsdk-native/build/libARCommands/obj/gen/Sources/ARCOMMANDS_Decoder.c.o
                0x000000000005c0e0                ARCOMMANDS_Decoder_SetPowerupMediaRecordStateVideoStateChangedV2Cb
 *fill*         0x000000000005c11d        0x3 
 .text.ARCOMMANDS_Decoder_SetPowerupMediaRecordStateVideoStateChangedV2Callback
                0x000000000005c120       0x4c /home/sunho/bebop_ws/devel/arsdk/out/arsdk-native/build/libARCommands/obj/gen/Sources/ARCOMMANDS_Decoder.c.o
                0x000000000005c120                ARCOMMANDS_Decoder_SetPowerupMediaRecordStateVideoStateChangedV2Callback
 *fill*         0x000000000005c16c        0x4 
 .text.ARCOMMANDS_Decoder_SetPowerupMediaRecordEventPictureEventChangedCb
                0x000000000005c170       0x3d /home/sunho/bebop_ws/devel/arsdk/out/arsdk-native/build/libARCommands/obj/gen/Sources/ARCOMMANDS_Decoder.c.o
                0x000000000005c170                ARCOMMANDS_Decoder_SetPowerupMediaRecordEventPictureEventChangedCb
 *fill*         0x000000000005c1ad        0x3 
 .text.ARCOMMANDS_Decoder_SetPowerupMediaRecordEventPictureEventChangedCallback
                0x000000000005c1b0       0x4c /home/sunho/bebop_ws/devel/arsdk/out/arsdk-native/build/libARCommands/obj/gen/Sources/ARCOMMANDS_Decoder.c.o
                0x000000000005c1b0                ARCOMMANDS_Decoder_SetPowerupMediaRecordEventPictureEventChangedCallback
 *fill*         0x000000000005c1fc        0x4 
 .text.ARCOMMANDS_Decoder_SetPowerupMediaRecordEventVideoEventChangedCb
                0x000000000005c200       0x3d /home/sunho/bebop_ws/devel/arsdk/out/arsdk-native/build/libARCommands/obj/gen/Sources/ARCOMMANDS_Decoder.c.o
                0x000000000005c200                ARCOMMANDS_Decoder_SetPowerupMediaRecordEventVideoEventChangedCb
 *fill*         0x000000000005c23d        0x3 
 .text.ARCOMMANDS_Decoder_SetPowerupMediaRecordEventVideoEventChangedCallback
                0x000000000005c240       0x4c /home/sunho/bebop_ws/devel/arsdk/out/arsdk-native/build/libARCommands/obj/gen/Sources/ARCOMMANDS_Decoder.c.o
                0x000000000005c240                ARCOMMANDS_Decoder_SetPowerupMediaRecordEventVideoEventChangedCallback
 *fill*         0x000000000005c28c        0x4 
 .text.ARCOMMANDS_Decoder_SetPowerupNetworkSettingsStateWifiSelectionChangedCb
                0x000000000005c290       0x3d /home/sunho/bebop_ws/devel/arsdk/out/arsdk-native/build/libARCommands/obj/gen/Sources/ARCOMMANDS_Decoder.c.o
                0x000000000005c290                ARCOMMANDS_Decoder_SetPowerupNetworkSettingsStateWifiSelectionChangedCb
 *fill*         0x000000000005c2cd        0x3 
 .text.ARCOMMANDS_Decoder_SetPowerupNetworkSettingsStateWifiSelectionChangedCallback
                0x000000000005c2d0       0x4c /home/sunho/bebop_ws/devel/arsdk/out/arsdk-native/build/libARCommands/obj/gen/Sources/ARCOMMANDS_Decoder.c.o
                0x000000000005c2d0                ARCOMMANDS_Decoder_SetPowerupNetworkSettingsStateWifiSelectionChangedCallback
 *fill*         0x000000000005c31c        0x4 
 .text.ARCOMMANDS_Decoder_SetPowerupNetworkStateWifiScanListChangedCb
                0x000000000005c320       0x3d /home/sunho/bebop_ws/devel/arsdk/out/arsdk-native/build/libARCommands/obj/gen/Sources/ARCOMMANDS_Decoder.c.o
                0x000000000005c320                ARCOMMANDS_Decoder_SetPowerupNetworkStateWifiScanListChangedCb
 *fill*         0x000000000005c35d        0x3 
 .text.ARCOMMANDS_Decoder_SetPowerupNetworkStateWifiScanListChangedCallback
                0x000000000005c360       0x4c /home/sunho/bebop_ws/devel/arsdk/out/arsdk-native/build/libARCommands/obj/gen/Sources/ARCOMMANDS_Decoder.c.o
                0x000000000005c360                ARCOMMANDS_Decoder_SetPowerupNetworkStateWifiScanListChangedCallback
 *fill*         0x000000000005c3ac        0x4 
 .text.ARCOMMANDS_Decoder_SetPowerupNetworkStateAllWifiScanChangedCb
                0x000000000005c3b0       0x3d /home/sunho/bebop_ws/devel/arsdk/out/arsdk-native/build/libARCommands/obj/gen/Sources/ARCOMMANDS_Decoder.c.o
                0x000000000005c3b0                ARCOMMANDS_Decoder_SetPowerupNetworkStateAllWifiScanChangedCb
 *fill*         0x000000000005c3ed        0x3 
 .text.ARCOMMANDS_Decoder_SetPowerupNetworkStateAllWifiScanChangedCallback
                0x000000000005c3f0       0x4c /home/sunho/bebop_ws/devel/arsdk/out/arsdk-native/build/libARCommands/obj/gen/Sources/ARCOMMANDS_Decoder.c.o
                0x000000000005c3f0                ARCOMMANDS_Decoder_SetPowerupNetworkStateAllWifiScanChangedCallback
 *fill*         0x000000000005c43c        0x4 
 .text.ARCOMMANDS_Decoder_SetPowerupNetworkStateWifiAuthChannelListChangedCb
                0x000000000005c440       0x3d /home/sunho/bebop_ws/devel/arsdk/out/arsdk-native/build/libARCommands/obj/gen/Sources/ARCOMMANDS_Decoder.c.o
                0x000000000005c440                ARCOMMANDS_Decoder_SetPowerupNetworkStateWifiAuthChannelListChangedCb
 *fill*         0x000000000005c47d        0x3 
 .text.ARCOMMANDS_Decoder_SetPowerupNetworkStateWifiAuthChannelListChangedCallback
                0x000000000005c480       0x4c /home/sunho/bebop_ws/devel/arsdk/out/arsdk-native/build/libARCommands/obj/gen/Sources/ARCOMMANDS_Decoder.c.o
                0x000000000005c480                ARCOMMANDS_Decoder_SetPowerupNetworkStateWifiAuthChannelListChangedCallback
 *fill*         0x000000000005c4cc        0x4 
 .text.ARCOMMANDS_Decoder_SetPowerupNetworkStateAllWifiAuthChannelChangedCb
                0x000000000005c4d0       0x3d /home/sunho/bebop_ws/devel/arsdk/out/arsdk-native/build/libARCommands/obj/gen/Sources/ARCOMMANDS_Decoder.c.o
                0x000000000005c4d0                ARCOMMANDS_Decoder_SetPowerupNetworkStateAllWifiAuthChannelChangedCb
 *fill*         0x000000000005c50d        0x3 
 .text.ARCOMMANDS_Decoder_SetPowerupNetworkStateAllWifiAuthChannelChangedCallback
                0x000000000005c510       0x4c /home/sunho/bebop_ws/devel/arsdk/out/arsdk-native/build/libARCommands/obj/gen/Sources/ARCOMMANDS_Decoder.c.o
                0x000000000005c510                ARCOMMANDS_Decoder_SetPowerupNetworkStateAllWifiAuthChannelChangedCallback
 *fill*         0x000000000005c55c        0x4 
 .text.ARCOMMANDS_Decoder_SetPowerupNetworkStateLinkQualityChangedCb
                0x000000000005c560       0x3d /home/sunho/bebop_ws/devel/arsdk/out/arsdk-native/build/libARCommands/obj/gen/Sources/ARCOMMANDS_Decoder.c.o
                0x000000000005c560                ARCOMMANDS_Decoder_SetPowerupNetworkStateLinkQualityChangedCb
 *fill*         0x000000000005c59d        0x3 
 .text.ARCOMMANDS_Decoder_SetPowerupNetworkStateLinkQualityChangedCallback
                0x000000000005c5a0       0x4c /home/sunho/bebop_ws/devel/arsdk/out/arsdk-native/build/libARCommands/obj/gen/Sources/ARCOMMANDS_Decoder.c.o
                0x000000000005c5a0                ARCOMMANDS_Decoder_SetPowerupNetworkStateLinkQualityChangedCallback
 *fill*         0x000000000005c5ec        0x4 
 .text.ARCOMMANDS_Decoder_SetPowerupMediaStreamingStateVideoEnableChangedCb
                0x000000000005c5f0       0x3d /home/sunho/bebop_ws/devel/arsdk/out/arsdk-native/build/libARCommands/obj/gen/Sources/ARCOMMANDS_Decoder.c.o
                0x000000000005c5f0                ARCOMMANDS_Decoder_SetPowerupMediaStreamingStateVideoEnableChangedCb
 *fill*         0x000000000005c62d        0x3 
 .text.ARCOMMANDS_Decoder_SetPowerupMediaStreamingStateVideoEnableChangedCallback
                0x000000000005c630       0x4c /home/sunho/bebop_ws/devel/arsdk/out/arsdk-native/build/libARCommands/obj/gen/Sources/ARCOMMANDS_Decoder.c.o
                0x000000000005c630                ARCOMMANDS_Decoder_SetPowerupMediaStreamingStateVideoEnableChangedCallback
 *fill*         0x000000000005c67c        0x4 
 .text.ARCOMMANDS_Decoder_SetPowerupVideoSettingsStateAutorecordChangedCb
                0x000000000005c680       0x3d /home/sunho/bebop_ws/devel/arsdk/out/arsdk-native/build/libARCommands/obj/gen/Sources/ARCOMMANDS_Decoder.c.o
                0x000000000005c680                ARCOMMANDS_Decoder_SetPowerupVideoSettingsStateAutorecordChangedCb
 *fill*         0x000000000005c6bd        0x3 
 .text.ARCOMMANDS_Decoder_SetPowerupVideoSettingsStateAutorecordChangedCallback
                0x000000000005c6c0       0x4c /home/sunho/bebop_ws/devel/arsdk/out/arsdk-native/build/libARCommands/obj/gen/Sources/ARCOMMANDS_Decoder.c.o
                0x000000000005c6c0                ARCOMMANDS_Decoder_SetPowerupVideoSettingsStateAutorecordChangedCallback
 *fill*         0x000000000005c70c        0x4 
 .text.ARCOMMANDS_Decoder_SetPowerupVideoSettingsStateVideoModeChangedCb
                0x000000000005c710       0x3d /home/sunho/bebop_ws/devel/arsdk/out/arsdk-native/build/libARCommands/obj/gen/Sources/ARCOMMANDS_Decoder.c.o
                0x000000000005c710                ARCOMMANDS_Decoder_SetPowerupVideoSettingsStateVideoModeChangedCb
 *fill*         0x000000000005c74d        0x3 
 .text.ARCOMMANDS_Decoder_SetPowerupVideoSettingsStateVideoModeChangedCallback
                0x000000000005c750       0x4c /home/sunho/bebop_ws/devel/arsdk/out/arsdk-native/build/libARCommands/obj/gen/Sources/ARCOMMANDS_Decoder.c.o
                0x000000000005c750                ARCOMMANDS_Decoder_SetPowerupVideoSettingsStateVideoModeChangedCallback
 *fill*         0x000000000005c79c        0x4 
 .text.ARCOMMANDS_Decoder_SetPowerupSoundsStateBuzzChangedCb
                0x000000000005c7a0       0x3d /home/sunho/bebop_ws/devel/arsdk/out/arsdk-native/build/libARCommands/obj/gen/Sources/ARCOMMANDS_Decoder.c.o
                0x000000000005c7a0                ARCOMMANDS_Decoder_SetPowerupSoundsStateBuzzChangedCb
 *fill*         0x000000000005c7dd        0x3 
 .text.ARCOMMANDS_Decoder_SetPowerupSoundsStateBuzzChangedCallback
                0x000000000005c7e0       0x4c /home/sunho/bebop_ws/devel/arsdk/out/arsdk-native/build/libARCommands/obj/gen/Sources/ARCOMMANDS_Decoder.c.o
                0x000000000005c7e0                ARCOMMANDS_Decoder_SetPowerupSoundsStateBuzzChangedCallback
 *fill*         0x000000000005c82c        0x4 
 .text.ARCOMMANDS_Decoder_SetProProBoughtFeaturesCb
                0x000000000005c830       0x3d /home/sunho/bebop_ws/devel/arsdk/out/arsdk-native/build/libARCommands/obj/gen/Sources/ARCOMMANDS_Decoder.c.o
                0x000000000005c830                ARCOMMANDS_Decoder_SetProProBoughtFeaturesCb
 *fill*         0x000000000005c86d        0x3 
 .text.ARCOMMANDS_Decoder_SetProProBoughtFeaturesCallback
                0x000000000005c870       0x4c /home/sunho/bebop_ws/devel/arsdk/out/arsdk-native/build/libARCommands/obj/gen/Sources/ARCOMMANDS_Decoder.c.o
                0x000000000005c870                ARCOMMANDS_Decoder_SetProProBoughtFeaturesCallback
 *fill*         0x000000000005c8bc        0x4 
 .text.ARCOMMANDS_Decoder_SetProProResponseCb
                0x000000000005c8c0       0x3d /home/sunho/bebop_ws/devel/arsdk/out/arsdk-native/build/libARCommands/obj/gen/Sources/ARCOMMANDS_Decoder.c.o
                0x000000000005c8c0                ARCOMMANDS_Decoder_SetProProResponseCb
 *fill*         0x000000000005c8fd        0x3 
 .text.ARCOMMANDS_Decoder_SetProProResponseCallback
                0x000000000005c900       0x4c /home/sunho/bebop_ws/devel/arsdk/out/arsdk-native/build/libARCommands/obj/gen/Sources/ARCOMMANDS_Decoder.c.o
                0x000000000005c900                ARCOMMANDS_Decoder_SetProProResponseCallback
 *fill*         0x000000000005c94c        0x4 
 .text.ARCOMMANDS_Decoder_SetProProActivateFeaturesCb
                0x000000000005c950       0x3d /home/sunho/bebop_ws/devel/arsdk/out/arsdk-native/build/libARCommands/obj/gen/Sources/ARCOMMANDS_Decoder.c.o
                0x000000000005c950                ARCOMMANDS_Decoder_SetProProActivateFeaturesCb
 *fill*         0x000000000005c98d        0x3 
 .text.ARCOMMANDS_Decoder_SetProProActivateFeaturesCallback
                0x000000000005c990       0x4c /home/sunho/bebop_ws/devel/arsdk/out/arsdk-native/build/libARCommands/obj/gen/Sources/ARCOMMANDS_Decoder.c.o
                0x000000000005c990                ARCOMMANDS_Decoder_SetProProActivateFeaturesCallback
 *fill*         0x000000000005c9dc        0x4 
 .text.ARCOMMANDS_Decoder_SetProProStateSupportedFeaturesCb
                0x000000000005c9e0       0x3d /home/sunho/bebop_ws/devel/arsdk/out/arsdk-native/build/libARCommands/obj/gen/Sources/ARCOMMANDS_Decoder.c.o
                0x000000000005c9e0                ARCOMMANDS_Decoder_SetProProStateSupportedFeaturesCb
 *fill*         0x000000000005ca1d        0x3 
 .text.ARCOMMANDS_Decoder_SetProProStateSupportedFeaturesCallback
                0x000000000005ca20       0x4c /home/sunho/bebop_ws/devel/arsdk/out/arsdk-native/build/libARCommands/obj/gen/Sources/ARCOMMANDS_Decoder.c.o
                0x000000000005ca20                ARCOMMANDS_Decoder_SetProProStateSupportedFeaturesCallback
 *fill*         0x000000000005ca6c        0x4 
 .text.ARCOMMANDS_Decoder_SetProProStateFeaturesActivatedCb
                0x000000000005ca70       0x3d /home/sunho/bebop_ws/devel/arsdk/out/arsdk-native/build/libARCommands/obj/gen/Sources/ARCOMMANDS_Decoder.c.o
                0x000000000005ca70                ARCOMMANDS_Decoder_SetProProStateFeaturesActivatedCb
 *fill*         0x000000000005caad        0x3 
 .text.ARCOMMANDS_Decoder_SetProProStateFeaturesActivatedCallback
                0x000000000005cab0       0x4c /home/sunho/bebop_ws/devel/arsdk/out/arsdk-native/build/libARCommands/obj/gen/Sources/ARCOMMANDS_Decoder.c.o
                0x000000000005cab0                ARCOMMANDS_Decoder_SetProProStateFeaturesActivatedCallback
 *fill*         0x000000000005cafc        0x4 
 .text.ARCOMMANDS_Decoder_SetProProEventChallengeEventCb
                0x000000000005cb00       0x3d /home/sunho/bebop_ws/devel/arsdk/out/arsdk-native/build/libARCommands/obj/gen/Sources/ARCOMMANDS_Decoder.c.o
                0x000000000005cb00                ARCOMMANDS_Decoder_SetProProEventChallengeEventCb
 *fill*         0x000000000005cb3d        0x3 
 .text.ARCOMMANDS_Decoder_SetProProEventChallengeEventCallback
                0x000000000005cb40       0x4c /home/sunho/bebop_ws/devel/arsdk/out/arsdk-native/build/libARCommands/obj/gen/Sources/ARCOMMANDS_Decoder.c.o
                0x000000000005cb40                ARCOMMANDS_Decoder_SetProProEventChallengeEventCallback
 *fill*         0x000000000005cb8c        0x4 
 .text.ARCOMMANDS_Decoder_SetRcMonitorChannelsCb
                0x000000000005cb90       0x3d /home/sunho/bebop_ws/devel/arsdk/out/arsdk-native/build/libARCommands/obj/gen/Sources/ARCOMMANDS_Decoder.c.o
                0x000000000005cb90                ARCOMMANDS_Decoder_SetRcMonitorChannelsCb
 *fill*         0x000000000005cbcd        0x3 
 .text.ARCOMMANDS_Decoder_SetRcMonitorChannelsCallback
                0x000000000005cbd0       0x4c /home/sunho/bebop_ws/devel/arsdk/out/arsdk-native/build/libARCommands/obj/gen/Sources/ARCOMMANDS_Decoder.c.o
                0x000000000005cbd0                ARCOMMANDS_Decoder_SetRcMonitorChannelsCallback
 *fill*         0x000000000005cc1c        0x4 
 .text.ARCOMMANDS_Decoder_SetRcStartCalibrationCb
                0x000000000005cc20       0x3d /home/sunho/bebop_ws/devel/arsdk/out/arsdk-native/build/libARCommands/obj/gen/Sources/ARCOMMANDS_Decoder.c.o
                0x000000000005cc20                ARCOMMANDS_Decoder_SetRcStartCalibrationCb
 *fill*         0x000000000005cc5d        0x3 
 .text.ARCOMMANDS_Decoder_SetRcStartCalibrationCallback
                0x000000000005cc60       0x4c /home/sunho/bebop_ws/devel/arsdk/out/arsdk-native/build/libARCommands/obj/gen/Sources/ARCOMMANDS_Decoder.c.o
                0x000000000005cc60                ARCOMMANDS_Decoder_SetRcStartCalibrationCallback
 *fill*         0x000000000005ccac        0x4 
 .text.ARCOMMANDS_Decoder_SetRcInvertChannelCb
                0x000000000005ccb0       0x3d /home/sunho/bebop_ws/devel/arsdk/out/arsdk-native/build/libARCommands/obj/gen/Sources/ARCOMMANDS_Decoder.c.o
                0x000000000005ccb0                ARCOMMANDS_Decoder_SetRcInvertChannelCb
 *fill*         0x000000000005cced        0x3 
 .text.ARCOMMANDS_Decoder_SetRcInvertChannelCallback
                0x000000000005ccf0       0x4c /home/sunho/bebop_ws/devel/arsdk/out/arsdk-native/build/libARCommands/obj/gen/Sources/ARCOMMANDS_Decoder.c.o
                0x000000000005ccf0                ARCOMMANDS_Decoder_SetRcInvertChannelCallback
 *fill*         0x000000000005cd3c        0x4 
 .text.ARCOMMANDS_Decoder_SetRcAbortCalibrationCb
                0x000000000005cd40       0x3d /home/sunho/bebop_ws/devel/arsdk/out/arsdk-native/build/libARCommands/obj/gen/Sources/ARCOMMANDS_Decoder.c.o
                0x000000000005cd40                ARCOMMANDS_Decoder_SetRcAbortCalibrationCb
 *fill*         0x000000000005cd7d        0x3 
 .text.ARCOMMANDS_Decoder_SetRcAbortCalibrationCallback
                0x000000000005cd80       0x4c /home/sunho/bebop_ws/devel/arsdk/out/arsdk-native/build/libARCommands/obj/gen/Sources/ARCOMMANDS_Decoder.c.o
                0x000000000005cd80                ARCOMMANDS_Decoder_SetRcAbortCalibrationCallback
 *fill*         0x000000000005cdcc        0x4 
 .text.ARCOMMANDS_Decoder_SetRcResetCalibrationCb
                0x000000000005cdd0       0x3d /home/sunho/bebop_ws/devel/arsdk/out/arsdk-native/build/libARCommands/obj/gen/Sources/ARCOMMANDS_Decoder.c.o
                0x000000000005cdd0                ARCOMMANDS_Decoder_SetRcResetCalibrationCb
 *fill*         0x000000000005ce0d        0x3 
 .text.ARCOMMANDS_Decoder_SetRcResetCalibrationCallback
                0x000000000005ce10       0x4c /home/sunho/bebop_ws/devel/arsdk/out/arsdk-native/build/libARCommands/obj/gen/Sources/ARCOMMANDS_Decoder.c.o
                0x000000000005ce10                ARCOMMANDS_Decoder_SetRcResetCalibrationCallback
 *fill*         0x000000000005ce5c        0x4 
 .text.ARCOMMANDS_Decoder_SetRcReceiverStateCb
                0x000000000005ce60       0x3d /home/sunho/bebop_ws/devel/arsdk/out/arsdk-native/build/libARCommands/obj/gen/Sources/ARCOMMANDS_Decoder.c.o
                0x000000000005ce60                ARCOMMANDS_Decoder_SetRcReceiverStateCb
 *fill*         0x000000000005ce9d        0x3 
 .text.ARCOMMANDS_Decoder_SetRcReceiverStateCallback
                0x000000000005cea0       0x4c /home/sunho/bebop_ws/devel/arsdk/out/arsdk-native/build/libARCommands/obj/gen/Sources/ARCOMMANDS_Decoder.c.o
                0x000000000005cea0                ARCOMMANDS_Decoder_SetRcReceiverStateCallback
 *fill*         0x000000000005ceec        0x4 
 .text.ARCOMMANDS_Decoder_SetRcChannelsMonitorStateCb
                0x000000000005cef0       0x3d /home/sunho/bebop_ws/devel/arsdk/out/arsdk-native/build/libARCommands/obj/gen/Sources/ARCOMMANDS_Decoder.c.o
                0x000000000005cef0                ARCOMMANDS_Decoder_SetRcChannelsMonitorStateCb
 *fill*         0x000000000005cf2d        0x3 
 .text.ARCOMMANDS_Decoder_SetRcChannelsMonitorStateCallback
                0x000000000005cf30       0x4c /home/sunho/bebop_ws/devel/arsdk/out/arsdk-native/build/libARCommands/obj/gen/Sources/ARCOMMANDS_Decoder.c.o
                0x000000000005cf30                ARCOMMANDS_Decoder_SetRcChannelsMonitorStateCallback
 *fill*         0x000000000005cf7c        0x4 
 .text.ARCOMMANDS_Decoder_SetRcChannelValueCb
                0x000000000005cf80       0x3d /home/sunho/bebop_ws/devel/arsdk/out/arsdk-native/build/libARCommands/obj/gen/Sources/ARCOMMANDS_Decoder.c.o
                0x000000000005cf80                ARCOMMANDS_Decoder_SetRcChannelValueCb
 *fill*         0x000000000005cfbd        0x3 
 .text.ARCOMMANDS_Decoder_SetRcChannelValueCallback
                0x000000000005cfc0       0x4c /home/sunho/bebop_ws/devel/arsdk/out/arsdk-native/build/libARCommands/obj/gen/Sources/ARCOMMANDS_Decoder.c.o
                0x000000000005cfc0                ARCOMMANDS_Decoder_SetRcChannelValueCallback
 *fill*         0x000000000005d00c        0x4 
 .text.ARCOMMANDS_Decoder_SetRcCalibrationStateCb
                0x000000000005d010       0x3d /home/sunho/bebop_ws/devel/arsdk/out/arsdk-native/build/libARCommands/obj/gen/Sources/ARCOMMANDS_Decoder.c.o
                0x000000000005d010                ARCOMMANDS_Decoder_SetRcCalibrationStateCb
 *fill*         0x000000000005d04d        0x3 
 .text.ARCOMMANDS_Decoder_SetRcCalibrationStateCallback
                0x000000000005d050       0x4c /home/sunho/bebop_ws/devel/arsdk/out/arsdk-native/build/libARCommands/obj/gen/Sources/ARCOMMANDS_Decoder.c.o
                0x000000000005d050                ARCOMMANDS_Decoder_SetRcCalibrationStateCallback
 *fill*         0x000000000005d09c        0x4 
 .text.ARCOMMANDS_Decoder_SetRcReceiverQualityCb
                0x000000000005d0a0       0x3d /home/sunho/bebop_ws/devel/arsdk/out/arsdk-native/build/libARCommands/obj/gen/Sources/ARCOMMANDS_Decoder.c.o
                0x000000000005d0a0                ARCOMMANDS_Decoder_SetRcReceiverQualityCb
 *fill*         0x000000000005d0dd        0x3 
 .text.ARCOMMANDS_Decoder_SetRcReceiverQualityCallback
                0x000000000005d0e0       0x4c /home/sunho/bebop_ws/devel/arsdk/out/arsdk-native/build/libARCommands/obj/gen/Sources/ARCOMMANDS_Decoder.c.o
                0x000000000005d0e0                ARCOMMANDS_Decoder_SetRcReceiverQualityCallback
 *fill*         0x000000000005d12c        0x4 
 .text.ARCOMMANDS_Decoder_SetSkyControllerWifiRequestWifiListCb
                0x000000000005d130       0x3d /home/sunho/bebop_ws/devel/arsdk/out/arsdk-native/build/libARCommands/obj/gen/Sources/ARCOMMANDS_Decoder.c.o
                0x000000000005d130                ARCOMMANDS_Decoder_SetSkyControllerWifiRequestWifiListCb
 *fill*         0x000000000005d16d        0x3 
 .text.ARCOMMANDS_Decoder_SetSkyControllerWifiRequestWifiListCallback
                0x000000000005d170       0x4c /home/sunho/bebop_ws/devel/arsdk/out/arsdk-native/build/libARCommands/obj/gen/Sources/ARCOMMANDS_Decoder.c.o
                0x000000000005d170                ARCOMMANDS_Decoder_SetSkyControllerWifiRequestWifiListCallback
 *fill*         0x000000000005d1bc        0x4 
 .text.ARCOMMANDS_Decoder_SetSkyControllerWifiRequestCurrentWifiCb
                0x000000000005d1c0       0x3d /home/sunho/bebop_ws/devel/arsdk/out/arsdk-native/build/libARCommands/obj/gen/Sources/ARCOMMANDS_Decoder.c.o
                0x000000000005d1c0                ARCOMMANDS_Decoder_SetSkyControllerWifiRequestCurrentWifiCb
 *fill*         0x000000000005d1fd        0x3 
 .text.ARCOMMANDS_Decoder_SetSkyControllerWifiRequestCurrentWifiCallback
                0x000000000005d200       0x4c /home/sunho/bebop_ws/devel/arsdk/out/arsdk-native/build/libARCommands/obj/gen/Sources/ARCOMMANDS_Decoder.c.o
                0x000000000005d200                ARCOMMANDS_Decoder_SetSkyControllerWifiRequestCurrentWifiCallback
 *fill*         0x000000000005d24c        0x4 
 .text.ARCOMMANDS_Decoder_SetSkyControllerWifiConnectToWifiCb
                0x000000000005d250       0x3d /home/sunho/bebop_ws/devel/arsdk/out/arsdk-native/build/libARCommands/obj/gen/Sources/ARCOMMANDS_Decoder.c.o
                0x000000000005d250                ARCOMMANDS_Decoder_SetSkyControllerWifiConnectToWifiCb
 *fill*         0x000000000005d28d        0x3 
 .text.ARCOMMANDS_Decoder_SetSkyControllerWifiConnectToWifiCallback
                0x000000000005d290       0x4c /home/sunho/bebop_ws/devel/arsdk/out/arsdk-native/build/libARCommands/obj/gen/Sources/ARCOMMANDS_Decoder.c.o
                0x000000000005d290                ARCOMMANDS_Decoder_SetSkyControllerWifiConnectToWifiCallback
 *fill*         0x000000000005d2dc        0x4 
 .text.ARCOMMANDS_Decoder_SetSkyControllerWifiForgetWifiCb
                0x000000000005d2e0       0x3d /home/sunho/bebop_ws/devel/arsdk/out/arsdk-native/build/libARCommands/obj/gen/Sources/ARCOMMANDS_Decoder.c.o
                0x000000000005d2e0                ARCOMMANDS_Decoder_SetSkyControllerWifiForgetWifiCb
 *fill*         0x000000000005d31d        0x3 
 .text.ARCOMMANDS_Decoder_SetSkyControllerWifiForgetWifiCallback
                0x000000000005d320       0x4c /home/sunho/bebop_ws/devel/arsdk/out/arsdk-native/build/libARCommands/obj/gen/Sources/ARCOMMANDS_Decoder.c.o
                0x000000000005d320                ARCOMMANDS_Decoder_SetSkyControllerWifiForgetWifiCallback
 *fill*         0x000000000005d36c        0x4 
 .text.ARCOMMANDS_Decoder_SetSkyControllerWifiWifiAuthChannelCb
                0x000000000005d370       0x3d /home/sunho/bebop_ws/devel/arsdk/out/arsdk-native/build/libARCommands/obj/gen/Sources/ARCOMMANDS_Decoder.c.o
                0x000000000005d370                ARCOMMANDS_Decoder_SetSkyControllerWifiWifiAuthChannelCb
 *fill*         0x000000000005d3ad        0x3 
 .text.ARCOMMANDS_Decoder_SetSkyControllerWifiWifiAuthChannelCallback
                0x000000000005d3b0       0x4c /home/sunho/bebop_ws/devel/arsdk/out/arsdk-native/build/libARCommands/obj/gen/Sources/ARCOMMANDS_Decoder.c.o
                0x000000000005d3b0                ARCOMMANDS_Decoder_SetSkyControllerWifiWifiAuthChannelCallback
 *fill*         0x000000000005d3fc        0x4 
 .text.ARCOMMANDS_Decoder_SetSkyControllerDeviceRequestDeviceListCb
                0x000000000005d400       0x3d /home/sunho/bebop_ws/devel/arsdk/out/arsdk-native/build/libARCommands/obj/gen/Sources/ARCOMMANDS_Decoder.c.o
                0x000000000005d400                ARCOMMANDS_Decoder_SetSkyControllerDeviceRequestDeviceListCb
 *fill*         0x000000000005d43d        0x3 
 .text.ARCOMMANDS_Decoder_SetSkyControllerDeviceRequestDeviceListCallback
                0x000000000005d440       0x4c /home/sunho/bebop_ws/devel/arsdk/out/arsdk-native/build/libARCommands/obj/gen/Sources/ARCOMMANDS_Decoder.c.o
                0x000000000005d440                ARCOMMANDS_Decoder_SetSkyControllerDeviceRequestDeviceListCallback
 *fill*         0x000000000005d48c        0x4 
 .text.ARCOMMANDS_Decoder_SetSkyControllerDeviceRequestCurrentDeviceCb
                0x000000000005d490       0x3d /home/sunho/bebop_ws/devel/arsdk/out/arsdk-native/build/libARCommands/obj/gen/Sources/ARCOMMANDS_Decoder.c.o
                0x000000000005d490                ARCOMMANDS_Decoder_SetSkyControllerDeviceRequestCurrentDeviceCb
 *fill*         0x000000000005d4cd        0x3 
 .text.ARCOMMANDS_Decoder_SetSkyControllerDeviceRequestCurrentDeviceCallback
                0x000000000005d4d0       0x4c /home/sunho/bebop_ws/devel/arsdk/out/arsdk-native/build/libARCommands/obj/gen/Sources/ARCOMMANDS_Decoder.c.o
                0x000000000005d4d0                ARCOMMANDS_Decoder_SetSkyControllerDeviceRequestCurrentDeviceCallback
 *fill*         0x000000000005d51c        0x4 
 .text.ARCOMMANDS_Decoder_SetSkyControllerDeviceConnectToDeviceCb
                0x000000000005d520       0x3d /home/sunho/bebop_ws/devel/arsdk/out/arsdk-native/build/libARCommands/obj/gen/Sources/ARCOMMANDS_Decoder.c.o
                0x000000000005d520                ARCOMMANDS_Decoder_SetSkyControllerDeviceConnectToDeviceCb
 *fill*         0x000000000005d55d        0x3 
 .text.ARCOMMANDS_Decoder_SetSkyControllerDeviceConnectToDeviceCallback
                0x000000000005d560       0x4c /home/sunho/bebop_ws/devel/arsdk/out/arsdk-native/build/libARCommands/obj/gen/Sources/ARCOMMANDS_Decoder.c.o
                0x000000000005d560                ARCOMMANDS_Decoder_SetSkyControllerDeviceConnectToDeviceCallback
 *fill*         0x000000000005d5ac        0x4 
 .text.ARCOMMANDS_Decoder_SetSkyControllerSettingsAllSettingsCb
                0x000000000005d5b0       0x3d /home/sunho/bebop_ws/devel/arsdk/out/arsdk-native/build/libARCommands/obj/gen/Sources/ARCOMMANDS_Decoder.c.o
                0x000000000005d5b0                ARCOMMANDS_Decoder_SetSkyControllerSettingsAllSettingsCb
 *fill*         0x000000000005d5ed        0x3 
 .text.ARCOMMANDS_Decoder_SetSkyControllerSettingsAllSettingsCallback
                0x000000000005d5f0       0x4c /home/sunho/bebop_ws/devel/arsdk/out/arsdk-native/build/libARCommands/obj/gen/Sources/ARCOMMANDS_Decoder.c.o
                0x000000000005d5f0                ARCOMMANDS_Decoder_SetSkyControllerSettingsAllSettingsCallback
 *fill*         0x000000000005d63c        0x4 
 .text.ARCOMMANDS_Decoder_SetSkyControllerSettingsResetCb
                0x000000000005d640       0x3d /home/sunho/bebop_ws/devel/arsdk/out/arsdk-native/build/libARCommands/obj/gen/Sources/ARCOMMANDS_Decoder.c.o
                0x000000000005d640                ARCOMMANDS_Decoder_SetSkyControllerSettingsResetCb
 *fill*         0x000000000005d67d        0x3 
 .text.ARCOMMANDS_Decoder_SetSkyControllerSettingsResetCallback
                0x000000000005d680       0x4c /home/sunho/bebop_ws/devel/arsdk/out/arsdk-native/build/libARCommands/obj/gen/Sources/ARCOMMANDS_Decoder.c.o
                0x000000000005d680                ARCOMMANDS_Decoder_SetSkyControllerSettingsResetCallback
 *fill*         0x000000000005d6cc        0x4 
 .text.ARCOMMANDS_Decoder_SetSkyControllerCommonAllStatesCb
                0x000000000005d6d0       0x3d /home/sunho/bebop_ws/devel/arsdk/out/arsdk-native/build/libARCommands/obj/gen/Sources/ARCOMMANDS_Decoder.c.o
                0x000000000005d6d0                ARCOMMANDS_Decoder_SetSkyControllerCommonAllStatesCb
 *fill*         0x000000000005d70d        0x3 
 .text.ARCOMMANDS_Decoder_SetSkyControllerCommonAllStatesCallback
                0x000000000005d710       0x4c /home/sunho/bebop_ws/devel/arsdk/out/arsdk-native/build/libARCommands/obj/gen/Sources/ARCOMMANDS_Decoder.c.o
                0x000000000005d710                ARCOMMANDS_Decoder_SetSkyControllerCommonAllStatesCallback
 *fill*         0x000000000005d75c        0x4 
 .text.ARCOMMANDS_Decoder_SetSkyControllerAccessPointSettingsAccessPointSSIDCb
                0x000000000005d760       0x3d /home/sunho/bebop_ws/devel/arsdk/out/arsdk-native/build/libARCommands/obj/gen/Sources/ARCOMMANDS_Decoder.c.o
                0x000000000005d760                ARCOMMANDS_Decoder_SetSkyControllerAccessPointSettingsAccessPointSSIDCb
 *fill*         0x000000000005d79d        0x3 
 .text.ARCOMMANDS_Decoder_SetSkyControllerAccessPointSettingsAccessPointSSIDCallback
                0x000000000005d7a0       0x4c /home/sunho/bebop_ws/devel/arsdk/out/arsdk-native/build/libARCommands/obj/gen/Sources/ARCOMMANDS_Decoder.c.o
                0x000000000005d7a0                ARCOMMANDS_Decoder_SetSkyControllerAccessPointSettingsAccessPointSSIDCallback
 *fill*         0x000000000005d7ec        0x4 
 .text.ARCOMMANDS_Decoder_SetSkyControllerAccessPointSettingsAccessPointChannelCb
                0x000000000005d7f0       0x3d /home/sunho/bebop_ws/devel/arsdk/out/arsdk-native/build/libARCommands/obj/gen/Sources/ARCOMMANDS_Decoder.c.o
                0x000000000005d7f0                ARCOMMANDS_Decoder_SetSkyControllerAccessPointSettingsAccessPointChannelCb
 *fill*         0x000000000005d82d        0x3 
 .text.ARCOMMANDS_Decoder_SetSkyControllerAccessPointSettingsAccessPointChannelCallback
                0x000000000005d830       0x4c /home/sunho/bebop_ws/devel/arsdk/out/arsdk-native/build/libARCommands/obj/gen/Sources/ARCOMMANDS_Decoder.c.o
                0x000000000005d830                ARCOMMANDS_Decoder_SetSkyControllerAccessPointSettingsAccessPointChannelCallback
 *fill*         0x000000000005d87c        0x4 
 .text.ARCOMMANDS_Decoder_SetSkyControllerAccessPointSettingsWifiSelectionCb
                0x000000000005d880       0x3d /home/sunho/bebop_ws/devel/arsdk/out/arsdk-native/build/libARCommands/obj/gen/Sources/ARCOMMANDS_Decoder.c.o
                0x000000000005d880                ARCOMMANDS_Decoder_SetSkyControllerAccessPointSettingsWifiSelectionCb
 *fill*         0x000000000005d8bd        0x3 
 .text.ARCOMMANDS_Decoder_SetSkyControllerAccessPointSettingsWifiSelectionCallback
                0x000000000005d8c0       0x4c /home/sunho/bebop_ws/devel/arsdk/out/arsdk-native/build/libARCommands/obj/gen/Sources/ARCOMMANDS_Decoder.c.o
                0x000000000005d8c0                ARCOMMANDS_Decoder_SetSkyControllerAccessPointSettingsWifiSelectionCallback
 *fill*         0x000000000005d90c        0x4 
 .text.ARCOMMANDS_Decoder_SetSkyControllerCameraResetOrientationCb
                0x000000000005d910       0x3d /home/sunho/bebop_ws/devel/arsdk/out/arsdk-native/build/libARCommands/obj/gen/Sources/ARCOMMANDS_Decoder.c.o
                0x000000000005d910                ARCOMMANDS_Decoder_SetSkyControllerCameraResetOrientationCb
 *fill*         0x000000000005d94d        0x3 
 .text.ARCOMMANDS_Decoder_SetSkyControllerCameraResetOrientationCallback
                0x000000000005d950       0x4c /home/sunho/bebop_ws/devel/arsdk/out/arsdk-native/build/libARCommands/obj/gen/Sources/ARCOMMANDS_Decoder.c.o
                0x000000000005d950                ARCOMMANDS_Decoder_SetSkyControllerCameraResetOrientationCallback
 *fill*         0x000000000005d99c        0x4 
 .text.ARCOMMANDS_Decoder_SetSkyControllerGamepadInfosGetGamepadControlsCb
                0x000000000005d9a0       0x3d /home/sunho/bebop_ws/devel/arsdk/out/arsdk-native/build/libARCommands/obj/gen/Sources/ARCOMMANDS_Decoder.c.o
                0x000000000005d9a0                ARCOMMANDS_Decoder_SetSkyControllerGamepadInfosGetGamepadControlsCb
 *fill*         0x000000000005d9dd        0x3 
 .text.ARCOMMANDS_Decoder_SetSkyControllerGamepadInfosGetGamepadControlsCallback
                0x000000000005d9e0       0x4c /home/sunho/bebop_ws/devel/arsdk/out/arsdk-native/build/libARCommands/obj/gen/Sources/ARCOMMANDS_Decoder.c.o
                0x000000000005d9e0                ARCOMMANDS_Decoder_SetSkyControllerGamepadInfosGetGamepadControlsCallback
 *fill*         0x000000000005da2c        0x4 
 .text.ARCOMMANDS_Decoder_SetSkyControllerButtonMappingsGetCurrentButtonMappingsCb
                0x000000000005da30       0x3d /home/sunho/bebop_ws/devel/arsdk/out/arsdk-native/build/libARCommands/obj/gen/Sources/ARCOMMANDS_Decoder.c.o
                0x000000000005da30                ARCOMMANDS_Decoder_SetSkyControllerButtonMappingsGetCurrentButtonMappingsCb
 *fill*         0x000000000005da6d        0x3 
 .text.ARCOMMANDS_Decoder_SetSkyControllerButtonMappingsGetCurrentButtonMappingsCallback
                0x000000000005da70       0x4c /home/sunho/bebop_ws/devel/arsdk/out/arsdk-native/build/libARCommands/obj/gen/Sources/ARCOMMANDS_Decoder.c.o
                0x000000000005da70                ARCOMMANDS_Decoder_SetSkyControllerButtonMappingsGetCurrentButtonMappingsCallback
 *fill*         0x000000000005dabc        0x4 
 .text.ARCOMMANDS_Decoder_SetSkyControllerButtonMappingsGetAvailableButtonMappingsCb
                0x000000000005dac0       0x3d /home/sunho/bebop_ws/devel/arsdk/out/arsdk-native/build/libARCommands/obj/gen/Sources/ARCOMMANDS_Decoder.c.o
                0x000000000005dac0                ARCOMMANDS_Decoder_SetSkyControllerButtonMappingsGetAvailableButtonMappingsCb
 *fill*         0x000000000005dafd        0x3 
 .text.ARCOMMANDS_Decoder_SetSkyControllerButtonMappingsGetAvailableButtonMappingsCallback
                0x000000000005db00       0x4c /home/sunho/bebop_ws/devel/arsdk/out/arsdk-native/build/libARCommands/obj/gen/Sources/ARCOMMANDS_Decoder.c.o
                0x000000000005db00                ARCOMMANDS_Decoder_SetSkyControllerButtonMappingsGetAvailableButtonMappingsCallback
 *fill*         0x000000000005db4c        0x4 
 .text.ARCOMMANDS_Decoder_SetSkyControllerButtonMappingsSetButtonMappingCb
                0x000000000005db50       0x3d /home/sunho/bebop_ws/devel/arsdk/out/arsdk-native/build/libARCommands/obj/gen/Sources/ARCOMMANDS_Decoder.c.o
                0x000000000005db50                ARCOMMANDS_Decoder_SetSkyControllerButtonMappingsSetButtonMappingCb
 *fill*         0x000000000005db8d        0x3 
 .text.ARCOMMANDS_Decoder_SetSkyControllerButtonMappingsSetButtonMappingCallback
                0x000000000005db90       0x4c /home/sunho/bebop_ws/devel/arsdk/out/arsdk-native/build/libARCommands/obj/gen/Sources/ARCOMMANDS_Decoder.c.o
                0x000000000005db90                ARCOMMANDS_Decoder_SetSkyControllerButtonMappingsSetButtonMappingCallback
 *fill*         0x000000000005dbdc        0x4 
 .text.ARCOMMANDS_Decoder_SetSkyControllerButtonMappingsDefaultButtonMappingCb
                0x000000000005dbe0       0x3d /home/sunho/bebop_ws/devel/arsdk/out/arsdk-native/build/libARCommands/obj/gen/Sources/ARCOMMANDS_Decoder.c.o
                0x000000000005dbe0                ARCOMMANDS_Decoder_SetSkyControllerButtonMappingsDefaultButtonMappingCb
 *fill*         0x000000000005dc1d        0x3 
 .text.ARCOMMANDS_Decoder_SetSkyControllerButtonMappingsDefaultButtonMappingCallback
                0x000000000005dc20       0x4c /home/sunho/bebop_ws/devel/arsdk/out/arsdk-native/build/libARCommands/obj/gen/Sources/ARCOMMANDS_Decoder.c.o
                0x000000000005dc20                ARCOMMANDS_Decoder_SetSkyControllerButtonMappingsDefaultButtonMappingCallback
 *fill*         0x000000000005dc6c        0x4 
 .text.ARCOMMANDS_Decoder_SetSkyControllerAxisMappingsGetCurrentAxisMappingsCb
                0x000000000005dc70       0x3d /home/sunho/bebop_ws/devel/arsdk/out/arsdk-native/build/libARCommands/obj/gen/Sources/ARCOMMANDS_Decoder.c.o
                0x000000000005dc70                ARCOMMANDS_Decoder_SetSkyControllerAxisMappingsGetCurrentAxisMappingsCb
 *fill*         0x000000000005dcad        0x3 
 .text.ARCOMMANDS_Decoder_SetSkyControllerAxisMappingsGetCurrentAxisMappingsCallback
                0x000000000005dcb0       0x4c /home/sunho/bebop_ws/devel/arsdk/out/arsdk-native/build/libARCommands/obj/gen/Sources/ARCOMMANDS_Decoder.c.o
                0x000000000005dcb0                ARCOMMANDS_Decoder_SetSkyControllerAxisMappingsGetCurrentAxisMappingsCallback
 *fill*         0x000000000005dcfc        0x4 
 .text.ARCOMMANDS_Decoder_SetSkyControllerAxisMappingsGetAvailableAxisMappingsCb
                0x000000000005dd00       0x3d /home/sunho/bebop_ws/devel/arsdk/out/arsdk-native/build/libARCommands/obj/gen/Sources/ARCOMMANDS_Decoder.c.o
                0x000000000005dd00                ARCOMMANDS_Decoder_SetSkyControllerAxisMappingsGetAvailableAxisMappingsCb
 *fill*         0x000000000005dd3d        0x3 
 .text.ARCOMMANDS_Decoder_SetSkyControllerAxisMappingsGetAvailableAxisMappingsCallback
                0x000000000005dd40       0x4c /home/sunho/bebop_ws/devel/arsdk/out/arsdk-native/build/libARCommands/obj/gen/Sources/ARCOMMANDS_Decoder.c.o
                0x000000000005dd40                ARCOMMANDS_Decoder_SetSkyControllerAxisMappingsGetAvailableAxisMappingsCallback
 *fill*         0x000000000005dd8c        0x4 
 .text.ARCOMMANDS_Decoder_SetSkyControllerAxisMappingsSetAxisMappingCb
                0x000000000005dd90       0x3d /home/sunho/bebop_ws/devel/arsdk/out/arsdk-native/build/libARCommands/obj/gen/Sources/ARCOMMANDS_Decoder.c.o
                0x000000000005dd90                ARCOMMANDS_Decoder_SetSkyControllerAxisMappingsSetAxisMappingCb
 *fill*         0x000000000005ddcd        0x3 
 .text.ARCOMMANDS_Decoder_SetSkyControllerAxisMappingsSetAxisMappingCallback
                0x000000000005ddd0       0x4c /home/sunho/bebop_ws/devel/arsdk/out/arsdk-native/build/libARCommands/obj/gen/Sources/ARCOMMANDS_Decoder.c.o
                0x000000000005ddd0                ARCOMMANDS_Decoder_SetSkyControllerAxisMappingsSetAxisMappingCallback
 *fill*         0x000000000005de1c        0x4 
 .text.ARCOMMANDS_Decoder_SetSkyControllerAxisMappingsDefaultAxisMappingCb
                0x000000000005de20       0x3d /home/sunho/bebop_ws/devel/arsdk/out/arsdk-native/build/libARCommands/obj/gen/Sources/ARCOMMANDS_Decoder.c.o
                0x000000000005de20                ARCOMMANDS_Decoder_SetSkyControllerAxisMappingsDefaultAxisMappingCb
 *fill*         0x000000000005de5d        0x3 
 .text.ARCOMMANDS_Decoder_SetSkyControllerAxisMappingsDefaultAxisMappingCallback
                0x000000000005de60       0x4c /home/sunho/bebop_ws/devel/arsdk/out/arsdk-native/build/libARCommands/obj/gen/Sources/ARCOMMANDS_Decoder.c.o
                0x000000000005de60                ARCOMMANDS_Decoder_SetSkyControllerAxisMappingsDefaultAxisMappingCallback
 *fill*         0x000000000005deac        0x4 
 .text.ARCOMMANDS_Decoder_SetSkyControllerAxisFiltersGetCurrentAxisFiltersCb
                0x000000000005deb0       0x3d /home/sunho/bebop_ws/devel/arsdk/out/arsdk-native/build/libARCommands/obj/gen/Sources/ARCOMMANDS_Decoder.c.o
                0x000000000005deb0                ARCOMMANDS_Decoder_SetSkyControllerAxisFiltersGetCurrentAxisFiltersCb
 *fill*         0x000000000005deed        0x3 
 .text.ARCOMMANDS_Decoder_SetSkyControllerAxisFiltersGetCurrentAxisFiltersCallback
                0x000000000005def0       0x4c /home/sunho/bebop_ws/devel/arsdk/out/arsdk-native/build/libARCommands/obj/gen/Sources/ARCOMMANDS_Decoder.c.o
                0x000000000005def0                ARCOMMANDS_Decoder_SetSkyControllerAxisFiltersGetCurrentAxisFiltersCallback
 *fill*         0x000000000005df3c        0x4 
 .text.ARCOMMANDS_Decoder_SetSkyControllerAxisFiltersGetPresetAxisFiltersCb
                0x000000000005df40       0x3d /home/sunho/bebop_ws/devel/arsdk/out/arsdk-native/build/libARCommands/obj/gen/Sources/ARCOMMANDS_Decoder.c.o
                0x000000000005df40                ARCOMMANDS_Decoder_SetSkyControllerAxisFiltersGetPresetAxisFiltersCb
 *fill*         0x000000000005df7d        0x3 
 .text.ARCOMMANDS_Decoder_SetSkyControllerAxisFiltersGetPresetAxisFiltersCallback
                0x000000000005df80       0x4c /home/sunho/bebop_ws/devel/arsdk/out/arsdk-native/build/libARCommands/obj/gen/Sources/ARCOMMANDS_Decoder.c.o
                0x000000000005df80                ARCOMMANDS_Decoder_SetSkyControllerAxisFiltersGetPresetAxisFiltersCallback
 *fill*         0x000000000005dfcc        0x4 
 .text.ARCOMMANDS_Decoder_SetSkyControllerAxisFiltersSetAxisFilterCb
                0x000000000005dfd0       0x3d /home/sunho/bebop_ws/devel/arsdk/out/arsdk-native/build/libARCommands/obj/gen/Sources/ARCOMMANDS_Decoder.c.o
                0x000000000005dfd0                ARCOMMANDS_Decoder_SetSkyControllerAxisFiltersSetAxisFilterCb
 *fill*         0x000000000005e00d        0x3 
 .text.ARCOMMANDS_Decoder_SetSkyControllerAxisFiltersSetAxisFilterCallback
                0x000000000005e010       0x4c /home/sunho/bebop_ws/devel/arsdk/out/arsdk-native/build/libARCommands/obj/gen/Sources/ARCOMMANDS_Decoder.c.o
                0x000000000005e010                ARCOMMANDS_Decoder_SetSkyControllerAxisFiltersSetAxisFilterCallback
 *fill*         0x000000000005e05c        0x4 
 .text.ARCOMMANDS_Decoder_SetSkyControllerAxisFiltersDefaultAxisFiltersCb
                0x000000000005e060       0x3d /home/sunho/bebop_ws/devel/arsdk/out/arsdk-native/build/libARCommands/obj/gen/Sources/ARCOMMANDS_Decoder.c.o
                0x000000000005e060                ARCOMMANDS_Decoder_SetSkyControllerAxisFiltersDefaultAxisFiltersCb
 *fill*         0x000000000005e09d        0x3 
 .text.ARCOMMANDS_Decoder_SetSkyControllerAxisFiltersDefaultAxisFiltersCallback
                0x000000000005e0a0       0x4c /home/sunho/bebop_ws/devel/arsdk/out/arsdk-native/build/libARCommands/obj/gen/Sources/ARCOMMANDS_Decoder.c.o
                0x000000000005e0a0                ARCOMMANDS_Decoder_SetSkyControllerAxisFiltersDefaultAxisFiltersCallback
 *fill*         0x000000000005e0ec        0x4 
 .text.ARCOMMANDS_Decoder_SetSkyControllerCoPilotingSetPilotingSourceCb
                0x000000000005e0f0       0x3d /home/sunho/bebop_ws/devel/arsdk/out/arsdk-native/build/libARCommands/obj/gen/Sources/ARCOMMANDS_Decoder.c.o
                0x000000000005e0f0                ARCOMMANDS_Decoder_SetSkyControllerCoPilotingSetPilotingSourceCb
 *fill*         0x000000000005e12d        0x3 
 .text.ARCOMMANDS_Decoder_SetSkyControllerCoPilotingSetPilotingSourceCallback
                0x000000000005e130       0x4c /home/sunho/bebop_ws/devel/arsdk/out/arsdk-native/build/libARCommands/obj/gen/Sources/ARCOMMANDS_Decoder.c.o
                0x000000000005e130                ARCOMMANDS_Decoder_SetSkyControllerCoPilotingSetPilotingSourceCallback
 *fill*         0x000000000005e17c        0x4 
 .text.ARCOMMANDS_Decoder_SetSkyControllerCalibrationEnableMagnetoCalibrationQualityUpdatesCb
                0x000000000005e180       0x3d /home/sunho/bebop_ws/devel/arsdk/out/arsdk-native/build/libARCommands/obj/gen/Sources/ARCOMMANDS_Decoder.c.o
                0x000000000005e180                ARCOMMANDS_Decoder_SetSkyControllerCalibrationEnableMagnetoCalibrationQualityUpdatesCb
 *fill*         0x000000000005e1bd        0x3 
 .text.ARCOMMANDS_Decoder_SetSkyControllerCalibrationEnableMagnetoCalibrationQualityUpdatesCallback
                0x000000000005e1c0       0x4c /home/sunho/bebop_ws/devel/arsdk/out/arsdk-native/build/libARCommands/obj/gen/Sources/ARCOMMANDS_Decoder.c.o
                0x000000000005e1c0                ARCOMMANDS_Decoder_SetSkyControllerCalibrationEnableMagnetoCalibrationQualityUpdatesCallback
 *fill*         0x000000000005e20c        0x4 
 .text.ARCOMMANDS_Decoder_SetSkyControllerFactoryResetCb
                0x000000000005e210       0x3d /home/sunho/bebop_ws/devel/arsdk/out/arsdk-native/build/libARCommands/obj/gen/Sources/ARCOMMANDS_Decoder.c.o
                0x000000000005e210                ARCOMMANDS_Decoder_SetSkyControllerFactoryResetCb
 *fill*         0x000000000005e24d        0x3 
 .text.ARCOMMANDS_Decoder_SetSkyControllerFactoryResetCallback
                0x000000000005e250       0x4c /home/sunho/bebop_ws/devel/arsdk/out/arsdk-native/build/libARCommands/obj/gen/Sources/ARCOMMANDS_Decoder.c.o
                0x000000000005e250                ARCOMMANDS_Decoder_SetSkyControllerFactoryResetCallback
 *fill*         0x000000000005e29c        0x4 
 .text.ARCOMMANDS_Decoder_SetSkyControllerWifiStateWifiListCb
                0x000000000005e2a0       0x3d /home/sunho/bebop_ws/devel/arsdk/out/arsdk-native/build/libARCommands/obj/gen/Sources/ARCOMMANDS_Decoder.c.o
                0x000000000005e2a0                ARCOMMANDS_Decoder_SetSkyControllerWifiStateWifiListCb
 *fill*         0x000000000005e2dd        0x3 
 .text.ARCOMMANDS_Decoder_SetSkyControllerWifiStateWifiListCallback
                0x000000000005e2e0       0x4c /home/sunho/bebop_ws/devel/arsdk/out/arsdk-native/build/libARCommands/obj/gen/Sources/ARCOMMANDS_Decoder.c.o
                0x000000000005e2e0                ARCOMMANDS_Decoder_SetSkyControllerWifiStateWifiListCallback
 *fill*         0x000000000005e32c        0x4 
 .text.ARCOMMANDS_Decoder_SetSkyControllerWifiStateConnexionChangedCb
                0x000000000005e330       0x3d /home/sunho/bebop_ws/devel/arsdk/out/arsdk-native/build/libARCommands/obj/gen/Sources/ARCOMMANDS_Decoder.c.o
                0x000000000005e330                ARCOMMANDS_Decoder_SetSkyControllerWifiStateConnexionChangedCb
 *fill*         0x000000000005e36d        0x3 
 .text.ARCOMMANDS_Decoder_SetSkyControllerWifiStateConnexionChangedCallback
                0x000000000005e370       0x4c /home/sunho/bebop_ws/devel/arsdk/out/arsdk-native/build/libARCommands/obj/gen/Sources/ARCOMMANDS_Decoder.c.o
                0x000000000005e370                ARCOMMANDS_Decoder_SetSkyControllerWifiStateConnexionChangedCallback
 *fill*         0x000000000005e3bc        0x4 
 .text.ARCOMMANDS_Decoder_SetSkyControllerWifiStateWifiAuthChannelListChangedCb
                0x000000000005e3c0       0x3d /home/sunho/bebop_ws/devel/arsdk/out/arsdk-native/build/libARCommands/obj/gen/Sources/ARCOMMANDS_Decoder.c.o
                0x000000000005e3c0                ARCOMMANDS_Decoder_SetSkyControllerWifiStateWifiAuthChannelListChangedCb
 *fill*         0x000000000005e3fd        0x3 
 .text.ARCOMMANDS_Decoder_SetSkyControllerWifiStateWifiAuthChannelListChangedCallback
                0x000000000005e400       0x4c /home/sunho/bebop_ws/devel/arsdk/out/arsdk-native/build/libARCommands/obj/gen/Sources/ARCOMMANDS_Decoder.c.o
                0x000000000005e400                ARCOMMANDS_Decoder_SetSkyControllerWifiStateWifiAuthChannelListChangedCallback
 *fill*         0x000000000005e44c        0x4 
 .text.ARCOMMANDS_Decoder_SetSkyControllerWifiStateAllWifiAuthChannelChangedCb
                0x000000000005e450       0x3d /home/sunho/bebop_ws/devel/arsdk/out/arsdk-native/build/libARCommands/obj/gen/Sources/ARCOMMANDS_Decoder.c.o
                0x000000000005e450                ARCOMMANDS_Decoder_SetSkyControllerWifiStateAllWifiAuthChannelChangedCb
 *fill*         0x000000000005e48d        0x3 
 .text.ARCOMMANDS_Decoder_SetSkyControllerWifiStateAllWifiAuthChannelChangedCallback
                0x000000000005e490       0x4c /home/sunho/bebop_ws/devel/arsdk/out/arsdk-native/build/libARCommands/obj/gen/Sources/ARCOMMANDS_Decoder.c.o
                0x000000000005e490                ARCOMMANDS_Decoder_SetSkyControllerWifiStateAllWifiAuthChannelChangedCallback
 *fill*         0x000000000005e4dc        0x4 
 .text.ARCOMMANDS_Decoder_SetSkyControllerWifiStateWifiSignalChangedCb
                0x000000000005e4e0       0x3d /home/sunho/bebop_ws/devel/arsdk/out/arsdk-native/build/libARCommands/obj/gen/Sources/ARCOMMANDS_Decoder.c.o
                0x000000000005e4e0                ARCOMMANDS_Decoder_SetSkyControllerWifiStateWifiSignalChangedCb
 *fill*         0x000000000005e51d        0x3 
 .text.ARCOMMANDS_Decoder_SetSkyControllerWifiStateWifiSignalChangedCallback
                0x000000000005e520       0x4c /home/sunho/bebop_ws/devel/arsdk/out/arsdk-native/build/libARCommands/obj/gen/Sources/ARCOMMANDS_Decoder.c.o
                0x000000000005e520                ARCOMMANDS_Decoder_SetSkyControllerWifiStateWifiSignalChangedCallback
 *fill*         0x000000000005e56c        0x4 
 .text.ARCOMMANDS_Decoder_SetSkyControllerDeviceStateDeviceListCb
                0x000000000005e570       0x3d /home/sunho/bebop_ws/devel/arsdk/out/arsdk-native/build/libARCommands/obj/gen/Sources/ARCOMMANDS_Decoder.c.o
                0x000000000005e570                ARCOMMANDS_Decoder_SetSkyControllerDeviceStateDeviceListCb
 *fill*         0x000000000005e5ad        0x3 
 .text.ARCOMMANDS_Decoder_SetSkyControllerDeviceStateDeviceListCallback
                0x000000000005e5b0       0x4c /home/sunho/bebop_ws/devel/arsdk/out/arsdk-native/build/libARCommands/obj/gen/Sources/ARCOMMANDS_Decoder.c.o
                0x000000000005e5b0                ARCOMMANDS_Decoder_SetSkyControllerDeviceStateDeviceListCallback
 *fill*         0x000000000005e5fc        0x4 
 .text.ARCOMMANDS_Decoder_SetSkyControllerDeviceStateConnexionChangedCb
                0x000000000005e600       0x3d /home/sunho/bebop_ws/devel/arsdk/out/arsdk-native/build/libARCommands/obj/gen/Sources/ARCOMMANDS_Decoder.c.o
                0x000000000005e600                ARCOMMANDS_Decoder_SetSkyControllerDeviceStateConnexionChangedCb
 *fill*         0x000000000005e63d        0x3 
 .text.ARCOMMANDS_Decoder_SetSkyControllerDeviceStateConnexionChangedCallback
                0x000000000005e640       0x4c /home/sunho/bebop_ws/devel/arsdk/out/arsdk-native/build/libARCommands/obj/gen/Sources/ARCOMMANDS_Decoder.c.o
                0x000000000005e640                ARCOMMANDS_Decoder_SetSkyControllerDeviceStateConnexionChangedCallback
 *fill*         0x000000000005e68c        0x4 
 .text.ARCOMMANDS_Decoder_SetSkyControllerSettingsStateAllSettingsChangedCb
                0x000000000005e690       0x3d /home/sunho/bebop_ws/devel/arsdk/out/arsdk-native/build/libARCommands/obj/gen/Sources/ARCOMMANDS_Decoder.c.o
                0x000000000005e690                ARCOMMANDS_Decoder_SetSkyControllerSettingsStateAllSettingsChangedCb
 *fill*         0x000000000005e6cd        0x3 
 .text.ARCOMMANDS_Decoder_SetSkyControllerSettingsStateAllSettingsChangedCallback
                0x000000000005e6d0       0x4c /home/sunho/bebop_ws/devel/arsdk/out/arsdk-native/build/libARCommands/obj/gen/Sources/ARCOMMANDS_Decoder.c.o
                0x000000000005e6d0                ARCOMMANDS_Decoder_SetSkyControllerSettingsStateAllSettingsChangedCallback
 *fill*         0x000000000005e71c        0x4 
 .text.ARCOMMANDS_Decoder_SetSkyControllerSettingsStateResetChangedCb
                0x000000000005e720       0x3d /home/sunho/bebop_ws/devel/arsdk/out/arsdk-native/build/libARCommands/obj/gen/Sources/ARCOMMANDS_Decoder.c.o
                0x000000000005e720                ARCOMMANDS_Decoder_SetSkyControllerSettingsStateResetChangedCb
 *fill*         0x000000000005e75d        0x3 
 .text.ARCOMMANDS_Decoder_SetSkyControllerSettingsStateResetChangedCallback
                0x000000000005e760       0x4c /home/sunho/bebop_ws/devel/arsdk/out/arsdk-native/build/libARCommands/obj/gen/Sources/ARCOMMANDS_Decoder.c.o
                0x000000000005e760                ARCOMMANDS_Decoder_SetSkyControllerSettingsStateResetChangedCallback
 *fill*         0x000000000005e7ac        0x4 
 .text.ARCOMMANDS_Decoder_SetSkyControllerSettingsStateProductSerialChangedCb
                0x000000000005e7b0       0x3d /home/sunho/bebop_ws/devel/arsdk/out/arsdk-native/build/libARCommands/obj/gen/Sources/ARCOMMANDS_Decoder.c.o
                0x000000000005e7b0                ARCOMMANDS_Decoder_SetSkyControllerSettingsStateProductSerialChangedCb
 *fill*         0x000000000005e7ed        0x3 
 .text.ARCOMMANDS_Decoder_SetSkyControllerSettingsStateProductSerialChangedCallback
                0x000000000005e7f0       0x4c /home/sunho/bebop_ws/devel/arsdk/out/arsdk-native/build/libARCommands/obj/gen/Sources/ARCOMMANDS_Decoder.c.o
                0x000000000005e7f0                ARCOMMANDS_Decoder_SetSkyControllerSettingsStateProductSerialChangedCallback
 *fill*         0x000000000005e83c        0x4 
 .text.ARCOMMANDS_Decoder_SetSkyControllerSettingsStateProductVariantChangedCb
                0x000000000005e840       0x3d /home/sunho/bebop_ws/devel/arsdk/out/arsdk-native/build/libARCommands/obj/gen/Sources/ARCOMMANDS_Decoder.c.o
                0x000000000005e840                ARCOMMANDS_Decoder_SetSkyControllerSettingsStateProductVariantChangedCb
 *fill*         0x000000000005e87d        0x3 
 .text.ARCOMMANDS_Decoder_SetSkyControllerSettingsStateProductVariantChangedCallback
                0x000000000005e880       0x4c /home/sunho/bebop_ws/devel/arsdk/out/arsdk-native/build/libARCommands/obj/gen/Sources/ARCOMMANDS_Decoder.c.o
                0x000000000005e880                ARCOMMANDS_Decoder_SetSkyControllerSettingsStateProductVariantChangedCallback
 *fill*         0x000000000005e8cc        0x4 
 .text.ARCOMMANDS_Decoder_SetSkyControllerSettingsStateProductVersionChangedCb
                0x000000000005e8d0       0x3d /home/sunho/bebop_ws/devel/arsdk/out/arsdk-native/build/libARCommands/obj/gen/Sources/ARCOMMANDS_Decoder.c.o
                0x000000000005e8d0                ARCOMMANDS_Decoder_SetSkyControllerSettingsStateProductVersionChangedCb
 *fill*         0x000000000005e90d        0x3 
 .text.ARCOMMANDS_Decoder_SetSkyControllerSettingsStateProductVersionChangedCallback
                0x000000000005e910       0x4c /home/sunho/bebop_ws/devel/arsdk/out/arsdk-native/build/libARCommands/obj/gen/Sources/ARCOMMANDS_Decoder.c.o
                0x000000000005e910                ARCOMMANDS_Decoder_SetSkyControllerSettingsStateProductVersionChangedCallback
 *fill*         0x000000000005e95c        0x4 
 .text.ARCOMMANDS_Decoder_SetSkyControllerCommonStateAllStatesChangedCb
                0x000000000005e960       0x3d /home/sunho/bebop_ws/devel/arsdk/out/arsdk-native/build/libARCommands/obj/gen/Sources/ARCOMMANDS_Decoder.c.o
                0x000000000005e960                ARCOMMANDS_Decoder_SetSkyControllerCommonStateAllStatesChangedCb
 *fill*         0x000000000005e99d        0x3 
 .text.ARCOMMANDS_Decoder_SetSkyControllerCommonStateAllStatesChangedCallback
                0x000000000005e9a0       0x4c /home/sunho/bebop_ws/devel/arsdk/out/arsdk-native/build/libARCommands/obj/gen/Sources/ARCOMMANDS_Decoder.c.o
                0x000000000005e9a0                ARCOMMANDS_Decoder_SetSkyControllerCommonStateAllStatesChangedCallback
 *fill*         0x000000000005e9ec        0x4 
 .text.ARCOMMANDS_Decoder_SetSkyControllerSkyControllerStateBatteryChangedCb
                0x000000000005e9f0       0x3d /home/sunho/bebop_ws/devel/arsdk/out/arsdk-native/build/libARCommands/obj/gen/Sources/ARCOMMANDS_Decoder.c.o
                0x000000000005e9f0                ARCOMMANDS_Decoder_SetSkyControllerSkyControllerStateBatteryChangedCb
 *fill*         0x000000000005ea2d        0x3 
 .text.ARCOMMANDS_Decoder_SetSkyControllerSkyControllerStateBatteryChangedCallback
                0x000000000005ea30       0x4c /home/sunho/bebop_ws/devel/arsdk/out/arsdk-native/build/libARCommands/obj/gen/Sources/ARCOMMANDS_Decoder.c.o
                0x000000000005ea30                ARCOMMANDS_Decoder_SetSkyControllerSkyControllerStateBatteryChangedCallback
 *fill*         0x000000000005ea7c        0x4 
 .text.ARCOMMANDS_Decoder_SetSkyControllerSkyControllerStateGpsFixChangedCb
                0x000000000005ea80       0x3d /home/sunho/bebop_ws/devel/arsdk/out/arsdk-native/build/libARCommands/obj/gen/Sources/ARCOMMANDS_Decoder.c.o
                0x000000000005ea80                ARCOMMANDS_Decoder_SetSkyControllerSkyControllerStateGpsFixChangedCb
 *fill*         0x000000000005eabd        0x3 
 .text.ARCOMMANDS_Decoder_SetSkyControllerSkyControllerStateGpsFixChangedCallback
                0x000000000005eac0       0x4c /home/sunho/bebop_ws/devel/arsdk/out/arsdk-native/build/libARCommands/obj/gen/Sources/ARCOMMANDS_Decoder.c.o
                0x000000000005eac0                ARCOMMANDS_Decoder_SetSkyControllerSkyControllerStateGpsFixChangedCallback
 *fill*         0x000000000005eb0c        0x4 
 .text.ARCOMMANDS_Decoder_SetSkyControllerSkyControllerStateGpsPositionChangedCb
                0x000000000005eb10       0x3d /home/sunho/bebop_ws/devel/arsdk/out/arsdk-native/build/libARCommands/obj/gen/Sources/ARCOMMANDS_Decoder.c.o
                0x000000000005eb10                ARCOMMANDS_Decoder_SetSkyControllerSkyControllerStateGpsPositionChangedCb
 *fill*         0x000000000005eb4d        0x3 
 .text.ARCOMMANDS_Decoder_SetSkyControllerSkyControllerStateGpsPositionChangedCallback
                0x000000000005eb50       0x4c /home/sunho/bebop_ws/devel/arsdk/out/arsdk-native/build/libARCommands/obj/gen/Sources/ARCOMMANDS_Decoder.c.o
                0x000000000005eb50                ARCOMMANDS_Decoder_SetSkyControllerSkyControllerStateGpsPositionChangedCallback
 *fill*         0x000000000005eb9c        0x4 
 .text.ARCOMMANDS_Decoder_SetSkyControllerSkyControllerStateBatteryStateCb
                0x000000000005eba0       0x3d /home/sunho/bebop_ws/devel/arsdk/out/arsdk-native/build/libARCommands/obj/gen/Sources/ARCOMMANDS_Decoder.c.o
                0x000000000005eba0                ARCOMMANDS_Decoder_SetSkyControllerSkyControllerStateBatteryStateCb
 *fill*         0x000000000005ebdd        0x3 
 .text.ARCOMMANDS_Decoder_SetSkyControllerSkyControllerStateBatteryStateCallback
                0x000000000005ebe0       0x4c /home/sunho/bebop_ws/devel/arsdk/out/arsdk-native/build/libARCommands/obj/gen/Sources/ARCOMMANDS_Decoder.c.o
                0x000000000005ebe0                ARCOMMANDS_Decoder_SetSkyControllerSkyControllerStateBatteryStateCallback
 *fill*         0x000000000005ec2c        0x4 
 .text.ARCOMMANDS_Decoder_SetSkyControllerSkyControllerStateAttitudeChangedCb
                0x000000000005ec30       0x3d /home/sunho/bebop_ws/devel/arsdk/out/arsdk-native/build/libARCommands/obj/gen/Sources/ARCOMMANDS_Decoder.c.o
                0x000000000005ec30                ARCOMMANDS_Decoder_SetSkyControllerSkyControllerStateAttitudeChangedCb
 *fill*         0x000000000005ec6d        0x3 
 .text.ARCOMMANDS_Decoder_SetSkyControllerSkyControllerStateAttitudeChangedCallback
                0x000000000005ec70       0x4c /home/sunho/bebop_ws/devel/arsdk/out/arsdk-native/build/libARCommands/obj/gen/Sources/ARCOMMANDS_Decoder.c.o
                0x000000000005ec70                ARCOMMANDS_Decoder_SetSkyControllerSkyControllerStateAttitudeChangedCallback
 *fill*         0x000000000005ecbc        0x4 
 .text.ARCOMMANDS_Decoder_SetSkyControllerAccessPointSettingsStateAccessPointSSIDChangedCb
                0x000000000005ecc0       0x3d /home/sunho/bebop_ws/devel/arsdk/out/arsdk-native/build/libARCommands/obj/gen/Sources/ARCOMMANDS_Decoder.c.o
                0x000000000005ecc0                ARCOMMANDS_Decoder_SetSkyControllerAccessPointSettingsStateAccessPointSSIDChangedCb
 *fill*         0x000000000005ecfd        0x3 
 .text.ARCOMMANDS_Decoder_SetSkyControllerAccessPointSettingsStateAccessPointSSIDChangedCallback
                0x000000000005ed00       0x4c /home/sunho/bebop_ws/devel/arsdk/out/arsdk-native/build/libARCommands/obj/gen/Sources/ARCOMMANDS_Decoder.c.o
                0x000000000005ed00                ARCOMMANDS_Decoder_SetSkyControllerAccessPointSettingsStateAccessPointSSIDChangedCallback
 *fill*         0x000000000005ed4c        0x4 
 .text.ARCOMMANDS_Decoder_SetSkyControllerAccessPointSettingsStateAccessPointChannelChangedCb
                0x000000000005ed50       0x3d /home/sunho/bebop_ws/devel/arsdk/out/arsdk-native/build/libARCommands/obj/gen/Sources/ARCOMMANDS_Decoder.c.o
                0x000000000005ed50                ARCOMMANDS_Decoder_SetSkyControllerAccessPointSettingsStateAccessPointChannelChangedCb
 *fill*         0x000000000005ed8d        0x3 
 .text.ARCOMMANDS_Decoder_SetSkyControllerAccessPointSettingsStateAccessPointChannelChangedCallback
                0x000000000005ed90       0x4c /home/sunho/bebop_ws/devel/arsdk/out/arsdk-native/build/libARCommands/obj/gen/Sources/ARCOMMANDS_Decoder.c.o
                0x000000000005ed90                ARCOMMANDS_Decoder_SetSkyControllerAccessPointSettingsStateAccessPointChannelChangedCallback
 *fill*         0x000000000005eddc        0x4 
 .text.ARCOMMANDS_Decoder_SetSkyControllerAccessPointSettingsStateWifiSelectionChangedCb
                0x000000000005ede0       0x3d /home/sunho/bebop_ws/devel/arsdk/out/arsdk-native/build/libARCommands/obj/gen/Sources/ARCOMMANDS_Decoder.c.o
                0x000000000005ede0                ARCOMMANDS_Decoder_SetSkyControllerAccessPointSettingsStateWifiSelectionChangedCb
 *fill*         0x000000000005ee1d        0x3 
 .text.ARCOMMANDS_Decoder_SetSkyControllerAccessPointSettingsStateWifiSelectionChangedCallback
                0x000000000005ee20       0x4c /home/sunho/bebop_ws/devel/arsdk/out/arsdk-native/build/libARCommands/obj/gen/Sources/ARCOMMANDS_Decoder.c.o
                0x000000000005ee20                ARCOMMANDS_Decoder_SetSkyControllerAccessPointSettingsStateWifiSelectionChangedCallback
 *fill*         0x000000000005ee6c        0x4 
 .text.ARCOMMANDS_Decoder_SetSkyControllerGamepadInfosStateGamepadControlCb
                0x000000000005ee70       0x3d /home/sunho/bebop_ws/devel/arsdk/out/arsdk-native/build/libARCommands/obj/gen/Sources/ARCOMMANDS_Decoder.c.o
                0x000000000005ee70                ARCOMMANDS_Decoder_SetSkyControllerGamepadInfosStateGamepadControlCb
 *fill*         0x000000000005eead        0x3 
 .text.ARCOMMANDS_Decoder_SetSkyControllerGamepadInfosStateGamepadControlCallback
                0x000000000005eeb0       0x4c /home/sunho/bebop_ws/devel/arsdk/out/arsdk-native/build/libARCommands/obj/gen/Sources/ARCOMMANDS_Decoder.c.o
                0x000000000005eeb0                ARCOMMANDS_Decoder_SetSkyControllerGamepadInfosStateGamepadControlCallback
 *fill*         0x000000000005eefc        0x4 
 .text.ARCOMMANDS_Decoder_SetSkyControllerGamepadInfosStateAllGamepadControlsSentCb
                0x000000000005ef00       0x3d /home/sunho/bebop_ws/devel/arsdk/out/arsdk-native/build/libARCommands/obj/gen/Sources/ARCOMMANDS_Decoder.c.o
                0x000000000005ef00                ARCOMMANDS_Decoder_SetSkyControllerGamepadInfosStateAllGamepadControlsSentCb
 *fill*         0x000000000005ef3d        0x3 
 .text.ARCOMMANDS_Decoder_SetSkyControllerGamepadInfosStateAllGamepadControlsSentCallback
                0x000000000005ef40       0x4c /home/sunho/bebop_ws/devel/arsdk/out/arsdk-native/build/libARCommands/obj/gen/Sources/ARCOMMANDS_Decoder.c.o
                0x000000000005ef40                ARCOMMANDS_Decoder_SetSkyControllerGamepadInfosStateAllGamepadControlsSentCallback
 *fill*         0x000000000005ef8c        0x4 
 .text.ARCOMMANDS_Decoder_SetSkyControllerButtonMappingsStateCurrentButtonMappingsCb
                0x000000000005ef90       0x3d /home/sunho/bebop_ws/devel/arsdk/out/arsdk-native/build/libARCommands/obj/gen/Sources/ARCOMMANDS_Decoder.c.o
                0x000000000005ef90                ARCOMMANDS_Decoder_SetSkyControllerButtonMappingsStateCurrentButtonMappingsCb
 *fill*         0x000000000005efcd        0x3 
 .text.ARCOMMANDS_Decoder_SetSkyControllerButtonMappingsStateCurrentButtonMappingsCallback
                0x000000000005efd0       0x4c /home/sunho/bebop_ws/devel/arsdk/out/arsdk-native/build/libARCommands/obj/gen/Sources/ARCOMMANDS_Decoder.c.o
                0x000000000005efd0                ARCOMMANDS_Decoder_SetSkyControllerButtonMappingsStateCurrentButtonMappingsCallback
 *fill*         0x000000000005f01c        0x4 
 .text.ARCOMMANDS_Decoder_SetSkyControllerButtonMappingsStateAllCurrentButtonMappingsSentCb
                0x000000000005f020       0x3d /home/sunho/bebop_ws/devel/arsdk/out/arsdk-native/build/libARCommands/obj/gen/Sources/ARCOMMANDS_Decoder.c.o
                0x000000000005f020                ARCOMMANDS_Decoder_SetSkyControllerButtonMappingsStateAllCurrentButtonMappingsSentCb
 *fill*         0x000000000005f05d        0x3 
 .text.ARCOMMANDS_Decoder_SetSkyControllerButtonMappingsStateAllCurrentButtonMappingsSentCallback
                0x000000000005f060       0x4c /home/sunho/bebop_ws/devel/arsdk/out/arsdk-native/build/libARCommands/obj/gen/Sources/ARCOMMANDS_Decoder.c.o
                0x000000000005f060                ARCOMMANDS_Decoder_SetSkyControllerButtonMappingsStateAllCurrentButtonMappingsSentCallback
 *fill*         0x000000000005f0ac        0x4 
 .text.ARCOMMANDS_Decoder_SetSkyControllerButtonMappingsStateAvailableButtonMappingsCb
                0x000000000005f0b0       0x3d /home/sunho/bebop_ws/devel/arsdk/out/arsdk-native/build/libARCommands/obj/gen/Sources/ARCOMMANDS_Decoder.c.o
                0x000000000005f0b0                ARCOMMANDS_Decoder_SetSkyControllerButtonMappingsStateAvailableButtonMappingsCb
 *fill*         0x000000000005f0ed        0x3 
 .text.ARCOMMANDS_Decoder_SetSkyControllerButtonMappingsStateAvailableButtonMappingsCallback
                0x000000000005f0f0       0x4c /home/sunho/bebop_ws/devel/arsdk/out/arsdk-native/build/libARCommands/obj/gen/Sources/ARCOMMANDS_Decoder.c.o
                0x000000000005f0f0                ARCOMMANDS_Decoder_SetSkyControllerButtonMappingsStateAvailableButtonMappingsCallback
 *fill*         0x000000000005f13c        0x4 
 .text.ARCOMMANDS_Decoder_SetSkyControllerButtonMappingsStateAllAvailableButtonsMappingsSentCb
                0x000000000005f140       0x3d /home/sunho/bebop_ws/devel/arsdk/out/arsdk-native/build/libARCommands/obj/gen/Sources/ARCOMMANDS_Decoder.c.o
                0x000000000005f140                ARCOMMANDS_Decoder_SetSkyControllerButtonMappingsStateAllAvailableButtonsMappingsSentCb
 *fill*         0x000000000005f17d        0x3 
 .text.ARCOMMANDS_Decoder_SetSkyControllerButtonMappingsStateAllAvailableButtonsMappingsSentCallback
                0x000000000005f180       0x4c /home/sunho/bebop_ws/devel/arsdk/out/arsdk-native/build/libARCommands/obj/gen/Sources/ARCOMMANDS_Decoder.c.o
                0x000000000005f180                ARCOMMANDS_Decoder_SetSkyControllerButtonMappingsStateAllAvailableButtonsMappingsSentCallback
 *fill*         0x000000000005f1cc        0x4 
 .text.ARCOMMANDS_Decoder_SetSkyControllerAxisMappingsStateCurrentAxisMappingsCb
                0x000000000005f1d0       0x3d /home/sunho/bebop_ws/devel/arsdk/out/arsdk-native/build/libARCommands/obj/gen/Sources/ARCOMMANDS_Decoder.c.o
                0x000000000005f1d0                ARCOMMANDS_Decoder_SetSkyControllerAxisMappingsStateCurrentAxisMappingsCb
 *fill*         0x000000000005f20d        0x3 
 .text.ARCOMMANDS_Decoder_SetSkyControllerAxisMappingsStateCurrentAxisMappingsCallback
                0x000000000005f210       0x4c /home/sunho/bebop_ws/devel/arsdk/out/arsdk-native/build/libARCommands/obj/gen/Sources/ARCOMMANDS_Decoder.c.o
                0x000000000005f210                ARCOMMANDS_Decoder_SetSkyControllerAxisMappingsStateCurrentAxisMappingsCallback
 *fill*         0x000000000005f25c        0x4 
 .text.ARCOMMANDS_Decoder_SetSkyControllerAxisMappingsStateAllCurrentAxisMappingsSentCb
                0x000000000005f260       0x3d /home/sunho/bebop_ws/devel/arsdk/out/arsdk-native/build/libARCommands/obj/gen/Sources/ARCOMMANDS_Decoder.c.o
                0x000000000005f260                ARCOMMANDS_Decoder_SetSkyControllerAxisMappingsStateAllCurrentAxisMappingsSentCb
 *fill*         0x000000000005f29d        0x3 
 .text.ARCOMMANDS_Decoder_SetSkyControllerAxisMappingsStateAllCurrentAxisMappingsSentCallback
                0x000000000005f2a0       0x4c /home/sunho/bebop_ws/devel/arsdk/out/arsdk-native/build/libARCommands/obj/gen/Sources/ARCOMMANDS_Decoder.c.o
                0x000000000005f2a0                ARCOMMANDS_Decoder_SetSkyControllerAxisMappingsStateAllCurrentAxisMappingsSentCallback
 *fill*         0x000000000005f2ec        0x4 
 .text.ARCOMMANDS_Decoder_SetSkyControllerAxisMappingsStateAvailableAxisMappingsCb
                0x000000000005f2f0       0x3d /home/sunho/bebop_ws/devel/arsdk/out/arsdk-native/build/libARCommands/obj/gen/Sources/ARCOMMANDS_Decoder.c.o
                0x000000000005f2f0                ARCOMMANDS_Decoder_SetSkyControllerAxisMappingsStateAvailableAxisMappingsCb
 *fill*         0x000000000005f32d        0x3 
 .text.ARCOMMANDS_Decoder_SetSkyControllerAxisMappingsStateAvailableAxisMappingsCallback
                0x000000000005f330       0x4c /home/sunho/bebop_ws/devel/arsdk/out/arsdk-native/build/libARCommands/obj/gen/Sources/ARCOMMANDS_Decoder.c.o
                0x000000000005f330                ARCOMMANDS_Decoder_SetSkyControllerAxisMappingsStateAvailableAxisMappingsCallback
 *fill*         0x000000000005f37c        0x4 
 .text.ARCOMMANDS_Decoder_SetSkyControllerAxisMappingsStateAllAvailableAxisMappingsSentCb
                0x000000000005f380       0x3d /home/sunho/bebop_ws/devel/arsdk/out/arsdk-native/build/libARCommands/obj/gen/Sources/ARCOMMANDS_Decoder.c.o
                0x000000000005f380                ARCOMMANDS_Decoder_SetSkyControllerAxisMappingsStateAllAvailableAxisMappingsSentCb
 *fill*         0x000000000005f3bd        0x3 
 .text.ARCOMMANDS_Decoder_SetSkyControllerAxisMappingsStateAllAvailableAxisMappingsSentCallback
                0x000000000005f3c0       0x4c /home/sunho/bebop_ws/devel/arsdk/out/arsdk-native/build/libARCommands/obj/gen/Sources/ARCOMMANDS_Decoder.c.o
                0x000000000005f3c0                ARCOMMANDS_Decoder_SetSkyControllerAxisMappingsStateAllAvailableAxisMappingsSentCallback
 *fill*         0x000000000005f40c        0x4 
 .text.ARCOMMANDS_Decoder_SetSkyControllerAxisFiltersStateCurrentAxisFiltersCb
                0x000000000005f410       0x3d /home/sunho/bebop_ws/devel/arsdk/out/arsdk-native/build/libARCommands/obj/gen/Sources/ARCOMMANDS_Decoder.c.o
                0x000000000005f410                ARCOMMANDS_Decoder_SetSkyControllerAxisFiltersStateCurrentAxisFiltersCb
 *fill*         0x000000000005f44d        0x3 
 .text.ARCOMMANDS_Decoder_SetSkyControllerAxisFiltersStateCurrentAxisFiltersCallback
                0x000000000005f450       0x4c /home/sunho/bebop_ws/devel/arsdk/out/arsdk-native/build/libARCommands/obj/gen/Sources/ARCOMMANDS_Decoder.c.o
                0x000000000005f450                ARCOMMANDS_Decoder_SetSkyControllerAxisFiltersStateCurrentAxisFiltersCallback
 *fill*         0x000000000005f49c        0x4 
 .text.ARCOMMANDS_Decoder_SetSkyControllerAxisFiltersStateAllCurrentFiltersSentCb
                0x000000000005f4a0       0x3d /home/sunho/bebop_ws/devel/arsdk/out/arsdk-native/build/libARCommands/obj/gen/Sources/ARCOMMANDS_Decoder.c.o
                0x000000000005f4a0                ARCOMMANDS_Decoder_SetSkyControllerAxisFiltersStateAllCurrentFiltersSentCb
 *fill*         0x000000000005f4dd        0x3 
 .text.ARCOMMANDS_Decoder_SetSkyControllerAxisFiltersStateAllCurrentFiltersSentCallback
                0x000000000005f4e0       0x4c /home/sunho/bebop_ws/devel/arsdk/out/arsdk-native/build/libARCommands/obj/gen/Sources/ARCOMMANDS_Decoder.c.o
                0x000000000005f4e0                ARCOMMANDS_Decoder_SetSkyControllerAxisFiltersStateAllCurrentFiltersSentCallback
 *fill*         0x000000000005f52c        0x4 
 .text.ARCOMMANDS_Decoder_SetSkyControllerAxisFiltersStatePresetAxisFiltersCb
                0x000000000005f530       0x3d /home/sunho/bebop_ws/devel/arsdk/out/arsdk-native/build/libARCommands/obj/gen/Sources/ARCOMMANDS_Decoder.c.o
                0x000000000005f530                ARCOMMANDS_Decoder_SetSkyControllerAxisFiltersStatePresetAxisFiltersCb
 *fill*         0x000000000005f56d        0x3 
 .text.ARCOMMANDS_Decoder_SetSkyControllerAxisFiltersStatePresetAxisFiltersCallback
                0x000000000005f570       0x4c /home/sunho/bebop_ws/devel/arsdk/out/arsdk-native/build/libARCommands/obj/gen/Sources/ARCOMMANDS_Decoder.c.o
                0x000000000005f570                ARCOMMANDS_Decoder_SetSkyControllerAxisFiltersStatePresetAxisFiltersCallback
 *fill*         0x000000000005f5bc        0x4 
 .text.ARCOMMANDS_Decoder_SetSkyControllerAxisFiltersStateAllPresetFiltersSentCb
                0x000000000005f5c0       0x3d /home/sunho/bebop_ws/devel/arsdk/out/arsdk-native/build/libARCommands/obj/gen/Sources/ARCOMMANDS_Decoder.c.o
                0x000000000005f5c0                ARCOMMANDS_Decoder_SetSkyControllerAxisFiltersStateAllPresetFiltersSentCb
 *fill*         0x000000000005f5fd        0x3 
 .text.ARCOMMANDS_Decoder_SetSkyControllerAxisFiltersStateAllPresetFiltersSentCallback
                0x000000000005f600       0x4c /home/sunho/bebop_ws/devel/arsdk/out/arsdk-native/build/libARCommands/obj/gen/Sources/ARCOMMANDS_Decoder.c.o
                0x000000000005f600                ARCOMMANDS_Decoder_SetSkyControllerAxisFiltersStateAllPresetFiltersSentCallback
 *fill*         0x000000000005f64c        0x4 
 .text.ARCOMMANDS_Decoder_SetSkyControllerCoPilotingStatePilotingSourceCb
                0x000000000005f650       0x3d /home/sunho/bebop_ws/devel/arsdk/out/arsdk-native/build/libARCommands/obj/gen/Sources/ARCOMMANDS_Decoder.c.o
                0x000000000005f650                ARCOMMANDS_Decoder_SetSkyControllerCoPilotingStatePilotingSourceCb
 *fill*         0x000000000005f68d        0x3 
 .text.ARCOMMANDS_Decoder_SetSkyControllerCoPilotingStatePilotingSourceCallback
                0x000000000005f690       0x4c /home/sunho/bebop_ws/devel/arsdk/out/arsdk-native/build/libARCommands/obj/gen/Sources/ARCOMMANDS_Decoder.c.o
                0x000000000005f690                ARCOMMANDS_Decoder_SetSkyControllerCoPilotingStatePilotingSourceCallback
 *fill*         0x000000000005f6dc        0x4 
 .text.ARCOMMANDS_Decoder_SetSkyControllerCalibrationStateMagnetoCalibrationStateCb
                0x000000000005f6e0       0x3d /home/sunho/bebop_ws/devel/arsdk/out/arsdk-native/build/libARCommands/obj/gen/Sources/ARCOMMANDS_Decoder.c.o
                0x000000000005f6e0                ARCOMMANDS_Decoder_SetSkyControllerCalibrationStateMagnetoCalibrationStateCb
 *fill*         0x000000000005f71d        0x3 
 .text.ARCOMMANDS_Decoder_SetSkyControllerCalibrationStateMagnetoCalibrationStateCallback
                0x000000000005f720       0x4c /home/sunho/bebop_ws/devel/arsdk/out/arsdk-native/build/libARCommands/obj/gen/Sources/ARCOMMANDS_Decoder.c.o
                0x000000000005f720                ARCOMMANDS_Decoder_SetSkyControllerCalibrationStateMagnetoCalibrationStateCallback
 *fill*         0x000000000005f76c        0x4 
 .text.ARCOMMANDS_Decoder_SetSkyControllerCalibrationStateMagnetoCalibrationQualityUpdatesStateCb
                0x000000000005f770       0x3d /home/sunho/bebop_ws/devel/arsdk/out/arsdk-native/build/libARCommands/obj/gen/Sources/ARCOMMANDS_Decoder.c.o
                0x000000000005f770                ARCOMMANDS_Decoder_SetSkyControllerCalibrationStateMagnetoCalibrationQualityUpdatesStateCb
 *fill*         0x000000000005f7ad        0x3 
 .text.ARCOMMANDS_Decoder_SetSkyControllerCalibrationStateMagnetoCalibrationQualityUpdatesStateCallback
                0x000000000005f7b0       0x4c /home/sunho/bebop_ws/devel/arsdk/out/arsdk-native/build/libARCommands/obj/gen/Sources/ARCOMMANDS_Decoder.c.o
                0x000000000005f7b0                ARCOMMANDS_Decoder_SetSkyControllerCalibrationStateMagnetoCalibrationQualityUpdatesStateCallback
 *fill*         0x000000000005f7fc        0x4 
 .text.ARCOMMANDS_Decoder_SetSkyControllerButtonEventsSettingsCb
                0x000000000005f800       0x3d /home/sunho/bebop_ws/devel/arsdk/out/arsdk-native/build/libARCommands/obj/gen/Sources/ARCOMMANDS_Decoder.c.o
                0x000000000005f800                ARCOMMANDS_Decoder_SetSkyControllerButtonEventsSettingsCb
 *fill*         0x000000000005f83d        0x3 
 .text.ARCOMMANDS_Decoder_SetSkyControllerButtonEventsSettingsCallback
                0x000000000005f840       0x4c /home/sunho/bebop_ws/devel/arsdk/out/arsdk-native/build/libARCommands/obj/gen/Sources/ARCOMMANDS_Decoder.c.o
                0x000000000005f840                ARCOMMANDS_Decoder_SetSkyControllerButtonEventsSettingsCallback
 *fill*         0x000000000005f88c        0x4 
 .text.ARCOMMANDS_Decoder_SetUnknownFeature1GeographicRunCb
                0x000000000005f890       0x3d /home/sunho/bebop_ws/devel/arsdk/out/arsdk-native/build/libARCommands/obj/gen/Sources/ARCOMMANDS_Decoder.c.o
                0x000000000005f890                ARCOMMANDS_Decoder_SetUnknownFeature1GeographicRunCb
 *fill*         0x000000000005f8cd        0x3 
 .text.ARCOMMANDS_Decoder_SetUnknownFeature1GeographicRunCallback
                0x000000000005f8d0       0x4c /home/sunho/bebop_ws/devel/arsdk/out/arsdk-native/build/libARCommands/obj/gen/Sources/ARCOMMANDS_Decoder.c.o
                0x000000000005f8d0                ARCOMMANDS_Decoder_SetUnknownFeature1GeographicRunCallback
 *fill*         0x000000000005f91c        0x4 
 .text.ARCOMMANDS_Decoder_SetUnknownFeature1RelativeRunCb
                0x000000000005f920       0x3d /home/sunho/bebop_ws/devel/arsdk/out/arsdk-native/build/libARCommands/obj/gen/Sources/ARCOMMANDS_Decoder.c.o
                0x000000000005f920                ARCOMMANDS_Decoder_SetUnknownFeature1RelativeRunCb
 *fill*         0x000000000005f95d        0x3 
 .text.ARCOMMANDS_Decoder_SetUnknownFeature1RelativeRunCallback
                0x000000000005f960       0x4c /home/sunho/bebop_ws/devel/arsdk/out/arsdk-native/build/libARCommands/obj/gen/Sources/ARCOMMANDS_Decoder.c.o
                0x000000000005f960                ARCOMMANDS_Decoder_SetUnknownFeature1RelativeRunCallback
 *fill*         0x000000000005f9ac        0x4 
 .text.ARCOMMANDS_Decoder_SetUnknownFeature1LookAtRunCb
                0x000000000005f9b0       0x3d /home/sunho/bebop_ws/devel/arsdk/out/arsdk-native/build/libARCommands/obj/gen/Sources/ARCOMMANDS_Decoder.c.o
                0x000000000005f9b0                ARCOMMANDS_Decoder_SetUnknownFeature1LookAtRunCb
 *fill*         0x000000000005f9ed        0x3 
 .text.ARCOMMANDS_Decoder_SetUnknownFeature1LookAtRunCallback
                0x000000000005f9f0       0x4c /home/sunho/bebop_ws/devel/arsdk/out/arsdk-native/build/libARCommands/obj/gen/Sources/ARCOMMANDS_Decoder.c.o
                0x000000000005f9f0                ARCOMMANDS_Decoder_SetUnknownFeature1LookAtRunCallback
 *fill*         0x000000000005fa3c        0x4 
 .text.ARCOMMANDS_Decoder_SetUnknownFeature1SpiralAnimRunCb
                0x000000000005fa40       0x3d /home/sunho/bebop_ws/devel/arsdk/out/arsdk-native/build/libARCommands/obj/gen/Sources/ARCOMMANDS_Decoder.c.o
                0x000000000005fa40                ARCOMMANDS_Decoder_SetUnknownFeature1SpiralAnimRunCb
 *fill*         0x000000000005fa7d        0x3 
 .text.ARCOMMANDS_Decoder_SetUnknownFeature1SpiralAnimRunCallback
                0x000000000005fa80       0x4c /home/sunho/bebop_ws/devel/arsdk/out/arsdk-native/build/libARCommands/obj/gen/Sources/ARCOMMANDS_Decoder.c.o
                0x000000000005fa80                ARCOMMANDS_Decoder_SetUnknownFeature1SpiralAnimRunCallback
 *fill*         0x000000000005facc        0x4 
 .text.ARCOMMANDS_Decoder_SetUnknownFeature1SwingAnimRunCb
                0x000000000005fad0       0x3d /home/sunho/bebop_ws/devel/arsdk/out/arsdk-native/build/libARCommands/obj/gen/Sources/ARCOMMANDS_Decoder.c.o
                0x000000000005fad0                ARCOMMANDS_Decoder_SetUnknownFeature1SwingAnimRunCb
 *fill*         0x000000000005fb0d        0x3 
 .text.ARCOMMANDS_Decoder_SetUnknownFeature1SwingAnimRunCallback
                0x000000000005fb10       0x4c /home/sunho/bebop_ws/devel/arsdk/out/arsdk-native/build/libARCommands/obj/gen/Sources/ARCOMMANDS_Decoder.c.o
                0x000000000005fb10                ARCOMMANDS_Decoder_SetUnknownFeature1SwingAnimRunCallback
 *fill*         0x000000000005fb5c        0x4 
 .text.ARCOMMANDS_Decoder_SetUnknownFeature1BoomerangAnimRunCb
                0x000000000005fb60       0x3d /home/sunho/bebop_ws/devel/arsdk/out/arsdk-native/build/libARCommands/obj/gen/Sources/ARCOMMANDS_Decoder.c.o
                0x000000000005fb60                ARCOMMANDS_Decoder_SetUnknownFeature1BoomerangAnimRunCb
 *fill*         0x000000000005fb9d        0x3 
 .text.ARCOMMANDS_Decoder_SetUnknownFeature1BoomerangAnimRunCallback
                0x000000000005fba0       0x4c /home/sunho/bebop_ws/devel/arsdk/out/arsdk-native/build/libARCommands/obj/gen/Sources/ARCOMMANDS_Decoder.c.o
                0x000000000005fba0                ARCOMMANDS_Decoder_SetUnknownFeature1BoomerangAnimRunCallback
 *fill*         0x000000000005fbec        0x4 
 .text.ARCOMMANDS_Decoder_SetUnknownFeature1CandleAnimRunCb
                0x000000000005fbf0       0x3d /home/sunho/bebop_ws/devel/arsdk/out/arsdk-native/build/libARCommands/obj/gen/Sources/ARCOMMANDS_Decoder.c.o
                0x000000000005fbf0                ARCOMMANDS_Decoder_SetUnknownFeature1CandleAnimRunCb
 *fill*         0x000000000005fc2d        0x3 
 .text.ARCOMMANDS_Decoder_SetUnknownFeature1CandleAnimRunCallback
                0x000000000005fc30       0x4c /home/sunho/bebop_ws/devel/arsdk/out/arsdk-native/build/libARCommands/obj/gen/Sources/ARCOMMANDS_Decoder.c.o
                0x000000000005fc30                ARCOMMANDS_Decoder_SetUnknownFeature1CandleAnimRunCallback
 *fill*         0x000000000005fc7c        0x4 
 .text.ARCOMMANDS_Decoder_SetUnknownFeature1DollySlideAnimRunCb
                0x000000000005fc80       0x3d /home/sunho/bebop_ws/devel/arsdk/out/arsdk-native/build/libARCommands/obj/gen/Sources/ARCOMMANDS_Decoder.c.o
                0x000000000005fc80                ARCOMMANDS_Decoder_SetUnknownFeature1DollySlideAnimRunCb
 *fill*         0x000000000005fcbd        0x3 
 .text.ARCOMMANDS_Decoder_SetUnknownFeature1DollySlideAnimRunCallback
                0x000000000005fcc0       0x4c /home/sunho/bebop_ws/devel/arsdk/out/arsdk-native/build/libARCommands/obj/gen/Sources/ARCOMMANDS_Decoder.c.o
                0x000000000005fcc0                ARCOMMANDS_Decoder_SetUnknownFeature1DollySlideAnimRunCallback
 *fill*         0x000000000005fd0c        0x4 
 .text.ARCOMMANDS_Decoder_SetUnknownFeature1UserFramingPositionCb
                0x000000000005fd10       0x3d /home/sunho/bebop_ws/devel/arsdk/out/arsdk-native/build/libARCommands/obj/gen/Sources/ARCOMMANDS_Decoder.c.o
                0x000000000005fd10                ARCOMMANDS_Decoder_SetUnknownFeature1UserFramingPositionCb
 *fill*         0x000000000005fd4d        0x3 
 .text.ARCOMMANDS_Decoder_SetUnknownFeature1UserFramingPositionCallback
                0x000000000005fd50       0x4c /home/sunho/bebop_ws/devel/arsdk/out/arsdk-native/build/libARCommands/obj/gen/Sources/ARCOMMANDS_Decoder.c.o
                0x000000000005fd50                ARCOMMANDS_Decoder_SetUnknownFeature1UserFramingPositionCallback
 *fill*         0x000000000005fd9c        0x4 
 .text.ARCOMMANDS_Decoder_SetUnknownFeature1UserGPSDataCb
                0x000000000005fda0       0x3d /home/sunho/bebop_ws/devel/arsdk/out/arsdk-native/build/libARCommands/obj/gen/Sources/ARCOMMANDS_Decoder.c.o
                0x000000000005fda0                ARCOMMANDS_Decoder_SetUnknownFeature1UserGPSDataCb
 *fill*         0x000000000005fddd        0x3 
 .text.ARCOMMANDS_Decoder_SetUnknownFeature1UserGPSDataCallback
                0x000000000005fde0       0x4c /home/sunho/bebop_ws/devel/arsdk/out/arsdk-native/build/libARCommands/obj/gen/Sources/ARCOMMANDS_Decoder.c.o
                0x000000000005fde0                ARCOMMANDS_Decoder_SetUnknownFeature1UserGPSDataCallback
 *fill*         0x000000000005fe2c        0x4 
 .text.ARCOMMANDS_Decoder_SetUnknownFeature1UserBaroDataCb
                0x000000000005fe30       0x3d /home/sunho/bebop_ws/devel/arsdk/out/arsdk-native/build/libARCommands/obj/gen/Sources/ARCOMMANDS_Decoder.c.o
                0x000000000005fe30                ARCOMMANDS_Decoder_SetUnknownFeature1UserBaroDataCb
 *fill*         0x000000000005fe6d        0x3 
 .text.ARCOMMANDS_Decoder_SetUnknownFeature1UserBaroDataCallback
                0x000000000005fe70       0x4c /home/sunho/bebop_ws/devel/arsdk/out/arsdk-native/build/libARCommands/obj/gen/Sources/ARCOMMANDS_Decoder.c.o
                0x000000000005fe70                ARCOMMANDS_Decoder_SetUnknownFeature1UserBaroDataCallback
 *fill*         0x000000000005febc        0x4 
 .text.ARCOMMANDS_Decoder_SetUnknownFeature1LynxDetectionCb
                0x000000000005fec0       0x3d /home/sunho/bebop_ws/devel/arsdk/out/arsdk-native/build/libARCommands/obj/gen/Sources/ARCOMMANDS_Decoder.c.o
                0x000000000005fec0                ARCOMMANDS_Decoder_SetUnknownFeature1LynxDetectionCb
 *fill*         0x000000000005fefd        0x3 
 .text.ARCOMMANDS_Decoder_SetUnknownFeature1LynxDetectionCallback
                0x000000000005ff00       0x4c /home/sunho/bebop_ws/devel/arsdk/out/arsdk-native/build/libARCommands/obj/gen/Sources/ARCOMMANDS_Decoder.c.o
                0x000000000005ff00                ARCOMMANDS_Decoder_SetUnknownFeature1LynxDetectionCallback
 *fill*         0x000000000005ff4c        0x4 
 .text.ARCOMMANDS_Decoder_SetUnknownFeature1AvailabilityCb
                0x000000000005ff50       0x3d /home/sunho/bebop_ws/devel/arsdk/out/arsdk-native/build/libARCommands/obj/gen/Sources/ARCOMMANDS_Decoder.c.o
                0x000000000005ff50                ARCOMMANDS_Decoder_SetUnknownFeature1AvailabilityCb
 *fill*         0x000000000005ff8d        0x3 
 .text.ARCOMMANDS_Decoder_SetUnknownFeature1AvailabilityCallback
                0x000000000005ff90       0x4c /home/sunho/bebop_ws/devel/arsdk/out/arsdk-native/build/libARCommands/obj/gen/Sources/ARCOMMANDS_Decoder.c.o
                0x000000000005ff90                ARCOMMANDS_Decoder_SetUnknownFeature1AvailabilityCallback
 *fill*         0x000000000005ffdc        0x4 
 .text.ARCOMMANDS_Decoder_SetUnknownFeature1RunCb
                0x000000000005ffe0       0x3d /home/sunho/bebop_ws/devel/arsdk/out/arsdk-native/build/libARCommands/obj/gen/Sources/ARCOMMANDS_Decoder.c.o
                0x000000000005ffe0                ARCOMMANDS_Decoder_SetUnknownFeature1RunCb
 *fill*         0x000000000006001d        0x3 
 .text.ARCOMMANDS_Decoder_SetUnknownFeature1RunCallback
                0x0000000000060020       0x4c /home/sunho/bebop_ws/devel/arsdk/out/arsdk-native/build/libARCommands/obj/gen/Sources/ARCOMMANDS_Decoder.c.o
                0x0000000000060020                ARCOMMANDS_Decoder_SetUnknownFeature1RunCallback
 *fill*         0x000000000006006c        0x4 
 .text.ARCOMMANDS_Decoder_SetUnknownFeature1GeographicConfigChangedCb
                0x0000000000060070       0x3d /home/sunho/bebop_ws/devel/arsdk/out/arsdk-native/build/libARCommands/obj/gen/Sources/ARCOMMANDS_Decoder.c.o
                0x0000000000060070                ARCOMMANDS_Decoder_SetUnknownFeature1GeographicConfigChangedCb
 *fill*         0x00000000000600ad        0x3 
 .text.ARCOMMANDS_Decoder_SetUnknownFeature1GeographicConfigChangedCallback
                0x00000000000600b0       0x4c /home/sunho/bebop_ws/devel/arsdk/out/arsdk-native/build/libARCommands/obj/gen/Sources/ARCOMMANDS_Decoder.c.o
                0x00000000000600b0                ARCOMMANDS_Decoder_SetUnknownFeature1GeographicConfigChangedCallback
 *fill*         0x00000000000600fc        0x4 
 .text.ARCOMMANDS_Decoder_SetUnknownFeature1RelativeConfigChangedCb
                0x0000000000060100       0x3d /home/sunho/bebop_ws/devel/arsdk/out/arsdk-native/build/libARCommands/obj/gen/Sources/ARCOMMANDS_Decoder.c.o
                0x0000000000060100                ARCOMMANDS_Decoder_SetUnknownFeature1RelativeConfigChangedCb
 *fill*         0x000000000006013d        0x3 
 .text.ARCOMMANDS_Decoder_SetUnknownFeature1RelativeConfigChangedCallback
                0x0000000000060140       0x4c /home/sunho/bebop_ws/devel/arsdk/out/arsdk-native/build/libARCommands/obj/gen/Sources/ARCOMMANDS_Decoder.c.o
                0x0000000000060140                ARCOMMANDS_Decoder_SetUnknownFeature1RelativeConfigChangedCallback
 *fill*         0x000000000006018c        0x4 
 .text.ARCOMMANDS_Decoder_SetUnknownFeature1AnimRunCb
                0x0000000000060190       0x3d /home/sunho/bebop_ws/devel/arsdk/out/arsdk-native/build/libARCommands/obj/gen/Sources/ARCOMMANDS_Decoder.c.o
                0x0000000000060190                ARCOMMANDS_Decoder_SetUnknownFeature1AnimRunCb
 *fill*         0x00000000000601cd        0x3 
 .text.ARCOMMANDS_Decoder_SetUnknownFeature1AnimRunCallback
                0x00000000000601d0       0x4c /home/sunho/bebop_ws/devel/arsdk/out/arsdk-native/build/libARCommands/obj/gen/Sources/ARCOMMANDS_Decoder.c.o
                0x00000000000601d0                ARCOMMANDS_Decoder_SetUnknownFeature1AnimRunCallback
 *fill*         0x000000000006021c        0x4 
 .text.ARCOMMANDS_Decoder_SetUnknownFeature1SpiralAnimConfigChangedCb
                0x0000000000060220       0x3d /home/sunho/bebop_ws/devel/arsdk/out/arsdk-native/build/libARCommands/obj/gen/Sources/ARCOMMANDS_Decoder.c.o
                0x0000000000060220                ARCOMMANDS_Decoder_SetUnknownFeature1SpiralAnimConfigChangedCb
 *fill*         0x000000000006025d        0x3 
 .text.ARCOMMANDS_Decoder_SetUnknownFeature1SpiralAnimConfigChangedCallback
                0x0000000000060260       0x4c /home/sunho/bebop_ws/devel/arsdk/out/arsdk-native/build/libARCommands/obj/gen/Sources/ARCOMMANDS_Decoder.c.o
                0x0000000000060260                ARCOMMANDS_Decoder_SetUnknownFeature1SpiralAnimConfigChangedCallback
 *fill*         0x00000000000602ac        0x4 
 .text.ARCOMMANDS_Decoder_SetUnknownFeature1SwingAnimConfigChangedCb
                0x00000000000602b0       0x3d /home/sunho/bebop_ws/devel/arsdk/out/arsdk-native/build/libARCommands/obj/gen/Sources/ARCOMMANDS_Decoder.c.o
                0x00000000000602b0                ARCOMMANDS_Decoder_SetUnknownFeature1SwingAnimConfigChangedCb
 *fill*         0x00000000000602ed        0x3 
 .text.ARCOMMANDS_Decoder_SetUnknownFeature1SwingAnimConfigChangedCallback
                0x00000000000602f0       0x4c /home/sunho/bebop_ws/devel/arsdk/out/arsdk-native/build/libARCommands/obj/gen/Sources/ARCOMMANDS_Decoder.c.o
                0x00000000000602f0                ARCOMMANDS_Decoder_SetUnknownFeature1SwingAnimConfigChangedCallback
 *fill*         0x000000000006033c        0x4 
 .text.ARCOMMANDS_Decoder_SetUnknownFeature1BoomerangAnimConfigChangedCb
                0x0000000000060340       0x3d /home/sunho/bebop_ws/devel/arsdk/out/arsdk-native/build/libARCommands/obj/gen/Sources/ARCOMMANDS_Decoder.c.o
                0x0000000000060340                ARCOMMANDS_Decoder_SetUnknownFeature1BoomerangAnimConfigChangedCb
 *fill*         0x000000000006037d        0x3 
 .text.ARCOMMANDS_Decoder_SetUnknownFeature1BoomerangAnimConfigChangedCallback
                0x0000000000060380       0x4c /home/sunho/bebop_ws/devel/arsdk/out/arsdk-native/build/libARCommands/obj/gen/Sources/ARCOMMANDS_Decoder.c.o
                0x0000000000060380                ARCOMMANDS_Decoder_SetUnknownFeature1BoomerangAnimConfigChangedCallback
 *fill*         0x00000000000603cc        0x4 
 .text.ARCOMMANDS_Decoder_SetUnknownFeature1CandleAnimConfigChangedCb
                0x00000000000603d0       0x3d /home/sunho/bebop_ws/devel/arsdk/out/arsdk-native/build/libARCommands/obj/gen/Sources/ARCOMMANDS_Decoder.c.o
                0x00000000000603d0                ARCOMMANDS_Decoder_SetUnknownFeature1CandleAnimConfigChangedCb
 *fill*         0x000000000006040d        0x3 
 .text.ARCOMMANDS_Decoder_SetUnknownFeature1CandleAnimConfigChangedCallback
                0x0000000000060410       0x4c /home/sunho/bebop_ws/devel/arsdk/out/arsdk-native/build/libARCommands/obj/gen/Sources/ARCOMMANDS_Decoder.c.o
                0x0000000000060410                ARCOMMANDS_Decoder_SetUnknownFeature1CandleAnimConfigChangedCallback
 *fill*         0x000000000006045c        0x4 
 .text.ARCOMMANDS_Decoder_SetUnknownFeature1DollySlideAnimConfigChangedCb
                0x0000000000060460       0x3d /home/sunho/bebop_ws/devel/arsdk/out/arsdk-native/build/libARCommands/obj/gen/Sources/ARCOMMANDS_Decoder.c.o
                0x0000000000060460                ARCOMMANDS_Decoder_SetUnknownFeature1DollySlideAnimConfigChangedCb
 *fill*         0x000000000006049d        0x3 
 .text.ARCOMMANDS_Decoder_SetUnknownFeature1DollySlideAnimConfigChangedCallback
                0x00000000000604a0       0x4c /home/sunho/bebop_ws/devel/arsdk/out/arsdk-native/build/libARCommands/obj/gen/Sources/ARCOMMANDS_Decoder.c.o
                0x00000000000604a0                ARCOMMANDS_Decoder_SetUnknownFeature1DollySlideAnimConfigChangedCallback
 *fill*         0x00000000000604ec        0x4 
 .text.ARCOMMANDS_Decoder_SetUnknownFeature1UserFramingPositionChangedCb
                0x00000000000604f0       0x3d /home/sunho/bebop_ws/devel/arsdk/out/arsdk-native/build/libARCommands/obj/gen/Sources/ARCOMMANDS_Decoder.c.o
                0x00000000000604f0                ARCOMMANDS_Decoder_SetUnknownFeature1UserFramingPositionChangedCb
 *fill*         0x000000000006052d        0x3 
 .text.ARCOMMANDS_Decoder_SetUnknownFeature1UserFramingPositionChangedCallback
                0x0000000000060530       0x4c /home/sunho/bebop_ws/devel/arsdk/out/arsdk-native/build/libARCommands/obj/gen/Sources/ARCOMMANDS_Decoder.c.o
                0x0000000000060530                ARCOMMANDS_Decoder_SetUnknownFeature1UserFramingPositionChangedCallback
 *fill*         0x000000000006057c        0x4 
 .text.ARCOMMANDS_Decoder_SetWifiScanCb
                0x0000000000060580       0x3d /home/sunho/bebop_ws/devel/arsdk/out/arsdk-native/build/libARCommands/obj/gen/Sources/ARCOMMANDS_Decoder.c.o
                0x0000000000060580                ARCOMMANDS_Decoder_SetWifiScanCb
 *fill*         0x00000000000605bd        0x3 
 .text.ARCOMMANDS_Decoder_SetWifiScanCallback
                0x00000000000605c0       0x4c /home/sunho/bebop_ws/devel/arsdk/out/arsdk-native/build/libARCommands/obj/gen/Sources/ARCOMMANDS_Decoder.c.o
                0x00000000000605c0                ARCOMMANDS_Decoder_SetWifiScanCallback
 *fill*         0x000000000006060c        0x4 
 .text.ARCOMMANDS_Decoder_SetWifiUpdateAuthorizedChannelsCb
                0x0000000000060610       0x3d /home/sunho/bebop_ws/devel/arsdk/out/arsdk-native/build/libARCommands/obj/gen/Sources/ARCOMMANDS_Decoder.c.o
                0x0000000000060610                ARCOMMANDS_Decoder_SetWifiUpdateAuthorizedChannelsCb
 *fill*         0x000000000006064d        0x3 
 .text.ARCOMMANDS_Decoder_SetWifiUpdateAuthorizedChannelsCallback
                0x0000000000060650       0x4c /home/sunho/bebop_ws/devel/arsdk/out/arsdk-native/build/libARCommands/obj/gen/Sources/ARCOMMANDS_Decoder.c.o
                0x0000000000060650                ARCOMMANDS_Decoder_SetWifiUpdateAuthorizedChannelsCallback
 *fill*         0x000000000006069c        0x4 
 .text.ARCOMMANDS_Decoder_SetWifiSetApChannelCb
                0x00000000000606a0       0x3d /home/sunho/bebop_ws/devel/arsdk/out/arsdk-native/build/libARCommands/obj/gen/Sources/ARCOMMANDS_Decoder.c.o
                0x00000000000606a0                ARCOMMANDS_Decoder_SetWifiSetApChannelCb
 *fill*         0x00000000000606dd        0x3 
 .text.ARCOMMANDS_Decoder_SetWifiSetApChannelCallback
                0x00000000000606e0       0x4c /home/sunho/bebop_ws/devel/arsdk/out/arsdk-native/build/libARCommands/obj/gen/Sources/ARCOMMANDS_Decoder.c.o
                0x00000000000606e0                ARCOMMANDS_Decoder_SetWifiSetApChannelCallback
 *fill*         0x000000000006072c        0x4 
 .text.ARCOMMANDS_Decoder_SetWifiSetSecurityCb
                0x0000000000060730       0x3d /home/sunho/bebop_ws/devel/arsdk/out/arsdk-native/build/libARCommands/obj/gen/Sources/ARCOMMANDS_Decoder.c.o
                0x0000000000060730                ARCOMMANDS_Decoder_SetWifiSetSecurityCb
 *fill*         0x000000000006076d        0x3 
 .text.ARCOMMANDS_Decoder_SetWifiSetSecurityCallback
                0x0000000000060770       0x4c /home/sunho/bebop_ws/devel/arsdk/out/arsdk-native/build/libARCommands/obj/gen/Sources/ARCOMMANDS_Decoder.c.o
                0x0000000000060770                ARCOMMANDS_Decoder_SetWifiSetSecurityCallback
 *fill*         0x00000000000607bc        0x4 
 .text.ARCOMMANDS_Decoder_SetWifiSetCountryCb
                0x00000000000607c0       0x3d /home/sunho/bebop_ws/devel/arsdk/out/arsdk-native/build/libARCommands/obj/gen/Sources/ARCOMMANDS_Decoder.c.o
                0x00000000000607c0                ARCOMMANDS_Decoder_SetWifiSetCountryCb
 *fill*         0x00000000000607fd        0x3 
 .text.ARCOMMANDS_Decoder_SetWifiSetCountryCallback
                0x0000000000060800       0x4c /home/sunho/bebop_ws/devel/arsdk/out/arsdk-native/build/libARCommands/obj/gen/Sources/ARCOMMANDS_Decoder.c.o
                0x0000000000060800                ARCOMMANDS_Decoder_SetWifiSetCountryCallback
 *fill*         0x000000000006084c        0x4 
 .text.ARCOMMANDS_Decoder_SetWifiSetEnvironmentCb
                0x0000000000060850       0x3d /home/sunho/bebop_ws/devel/arsdk/out/arsdk-native/build/libARCommands/obj/gen/Sources/ARCOMMANDS_Decoder.c.o
                0x0000000000060850                ARCOMMANDS_Decoder_SetWifiSetEnvironmentCb
 *fill*         0x000000000006088d        0x3 
 .text.ARCOMMANDS_Decoder_SetWifiSetEnvironmentCallback
                0x0000000000060890       0x4c /home/sunho/bebop_ws/devel/arsdk/out/arsdk-native/build/libARCommands/obj/gen/Sources/ARCOMMANDS_Decoder.c.o
                0x0000000000060890                ARCOMMANDS_Decoder_SetWifiSetEnvironmentCallback
 *fill*         0x00000000000608dc        0x4 
 .text.ARCOMMANDS_Decoder_SetWifiScannedItemCb
                0x00000000000608e0       0x3d /home/sunho/bebop_ws/devel/arsdk/out/arsdk-native/build/libARCommands/obj/gen/Sources/ARCOMMANDS_Decoder.c.o
                0x00000000000608e0                ARCOMMANDS_Decoder_SetWifiScannedItemCb
 *fill*         0x000000000006091d        0x3 
 .text.ARCOMMANDS_Decoder_SetWifiScannedItemCallback
                0x0000000000060920       0x4c /home/sunho/bebop_ws/devel/arsdk/out/arsdk-native/build/libARCommands/obj/gen/Sources/ARCOMMANDS_Decoder.c.o
                0x0000000000060920                ARCOMMANDS_Decoder_SetWifiScannedItemCallback
 *fill*         0x000000000006096c        0x4 
 .text.ARCOMMANDS_Decoder_SetWifiAuthorizedChannelCb
                0x0000000000060970       0x3d /home/sunho/bebop_ws/devel/arsdk/out/arsdk-native/build/libARCommands/obj/gen/Sources/ARCOMMANDS_Decoder.c.o
                0x0000000000060970                ARCOMMANDS_Decoder_SetWifiAuthorizedChannelCb
 *fill*         0x00000000000609ad        0x3 
 .text.ARCOMMANDS_Decoder_SetWifiAuthorizedChannelCallback
                0x00000000000609b0       0x4c /home/sunho/bebop_ws/devel/arsdk/out/arsdk-native/build/libARCommands/obj/gen/Sources/ARCOMMANDS_Decoder.c.o
                0x00000000000609b0                ARCOMMANDS_Decoder_SetWifiAuthorizedChannelCallback
 *fill*         0x00000000000609fc        0x4 
 .text.ARCOMMANDS_Decoder_SetWifiApChannelChangedCb
                0x0000000000060a00       0x3d /home/sunho/bebop_ws/devel/arsdk/out/arsdk-native/build/libARCommands/obj/gen/Sources/ARCOMMANDS_Decoder.c.o
                0x0000000000060a00                ARCOMMANDS_Decoder_SetWifiApChannelChangedCb
 *fill*         0x0000000000060a3d        0x3 
 .text.ARCOMMANDS_Decoder_SetWifiApChannelChangedCallback
                0x0000000000060a40       0x4c /home/sunho/bebop_ws/devel/arsdk/out/arsdk-native/build/libARCommands/obj/gen/Sources/ARCOMMANDS_Decoder.c.o
                0x0000000000060a40                ARCOMMANDS_Decoder_SetWifiApChannelChangedCallback
 *fill*         0x0000000000060a8c        0x4 
 .text.ARCOMMANDS_Decoder_SetWifiSecurityChangedCb
                0x0000000000060a90       0x3d /home/sunho/bebop_ws/devel/arsdk/out/arsdk-native/build/libARCommands/obj/gen/Sources/ARCOMMANDS_Decoder.c.o
                0x0000000000060a90                ARCOMMANDS_Decoder_SetWifiSecurityChangedCb
 *fill*         0x0000000000060acd        0x3 
 .text.ARCOMMANDS_Decoder_SetWifiSecurityChangedCallback
                0x0000000000060ad0       0x4c /home/sunho/bebop_ws/devel/arsdk/out/arsdk-native/build/libARCommands/obj/gen/Sources/ARCOMMANDS_Decoder.c.o
                0x0000000000060ad0                ARCOMMANDS_Decoder_SetWifiSecurityChangedCallback
 *fill*         0x0000000000060b1c        0x4 
 .text.ARCOMMANDS_Decoder_SetWifiCountryChangedCb
                0x0000000000060b20       0x3d /home/sunho/bebop_ws/devel/arsdk/out/arsdk-native/build/libARCommands/obj/gen/Sources/ARCOMMANDS_Decoder.c.o
                0x0000000000060b20                ARCOMMANDS_Decoder_SetWifiCountryChangedCb
 *fill*         0x0000000000060b5d        0x3 
 .text.ARCOMMANDS_Decoder_SetWifiCountryChangedCallback
                0x0000000000060b60       0x4c /home/sunho/bebop_ws/devel/arsdk/out/arsdk-native/build/libARCommands/obj/gen/Sources/ARCOMMANDS_Decoder.c.o
                0x0000000000060b60                ARCOMMANDS_Decoder_SetWifiCountryChangedCallback
 *fill*         0x0000000000060bac        0x4 
 .text.ARCOMMANDS_Decoder_SetWifiEnvironmentChangedCb
                0x0000000000060bb0       0x3d /home/sunho/bebop_ws/devel/arsdk/out/arsdk-native/build/libARCommands/obj/gen/Sources/ARCOMMANDS_Decoder.c.o
                0x0000000000060bb0                ARCOMMANDS_Decoder_SetWifiEnvironmentChangedCb
 *fill*         0x0000000000060bed        0x3 
 .text.ARCOMMANDS_Decoder_SetWifiEnvironmentChangedCallback
                0x0000000000060bf0       0x4c /home/sunho/bebop_ws/devel/arsdk/out/arsdk-native/build/libARCommands/obj/gen/Sources/ARCOMMANDS_Decoder.c.o
                0x0000000000060bf0                ARCOMMANDS_Decoder_SetWifiEnvironmentChangedCallback
 *fill*         0x0000000000060c3c        0x4 
 .text.ARCOMMANDS_Decoder_SetWifiRssiChangedCb
                0x0000000000060c40       0x3d /home/sunho/bebop_ws/devel/arsdk/out/arsdk-native/build/libARCommands/obj/gen/Sources/ARCOMMANDS_Decoder.c.o
                0x0000000000060c40                ARCOMMANDS_Decoder_SetWifiRssiChangedCb
 *fill*         0x0000000000060c7d        0x3 
 .text.ARCOMMANDS_Decoder_SetWifiRssiChangedCallback
                0x0000000000060c80       0x4c /home/sunho/bebop_ws/devel/arsdk/out/arsdk-native/build/libARCommands/obj/gen/Sources/ARCOMMANDS_Decoder.c.o
                0x0000000000060c80                ARCOMMANDS_Decoder_SetWifiRssiChangedCallback
 *fill*         0x0000000000060ccc        0x4 
 .text.ARCOMMANDS_Decoder_DecodeCommand
                0x0000000000060cd0    0x1f849 /home/sunho/bebop_ws/devel/arsdk/out/arsdk-native/build/libARCommands/obj/gen/Sources/ARCOMMANDS_Decoder.c.o
                0x0000000000060cd0                ARCOMMANDS_Decoder_DecodeCommand
 *fill*         0x0000000000080519        0x7 
 .text.ARCOMMANDS_Decoder_DecodeBuffer
                0x0000000000080520        0xc /home/sunho/bebop_ws/devel/arsdk/out/arsdk-native/build/libARCommands/obj/gen/Sources/ARCOMMANDS_Decoder.c.o
                0x0000000000080520                ARCOMMANDS_Decoder_DecodeBuffer
 *fill*         0x000000000008052c        0x4 
 .text.ARCOMMANDS_Decoder_DescribeBuffer
                0x0000000000080530    0x1683b /home/sunho/bebop_ws/devel/arsdk/out/arsdk-native/build/libARCommands/obj/gen/Sources/ARCOMMANDS_Decoder.c.o
                0x0000000000080530                ARCOMMANDS_Decoder_DescribeBuffer
 *fill*         0x0000000000096d6b        0x5 
 .text.ARCOMMANDS_Filter_NewFilter
                0x0000000000096d70      0xbf2 /home/sunho/bebop_ws/devel/arsdk/out/arsdk-native/build/libARCommands/obj/gen/Sources/ARCOMMANDS_Filter.c.o
                0x0000000000096d70                ARCOMMANDS_Filter_NewFilter
 *fill*         0x0000000000097962        0xe 
 .text.ARCOMMANDS_Filter_DeleteFilter
                0x0000000000097970       0x1f /home/sunho/bebop_ws/devel/arsdk/out/arsdk-native/build/libARCommands/obj/gen/Sources/ARCOMMANDS_Filter.c.o
                0x0000000000097970                ARCOMMANDS_Filter_DeleteFilter
 *fill*         0x000000000009798f        0x1 
 .text.ARCOMMANDS_Filter_FilterCommand
                0x0000000000097990     0x2dbb /home/sunho/bebop_ws/devel/arsdk/out/arsdk-native/build/libARCommands/obj/gen/Sources/ARCOMMANDS_Filter.c.o
                0x0000000000097990                ARCOMMANDS_Filter_FilterCommand
 *fill*         0x000000000009a74b        0x5 
 .text.ARCOMMANDS_Filter_SetGenericBehavior
                0x000000000009a750       0x28 /home/sunho/bebop_ws/devel/arsdk/out/arsdk-native/build/libARCommands/obj/gen/Sources/ARCOMMANDS_Filter.c.o
                0x000000000009a750                ARCOMMANDS_Filter_SetGenericBehavior
 *fill*         0x000000000009a778        0x8 
 .text.ARCOMMANDS_Filter_SetGenericDefaultBehavior
                0x000000000009a780       0x28 /home/sunho/bebop_ws/devel/arsdk/out/arsdk-native/build/libARCommands/obj/gen/Sources/ARCOMMANDS_Filter.c.o
                0x000000000009a780                ARCOMMANDS_Filter_SetGenericDefaultBehavior
 *fill*         0x000000000009a7a8        0x8 
 .text.ARCOMMANDS_Filter_SetARDrone3Behavior
                0x000000000009a7b0      0x317 /home/sunho/bebop_ws/devel/arsdk/out/arsdk-native/build/libARCommands/obj/gen/Sources/ARCOMMANDS_Filter.c.o
                0x000000000009a7b0                ARCOMMANDS_Filter_SetARDrone3Behavior
 *fill*         0x000000000009aac7        0x9 
 .text.ARCOMMANDS_Filter_SetARDrone3PilotingBehavior
                0x000000000009aad0       0x44 /home/sunho/bebop_ws/devel/arsdk/out/arsdk-native/build/libARCommands/obj/gen/Sources/ARCOMMANDS_Filter.c.o
                0x000000000009aad0                ARCOMMANDS_Filter_SetARDrone3PilotingBehavior
 *fill*         0x000000000009ab14        0xc 
 .text.ARCOMMANDS_Filter_SetARDrone3AnimationsBehavior
                0x000000000009ab20       0x29 /home/sunho/bebop_ws/devel/arsdk/out/arsdk-native/build/libARCommands/obj/gen/Sources/ARCOMMANDS_Filter.c.o
                0x000000000009ab20                ARCOMMANDS_Filter_SetARDrone3AnimationsBehavior
 *fill*         0x000000000009ab49        0x7 
 .text.ARCOMMANDS_Filter_SetARDrone3CameraBehavior
                0x000000000009ab50       0x29 /home/sunho/bebop_ws/devel/arsdk/out/arsdk-native/build/libARCommands/obj/gen/Sources/ARCOMMANDS_Filter.c.o
                0x000000000009ab50                ARCOMMANDS_Filter_SetARDrone3CameraBehavior
 *fill*         0x000000000009ab79        0x7 
 .text.ARCOMMANDS_Filter_SetARDrone3MediaRecordBehavior
                0x000000000009ab80       0x32 /home/sunho/bebop_ws/devel/arsdk/out/arsdk-native/build/libARCommands/obj/gen/Sources/ARCOMMANDS_Filter.c.o
                0x000000000009ab80                ARCOMMANDS_Filter_SetARDrone3MediaRecordBehavior
 *fill*         0x000000000009abb2        0xe 
 .text.ARCOMMANDS_Filter_SetARDrone3MediaRecordStateBehavior
                0x000000000009abc0       0x44 /home/sunho/bebop_ws/devel/arsdk/out/arsdk-native/build/libARCommands/obj/gen/Sources/ARCOMMANDS_Filter.c.o
                0x000000000009abc0                ARCOMMANDS_Filter_SetARDrone3MediaRecordStateBehavior
 *fill*         0x000000000009ac04        0xc 
 .text.ARCOMMANDS_Filter_SetARDrone3MediaRecordEventBehavior
                0x000000000009ac10       0x32 /home/sunho/bebop_ws/devel/arsdk/out/arsdk-native/build/libARCommands/obj/gen/Sources/ARCOMMANDS_Filter.c.o
                0x000000000009ac10                ARCOMMANDS_Filter_SetARDrone3MediaRecordEventBehavior
 *fill*         0x000000000009ac42        0xe 
 .text.ARCOMMANDS_Filter_SetARDrone3PilotingStateBehavior
                0x000000000009ac50       0x68 /home/sunho/bebop_ws/devel/arsdk/out/arsdk-native/build/libARCommands/obj/gen/Sources/ARCOMMANDS_Filter.c.o
                0x000000000009ac50                ARCOMMANDS_Filter_SetARDrone3PilotingStateBehavior
 *fill*         0x000000000009acb8        0x8 
 .text.ARCOMMANDS_Filter_SetARDrone3PilotingEventBehavior
                0x000000000009acc0       0x2c /home/sunho/bebop_ws/devel/arsdk/out/arsdk-native/build/libARCommands/obj/gen/Sources/ARCOMMANDS_Filter.c.o
                0x000000000009acc0                ARCOMMANDS_Filter_SetARDrone3PilotingEventBehavior
 *fill*         0x000000000009acec        0x4 
 .text.ARCOMMANDS_Filter_SetARDrone3NetworkBehavior
                0x000000000009acf0       0x2c /home/sunho/bebop_ws/devel/arsdk/out/arsdk-native/build/libARCommands/obj/gen/Sources/ARCOMMANDS_Filter.c.o
                0x000000000009acf0                ARCOMMANDS_Filter_SetARDrone3NetworkBehavior
 *fill*         0x000000000009ad1c        0x4 
 .text.ARCOMMANDS_Filter_SetARDrone3NetworkStateBehavior
                0x000000000009ad20       0x3e /home/sunho/bebop_ws/devel/arsdk/out/arsdk-native/build/libARCommands/obj/gen/Sources/ARCOMMANDS_Filter.c.o
                0x000000000009ad20                ARCOMMANDS_Filter_SetARDrone3NetworkStateBehavior
 *fill*         0x000000000009ad5e        0x2 
 .text.ARCOMMANDS_Filter_SetARDrone3PilotingSettingsBehavior
                0x000000000009ad60       0x5f /home/sunho/bebop_ws/devel/arsdk/out/arsdk-native/build/libARCommands/obj/gen/Sources/ARCOMMANDS_Filter.c.o
                0x000000000009ad60                ARCOMMANDS_Filter_SetARDrone3PilotingSettingsBehavior
 *fill*         0x000000000009adbf        0x1 
 .text.ARCOMMANDS_Filter_SetARDrone3PilotingSettingsStateBehavior
                0x000000000009adc0       0x86 /home/sunho/bebop_ws/devel/arsdk/out/arsdk-native/build/libARCommands/obj/gen/Sources/ARCOMMANDS_Filter.c.o
                0x000000000009adc0                ARCOMMANDS_Filter_SetARDrone3PilotingSettingsStateBehavior
 *fill*         0x000000000009ae46        0xa 
 .text.ARCOMMANDS_Filter_SetARDrone3SpeedSettingsBehavior
                0x000000000009ae50       0x44 /home/sunho/bebop_ws/devel/arsdk/out/arsdk-native/build/libARCommands/obj/gen/Sources/ARCOMMANDS_Filter.c.o
                0x000000000009ae50                ARCOMMANDS_Filter_SetARDrone3SpeedSettingsBehavior
 *fill*         0x000000000009ae94        0xc 
 .text.ARCOMMANDS_Filter_SetARDrone3SpeedSettingsStateBehavior
                0x000000000009aea0       0x44 /home/sunho/bebop_ws/devel/arsdk/out/arsdk-native/build/libARCommands/obj/gen/Sources/ARCOMMANDS_Filter.c.o
                0x000000000009aea0                ARCOMMANDS_Filter_SetARDrone3SpeedSettingsStateBehavior
 *fill*         0x000000000009aee4        0xc 
 .text.ARCOMMANDS_Filter_SetARDrone3NetworkSettingsBehavior
                0x000000000009aef0       0x32 /home/sunho/bebop_ws/devel/arsdk/out/arsdk-native/build/libARCommands/obj/gen/Sources/ARCOMMANDS_Filter.c.o
                0x000000000009aef0                ARCOMMANDS_Filter_SetARDrone3NetworkSettingsBehavior
 *fill*         0x000000000009af22        0xe 
 .text.ARCOMMANDS_Filter_SetARDrone3NetworkSettingsStateBehavior
                0x000000000009af30       0x38 /home/sunho/bebop_ws/devel/arsdk/out/arsdk-native/build/libARCommands/obj/gen/Sources/ARCOMMANDS_Filter.c.o
                0x000000000009af30                ARCOMMANDS_Filter_SetARDrone3NetworkSettingsStateBehavior
 *fill*         0x000000000009af68        0x8 
 .text.ARCOMMANDS_Filter_SetARDrone3SettingsStateBehavior
                0x000000000009af70       0x56 /home/sunho/bebop_ws/devel/arsdk/out/arsdk-native/build/libARCommands/obj/gen/Sources/ARCOMMANDS_Filter.c.o
                0x000000000009af70                ARCOMMANDS_Filter_SetARDrone3SettingsStateBehavior
 *fill*         0x000000000009afc6        0xa 
 .text.ARCOMMANDS_Filter_SetARDrone3PictureSettingsBehavior
                0x000000000009afd0       0x62 /home/sunho/bebop_ws/devel/arsdk/out/arsdk-native/build/libARCommands/obj/gen/Sources/ARCOMMANDS_Filter.c.o
                0x000000000009afd0                ARCOMMANDS_Filter_SetARDrone3PictureSettingsBehavior
 *fill*         0x000000000009b032        0xe 
 .text.ARCOMMANDS_Filter_SetARDrone3PictureSettingsStateBehavior
                0x000000000009b040       0x62 /home/sunho/bebop_ws/devel/arsdk/out/arsdk-native/build/libARCommands/obj/gen/Sources/ARCOMMANDS_Filter.c.o
                0x000000000009b040                ARCOMMANDS_Filter_SetARDrone3PictureSettingsStateBehavior
 *fill*         0x000000000009b0a2        0xe 
 .text.ARCOMMANDS_Filter_SetARDrone3MediaStreamingBehavior
                0x000000000009b0b0       0x32 /home/sunho/bebop_ws/devel/arsdk/out/arsdk-native/build/libARCommands/obj/gen/Sources/ARCOMMANDS_Filter.c.o
                0x000000000009b0b0                ARCOMMANDS_Filter_SetARDrone3MediaStreamingBehavior
 *fill*         0x000000000009b0e2        0xe 
 .text.ARCOMMANDS_Filter_SetARDrone3MediaStreamingStateBehavior
                0x000000000009b0f0       0x32 /home/sunho/bebop_ws/devel/arsdk/out/arsdk-native/build/libARCommands/obj/gen/Sources/ARCOMMANDS_Filter.c.o
                0x000000000009b0f0                ARCOMMANDS_Filter_SetARDrone3MediaStreamingStateBehavior
 *fill*         0x000000000009b122        0xe 
 .text.ARCOMMANDS_Filter_SetARDrone3GPSSettingsBehavior
                0x000000000009b130       0x44 /home/sunho/bebop_ws/devel/arsdk/out/arsdk-native/build/libARCommands/obj/gen/Sources/ARCOMMANDS_Filter.c.o
                0x000000000009b130                ARCOMMANDS_Filter_SetARDrone3GPSSettingsBehavior
 *fill*         0x000000000009b174        0xc 
 .text.ARCOMMANDS_Filter_SetARDrone3GPSSettingsStateBehavior
                0x000000000009b180       0x4a /home/sunho/bebop_ws/devel/arsdk/out/arsdk-native/build/libARCommands/obj/gen/Sources/ARCOMMANDS_Filter.c.o
                0x000000000009b180                ARCOMMANDS_Filter_SetARDrone3GPSSettingsStateBehavior
 *fill*         0x000000000009b1ca        0x6 
 .text.ARCOMMANDS_Filter_SetARDrone3CameraStateBehavior
                0x000000000009b1d0       0x32 /home/sunho/bebop_ws/devel/arsdk/out/arsdk-native/build/libARCommands/obj/gen/Sources/ARCOMMANDS_Filter.c.o
                0x000000000009b1d0                ARCOMMANDS_Filter_SetARDrone3CameraStateBehavior
 *fill*         0x000000000009b202        0xe 
 .text.ARCOMMANDS_Filter_SetARDrone3AntiflickeringBehavior
                0x000000000009b210       0x32 /home/sunho/bebop_ws/devel/arsdk/out/arsdk-native/build/libARCommands/obj/gen/Sources/ARCOMMANDS_Filter.c.o
                0x000000000009b210                ARCOMMANDS_Filter_SetARDrone3AntiflickeringBehavior
 *fill*         0x000000000009b242        0xe 
 .text.ARCOMMANDS_Filter_SetARDrone3AntiflickeringStateBehavior
                0x000000000009b250       0x32 /home/sunho/bebop_ws/devel/arsdk/out/arsdk-native/build/libARCommands/obj/gen/Sources/ARCOMMANDS_Filter.c.o
                0x000000000009b250                ARCOMMANDS_Filter_SetARDrone3AntiflickeringStateBehavior
 *fill*         0x000000000009b282        0xe 
 .text.ARCOMMANDS_Filter_SetARDrone3GPSStateBehavior
                0x000000000009b290       0x38 /home/sunho/bebop_ws/devel/arsdk/out/arsdk-native/build/libARCommands/obj/gen/Sources/ARCOMMANDS_Filter.c.o
                0x000000000009b290                ARCOMMANDS_Filter_SetARDrone3GPSStateBehavior
 *fill*         0x000000000009b2c8        0x8 
 .text.ARCOMMANDS_Filter_SetARDrone3PROStateBehavior
                0x000000000009b2d0       0x2c /home/sunho/bebop_ws/devel/arsdk/out/arsdk-native/build/libARCommands/obj/gen/Sources/ARCOMMANDS_Filter.c.o
                0x000000000009b2d0                ARCOMMANDS_Filter_SetARDrone3PROStateBehavior
 *fill*         0x000000000009b2fc        0x4 
 .text.ARCOMMANDS_Filter_SetARDrone3PilotingFlatTrimBehavior
                0x000000000009b300       0x29 /home/sunho/bebop_ws/devel/arsdk/out/arsdk-native/build/libARCommands/obj/gen/Sources/ARCOMMANDS_Filter.c.o
                0x000000000009b300                ARCOMMANDS_Filter_SetARDrone3PilotingFlatTrimBehavior
 *fill*         0x000000000009b329        0x7 
 .text.ARCOMMANDS_Filter_SetARDrone3PilotingTakeOffBehavior
                0x000000000009b330       0x29 /home/sunho/bebop_ws/devel/arsdk/out/arsdk-native/build/libARCommands/obj/gen/Sources/ARCOMMANDS_Filter.c.o
                0x000000000009b330                ARCOMMANDS_Filter_SetARDrone3PilotingTakeOffBehavior
 *fill*         0x000000000009b359        0x7 
 .text.ARCOMMANDS_Filter_SetARDrone3PilotingPCMDBehavior
                0x000000000009b360       0x29 /home/sunho/bebop_ws/devel/arsdk/out/arsdk-native/build/libARCommands/obj/gen/Sources/ARCOMMANDS_Filter.c.o
                0x000000000009b360                ARCOMMANDS_Filter_SetARDrone3PilotingPCMDBehavior
 *fill*         0x000000000009b389        0x7 
 .text.ARCOMMANDS_Filter_SetARDrone3PilotingLandingBehavior
                0x000000000009b390       0x29 /home/sunho/bebop_ws/devel/arsdk/out/arsdk-native/build/libARCommands/obj/gen/Sources/ARCOMMANDS_Filter.c.o
                0x000000000009b390                ARCOMMANDS_Filter_SetARDrone3PilotingLandingBehavior
 *fill*         0x000000000009b3b9        0x7 
 .text.ARCOMMANDS_Filter_SetARDrone3PilotingEmergencyBehavior
                0x000000000009b3c0       0x29 /home/sunho/bebop_ws/devel/arsdk/out/arsdk-native/build/libARCommands/obj/gen/Sources/ARCOMMANDS_Filter.c.o
                0x000000000009b3c0                ARCOMMANDS_Filter_SetARDrone3PilotingEmergencyBehavior
 *fill*         0x000000000009b3e9        0x7 
 .text.ARCOMMANDS_Filter_SetARDrone3PilotingNavigateHomeBehavior
                0x000000000009b3f0       0x29 /home/sunho/bebop_ws/devel/arsdk/out/arsdk-native/build/libARCommands/obj/gen/Sources/ARCOMMANDS_Filter.c.o
                0x000000000009b3f0                ARCOMMANDS_Filter_SetARDrone3PilotingNavigateHomeBehavior
 *fill*         0x000000000009b419        0x7 
 .text.ARCOMMANDS_Filter_SetARDrone3PilotingAutoTakeOffModeBehavior
                0x000000000009b420       0x29 /home/sunho/bebop_ws/devel/arsdk/out/arsdk-native/build/libARCommands/obj/gen/Sources/ARCOMMANDS_Filter.c.o
                0x000000000009b420                ARCOMMANDS_Filter_SetARDrone3PilotingAutoTakeOffModeBehavior
 *fill*         0x000000000009b449        0x7 
 .text.ARCOMMANDS_Filter_SetARDrone3PilotingMoveByBehavior
                0x000000000009b450       0x29 /home/sunho/bebop_ws/devel/arsdk/out/arsdk-native/build/libARCommands/obj/gen/Sources/ARCOMMANDS_Filter.c.o
                0x000000000009b450                ARCOMMANDS_Filter_SetARDrone3PilotingMoveByBehavior
 *fill*         0x000000000009b479        0x7 
 .text.ARCOMMANDS_Filter_SetARDrone3PilotingUserTakeOffBehavior
                0x000000000009b480       0x29 /home/sunho/bebop_ws/devel/arsdk/out/arsdk-native/build/libARCommands/obj/gen/Sources/ARCOMMANDS_Filter.c.o
                0x000000000009b480                ARCOMMANDS_Filter_SetARDrone3PilotingUserTakeOffBehavior
 *fill*         0x000000000009b4a9        0x7 
 .text.ARCOMMANDS_Filter_SetARDrone3PilotingCircleBehavior
                0x000000000009b4b0       0x29 /home/sunho/bebop_ws/devel/arsdk/out/arsdk-native/build/libARCommands/obj/gen/Sources/ARCOMMANDS_Filter.c.o
                0x000000000009b4b0                ARCOMMANDS_Filter_SetARDrone3PilotingCircleBehavior
 *fill*         0x000000000009b4d9        0x7 
 .text.ARCOMMANDS_Filter_SetARDrone3AnimationsFlipBehavior
                0x000000000009b4e0       0x29 /home/sunho/bebop_ws/devel/arsdk/out/arsdk-native/build/libARCommands/obj/gen/Sources/ARCOMMANDS_Filter.c.o
                0x000000000009b4e0                ARCOMMANDS_Filter_SetARDrone3AnimationsFlipBehavior
 *fill*         0x000000000009b509        0x7 
 .text.ARCOMMANDS_Filter_SetARDrone3CameraOrientationBehavior
                0x000000000009b510       0x29 /home/sunho/bebop_ws/devel/arsdk/out/arsdk-native/build/libARCommands/obj/gen/Sources/ARCOMMANDS_Filter.c.o
                0x000000000009b510                ARCOMMANDS_Filter_SetARDrone3CameraOrientationBehavior
 *fill*         0x000000000009b539        0x7 
 .text.ARCOMMANDS_Filter_SetARDrone3MediaRecordPictureBehavior
                0x000000000009b540       0x29 /home/sunho/bebop_ws/devel/arsdk/out/arsdk-native/build/libARCommands/obj/gen/Sources/ARCOMMANDS_Filter.c.o
                0x000000000009b540                ARCOMMANDS_Filter_SetARDrone3MediaRecordPictureBehavior
 *fill*         0x000000000009b569        0x7 
 .text.ARCOMMANDS_Filter_SetARDrone3MediaRecordVideoBehavior
                0x000000000009b570       0x29 /home/sunho/bebop_ws/devel/arsdk/out/arsdk-native/build/libARCommands/obj/gen/Sources/ARCOMMANDS_Filter.c.o
                0x000000000009b570                ARCOMMANDS_Filter_SetARDrone3MediaRecordVideoBehavior
 *fill*         0x000000000009b599        0x7 
 .text.ARCOMMANDS_Filter_SetARDrone3MediaRecordPictureV2Behavior
                0x000000000009b5a0       0x29 /home/sunho/bebop_ws/devel/arsdk/out/arsdk-native/build/libARCommands/obj/gen/Sources/ARCOMMANDS_Filter.c.o
                0x000000000009b5a0                ARCOMMANDS_Filter_SetARDrone3MediaRecordPictureV2Behavior
 *fill*         0x000000000009b5c9        0x7 
 .text.ARCOMMANDS_Filter_SetARDrone3MediaRecordVideoV2Behavior
                0x000000000009b5d0       0x29 /home/sunho/bebop_ws/devel/arsdk/out/arsdk-native/build/libARCommands/obj/gen/Sources/ARCOMMANDS_Filter.c.o
                0x000000000009b5d0                ARCOMMANDS_Filter_SetARDrone3MediaRecordVideoV2Behavior
 *fill*         0x000000000009b5f9        0x7 
 .text.ARCOMMANDS_Filter_SetARDrone3NetworkWifiScanBehavior
                0x000000000009b600       0x29 /home/sunho/bebop_ws/devel/arsdk/out/arsdk-native/build/libARCommands/obj/gen/Sources/ARCOMMANDS_Filter.c.o
                0x000000000009b600                ARCOMMANDS_Filter_SetARDrone3NetworkWifiScanBehavior
 *fill*         0x000000000009b629        0x7 
 .text.ARCOMMANDS_Filter_SetARDrone3NetworkWifiAuthChannelBehavior
                0x000000000009b630       0x29 /home/sunho/bebop_ws/devel/arsdk/out/arsdk-native/build/libARCommands/obj/gen/Sources/ARCOMMANDS_Filter.c.o
                0x000000000009b630                ARCOMMANDS_Filter_SetARDrone3NetworkWifiAuthChannelBehavior
 *fill*         0x000000000009b659        0x7 
 .text.ARCOMMANDS_Filter_SetARDrone3PilotingSettingsMaxAltitudeBehavior
                0x000000000009b660       0x29 /home/sunho/bebop_ws/devel/arsdk/out/arsdk-native/build/libARCommands/obj/gen/Sources/ARCOMMANDS_Filter.c.o
                0x000000000009b660                ARCOMMANDS_Filter_SetARDrone3PilotingSettingsMaxAltitudeBehavior
 *fill*         0x000000000009b689        0x7 
 .text.ARCOMMANDS_Filter_SetARDrone3PilotingSettingsMaxTiltBehavior
                0x000000000009b690       0x29 /home/sunho/bebop_ws/devel/arsdk/out/arsdk-native/build/libARCommands/obj/gen/Sources/ARCOMMANDS_Filter.c.o
                0x000000000009b690                ARCOMMANDS_Filter_SetARDrone3PilotingSettingsMaxTiltBehavior
 *fill*         0x000000000009b6b9        0x7 
 .text.ARCOMMANDS_Filter_SetARDrone3PilotingSettingsAbsolutControlBehavior
                0x000000000009b6c0       0x29 /home/sunho/bebop_ws/devel/arsdk/out/arsdk-native/build/libARCommands/obj/gen/Sources/ARCOMMANDS_Filter.c.o
                0x000000000009b6c0                ARCOMMANDS_Filter_SetARDrone3PilotingSettingsAbsolutControlBehavior
 *fill*         0x000000000009b6e9        0x7 
 .text.ARCOMMANDS_Filter_SetARDrone3PilotingSettingsMaxDistanceBehavior
                0x000000000009b6f0       0x29 /home/sunho/bebop_ws/devel/arsdk/out/arsdk-native/build/libARCommands/obj/gen/Sources/ARCOMMANDS_Filter.c.o
                0x000000000009b6f0                ARCOMMANDS_Filter_SetARDrone3PilotingSettingsMaxDistanceBehavior
 *fill*         0x000000000009b719        0x7 
 .text.ARCOMMANDS_Filter_SetARDrone3PilotingSettingsNoFlyOverMaxDistanceBehavior
                0x000000000009b720       0x29 /home/sunho/bebop_ws/devel/arsdk/out/arsdk-native/build/libARCommands/obj/gen/Sources/ARCOMMANDS_Filter.c.o
                0x000000000009b720                ARCOMMANDS_Filter_SetARDrone3PilotingSettingsNoFlyOverMaxDistanceBehavior
 *fill*         0x000000000009b749        0x7 
 .text.ARCOMMANDS_Filter_SetARDrone3PilotingSettingsSetAutonomousFlightMaxHorizontalSpeedBehavior
                0x000000000009b750       0x29 /home/sunho/bebop_ws/devel/arsdk/out/arsdk-native/build/libARCommands/obj/gen/Sources/ARCOMMANDS_Filter.c.o
                0x000000000009b750                ARCOMMANDS_Filter_SetARDrone3PilotingSettingsSetAutonomousFlightMaxHorizontalSpeedBehavior
 *fill*         0x000000000009b779        0x7 
 .text.ARCOMMANDS_Filter_SetARDrone3PilotingSettingsSetAutonomousFlightMaxVerticalSpeedBehavior
                0x000000000009b780       0x29 /home/sunho/bebop_ws/devel/arsdk/out/arsdk-native/build/libARCommands/obj/gen/Sources/ARCOMMANDS_Filter.c.o
                0x000000000009b780                ARCOMMANDS_Filter_SetARDrone3PilotingSettingsSetAutonomousFlightMaxVerticalSpeedBehavior
 *fill*         0x000000000009b7a9        0x7 
 .text.ARCOMMANDS_Filter_SetARDrone3PilotingSettingsSetAutonomousFlightMaxHorizontalAccelerationBehavior
                0x000000000009b7b0       0x29 /home/sunho/bebop_ws/devel/arsdk/out/arsdk-native/build/libARCommands/obj/gen/Sources/ARCOMMANDS_Filter.c.o
                0x000000000009b7b0                ARCOMMANDS_Filter_SetARDrone3PilotingSettingsSetAutonomousFlightMaxHorizontalAccelerationBehavior
 *fill*         0x000000000009b7d9        0x7 
 .text.ARCOMMANDS_Filter_SetARDrone3PilotingSettingsSetAutonomousFlightMaxVerticalAccelerationBehavior
                0x000000000009b7e0       0x29 /home/sunho/bebop_ws/devel/arsdk/out/arsdk-native/build/libARCommands/obj/gen/Sources/ARCOMMANDS_Filter.c.o
                0x000000000009b7e0                ARCOMMANDS_Filter_SetARDrone3PilotingSettingsSetAutonomousFlightMaxVerticalAccelerationBehavior
 *fill*         0x000000000009b809        0x7 
 .text.ARCOMMANDS_Filter_SetARDrone3PilotingSettingsSetAutonomousFlightMaxRotationSpeedBehavior
                0x000000000009b810       0x29 /home/sunho/bebop_ws/devel/arsdk/out/arsdk-native/build/libARCommands/obj/gen/Sources/ARCOMMANDS_Filter.c.o
                0x000000000009b810                ARCOMMANDS_Filter_SetARDrone3PilotingSettingsSetAutonomousFlightMaxRotationSpeedBehavior
 *fill*         0x000000000009b839        0x7 
 .text.ARCOMMANDS_Filter_SetARDrone3PilotingSettingsBankedTurnBehavior
                0x000000000009b840       0x29 /home/sunho/bebop_ws/devel/arsdk/out/arsdk-native/build/libARCommands/obj/gen/Sources/ARCOMMANDS_Filter.c.o
                0x000000000009b840                ARCOMMANDS_Filter_SetARDrone3PilotingSettingsBankedTurnBehavior
 *fill*         0x000000000009b869        0x7 
 .text.ARCOMMANDS_Filter_SetARDrone3PilotingSettingsMinAltitudeBehavior
                0x000000000009b870       0x29 /home/sunho/bebop_ws/devel/arsdk/out/arsdk-native/build/libARCommands/obj/gen/Sources/ARCOMMANDS_Filter.c.o
                0x000000000009b870                ARCOMMANDS_Filter_SetARDrone3PilotingSettingsMinAltitudeBehavior
 *fill*         0x000000000009b899        0x7 
 .text.ARCOMMANDS_Filter_SetARDrone3PilotingSettingsCirclingDirectionBehavior
                0x000000000009b8a0       0x29 /home/sunho/bebop_ws/devel/arsdk/out/arsdk-native/build/libARCommands/obj/gen/Sources/ARCOMMANDS_Filter.c.o
                0x000000000009b8a0                ARCOMMANDS_Filter_SetARDrone3PilotingSettingsCirclingDirectionBehavior
 *fill*         0x000000000009b8c9        0x7 
 .text.ARCOMMANDS_Filter_SetARDrone3PilotingSettingsCirclingRadiusBehavior
                0x000000000009b8d0       0x2c /home/sunho/bebop_ws/devel/arsdk/out/arsdk-native/build/libARCommands/obj/gen/Sources/ARCOMMANDS_Filter.c.o
                0x000000000009b8d0                ARCOMMANDS_Filter_SetARDrone3PilotingSettingsCirclingRadiusBehavior
 *fill*         0x000000000009b8fc        0x4 
 .text.ARCOMMANDS_Filter_SetARDrone3PilotingSettingsCirclingAltitudeBehavior
                0x000000000009b900       0x2c /home/sunho/bebop_ws/devel/arsdk/out/arsdk-native/build/libARCommands/obj/gen/Sources/ARCOMMANDS_Filter.c.o
                0x000000000009b900                ARCOMMANDS_Filter_SetARDrone3PilotingSettingsCirclingAltitudeBehavior
 *fill*         0x000000000009b92c        0x4 
 .text.ARCOMMANDS_Filter_SetARDrone3PilotingSettingsPitchModeBehavior
                0x000000000009b930       0x2c /home/sunho/bebop_ws/devel/arsdk/out/arsdk-native/build/libARCommands/obj/gen/Sources/ARCOMMANDS_Filter.c.o
                0x000000000009b930                ARCOMMANDS_Filter_SetARDrone3PilotingSettingsPitchModeBehavior
 *fill*         0x000000000009b95c        0x4 
 .text.ARCOMMANDS_Filter_SetARDrone3SpeedSettingsMaxVerticalSpeedBehavior
                0x000000000009b960       0x2c /home/sunho/bebop_ws/devel/arsdk/out/arsdk-native/build/libARCommands/obj/gen/Sources/ARCOMMANDS_Filter.c.o
                0x000000000009b960                ARCOMMANDS_Filter_SetARDrone3SpeedSettingsMaxVerticalSpeedBehavior
 *fill*         0x000000000009b98c        0x4 
 .text.ARCOMMANDS_Filter_SetARDrone3SpeedSettingsMaxRotationSpeedBehavior
                0x000000000009b990       0x2c /home/sunho/bebop_ws/devel/arsdk/out/arsdk-native/build/libARCommands/obj/gen/Sources/ARCOMMANDS_Filter.c.o
                0x000000000009b990                ARCOMMANDS_Filter_SetARDrone3SpeedSettingsMaxRotationSpeedBehavior
 *fill*         0x000000000009b9bc        0x4 
 .text.ARCOMMANDS_Filter_SetARDrone3SpeedSettingsHullProtectionBehavior
                0x000000000009b9c0       0x2c /home/sunho/bebop_ws/devel/arsdk/out/arsdk-native/build/libARCommands/obj/gen/Sources/ARCOMMANDS_Filter.c.o
                0x000000000009b9c0                ARCOMMANDS_Filter_SetARDrone3SpeedSettingsHullProtectionBehavior
 *fill*         0x000000000009b9ec        0x4 
 .text.ARCOMMANDS_Filter_SetARDrone3SpeedSettingsOutdoorBehavior
                0x000000000009b9f0       0x2c /home/sunho/bebop_ws/devel/arsdk/out/arsdk-native/build/libARCommands/obj/gen/Sources/ARCOMMANDS_Filter.c.o
                0x000000000009b9f0                ARCOMMANDS_Filter_SetARDrone3SpeedSettingsOutdoorBehavior
 *fill*         0x000000000009ba1c        0x4 
 .text.ARCOMMANDS_Filter_SetARDrone3SpeedSettingsMaxPitchRollRotationSpeedBehavior
                0x000000000009ba20       0x2c /home/sunho/bebop_ws/devel/arsdk/out/arsdk-native/build/libARCommands/obj/gen/Sources/ARCOMMANDS_Filter.c.o
                0x000000000009ba20                ARCOMMANDS_Filter_SetARDrone3SpeedSettingsMaxPitchRollRotationSpeedBehavior
 *fill*         0x000000000009ba4c        0x4 
 .text.ARCOMMANDS_Filter_SetARDrone3NetworkSettingsWifiSelectionBehavior
                0x000000000009ba50       0x2c /home/sunho/bebop_ws/devel/arsdk/out/arsdk-native/build/libARCommands/obj/gen/Sources/ARCOMMANDS_Filter.c.o
                0x000000000009ba50                ARCOMMANDS_Filter_SetARDrone3NetworkSettingsWifiSelectionBehavior
 *fill*         0x000000000009ba7c        0x4 
 .text.ARCOMMANDS_Filter_SetARDrone3NetworkSettingsWifiSecurityBehavior
                0x000000000009ba80       0x2c /home/sunho/bebop_ws/devel/arsdk/out/arsdk-native/build/libARCommands/obj/gen/Sources/ARCOMMANDS_Filter.c.o
                0x000000000009ba80                ARCOMMANDS_Filter_SetARDrone3NetworkSettingsWifiSecurityBehavior
 *fill*         0x000000000009baac        0x4 
 .text.ARCOMMANDS_Filter_SetARDrone3PictureSettingsPictureFormatSelectionBehavior
                0x000000000009bab0       0x2c /home/sunho/bebop_ws/devel/arsdk/out/arsdk-native/build/libARCommands/obj/gen/Sources/ARCOMMANDS_Filter.c.o
                0x000000000009bab0                ARCOMMANDS_Filter_SetARDrone3PictureSettingsPictureFormatSelectionBehavior
 *fill*         0x000000000009badc        0x4 
 .text.ARCOMMANDS_Filter_SetARDrone3PictureSettingsAutoWhiteBalanceSelectionBehavior
                0x000000000009bae0       0x2c /home/sunho/bebop_ws/devel/arsdk/out/arsdk-native/build/libARCommands/obj/gen/Sources/ARCOMMANDS_Filter.c.o
                0x000000000009bae0                ARCOMMANDS_Filter_SetARDrone3PictureSettingsAutoWhiteBalanceSelectionBehavior
 *fill*         0x000000000009bb0c        0x4 
 .text.ARCOMMANDS_Filter_SetARDrone3PictureSettingsExpositionSelectionBehavior
                0x000000000009bb10       0x2c /home/sunho/bebop_ws/devel/arsdk/out/arsdk-native/build/libARCommands/obj/gen/Sources/ARCOMMANDS_Filter.c.o
                0x000000000009bb10                ARCOMMANDS_Filter_SetARDrone3PictureSettingsExpositionSelectionBehavior
 *fill*         0x000000000009bb3c        0x4 
 .text.ARCOMMANDS_Filter_SetARDrone3PictureSettingsSaturationSelectionBehavior
                0x000000000009bb40       0x2c /home/sunho/bebop_ws/devel/arsdk/out/arsdk-native/build/libARCommands/obj/gen/Sources/ARCOMMANDS_Filter.c.o
                0x000000000009bb40                ARCOMMANDS_Filter_SetARDrone3PictureSettingsSaturationSelectionBehavior
 *fill*         0x000000000009bb6c        0x4 
 .text.ARCOMMANDS_Filter_SetARDrone3PictureSettingsTimelapseSelectionBehavior
                0x000000000009bb70       0x2c /home/sunho/bebop_ws/devel/arsdk/out/arsdk-native/build/libARCommands/obj/gen/Sources/ARCOMMANDS_Filter.c.o
                0x000000000009bb70                ARCOMMANDS_Filter_SetARDrone3PictureSettingsTimelapseSelectionBehavior
 *fill*         0x000000000009bb9c        0x4 
 .text.ARCOMMANDS_Filter_SetARDrone3PictureSettingsVideoAutorecordSelectionBehavior
                0x000000000009bba0       0x2c /home/sunho/bebop_ws/devel/arsdk/out/arsdk-native/build/libARCommands/obj/gen/Sources/ARCOMMANDS_Filter.c.o
                0x000000000009bba0                ARCOMMANDS_Filter_SetARDrone3PictureSettingsVideoAutorecordSelectionBehavior
 *fill*         0x000000000009bbcc        0x4 
 .text.ARCOMMANDS_Filter_SetARDrone3PictureSettingsVideoStabilizationModeBehavior
                0x000000000009bbd0       0x2c /home/sunho/bebop_ws/devel/arsdk/out/arsdk-native/build/libARCommands/obj/gen/Sources/ARCOMMANDS_Filter.c.o
                0x000000000009bbd0                ARCOMMANDS_Filter_SetARDrone3PictureSettingsVideoStabilizationModeBehavior
 *fill*         0x000000000009bbfc        0x4 
 .text.ARCOMMANDS_Filter_SetARDrone3PictureSettingsVideoRecordingModeBehavior
                0x000000000009bc00       0x2c /home/sunho/bebop_ws/devel/arsdk/out/arsdk-native/build/libARCommands/obj/gen/Sources/ARCOMMANDS_Filter.c.o
                0x000000000009bc00                ARCOMMANDS_Filter_SetARDrone3PictureSettingsVideoRecordingModeBehavior
 *fill*         0x000000000009bc2c        0x4 
 .text.ARCOMMANDS_Filter_SetARDrone3PictureSettingsVideoFramerateBehavior
                0x000000000009bc30       0x2c /home/sunho/bebop_ws/devel/arsdk/out/arsdk-native/build/libARCommands/obj/gen/Sources/ARCOMMANDS_Filter.c.o
                0x000000000009bc30                ARCOMMANDS_Filter_SetARDrone3PictureSettingsVideoFramerateBehavior
 *fill*         0x000000000009bc5c        0x4 
 .text.ARCOMMANDS_Filter_SetARDrone3PictureSettingsVideoResolutionsBehavior
                0x000000000009bc60       0x2c /home/sunho/bebop_ws/devel/arsdk/out/arsdk-native/build/libARCommands/obj/gen/Sources/ARCOMMANDS_Filter.c.o
                0x000000000009bc60                ARCOMMANDS_Filter_SetARDrone3PictureSettingsVideoResolutionsBehavior
 *fill*         0x000000000009bc8c        0x4 
 .text.ARCOMMANDS_Filter_SetARDrone3MediaStreamingVideoEnableBehavior
                0x000000000009bc90       0x2c /home/sunho/bebop_ws/devel/arsdk/out/arsdk-native/build/libARCommands/obj/gen/Sources/ARCOMMANDS_Filter.c.o
                0x000000000009bc90                ARCOMMANDS_Filter_SetARDrone3MediaStreamingVideoEnableBehavior
 *fill*         0x000000000009bcbc        0x4 
 .text.ARCOMMANDS_Filter_SetARDrone3MediaStreamingVideoStreamModeBehavior
                0x000000000009bcc0       0x2c /home/sunho/bebop_ws/devel/arsdk/out/arsdk-native/build/libARCommands/obj/gen/Sources/ARCOMMANDS_Filter.c.o
                0x000000000009bcc0                ARCOMMANDS_Filter_SetARDrone3MediaStreamingVideoStreamModeBehavior
 *fill*         0x000000000009bcec        0x4 
 .text.ARCOMMANDS_Filter_SetARDrone3GPSSettingsSetHomeBehavior
                0x000000000009bcf0       0x2c /home/sunho/bebop_ws/devel/arsdk/out/arsdk-native/build/libARCommands/obj/gen/Sources/ARCOMMANDS_Filter.c.o
                0x000000000009bcf0                ARCOMMANDS_Filter_SetARDrone3GPSSettingsSetHomeBehavior
 *fill*         0x000000000009bd1c        0x4 
 .text.ARCOMMANDS_Filter_SetARDrone3GPSSettingsResetHomeBehavior
                0x000000000009bd20       0x2c /home/sunho/bebop_ws/devel/arsdk/out/arsdk-native/build/libARCommands/obj/gen/Sources/ARCOMMANDS_Filter.c.o
                0x000000000009bd20                ARCOMMANDS_Filter_SetARDrone3GPSSettingsResetHomeBehavior
 *fill*         0x000000000009bd4c        0x4 
 .text.ARCOMMANDS_Filter_SetARDrone3GPSSettingsSendControllerGPSBehavior
                0x000000000009bd50       0x2c /home/sunho/bebop_ws/devel/arsdk/out/arsdk-native/build/libARCommands/obj/gen/Sources/ARCOMMANDS_Filter.c.o
                0x000000000009bd50                ARCOMMANDS_Filter_SetARDrone3GPSSettingsSendControllerGPSBehavior
 *fill*         0x000000000009bd7c        0x4 
 .text.ARCOMMANDS_Filter_SetARDrone3GPSSettingsHomeTypeBehavior
                0x000000000009bd80       0x2c /home/sunho/bebop_ws/devel/arsdk/out/arsdk-native/build/libARCommands/obj/gen/Sources/ARCOMMANDS_Filter.c.o
                0x000000000009bd80                ARCOMMANDS_Filter_SetARDrone3GPSSettingsHomeTypeBehavior
 *fill*         0x000000000009bdac        0x4 
 .text.ARCOMMANDS_Filter_SetARDrone3GPSSettingsReturnHomeDelayBehavior
                0x000000000009bdb0       0x2c /home/sunho/bebop_ws/devel/arsdk/out/arsdk-native/build/libARCommands/obj/gen/Sources/ARCOMMANDS_Filter.c.o
                0x000000000009bdb0                ARCOMMANDS_Filter_SetARDrone3GPSSettingsReturnHomeDelayBehavior
 *fill*         0x000000000009bddc        0x4 
 .text.ARCOMMANDS_Filter_SetARDrone3AntiflickeringElectricFrequencyBehavior
                0x000000000009bde0       0x2c /home/sunho/bebop_ws/devel/arsdk/out/arsdk-native/build/libARCommands/obj/gen/Sources/ARCOMMANDS_Filter.c.o
                0x000000000009bde0                ARCOMMANDS_Filter_SetARDrone3AntiflickeringElectricFrequencyBehavior
 *fill*         0x000000000009be0c        0x4 
 .text.ARCOMMANDS_Filter_SetARDrone3AntiflickeringSetModeBehavior
                0x000000000009be10       0x2c /home/sunho/bebop_ws/devel/arsdk/out/arsdk-native/build/libARCommands/obj/gen/Sources/ARCOMMANDS_Filter.c.o
                0x000000000009be10                ARCOMMANDS_Filter_SetARDrone3AntiflickeringSetModeBehavior
 *fill*         0x000000000009be3c        0x4 
 .text.ARCOMMANDS_Filter_SetARDrone3MediaRecordStatePictureStateChangedBehavior
                0x000000000009be40       0x2c /home/sunho/bebop_ws/devel/arsdk/out/arsdk-native/build/libARCommands/obj/gen/Sources/ARCOMMANDS_Filter.c.o
                0x000000000009be40                ARCOMMANDS_Filter_SetARDrone3MediaRecordStatePictureStateChangedBehavior
 *fill*         0x000000000009be6c        0x4 
 .text.ARCOMMANDS_Filter_SetARDrone3MediaRecordStateVideoStateChangedBehavior
                0x000000000009be70       0x2c /home/sunho/bebop_ws/devel/arsdk/out/arsdk-native/build/libARCommands/obj/gen/Sources/ARCOMMANDS_Filter.c.o
                0x000000000009be70                ARCOMMANDS_Filter_SetARDrone3MediaRecordStateVideoStateChangedBehavior
 *fill*         0x000000000009be9c        0x4 
 .text.ARCOMMANDS_Filter_SetARDrone3MediaRecordStatePictureStateChangedV2Behavior
                0x000000000009bea0       0x2c /home/sunho/bebop_ws/devel/arsdk/out/arsdk-native/build/libARCommands/obj/gen/Sources/ARCOMMANDS_Filter.c.o
                0x000000000009bea0                ARCOMMANDS_Filter_SetARDrone3MediaRecordStatePictureStateChangedV2Behavior
 *fill*         0x000000000009becc        0x4 
 .text.ARCOMMANDS_Filter_SetARDrone3MediaRecordStateVideoStateChangedV2Behavior
                0x000000000009bed0       0x2c /home/sunho/bebop_ws/devel/arsdk/out/arsdk-native/build/libARCommands/obj/gen/Sources/ARCOMMANDS_Filter.c.o
                0x000000000009bed0                ARCOMMANDS_Filter_SetARDrone3MediaRecordStateVideoStateChangedV2Behavior
 *fill*         0x000000000009befc        0x4 
 .text.ARCOMMANDS_Filter_SetARDrone3MediaRecordStateVideoResolutionStateBehavior
                0x000000000009bf00       0x2c /home/sunho/bebop_ws/devel/arsdk/out/arsdk-native/build/libARCommands/obj/gen/Sources/ARCOMMANDS_Filter.c.o
                0x000000000009bf00                ARCOMMANDS_Filter_SetARDrone3MediaRecordStateVideoResolutionStateBehavior
 *fill*         0x000000000009bf2c        0x4 
 .text.ARCOMMANDS_Filter_SetARDrone3MediaRecordEventPictureEventChangedBehavior
                0x000000000009bf30       0x2c /home/sunho/bebop_ws/devel/arsdk/out/arsdk-native/build/libARCommands/obj/gen/Sources/ARCOMMANDS_Filter.c.o
                0x000000000009bf30                ARCOMMANDS_Filter_SetARDrone3MediaRecordEventPictureEventChangedBehavior
 *fill*         0x000000000009bf5c        0x4 
 .text.ARCOMMANDS_Filter_SetARDrone3MediaRecordEventVideoEventChangedBehavior
                0x000000000009bf60       0x2c /home/sunho/bebop_ws/devel/arsdk/out/arsdk-native/build/libARCommands/obj/gen/Sources/ARCOMMANDS_Filter.c.o
                0x000000000009bf60                ARCOMMANDS_Filter_SetARDrone3MediaRecordEventVideoEventChangedBehavior
 *fill*         0x000000000009bf8c        0x4 
 .text.ARCOMMANDS_Filter_SetARDrone3PilotingStateFlatTrimChangedBehavior
                0x000000000009bf90       0x2c /home/sunho/bebop_ws/devel/arsdk/out/arsdk-native/build/libARCommands/obj/gen/Sources/ARCOMMANDS_Filter.c.o
                0x000000000009bf90                ARCOMMANDS_Filter_SetARDrone3PilotingStateFlatTrimChangedBehavior
 *fill*         0x000000000009bfbc        0x4 
 .text.ARCOMMANDS_Filter_SetARDrone3PilotingStateFlyingStateChangedBehavior
                0x000000000009bfc0       0x2c /home/sunho/bebop_ws/devel/arsdk/out/arsdk-native/build/libARCommands/obj/gen/Sources/ARCOMMANDS_Filter.c.o
                0x000000000009bfc0                ARCOMMANDS_Filter_SetARDrone3PilotingStateFlyingStateChangedBehavior
 *fill*         0x000000000009bfec        0x4 
 .text.ARCOMMANDS_Filter_SetARDrone3PilotingStateAlertStateChangedBehavior
                0x000000000009bff0       0x2c /home/sunho/bebop_ws/devel/arsdk/out/arsdk-native/build/libARCommands/obj/gen/Sources/ARCOMMANDS_Filter.c.o
                0x000000000009bff0                ARCOMMANDS_Filter_SetARDrone3PilotingStateAlertStateChangedBehavior
 *fill*         0x000000000009c01c        0x4 
 .text.ARCOMMANDS_Filter_SetARDrone3PilotingStateNavigateHomeStateChangedBehavior
                0x000000000009c020       0x2c /home/sunho/bebop_ws/devel/arsdk/out/arsdk-native/build/libARCommands/obj/gen/Sources/ARCOMMANDS_Filter.c.o
                0x000000000009c020                ARCOMMANDS_Filter_SetARDrone3PilotingStateNavigateHomeStateChangedBehavior
 *fill*         0x000000000009c04c        0x4 
 .text.ARCOMMANDS_Filter_SetARDrone3PilotingStatePositionChangedBehavior
                0x000000000009c050       0x2c /home/sunho/bebop_ws/devel/arsdk/out/arsdk-native/build/libARCommands/obj/gen/Sources/ARCOMMANDS_Filter.c.o
                0x000000000009c050                ARCOMMANDS_Filter_SetARDrone3PilotingStatePositionChangedBehavior
 *fill*         0x000000000009c07c        0x4 
 .text.ARCOMMANDS_Filter_SetARDrone3PilotingStateSpeedChangedBehavior
                0x000000000009c080       0x2c /home/sunho/bebop_ws/devel/arsdk/out/arsdk-native/build/libARCommands/obj/gen/Sources/ARCOMMANDS_Filter.c.o
                0x000000000009c080                ARCOMMANDS_Filter_SetARDrone3PilotingStateSpeedChangedBehavior
 *fill*         0x000000000009c0ac        0x4 
 .text.ARCOMMANDS_Filter_SetARDrone3PilotingStateAttitudeChangedBehavior
                0x000000000009c0b0       0x2c /home/sunho/bebop_ws/devel/arsdk/out/arsdk-native/build/libARCommands/obj/gen/Sources/ARCOMMANDS_Filter.c.o
                0x000000000009c0b0                ARCOMMANDS_Filter_SetARDrone3PilotingStateAttitudeChangedBehavior
 *fill*         0x000000000009c0dc        0x4 
 .text.ARCOMMANDS_Filter_SetARDrone3PilotingStateAutoTakeOffModeChangedBehavior
                0x000000000009c0e0       0x2c /home/sunho/bebop_ws/devel/arsdk/out/arsdk-native/build/libARCommands/obj/gen/Sources/ARCOMMANDS_Filter.c.o
                0x000000000009c0e0                ARCOMMANDS_Filter_SetARDrone3PilotingStateAutoTakeOffModeChangedBehavior
 *fill*         0x000000000009c10c        0x4 
 .text.ARCOMMANDS_Filter_SetARDrone3PilotingStateAltitudeChangedBehavior
                0x000000000009c110       0x2c /home/sunho/bebop_ws/devel/arsdk/out/arsdk-native/build/libARCommands/obj/gen/Sources/ARCOMMANDS_Filter.c.o
                0x000000000009c110                ARCOMMANDS_Filter_SetARDrone3PilotingStateAltitudeChangedBehavior
 *fill*         0x000000000009c13c        0x4 
 .text.ARCOMMANDS_Filter_SetARDrone3PilotingStateGpsLocationChangedBehavior
                0x000000000009c140       0x2c /home/sunho/bebop_ws/devel/arsdk/out/arsdk-native/build/libARCommands/obj/gen/Sources/ARCOMMANDS_Filter.c.o
                0x000000000009c140                ARCOMMANDS_Filter_SetARDrone3PilotingStateGpsLocationChangedBehavior
 *fill*         0x000000000009c16c        0x4 
 .text.ARCOMMANDS_Filter_SetARDrone3PilotingStateLandingStateChangedBehavior
                0x000000000009c170       0x2c /home/sunho/bebop_ws/devel/arsdk/out/arsdk-native/build/libARCommands/obj/gen/Sources/ARCOMMANDS_Filter.c.o
                0x000000000009c170                ARCOMMANDS_Filter_SetARDrone3PilotingStateLandingStateChangedBehavior
 *fill*         0x000000000009c19c        0x4 
 .text.ARCOMMANDS_Filter_SetARDrone3PilotingEventMoveByEndBehavior
                0x000000000009c1a0       0x2c /home/sunho/bebop_ws/devel/arsdk/out/arsdk-native/build/libARCommands/obj/gen/Sources/ARCOMMANDS_Filter.c.o
                0x000000000009c1a0                ARCOMMANDS_Filter_SetARDrone3PilotingEventMoveByEndBehavior
 *fill*         0x000000000009c1cc        0x4 
 .text.ARCOMMANDS_Filter_SetARDrone3NetworkStateWifiScanListChangedBehavior
                0x000000000009c1d0       0x2c /home/sunho/bebop_ws/devel/arsdk/out/arsdk-native/build/libARCommands/obj/gen/Sources/ARCOMMANDS_Filter.c.o
                0x000000000009c1d0                ARCOMMANDS_Filter_SetARDrone3NetworkStateWifiScanListChangedBehavior
 *fill*         0x000000000009c1fc        0x4 
 .text.ARCOMMANDS_Filter_SetARDrone3NetworkStateAllWifiScanChangedBehavior
                0x000000000009c200       0x2c /home/sunho/bebop_ws/devel/arsdk/out/arsdk-native/build/libARCommands/obj/gen/Sources/ARCOMMANDS_Filter.c.o
                0x000000000009c200                ARCOMMANDS_Filter_SetARDrone3NetworkStateAllWifiScanChangedBehavior
 *fill*         0x000000000009c22c        0x4 
 .text.ARCOMMANDS_Filter_SetARDrone3NetworkStateWifiAuthChannelListChangedBehavior
                0x000000000009c230       0x2c /home/sunho/bebop_ws/devel/arsdk/out/arsdk-native/build/libARCommands/obj/gen/Sources/ARCOMMANDS_Filter.c.o
                0x000000000009c230                ARCOMMANDS_Filter_SetARDrone3NetworkStateWifiAuthChannelListChangedBehavior
 *fill*         0x000000000009c25c        0x4 
 .text.ARCOMMANDS_Filter_SetARDrone3NetworkStateAllWifiAuthChannelChangedBehavior
                0x000000000009c260       0x2c /home/sunho/bebop_ws/devel/arsdk/out/arsdk-native/build/libARCommands/obj/gen/Sources/ARCOMMANDS_Filter.c.o
                0x000000000009c260                ARCOMMANDS_Filter_SetARDrone3NetworkStateAllWifiAuthChannelChangedBehavior
 *fill*         0x000000000009c28c        0x4 
 .text.ARCOMMANDS_Filter_SetARDrone3PilotingSettingsStateMaxAltitudeChangedBehavior
                0x000000000009c290       0x2c /home/sunho/bebop_ws/devel/arsdk/out/arsdk-native/build/libARCommands/obj/gen/Sources/ARCOMMANDS_Filter.c.o
                0x000000000009c290                ARCOMMANDS_Filter_SetARDrone3PilotingSettingsStateMaxAltitudeChangedBehavior
 *fill*         0x000000000009c2bc        0x4 
 .text.ARCOMMANDS_Filter_SetARDrone3PilotingSettingsStateMaxTiltChangedBehavior
                0x000000000009c2c0       0x2c /home/sunho/bebop_ws/devel/arsdk/out/arsdk-native/build/libARCommands/obj/gen/Sources/ARCOMMANDS_Filter.c.o
                0x000000000009c2c0                ARCOMMANDS_Filter_SetARDrone3PilotingSettingsStateMaxTiltChangedBehavior
 *fill*         0x000000000009c2ec        0x4 
 .text.ARCOMMANDS_Filter_SetARDrone3PilotingSettingsStateAbsolutControlChangedBehavior
                0x000000000009c2f0       0x2c /home/sunho/bebop_ws/devel/arsdk/out/arsdk-native/build/libARCommands/obj/gen/Sources/ARCOMMANDS_Filter.c.o
                0x000000000009c2f0                ARCOMMANDS_Filter_SetARDrone3PilotingSettingsStateAbsolutControlChangedBehavior
 *fill*         0x000000000009c31c        0x4 
 .text.ARCOMMANDS_Filter_SetARDrone3PilotingSettingsStateMaxDistanceChangedBehavior
                0x000000000009c320       0x2c /home/sunho/bebop_ws/devel/arsdk/out/arsdk-native/build/libARCommands/obj/gen/Sources/ARCOMMANDS_Filter.c.o
                0x000000000009c320                ARCOMMANDS_Filter_SetARDrone3PilotingSettingsStateMaxDistanceChangedBehavior
 *fill*         0x000000000009c34c        0x4 
 .text.ARCOMMANDS_Filter_SetARDrone3PilotingSettingsStateNoFlyOverMaxDistanceChangedBehavior
                0x000000000009c350       0x2c /home/sunho/bebop_ws/devel/arsdk/out/arsdk-native/build/libARCommands/obj/gen/Sources/ARCOMMANDS_Filter.c.o
                0x000000000009c350                ARCOMMANDS_Filter_SetARDrone3PilotingSettingsStateNoFlyOverMaxDistanceChangedBehavior
 *fill*         0x000000000009c37c        0x4 
 .text.ARCOMMANDS_Filter_SetARDrone3PilotingSettingsStateAutonomousFlightMaxHorizontalSpeedBehavior
                0x000000000009c380       0x2c /home/sunho/bebop_ws/devel/arsdk/out/arsdk-native/build/libARCommands/obj/gen/Sources/ARCOMMANDS_Filter.c.o
                0x000000000009c380                ARCOMMANDS_Filter_SetARDrone3PilotingSettingsStateAutonomousFlightMaxHorizontalSpeedBehavior
 *fill*         0x000000000009c3ac        0x4 
 .text.ARCOMMANDS_Filter_SetARDrone3PilotingSettingsStateAutonomousFlightMaxVerticalSpeedBehavior
                0x000000000009c3b0       0x2c /home/sunho/bebop_ws/devel/arsdk/out/arsdk-native/build/libARCommands/obj/gen/Sources/ARCOMMANDS_Filter.c.o
                0x000000000009c3b0                ARCOMMANDS_Filter_SetARDrone3PilotingSettingsStateAutonomousFlightMaxVerticalSpeedBehavior
 *fill*         0x000000000009c3dc        0x4 
 .text.ARCOMMANDS_Filter_SetARDrone3PilotingSettingsStateAutonomousFlightMaxHorizontalAccelerationBehavior
                0x000000000009c3e0       0x2c /home/sunho/bebop_ws/devel/arsdk/out/arsdk-native/build/libARCommands/obj/gen/Sources/ARCOMMANDS_Filter.c.o
                0x000000000009c3e0                ARCOMMANDS_Filter_SetARDrone3PilotingSettingsStateAutonomousFlightMaxHorizontalAccelerationBehavior
 *fill*         0x000000000009c40c        0x4 
 .text.ARCOMMANDS_Filter_SetARDrone3PilotingSettingsStateAutonomousFlightMaxVerticalAccelerationBehavior
                0x000000000009c410       0x2c /home/sunho/bebop_ws/devel/arsdk/out/arsdk-native/build/libARCommands/obj/gen/Sources/ARCOMMANDS_Filter.c.o
                0x000000000009c410                ARCOMMANDS_Filter_SetARDrone3PilotingSettingsStateAutonomousFlightMaxVerticalAccelerationBehavior
 *fill*         0x000000000009c43c        0x4 
 .text.ARCOMMANDS_Filter_SetARDrone3PilotingSettingsStateAutonomousFlightMaxRotationSpeedBehavior
                0x000000000009c440       0x2c /home/sunho/bebop_ws/devel/arsdk/out/arsdk-native/build/libARCommands/obj/gen/Sources/ARCOMMANDS_Filter.c.o
                0x000000000009c440                ARCOMMANDS_Filter_SetARDrone3PilotingSettingsStateAutonomousFlightMaxRotationSpeedBehavior
 *fill*         0x000000000009c46c        0x4 
 .text.ARCOMMANDS_Filter_SetARDrone3PilotingSettingsStateBankedTurnChangedBehavior
                0x000000000009c470       0x2c /home/sunho/bebop_ws/devel/arsdk/out/arsdk-native/build/libARCommands/obj/gen/Sources/ARCOMMANDS_Filter.c.o
                0x000000000009c470                ARCOMMANDS_Filter_SetARDrone3PilotingSettingsStateBankedTurnChangedBehavior
 *fill*         0x000000000009c49c        0x4 
 .text.ARCOMMANDS_Filter_SetARDrone3PilotingSettingsStateMinAltitudeChangedBehavior
                0x000000000009c4a0       0x2c /home/sunho/bebop_ws/devel/arsdk/out/arsdk-native/build/libARCommands/obj/gen/Sources/ARCOMMANDS_Filter.c.o
                0x000000000009c4a0                ARCOMMANDS_Filter_SetARDrone3PilotingSettingsStateMinAltitudeChangedBehavior
 *fill*         0x000000000009c4cc        0x4 
 .text.ARCOMMANDS_Filter_SetARDrone3PilotingSettingsStateCirclingDirectionChangedBehavior
                0x000000000009c4d0       0x2c /home/sunho/bebop_ws/devel/arsdk/out/arsdk-native/build/libARCommands/obj/gen/Sources/ARCOMMANDS_Filter.c.o
                0x000000000009c4d0                ARCOMMANDS_Filter_SetARDrone3PilotingSettingsStateCirclingDirectionChangedBehavior
 *fill*         0x000000000009c4fc        0x4 
 .text.ARCOMMANDS_Filter_SetARDrone3PilotingSettingsStateCirclingRadiusChangedBehavior
                0x000000000009c500       0x2c /home/sunho/bebop_ws/devel/arsdk/out/arsdk-native/build/libARCommands/obj/gen/Sources/ARCOMMANDS_Filter.c.o
                0x000000000009c500                ARCOMMANDS_Filter_SetARDrone3PilotingSettingsStateCirclingRadiusChangedBehavior
 *fill*         0x000000000009c52c        0x4 
 .text.ARCOMMANDS_Filter_SetARDrone3PilotingSettingsStateCirclingAltitudeChangedBehavior
                0x000000000009c530       0x2c /home/sunho/bebop_ws/devel/arsdk/out/arsdk-native/build/libARCommands/obj/gen/Sources/ARCOMMANDS_Filter.c.o
                0x000000000009c530                ARCOMMANDS_Filter_SetARDrone3PilotingSettingsStateCirclingAltitudeChangedBehavior
 *fill*         0x000000000009c55c        0x4 
 .text.ARCOMMANDS_Filter_SetARDrone3PilotingSettingsStatePitchModeChangedBehavior
                0x000000000009c560       0x2c /home/sunho/bebop_ws/devel/arsdk/out/arsdk-native/build/libARCommands/obj/gen/Sources/ARCOMMANDS_Filter.c.o
                0x000000000009c560                ARCOMMANDS_Filter_SetARDrone3PilotingSettingsStatePitchModeChangedBehavior
 *fill*         0x000000000009c58c        0x4 
 .text.ARCOMMANDS_Filter_SetARDrone3SpeedSettingsStateMaxVerticalSpeedChangedBehavior
                0x000000000009c590       0x2c /home/sunho/bebop_ws/devel/arsdk/out/arsdk-native/build/libARCommands/obj/gen/Sources/ARCOMMANDS_Filter.c.o
                0x000000000009c590                ARCOMMANDS_Filter_SetARDrone3SpeedSettingsStateMaxVerticalSpeedChangedBehavior
 *fill*         0x000000000009c5bc        0x4 
 .text.ARCOMMANDS_Filter_SetARDrone3SpeedSettingsStateMaxRotationSpeedChangedBehavior
                0x000000000009c5c0       0x2c /home/sunho/bebop_ws/devel/arsdk/out/arsdk-native/build/libARCommands/obj/gen/Sources/ARCOMMANDS_Filter.c.o
                0x000000000009c5c0                ARCOMMANDS_Filter_SetARDrone3SpeedSettingsStateMaxRotationSpeedChangedBehavior
 *fill*         0x000000000009c5ec        0x4 
 .text.ARCOMMANDS_Filter_SetARDrone3SpeedSettingsStateHullProtectionChangedBehavior
                0x000000000009c5f0       0x2c /home/sunho/bebop_ws/devel/arsdk/out/arsdk-native/build/libARCommands/obj/gen/Sources/ARCOMMANDS_Filter.c.o
                0x000000000009c5f0                ARCOMMANDS_Filter_SetARDrone3SpeedSettingsStateHullProtectionChangedBehavior
 *fill*         0x000000000009c61c        0x4 
 .text.ARCOMMANDS_Filter_SetARDrone3SpeedSettingsStateOutdoorChangedBehavior
                0x000000000009c620       0x2c /home/sunho/bebop_ws/devel/arsdk/out/arsdk-native/build/libARCommands/obj/gen/Sources/ARCOMMANDS_Filter.c.o
                0x000000000009c620                ARCOMMANDS_Filter_SetARDrone3SpeedSettingsStateOutdoorChangedBehavior
 *fill*         0x000000000009c64c        0x4 
 .text.ARCOMMANDS_Filter_SetARDrone3SpeedSettingsStateMaxPitchRollRotationSpeedChangedBehavior
                0x000000000009c650       0x2c /home/sunho/bebop_ws/devel/arsdk/out/arsdk-native/build/libARCommands/obj/gen/Sources/ARCOMMANDS_Filter.c.o
                0x000000000009c650                ARCOMMANDS_Filter_SetARDrone3SpeedSettingsStateMaxPitchRollRotationSpeedChangedBehavior
 *fill*         0x000000000009c67c        0x4 
 .text.ARCOMMANDS_Filter_SetARDrone3NetworkSettingsStateWifiSelectionChangedBehavior
                0x000000000009c680       0x2c /home/sunho/bebop_ws/devel/arsdk/out/arsdk-native/build/libARCommands/obj/gen/Sources/ARCOMMANDS_Filter.c.o
                0x000000000009c680                ARCOMMANDS_Filter_SetARDrone3NetworkSettingsStateWifiSelectionChangedBehavior
 *fill*         0x000000000009c6ac        0x4 
 .text.ARCOMMANDS_Filter_SetARDrone3NetworkSettingsStateWifiSecurityChangedBehavior
                0x000000000009c6b0       0x2c /home/sunho/bebop_ws/devel/arsdk/out/arsdk-native/build/libARCommands/obj/gen/Sources/ARCOMMANDS_Filter.c.o
                0x000000000009c6b0                ARCOMMANDS_Filter_SetARDrone3NetworkSettingsStateWifiSecurityChangedBehavior
 *fill*         0x000000000009c6dc        0x4 
 .text.ARCOMMANDS_Filter_SetARDrone3NetworkSettingsStateWifiSecurityBehavior
                0x000000000009c6e0       0x2c /home/sunho/bebop_ws/devel/arsdk/out/arsdk-native/build/libARCommands/obj/gen/Sources/ARCOMMANDS_Filter.c.o
                0x000000000009c6e0                ARCOMMANDS_Filter_SetARDrone3NetworkSettingsStateWifiSecurityBehavior
 *fill*         0x000000000009c70c        0x4 
 .text.ARCOMMANDS_Filter_SetARDrone3SettingsStateProductMotorVersionListChangedBehavior
                0x000000000009c710       0x2c /home/sunho/bebop_ws/devel/arsdk/out/arsdk-native/build/libARCommands/obj/gen/Sources/ARCOMMANDS_Filter.c.o
                0x000000000009c710                ARCOMMANDS_Filter_SetARDrone3SettingsStateProductMotorVersionListChangedBehavior
 *fill*         0x000000000009c73c        0x4 
 .text.ARCOMMANDS_Filter_SetARDrone3SettingsStateProductGPSVersionChangedBehavior
                0x000000000009c740       0x2c /home/sunho/bebop_ws/devel/arsdk/out/arsdk-native/build/libARCommands/obj/gen/Sources/ARCOMMANDS_Filter.c.o
                0x000000000009c740                ARCOMMANDS_Filter_SetARDrone3SettingsStateProductGPSVersionChangedBehavior
 *fill*         0x000000000009c76c        0x4 
 .text.ARCOMMANDS_Filter_SetARDrone3SettingsStateMotorErrorStateChangedBehavior
                0x000000000009c770       0x2c /home/sunho/bebop_ws/devel/arsdk/out/arsdk-native/build/libARCommands/obj/gen/Sources/ARCOMMANDS_Filter.c.o
                0x000000000009c770                ARCOMMANDS_Filter_SetARDrone3SettingsStateMotorErrorStateChangedBehavior
 *fill*         0x000000000009c79c        0x4 
 .text.ARCOMMANDS_Filter_SetARDrone3SettingsStateMotorSoftwareVersionChangedBehavior
                0x000000000009c7a0       0x2c /home/sunho/bebop_ws/devel/arsdk/out/arsdk-native/build/libARCommands/obj/gen/Sources/ARCOMMANDS_Filter.c.o
                0x000000000009c7a0                ARCOMMANDS_Filter_SetARDrone3SettingsStateMotorSoftwareVersionChangedBehavior
 *fill*         0x000000000009c7cc        0x4 
 .text.ARCOMMANDS_Filter_SetARDrone3SettingsStateMotorFlightsStatusChangedBehavior
                0x000000000009c7d0       0x2c /home/sunho/bebop_ws/devel/arsdk/out/arsdk-native/build/libARCommands/obj/gen/Sources/ARCOMMANDS_Filter.c.o
                0x000000000009c7d0                ARCOMMANDS_Filter_SetARDrone3SettingsStateMotorFlightsStatusChangedBehavior
 *fill*         0x000000000009c7fc        0x4 
 .text.ARCOMMANDS_Filter_SetARDrone3SettingsStateMotorErrorLastErrorChangedBehavior
                0x000000000009c800       0x2c /home/sunho/bebop_ws/devel/arsdk/out/arsdk-native/build/libARCommands/obj/gen/Sources/ARCOMMANDS_Filter.c.o
                0x000000000009c800                ARCOMMANDS_Filter_SetARDrone3SettingsStateMotorErrorLastErrorChangedBehavior
 *fill*         0x000000000009c82c        0x4 
 .text.ARCOMMANDS_Filter_SetARDrone3SettingsStateP7IDBehavior
                0x000000000009c830       0x2c /home/sunho/bebop_ws/devel/arsdk/out/arsdk-native/build/libARCommands/obj/gen/Sources/ARCOMMANDS_Filter.c.o
                0x000000000009c830                ARCOMMANDS_Filter_SetARDrone3SettingsStateP7IDBehavior
 *fill*         0x000000000009c85c        0x4 
 .text.ARCOMMANDS_Filter_SetARDrone3SettingsStateCPUIDBehavior
                0x000000000009c860       0x2c /home/sunho/bebop_ws/devel/arsdk/out/arsdk-native/build/libARCommands/obj/gen/Sources/ARCOMMANDS_Filter.c.o
                0x000000000009c860                ARCOMMANDS_Filter_SetARDrone3SettingsStateCPUIDBehavior
 *fill*         0x000000000009c88c        0x4 
 .text.ARCOMMANDS_Filter_SetARDrone3PictureSettingsStatePictureFormatChangedBehavior
                0x000000000009c890       0x2c /home/sunho/bebop_ws/devel/arsdk/out/arsdk-native/build/libARCommands/obj/gen/Sources/ARCOMMANDS_Filter.c.o
                0x000000000009c890                ARCOMMANDS_Filter_SetARDrone3PictureSettingsStatePictureFormatChangedBehavior
 *fill*         0x000000000009c8bc        0x4 
 .text.ARCOMMANDS_Filter_SetARDrone3PictureSettingsStateAutoWhiteBalanceChangedBehavior
                0x000000000009c8c0       0x2c /home/sunho/bebop_ws/devel/arsdk/out/arsdk-native/build/libARCommands/obj/gen/Sources/ARCOMMANDS_Filter.c.o
                0x000000000009c8c0                ARCOMMANDS_Filter_SetARDrone3PictureSettingsStateAutoWhiteBalanceChangedBehavior
 *fill*         0x000000000009c8ec        0x4 
 .text.ARCOMMANDS_Filter_SetARDrone3PictureSettingsStateExpositionChangedBehavior
                0x000000000009c8f0       0x2c /home/sunho/bebop_ws/devel/arsdk/out/arsdk-native/build/libARCommands/obj/gen/Sources/ARCOMMANDS_Filter.c.o
                0x000000000009c8f0                ARCOMMANDS_Filter_SetARDrone3PictureSettingsStateExpositionChangedBehavior
 *fill*         0x000000000009c91c        0x4 
 .text.ARCOMMANDS_Filter_SetARDrone3PictureSettingsStateSaturationChangedBehavior
                0x000000000009c920       0x2c /home/sunho/bebop_ws/devel/arsdk/out/arsdk-native/build/libARCommands/obj/gen/Sources/ARCOMMANDS_Filter.c.o
                0x000000000009c920                ARCOMMANDS_Filter_SetARDrone3PictureSettingsStateSaturationChangedBehavior
 *fill*         0x000000000009c94c        0x4 
 .text.ARCOMMANDS_Filter_SetARDrone3PictureSettingsStateTimelapseChangedBehavior
                0x000000000009c950       0x2c /home/sunho/bebop_ws/devel/arsdk/out/arsdk-native/build/libARCommands/obj/gen/Sources/ARCOMMANDS_Filter.c.o
                0x000000000009c950                ARCOMMANDS_Filter_SetARDrone3PictureSettingsStateTimelapseChangedBehavior
 *fill*         0x000000000009c97c        0x4 
 .text.ARCOMMANDS_Filter_SetARDrone3PictureSettingsStateVideoAutorecordChangedBehavior
                0x000000000009c980       0x2c /home/sunho/bebop_ws/devel/arsdk/out/arsdk-native/build/libARCommands/obj/gen/Sources/ARCOMMANDS_Filter.c.o
                0x000000000009c980                ARCOMMANDS_Filter_SetARDrone3PictureSettingsStateVideoAutorecordChangedBehavior
 *fill*         0x000000000009c9ac        0x4 
 .text.ARCOMMANDS_Filter_SetARDrone3PictureSettingsStateVideoStabilizationModeChangedBehavior
                0x000000000009c9b0       0x2c /home/sunho/bebop_ws/devel/arsdk/out/arsdk-native/build/libARCommands/obj/gen/Sources/ARCOMMANDS_Filter.c.o
                0x000000000009c9b0                ARCOMMANDS_Filter_SetARDrone3PictureSettingsStateVideoStabilizationModeChangedBehavior
 *fill*         0x000000000009c9dc        0x4 
 .text.ARCOMMANDS_Filter_SetARDrone3PictureSettingsStateVideoRecordingModeChangedBehavior
                0x000000000009c9e0       0x2c /home/sunho/bebop_ws/devel/arsdk/out/arsdk-native/build/libARCommands/obj/gen/Sources/ARCOMMANDS_Filter.c.o
                0x000000000009c9e0                ARCOMMANDS_Filter_SetARDrone3PictureSettingsStateVideoRecordingModeChangedBehavior
 *fill*         0x000000000009ca0c        0x4 
 .text.ARCOMMANDS_Filter_SetARDrone3PictureSettingsStateVideoFramerateChangedBehavior
                0x000000000009ca10       0x2c /home/sunho/bebop_ws/devel/arsdk/out/arsdk-native/build/libARCommands/obj/gen/Sources/ARCOMMANDS_Filter.c.o
                0x000000000009ca10                ARCOMMANDS_Filter_SetARDrone3PictureSettingsStateVideoFramerateChangedBehavior
 *fill*         0x000000000009ca3c        0x4 
 .text.ARCOMMANDS_Filter_SetARDrone3PictureSettingsStateVideoResolutionsChangedBehavior
                0x000000000009ca40       0x2c /home/sunho/bebop_ws/devel/arsdk/out/arsdk-native/build/libARCommands/obj/gen/Sources/ARCOMMANDS_Filter.c.o
                0x000000000009ca40                ARCOMMANDS_Filter_SetARDrone3PictureSettingsStateVideoResolutionsChangedBehavior
 *fill*         0x000000000009ca6c        0x4 
 .text.ARCOMMANDS_Filter_SetARDrone3MediaStreamingStateVideoEnableChangedBehavior
                0x000000000009ca70       0x2c /home/sunho/bebop_ws/devel/arsdk/out/arsdk-native/build/libARCommands/obj/gen/Sources/ARCOMMANDS_Filter.c.o
                0x000000000009ca70                ARCOMMANDS_Filter_SetARDrone3MediaStreamingStateVideoEnableChangedBehavior
 *fill*         0x000000000009ca9c        0x4 
 .text.ARCOMMANDS_Filter_SetARDrone3MediaStreamingStateVideoStreamModeChangedBehavior
                0x000000000009caa0       0x2c /home/sunho/bebop_ws/devel/arsdk/out/arsdk-native/build/libARCommands/obj/gen/Sources/ARCOMMANDS_Filter.c.o
                0x000000000009caa0                ARCOMMANDS_Filter_SetARDrone3MediaStreamingStateVideoStreamModeChangedBehavior
 *fill*         0x000000000009cacc        0x4 
 .text.ARCOMMANDS_Filter_SetARDrone3GPSSettingsStateHomeChangedBehavior
                0x000000000009cad0       0x2c /home/sunho/bebop_ws/devel/arsdk/out/arsdk-native/build/libARCommands/obj/gen/Sources/ARCOMMANDS_Filter.c.o
                0x000000000009cad0                ARCOMMANDS_Filter_SetARDrone3GPSSettingsStateHomeChangedBehavior
 *fill*         0x000000000009cafc        0x4 
 .text.ARCOMMANDS_Filter_SetARDrone3GPSSettingsStateResetHomeChangedBehavior
                0x000000000009cb00       0x2c /home/sunho/bebop_ws/devel/arsdk/out/arsdk-native/build/libARCommands/obj/gen/Sources/ARCOMMANDS_Filter.c.o
                0x000000000009cb00                ARCOMMANDS_Filter_SetARDrone3GPSSettingsStateResetHomeChangedBehavior
 *fill*         0x000000000009cb2c        0x4 
 .text.ARCOMMANDS_Filter_SetARDrone3GPSSettingsStateGPSFixStateChangedBehavior
                0x000000000009cb30       0x2c /home/sunho/bebop_ws/devel/arsdk/out/arsdk-native/build/libARCommands/obj/gen/Sources/ARCOMMANDS_Filter.c.o
                0x000000000009cb30                ARCOMMANDS_Filter_SetARDrone3GPSSettingsStateGPSFixStateChangedBehavior
 *fill*         0x000000000009cb5c        0x4 
 .text.ARCOMMANDS_Filter_SetARDrone3GPSSettingsStateGPSUpdateStateChangedBehavior
                0x000000000009cb60       0x2c /home/sunho/bebop_ws/devel/arsdk/out/arsdk-native/build/libARCommands/obj/gen/Sources/ARCOMMANDS_Filter.c.o
                0x000000000009cb60                ARCOMMANDS_Filter_SetARDrone3GPSSettingsStateGPSUpdateStateChangedBehavior
 *fill*         0x000000000009cb8c        0x4 
 .text.ARCOMMANDS_Filter_SetARDrone3GPSSettingsStateHomeTypeChangedBehavior
                0x000000000009cb90       0x2c /home/sunho/bebop_ws/devel/arsdk/out/arsdk-native/build/libARCommands/obj/gen/Sources/ARCOMMANDS_Filter.c.o
                0x000000000009cb90                ARCOMMANDS_Filter_SetARDrone3GPSSettingsStateHomeTypeChangedBehavior
 *fill*         0x000000000009cbbc        0x4 
 .text.ARCOMMANDS_Filter_SetARDrone3GPSSettingsStateReturnHomeDelayChangedBehavior
                0x000000000009cbc0       0x2c /home/sunho/bebop_ws/devel/arsdk/out/arsdk-native/build/libARCommands/obj/gen/Sources/ARCOMMANDS_Filter.c.o
                0x000000000009cbc0                ARCOMMANDS_Filter_SetARDrone3GPSSettingsStateReturnHomeDelayChangedBehavior
 *fill*         0x000000000009cbec        0x4 
 .text.ARCOMMANDS_Filter_SetARDrone3CameraStateOrientationBehavior
                0x000000000009cbf0       0x2c /home/sunho/bebop_ws/devel/arsdk/out/arsdk-native/build/libARCommands/obj/gen/Sources/ARCOMMANDS_Filter.c.o
                0x000000000009cbf0                ARCOMMANDS_Filter_SetARDrone3CameraStateOrientationBehavior
 *fill*         0x000000000009cc1c        0x4 
 .text.ARCOMMANDS_Filter_SetARDrone3CameraStateDefaultCameraOrientationBehavior
                0x000000000009cc20       0x2c /home/sunho/bebop_ws/devel/arsdk/out/arsdk-native/build/libARCommands/obj/gen/Sources/ARCOMMANDS_Filter.c.o
                0x000000000009cc20                ARCOMMANDS_Filter_SetARDrone3CameraStateDefaultCameraOrientationBehavior
 *fill*         0x000000000009cc4c        0x4 
 .text.ARCOMMANDS_Filter_SetARDrone3AntiflickeringStateElectricFrequencyChangedBehavior
                0x000000000009cc50       0x2c /home/sunho/bebop_ws/devel/arsdk/out/arsdk-native/build/libARCommands/obj/gen/Sources/ARCOMMANDS_Filter.c.o
                0x000000000009cc50                ARCOMMANDS_Filter_SetARDrone3AntiflickeringStateElectricFrequencyChangedBehavior
 *fill*         0x000000000009cc7c        0x4 
 .text.ARCOMMANDS_Filter_SetARDrone3AntiflickeringStateModeChangedBehavior
                0x000000000009cc80       0x2c /home/sunho/bebop_ws/devel/arsdk/out/arsdk-native/build/libARCommands/obj/gen/Sources/ARCOMMANDS_Filter.c.o
                0x000000000009cc80                ARCOMMANDS_Filter_SetARDrone3AntiflickeringStateModeChangedBehavior
 *fill*         0x000000000009ccac        0x4 
 .text.ARCOMMANDS_Filter_SetARDrone3GPSStateNumberOfSatelliteChangedBehavior
                0x000000000009ccb0       0x2c /home/sunho/bebop_ws/devel/arsdk/out/arsdk-native/build/libARCommands/obj/gen/Sources/ARCOMMANDS_Filter.c.o
                0x000000000009ccb0                ARCOMMANDS_Filter_SetARDrone3GPSStateNumberOfSatelliteChangedBehavior
 *fill*         0x000000000009ccdc        0x4 
 .text.ARCOMMANDS_Filter_SetARDrone3GPSStateHomeTypeAvailabilityChangedBehavior
                0x000000000009cce0       0x2c /home/sunho/bebop_ws/devel/arsdk/out/arsdk-native/build/libARCommands/obj/gen/Sources/ARCOMMANDS_Filter.c.o
                0x000000000009cce0                ARCOMMANDS_Filter_SetARDrone3GPSStateHomeTypeAvailabilityChangedBehavior
 *fill*         0x000000000009cd0c        0x4 
 .text.ARCOMMANDS_Filter_SetARDrone3GPSStateHomeTypeChosenChangedBehavior
                0x000000000009cd10       0x2c /home/sunho/bebop_ws/devel/arsdk/out/arsdk-native/build/libARCommands/obj/gen/Sources/ARCOMMANDS_Filter.c.o
                0x000000000009cd10                ARCOMMANDS_Filter_SetARDrone3GPSStateHomeTypeChosenChangedBehavior
 *fill*         0x000000000009cd3c        0x4 
 .text.ARCOMMANDS_Filter_SetARDrone3PROStateFeaturesBehavior
                0x000000000009cd40       0x2c /home/sunho/bebop_ws/devel/arsdk/out/arsdk-native/build/libARCommands/obj/gen/Sources/ARCOMMANDS_Filter.c.o
                0x000000000009cd40                ARCOMMANDS_Filter_SetARDrone3PROStateFeaturesBehavior
 *fill*         0x000000000009cd6c        0x4 
 .text.ARCOMMANDS_Filter_SetCommonBehavior
                0x000000000009cd70      0x206 /home/sunho/bebop_ws/devel/arsdk/out/arsdk-native/build/libARCommands/obj/gen/Sources/ARCOMMANDS_Filter.c.o
                0x000000000009cd70                ARCOMMANDS_Filter_SetCommonBehavior
 *fill*         0x000000000009cf76        0xa 
 .text.ARCOMMANDS_Filter_SetCommonNetworkBehavior
                0x000000000009cf80       0x2c /home/sunho/bebop_ws/devel/arsdk/out/arsdk-native/build/libARCommands/obj/gen/Sources/ARCOMMANDS_Filter.c.o
                0x000000000009cf80                ARCOMMANDS_Filter_SetCommonNetworkBehavior
 *fill*         0x000000000009cfac        0x4 
 .text.ARCOMMANDS_Filter_SetCommonNetworkEventBehavior
                0x000000000009cfb0       0x2c /home/sunho/bebop_ws/devel/arsdk/out/arsdk-native/build/libARCommands/obj/gen/Sources/ARCOMMANDS_Filter.c.o
                0x000000000009cfb0                ARCOMMANDS_Filter_SetCommonNetworkEventBehavior
 *fill*         0x000000000009cfdc        0x4 
 .text.ARCOMMANDS_Filter_SetCommonSettingsBehavior
                0x000000000009cfe0       0x44 /home/sunho/bebop_ws/devel/arsdk/out/arsdk-native/build/libARCommands/obj/gen/Sources/ARCOMMANDS_Filter.c.o
                0x000000000009cfe0                ARCOMMANDS_Filter_SetCommonSettingsBehavior
 *fill*         0x000000000009d024        0xc 
 .text.ARCOMMANDS_Filter_SetCommonSettingsStateBehavior
                0x000000000009d030       0x56 /home/sunho/bebop_ws/devel/arsdk/out/arsdk-native/build/libARCommands/obj/gen/Sources/ARCOMMANDS_Filter.c.o
                0x000000000009d030                ARCOMMANDS_Filter_SetCommonSettingsStateBehavior
 *fill*         0x000000000009d086        0xa 
 .text.ARCOMMANDS_Filter_SetCommonCommonBehavior
                0x000000000009d090       0x3e /home/sunho/bebop_ws/devel/arsdk/out/arsdk-native/build/libARCommands/obj/gen/Sources/ARCOMMANDS_Filter.c.o
                0x000000000009d090                ARCOMMANDS_Filter_SetCommonCommonBehavior
 *fill*         0x000000000009d0ce        0x2 
 .text.ARCOMMANDS_Filter_SetCommonCommonStateBehavior
                0x000000000009d0d0       0x7a /home/sunho/bebop_ws/devel/arsdk/out/arsdk-native/build/libARCommands/obj/gen/Sources/ARCOMMANDS_Filter.c.o
                0x000000000009d0d0                ARCOMMANDS_Filter_SetCommonCommonStateBehavior
 *fill*         0x000000000009d14a        0x6 
 .text.ARCOMMANDS_Filter_SetCommonOverHeatBehavior
                0x000000000009d150       0x32 /home/sunho/bebop_ws/devel/arsdk/out/arsdk-native/build/libARCommands/obj/gen/Sources/ARCOMMANDS_Filter.c.o
                0x000000000009d150                ARCOMMANDS_Filter_SetCommonOverHeatBehavior
 *fill*         0x000000000009d182        0xe 
 .text.ARCOMMANDS_Filter_SetCommonOverHeatStateBehavior
                0x000000000009d190       0x32 /home/sunho/bebop_ws/devel/arsdk/out/arsdk-native/build/libARCommands/obj/gen/Sources/ARCOMMANDS_Filter.c.o
                0x000000000009d190                ARCOMMANDS_Filter_SetCommonOverHeatStateBehavior
 *fill*         0x000000000009d1c2        0xe 
 .text.ARCOMMANDS_Filter_SetCommonControllerBehavior
                0x000000000009d1d0       0x2c /home/sunho/bebop_ws/devel/arsdk/out/arsdk-native/build/libARCommands/obj/gen/Sources/ARCOMMANDS_Filter.c.o
                0x000000000009d1d0                ARCOMMANDS_Filter_SetCommonControllerBehavior
 *fill*         0x000000000009d1fc        0x4 
 .text.ARCOMMANDS_Filter_SetCommonWifiSettingsBehavior
                0x000000000009d200       0x2c /home/sunho/bebop_ws/devel/arsdk/out/arsdk-native/build/libARCommands/obj/gen/Sources/ARCOMMANDS_Filter.c.o
                0x000000000009d200                ARCOMMANDS_Filter_SetCommonWifiSettingsBehavior
 *fill*         0x000000000009d22c        0x4 
 .text.ARCOMMANDS_Filter_SetCommonWifiSettingsStateBehavior
                0x000000000009d230       0x2c /home/sunho/bebop_ws/devel/arsdk/out/arsdk-native/build/libARCommands/obj/gen/Sources/ARCOMMANDS_Filter.c.o
                0x000000000009d230                ARCOMMANDS_Filter_SetCommonWifiSettingsStateBehavior
 *fill*         0x000000000009d25c        0x4 
 .text.ARCOMMANDS_Filter_SetCommonMavlinkBehavior
                0x000000000009d260       0x38 /home/sunho/bebop_ws/devel/arsdk/out/arsdk-native/build/libARCommands/obj/gen/Sources/ARCOMMANDS_Filter.c.o
                0x000000000009d260                ARCOMMANDS_Filter_SetCommonMavlinkBehavior
 *fill*         0x000000000009d298        0x8 
 .text.ARCOMMANDS_Filter_SetCommonMavlinkStateBehavior
                0x000000000009d2a0       0x32 /home/sunho/bebop_ws/devel/arsdk/out/arsdk-native/build/libARCommands/obj/gen/Sources/ARCOMMANDS_Filter.c.o
                0x000000000009d2a0                ARCOMMANDS_Filter_SetCommonMavlinkStateBehavior
 *fill*         0x000000000009d2d2        0xe 
 .text.ARCOMMANDS_Filter_SetCommonCalibrationBehavior
                0x000000000009d2e0       0x32 /home/sunho/bebop_ws/devel/arsdk/out/arsdk-native/build/libARCommands/obj/gen/Sources/ARCOMMANDS_Filter.c.o
                0x000000000009d2e0                ARCOMMANDS_Filter_SetCommonCalibrationBehavior
 *fill*         0x000000000009d312        0xe 
 .text.ARCOMMANDS_Filter_SetCommonCalibrationStateBehavior
                0x000000000009d320       0x44 /home/sunho/bebop_ws/devel/arsdk/out/arsdk-native/build/libARCommands/obj/gen/Sources/ARCOMMANDS_Filter.c.o
                0x000000000009d320                ARCOMMANDS_Filter_SetCommonCalibrationStateBehavior
 *fill*         0x000000000009d364        0xc 
 .text.ARCOMMANDS_Filter_SetCommonCameraSettingsStateBehavior
                0x000000000009d370       0x2c /home/sunho/bebop_ws/devel/arsdk/out/arsdk-native/build/libARCommands/obj/gen/Sources/ARCOMMANDS_Filter.c.o
                0x000000000009d370                ARCOMMANDS_Filter_SetCommonCameraSettingsStateBehavior
 *fill*         0x000000000009d39c        0x4 
 .text.ARCOMMANDS_Filter_SetCommonGPSBehavior
                0x000000000009d3a0       0x2c /home/sunho/bebop_ws/devel/arsdk/out/arsdk-native/build/libARCommands/obj/gen/Sources/ARCOMMANDS_Filter.c.o
                0x000000000009d3a0                ARCOMMANDS_Filter_SetCommonGPSBehavior
 *fill*         0x000000000009d3cc        0x4 
 .text.ARCOMMANDS_Filter_SetCommonFlightPlanStateBehavior
                0x000000000009d3d0       0x38 /home/sunho/bebop_ws/devel/arsdk/out/arsdk-native/build/libARCommands/obj/gen/Sources/ARCOMMANDS_Filter.c.o
                0x000000000009d3d0                ARCOMMANDS_Filter_SetCommonFlightPlanStateBehavior
 *fill*         0x000000000009d408        0x8 
 .text.ARCOMMANDS_Filter_SetCommonFlightPlanEventBehavior
                0x000000000009d410       0x32 /home/sunho/bebop_ws/devel/arsdk/out/arsdk-native/build/libARCommands/obj/gen/Sources/ARCOMMANDS_Filter.c.o
                0x000000000009d410                ARCOMMANDS_Filter_SetCommonFlightPlanEventBehavior
 *fill*         0x000000000009d442        0xe 
 .text.ARCOMMANDS_Filter_SetCommonARLibsVersionsStateBehavior
                0x000000000009d450       0x38 /home/sunho/bebop_ws/devel/arsdk/out/arsdk-native/build/libARCommands/obj/gen/Sources/ARCOMMANDS_Filter.c.o
                0x000000000009d450                ARCOMMANDS_Filter_SetCommonARLibsVersionsStateBehavior
 *fill*         0x000000000009d488        0x8 
 .text.ARCOMMANDS_Filter_SetCommonAudioBehavior
                0x000000000009d490       0x2c /home/sunho/bebop_ws/devel/arsdk/out/arsdk-native/build/libARCommands/obj/gen/Sources/ARCOMMANDS_Filter.c.o
                0x000000000009d490                ARCOMMANDS_Filter_SetCommonAudioBehavior
 *fill*         0x000000000009d4bc        0x4 
 .text.ARCOMMANDS_Filter_SetCommonAudioStateBehavior
                0x000000000009d4c0       0x2c /home/sunho/bebop_ws/devel/arsdk/out/arsdk-native/build/libARCommands/obj/gen/Sources/ARCOMMANDS_Filter.c.o
                0x000000000009d4c0                ARCOMMANDS_Filter_SetCommonAudioStateBehavior
 *fill*         0x000000000009d4ec        0x4 
 .text.ARCOMMANDS_Filter_SetCommonHeadlightsBehavior
                0x000000000009d4f0       0x2c /home/sunho/bebop_ws/devel/arsdk/out/arsdk-native/build/libARCommands/obj/gen/Sources/ARCOMMANDS_Filter.c.o
                0x000000000009d4f0                ARCOMMANDS_Filter_SetCommonHeadlightsBehavior
 *fill*         0x000000000009d51c        0x4 
 .text.ARCOMMANDS_Filter_SetCommonHeadlightsStateBehavior
                0x000000000009d520       0x2c /home/sunho/bebop_ws/devel/arsdk/out/arsdk-native/build/libARCommands/obj/gen/Sources/ARCOMMANDS_Filter.c.o
                0x000000000009d520                ARCOMMANDS_Filter_SetCommonHeadlightsStateBehavior
 *fill*         0x000000000009d54c        0x4 
 .text.ARCOMMANDS_Filter_SetCommonAnimationsBehavior
                0x000000000009d550       0x38 /home/sunho/bebop_ws/devel/arsdk/out/arsdk-native/build/libARCommands/obj/gen/Sources/ARCOMMANDS_Filter.c.o
                0x000000000009d550                ARCOMMANDS_Filter_SetCommonAnimationsBehavior
 *fill*         0x000000000009d588        0x8 
 .text.ARCOMMANDS_Filter_SetCommonAnimationsStateBehavior
                0x000000000009d590       0x2c /home/sunho/bebop_ws/devel/arsdk/out/arsdk-native/build/libARCommands/obj/gen/Sources/ARCOMMANDS_Filter.c.o
                0x000000000009d590                ARCOMMANDS_Filter_SetCommonAnimationsStateBehavior
 *fill*         0x000000000009d5bc        0x4 
 .text.ARCOMMANDS_Filter_SetCommonAccessoryBehavior
                0x000000000009d5c0       0x2c /home/sunho/bebop_ws/devel/arsdk/out/arsdk-native/build/libARCommands/obj/gen/Sources/ARCOMMANDS_Filter.c.o
                0x000000000009d5c0                ARCOMMANDS_Filter_SetCommonAccessoryBehavior
 *fill*         0x000000000009d5ec        0x4 
 .text.ARCOMMANDS_Filter_SetCommonAccessoryStateBehavior
                0x000000000009d5f0       0x38 /home/sunho/bebop_ws/devel/arsdk/out/arsdk-native/build/libARCommands/obj/gen/Sources/ARCOMMANDS_Filter.c.o
                0x000000000009d5f0                ARCOMMANDS_Filter_SetCommonAccessoryStateBehavior
 *fill*         0x000000000009d628        0x8 
 .text.ARCOMMANDS_Filter_SetCommonChargerBehavior
                0x000000000009d630       0x2c /home/sunho/bebop_ws/devel/arsdk/out/arsdk-native/build/libARCommands/obj/gen/Sources/ARCOMMANDS_Filter.c.o
                0x000000000009d630                ARCOMMANDS_Filter_SetCommonChargerBehavior
 *fill*         0x000000000009d65c        0x4 
 .text.ARCOMMANDS_Filter_SetCommonChargerStateBehavior
                0x000000000009d660       0x3e /home/sunho/bebop_ws/devel/arsdk/out/arsdk-native/build/libARCommands/obj/gen/Sources/ARCOMMANDS_Filter.c.o
                0x000000000009d660                ARCOMMANDS_Filter_SetCommonChargerStateBehavior
 *fill*         0x000000000009d69e        0x2 
 .text.ARCOMMANDS_Filter_SetCommonRunStateBehavior
                0x000000000009d6a0       0x2c /home/sunho/bebop_ws/devel/arsdk/out/arsdk-native/build/libARCommands/obj/gen/Sources/ARCOMMANDS_Filter.c.o
                0x000000000009d6a0                ARCOMMANDS_Filter_SetCommonRunStateBehavior
 *fill*         0x000000000009d6cc        0x4 
 .text.ARCOMMANDS_Filter_SetCommonNetworkDisconnectBehavior
                0x000000000009d6d0       0x2c /home/sunho/bebop_ws/devel/arsdk/out/arsdk-native/build/libARCommands/obj/gen/Sources/ARCOMMANDS_Filter.c.o
                0x000000000009d6d0                ARCOMMANDS_Filter_SetCommonNetworkDisconnectBehavior
 *fill*         0x000000000009d6fc        0x4 
 .text.ARCOMMANDS_Filter_SetCommonSettingsAllSettingsBehavior
                0x000000000009d700       0x2c /home/sunho/bebop_ws/devel/arsdk/out/arsdk-native/build/libARCommands/obj/gen/Sources/ARCOMMANDS_Filter.c.o
                0x000000000009d700                ARCOMMANDS_Filter_SetCommonSettingsAllSettingsBehavior
 *fill*         0x000000000009d72c        0x4 
 .text.ARCOMMANDS_Filter_SetCommonSettingsResetBehavior
                0x000000000009d730       0x2c /home/sunho/bebop_ws/devel/arsdk/out/arsdk-native/build/libARCommands/obj/gen/Sources/ARCOMMANDS_Filter.c.o
                0x000000000009d730                ARCOMMANDS_Filter_SetCommonSettingsResetBehavior
 *fill*         0x000000000009d75c        0x4 
 .text.ARCOMMANDS_Filter_SetCommonSettingsProductNameBehavior
                0x000000000009d760       0x2c /home/sunho/bebop_ws/devel/arsdk/out/arsdk-native/build/libARCommands/obj/gen/Sources/ARCOMMANDS_Filter.c.o
                0x000000000009d760                ARCOMMANDS_Filter_SetCommonSettingsProductNameBehavior
 *fill*         0x000000000009d78c        0x4 
 .text.ARCOMMANDS_Filter_SetCommonSettingsCountryBehavior
                0x000000000009d790       0x2c /home/sunho/bebop_ws/devel/arsdk/out/arsdk-native/build/libARCommands/obj/gen/Sources/ARCOMMANDS_Filter.c.o
                0x000000000009d790                ARCOMMANDS_Filter_SetCommonSettingsCountryBehavior
 *fill*         0x000000000009d7bc        0x4 
 .text.ARCOMMANDS_Filter_SetCommonSettingsAutoCountryBehavior
                0x000000000009d7c0       0x2c /home/sunho/bebop_ws/devel/arsdk/out/arsdk-native/build/libARCommands/obj/gen/Sources/ARCOMMANDS_Filter.c.o
                0x000000000009d7c0                ARCOMMANDS_Filter_SetCommonSettingsAutoCountryBehavior
 *fill*         0x000000000009d7ec        0x4 
 .text.ARCOMMANDS_Filter_SetCommonCommonAllStatesBehavior
                0x000000000009d7f0       0x2c /home/sunho/bebop_ws/devel/arsdk/out/arsdk-native/build/libARCommands/obj/gen/Sources/ARCOMMANDS_Filter.c.o
                0x000000000009d7f0                ARCOMMANDS_Filter_SetCommonCommonAllStatesBehavior
 *fill*         0x000000000009d81c        0x4 
 .text.ARCOMMANDS_Filter_SetCommonCommonCurrentDateBehavior
                0x000000000009d820       0x2c /home/sunho/bebop_ws/devel/arsdk/out/arsdk-native/build/libARCommands/obj/gen/Sources/ARCOMMANDS_Filter.c.o
                0x000000000009d820                ARCOMMANDS_Filter_SetCommonCommonCurrentDateBehavior
 *fill*         0x000000000009d84c        0x4 
 .text.ARCOMMANDS_Filter_SetCommonCommonCurrentTimeBehavior
                0x000000000009d850       0x2c /home/sunho/bebop_ws/devel/arsdk/out/arsdk-native/build/libARCommands/obj/gen/Sources/ARCOMMANDS_Filter.c.o
                0x000000000009d850                ARCOMMANDS_Filter_SetCommonCommonCurrentTimeBehavior
 *fill*         0x000000000009d87c        0x4 
 .text.ARCOMMANDS_Filter_SetCommonCommonRebootBehavior
                0x000000000009d880       0x2c /home/sunho/bebop_ws/devel/arsdk/out/arsdk-native/build/libARCommands/obj/gen/Sources/ARCOMMANDS_Filter.c.o
                0x000000000009d880                ARCOMMANDS_Filter_SetCommonCommonRebootBehavior
 *fill*         0x000000000009d8ac        0x4 
 .text.ARCOMMANDS_Filter_SetCommonOverHeatSwitchOffBehavior
                0x000000000009d8b0       0x2c /home/sunho/bebop_ws/devel/arsdk/out/arsdk-native/build/libARCommands/obj/gen/Sources/ARCOMMANDS_Filter.c.o
                0x000000000009d8b0                ARCOMMANDS_Filter_SetCommonOverHeatSwitchOffBehavior
 *fill*         0x000000000009d8dc        0x4 
 .text.ARCOMMANDS_Filter_SetCommonOverHeatVentilateBehavior
                0x000000000009d8e0       0x2c /home/sunho/bebop_ws/devel/arsdk/out/arsdk-native/build/libARCommands/obj/gen/Sources/ARCOMMANDS_Filter.c.o
                0x000000000009d8e0                ARCOMMANDS_Filter_SetCommonOverHeatVentilateBehavior
 *fill*         0x000000000009d90c        0x4 
 .text.ARCOMMANDS_Filter_SetCommonControllerIsPilotingBehavior
                0x000000000009d910       0x2c /home/sunho/bebop_ws/devel/arsdk/out/arsdk-native/build/libARCommands/obj/gen/Sources/ARCOMMANDS_Filter.c.o
                0x000000000009d910                ARCOMMANDS_Filter_SetCommonControllerIsPilotingBehavior
 *fill*         0x000000000009d93c        0x4 
 .text.ARCOMMANDS_Filter_SetCommonWifiSettingsOutdoorSettingBehavior
                0x000000000009d940       0x2c /home/sunho/bebop_ws/devel/arsdk/out/arsdk-native/build/libARCommands/obj/gen/Sources/ARCOMMANDS_Filter.c.o
                0x000000000009d940                ARCOMMANDS_Filter_SetCommonWifiSettingsOutdoorSettingBehavior
 *fill*         0x000000000009d96c        0x4 
 .text.ARCOMMANDS_Filter_SetCommonMavlinkStartBehavior
                0x000000000009d970       0x2c /home/sunho/bebop_ws/devel/arsdk/out/arsdk-native/build/libARCommands/obj/gen/Sources/ARCOMMANDS_Filter.c.o
                0x000000000009d970                ARCOMMANDS_Filter_SetCommonMavlinkStartBehavior
 *fill*         0x000000000009d99c        0x4 
 .text.ARCOMMANDS_Filter_SetCommonMavlinkPauseBehavior
                0x000000000009d9a0       0x2c /home/sunho/bebop_ws/devel/arsdk/out/arsdk-native/build/libARCommands/obj/gen/Sources/ARCOMMANDS_Filter.c.o
                0x000000000009d9a0                ARCOMMANDS_Filter_SetCommonMavlinkPauseBehavior
 *fill*         0x000000000009d9cc        0x4 
 .text.ARCOMMANDS_Filter_SetCommonMavlinkStopBehavior
                0x000000000009d9d0       0x2c /home/sunho/bebop_ws/devel/arsdk/out/arsdk-native/build/libARCommands/obj/gen/Sources/ARCOMMANDS_Filter.c.o
                0x000000000009d9d0                ARCOMMANDS_Filter_SetCommonMavlinkStopBehavior
 *fill*         0x000000000009d9fc        0x4 
 .text.ARCOMMANDS_Filter_SetCommonCalibrationMagnetoCalibrationBehavior
                0x000000000009da00       0x2c /home/sunho/bebop_ws/devel/arsdk/out/arsdk-native/build/libARCommands/obj/gen/Sources/ARCOMMANDS_Filter.c.o
                0x000000000009da00                ARCOMMANDS_Filter_SetCommonCalibrationMagnetoCalibrationBehavior
 *fill*         0x000000000009da2c        0x4 
 .text.ARCOMMANDS_Filter_SetCommonCalibrationPitotCalibrationBehavior
                0x000000000009da30       0x2c /home/sunho/bebop_ws/devel/arsdk/out/arsdk-native/build/libARCommands/obj/gen/Sources/ARCOMMANDS_Filter.c.o
                0x000000000009da30                ARCOMMANDS_Filter_SetCommonCalibrationPitotCalibrationBehavior
 *fill*         0x000000000009da5c        0x4 
 .text.ARCOMMANDS_Filter_SetCommonGPSControllerPositionForRunBehavior
                0x000000000009da60       0x2c /home/sunho/bebop_ws/devel/arsdk/out/arsdk-native/build/libARCommands/obj/gen/Sources/ARCOMMANDS_Filter.c.o
                0x000000000009da60                ARCOMMANDS_Filter_SetCommonGPSControllerPositionForRunBehavior
 *fill*         0x000000000009da8c        0x4 
 .text.ARCOMMANDS_Filter_SetCommonAudioControllerReadyForStreamingBehavior
                0x000000000009da90       0x2c /home/sunho/bebop_ws/devel/arsdk/out/arsdk-native/build/libARCommands/obj/gen/Sources/ARCOMMANDS_Filter.c.o
                0x000000000009da90                ARCOMMANDS_Filter_SetCommonAudioControllerReadyForStreamingBehavior
 *fill*         0x000000000009dabc        0x4 
 .text.ARCOMMANDS_Filter_SetCommonHeadlightsIntensityBehavior
                0x000000000009dac0       0x2c /home/sunho/bebop_ws/devel/arsdk/out/arsdk-native/build/libARCommands/obj/gen/Sources/ARCOMMANDS_Filter.c.o
                0x000000000009dac0                ARCOMMANDS_Filter_SetCommonHeadlightsIntensityBehavior
 *fill*         0x000000000009daec        0x4 
 .text.ARCOMMANDS_Filter_SetCommonAnimationsStartAnimationBehavior
                0x000000000009daf0       0x2c /home/sunho/bebop_ws/devel/arsdk/out/arsdk-native/build/libARCommands/obj/gen/Sources/ARCOMMANDS_Filter.c.o
                0x000000000009daf0                ARCOMMANDS_Filter_SetCommonAnimationsStartAnimationBehavior
 *fill*         0x000000000009db1c        0x4 
 .text.ARCOMMANDS_Filter_SetCommonAnimationsStopAnimationBehavior
                0x000000000009db20       0x2c /home/sunho/bebop_ws/devel/arsdk/out/arsdk-native/build/libARCommands/obj/gen/Sources/ARCOMMANDS_Filter.c.o
                0x000000000009db20                ARCOMMANDS_Filter_SetCommonAnimationsStopAnimationBehavior
 *fill*         0x000000000009db4c        0x4 
 .text.ARCOMMANDS_Filter_SetCommonAnimationsStopAllAnimationsBehavior
                0x000000000009db50       0x2c /home/sunho/bebop_ws/devel/arsdk/out/arsdk-native/build/libARCommands/obj/gen/Sources/ARCOMMANDS_Filter.c.o
                0x000000000009db50                ARCOMMANDS_Filter_SetCommonAnimationsStopAllAnimationsBehavior
 *fill*         0x000000000009db7c        0x4 
 .text.ARCOMMANDS_Filter_SetCommonAccessoryConfigBehavior
                0x000000000009db80       0x2c /home/sunho/bebop_ws/devel/arsdk/out/arsdk-native/build/libARCommands/obj/gen/Sources/ARCOMMANDS_Filter.c.o
                0x000000000009db80                ARCOMMANDS_Filter_SetCommonAccessoryConfigBehavior
 *fill*         0x000000000009dbac        0x4 
 .text.ARCOMMANDS_Filter_SetCommonChargerSetMaxChargeRateBehavior
                0x000000000009dbb0       0x2c /home/sunho/bebop_ws/devel/arsdk/out/arsdk-native/build/libARCommands/obj/gen/Sources/ARCOMMANDS_Filter.c.o
                0x000000000009dbb0                ARCOMMANDS_Filter_SetCommonChargerSetMaxChargeRateBehavior
 *fill*         0x000000000009dbdc        0x4 
 .text.ARCOMMANDS_Filter_SetCommonNetworkEventDisconnectionBehavior
                0x000000000009dbe0       0x2c /home/sunho/bebop_ws/devel/arsdk/out/arsdk-native/build/libARCommands/obj/gen/Sources/ARCOMMANDS_Filter.c.o
                0x000000000009dbe0                ARCOMMANDS_Filter_SetCommonNetworkEventDisconnectionBehavior
 *fill*         0x000000000009dc0c        0x4 
 .text.ARCOMMANDS_Filter_SetCommonSettingsStateAllSettingsChangedBehavior
                0x000000000009dc10       0x2c /home/sunho/bebop_ws/devel/arsdk/out/arsdk-native/build/libARCommands/obj/gen/Sources/ARCOMMANDS_Filter.c.o
                0x000000000009dc10                ARCOMMANDS_Filter_SetCommonSettingsStateAllSettingsChangedBehavior
 *fill*         0x000000000009dc3c        0x4 
 .text.ARCOMMANDS_Filter_SetCommonSettingsStateResetChangedBehavior
                0x000000000009dc40       0x2c /home/sunho/bebop_ws/devel/arsdk/out/arsdk-native/build/libARCommands/obj/gen/Sources/ARCOMMANDS_Filter.c.o
                0x000000000009dc40                ARCOMMANDS_Filter_SetCommonSettingsStateResetChangedBehavior
 *fill*         0x000000000009dc6c        0x4 
 .text.ARCOMMANDS_Filter_SetCommonSettingsStateProductNameChangedBehavior
                0x000000000009dc70       0x2c /home/sunho/bebop_ws/devel/arsdk/out/arsdk-native/build/libARCommands/obj/gen/Sources/ARCOMMANDS_Filter.c.o
                0x000000000009dc70                ARCOMMANDS_Filter_SetCommonSettingsStateProductNameChangedBehavior
 *fill*         0x000000000009dc9c        0x4 
 .text.ARCOMMANDS_Filter_SetCommonSettingsStateProductVersionChangedBehavior
                0x000000000009dca0       0x2c /home/sunho/bebop_ws/devel/arsdk/out/arsdk-native/build/libARCommands/obj/gen/Sources/ARCOMMANDS_Filter.c.o
                0x000000000009dca0                ARCOMMANDS_Filter_SetCommonSettingsStateProductVersionChangedBehavior
 *fill*         0x000000000009dccc        0x4 
 .text.ARCOMMANDS_Filter_SetCommonSettingsStateProductSerialHighChangedBehavior
                0x000000000009dcd0       0x2c /home/sunho/bebop_ws/devel/arsdk/out/arsdk-native/build/libARCommands/obj/gen/Sources/ARCOMMANDS_Filter.c.o
                0x000000000009dcd0                ARCOMMANDS_Filter_SetCommonSettingsStateProductSerialHighChangedBehavior
 *fill*         0x000000000009dcfc        0x4 
 .text.ARCOMMANDS_Filter_SetCommonSettingsStateProductSerialLowChangedBehavior
                0x000000000009dd00       0x2c /home/sunho/bebop_ws/devel/arsdk/out/arsdk-native/build/libARCommands/obj/gen/Sources/ARCOMMANDS_Filter.c.o
                0x000000000009dd00                ARCOMMANDS_Filter_SetCommonSettingsStateProductSerialLowChangedBehavior
 *fill*         0x000000000009dd2c        0x4 
 .text.ARCOMMANDS_Filter_SetCommonSettingsStateCountryChangedBehavior
                0x000000000009dd30       0x2c /home/sunho/bebop_ws/devel/arsdk/out/arsdk-native/build/libARCommands/obj/gen/Sources/ARCOMMANDS_Filter.c.o
                0x000000000009dd30                ARCOMMANDS_Filter_SetCommonSettingsStateCountryChangedBehavior
 *fill*         0x000000000009dd5c        0x4 
 .text.ARCOMMANDS_Filter_SetCommonSettingsStateAutoCountryChangedBehavior
                0x000000000009dd60       0x2c /home/sunho/bebop_ws/devel/arsdk/out/arsdk-native/build/libARCommands/obj/gen/Sources/ARCOMMANDS_Filter.c.o
                0x000000000009dd60                ARCOMMANDS_Filter_SetCommonSettingsStateAutoCountryChangedBehavior
 *fill*         0x000000000009dd8c        0x4 
 .text.ARCOMMANDS_Filter_SetCommonCommonStateAllStatesChangedBehavior
                0x000000000009dd90       0x2c /home/sunho/bebop_ws/devel/arsdk/out/arsdk-native/build/libARCommands/obj/gen/Sources/ARCOMMANDS_Filter.c.o
                0x000000000009dd90                ARCOMMANDS_Filter_SetCommonCommonStateAllStatesChangedBehavior
 *fill*         0x000000000009ddbc        0x4 
 .text.ARCOMMANDS_Filter_SetCommonCommonStateBatteryStateChangedBehavior
                0x000000000009ddc0       0x2c /home/sunho/bebop_ws/devel/arsdk/out/arsdk-native/build/libARCommands/obj/gen/Sources/ARCOMMANDS_Filter.c.o
                0x000000000009ddc0                ARCOMMANDS_Filter_SetCommonCommonStateBatteryStateChangedBehavior
 *fill*         0x000000000009ddec        0x4 
 .text.ARCOMMANDS_Filter_SetCommonCommonStateMassStorageStateListChangedBehavior
                0x000000000009ddf0       0x2c /home/sunho/bebop_ws/devel/arsdk/out/arsdk-native/build/libARCommands/obj/gen/Sources/ARCOMMANDS_Filter.c.o
                0x000000000009ddf0                ARCOMMANDS_Filter_SetCommonCommonStateMassStorageStateListChangedBehavior
 *fill*         0x000000000009de1c        0x4 
 .text.ARCOMMANDS_Filter_SetCommonCommonStateMassStorageInfoStateListChangedBehavior
                0x000000000009de20       0x2c /home/sunho/bebop_ws/devel/arsdk/out/arsdk-native/build/libARCommands/obj/gen/Sources/ARCOMMANDS_Filter.c.o
                0x000000000009de20                ARCOMMANDS_Filter_SetCommonCommonStateMassStorageInfoStateListChangedBehavior
 *fill*         0x000000000009de4c        0x4 
 .text.ARCOMMANDS_Filter_SetCommonCommonStateCurrentDateChangedBehavior
                0x000000000009de50       0x2c /home/sunho/bebop_ws/devel/arsdk/out/arsdk-native/build/libARCommands/obj/gen/Sources/ARCOMMANDS_Filter.c.o
                0x000000000009de50                ARCOMMANDS_Filter_SetCommonCommonStateCurrentDateChangedBehavior
 *fill*         0x000000000009de7c        0x4 
 .text.ARCOMMANDS_Filter_SetCommonCommonStateCurrentTimeChangedBehavior
                0x000000000009de80       0x2c /home/sunho/bebop_ws/devel/arsdk/out/arsdk-native/build/libARCommands/obj/gen/Sources/ARCOMMANDS_Filter.c.o
                0x000000000009de80                ARCOMMANDS_Filter_SetCommonCommonStateCurrentTimeChangedBehavior
 *fill*         0x000000000009deac        0x4 
 .text.ARCOMMANDS_Filter_SetCommonCommonStateMassStorageInfoRemainingListChangedBehavior
                0x000000000009deb0       0x2c /home/sunho/bebop_ws/devel/arsdk/out/arsdk-native/build/libARCommands/obj/gen/Sources/ARCOMMANDS_Filter.c.o
                0x000000000009deb0                ARCOMMANDS_Filter_SetCommonCommonStateMassStorageInfoRemainingListChangedBehavior
 *fill*         0x000000000009dedc        0x4 
 .text.ARCOMMANDS_Filter_SetCommonCommonStateWifiSignalChangedBehavior
                0x000000000009dee0       0x2c /home/sunho/bebop_ws/devel/arsdk/out/arsdk-native/build/libARCommands/obj/gen/Sources/ARCOMMANDS_Filter.c.o
                0x000000000009dee0                ARCOMMANDS_Filter_SetCommonCommonStateWifiSignalChangedBehavior
 *fill*         0x000000000009df0c        0x4 
 .text.ARCOMMANDS_Filter_SetCommonCommonStateSensorsStatesListChangedBehavior
                0x000000000009df10       0x2c /home/sunho/bebop_ws/devel/arsdk/out/arsdk-native/build/libARCommands/obj/gen/Sources/ARCOMMANDS_Filter.c.o
                0x000000000009df10                ARCOMMANDS_Filter_SetCommonCommonStateSensorsStatesListChangedBehavior
 *fill*         0x000000000009df3c        0x4 
 .text.ARCOMMANDS_Filter_SetCommonCommonStateProductModelBehavior
                0x000000000009df40       0x2c /home/sunho/bebop_ws/devel/arsdk/out/arsdk-native/build/libARCommands/obj/gen/Sources/ARCOMMANDS_Filter.c.o
                0x000000000009df40                ARCOMMANDS_Filter_SetCommonCommonStateProductModelBehavior
 *fill*         0x000000000009df6c        0x4 
 .text.ARCOMMANDS_Filter_SetCommonCommonStateCountryListKnownBehavior
                0x000000000009df70       0x2c /home/sunho/bebop_ws/devel/arsdk/out/arsdk-native/build/libARCommands/obj/gen/Sources/ARCOMMANDS_Filter.c.o
                0x000000000009df70                ARCOMMANDS_Filter_SetCommonCommonStateCountryListKnownBehavior
 *fill*         0x000000000009df9c        0x4 
 .text.ARCOMMANDS_Filter_SetCommonCommonStateDeprecatedMassStorageContentChangedBehavior
                0x000000000009dfa0       0x2c /home/sunho/bebop_ws/devel/arsdk/out/arsdk-native/build/libARCommands/obj/gen/Sources/ARCOMMANDS_Filter.c.o
                0x000000000009dfa0                ARCOMMANDS_Filter_SetCommonCommonStateDeprecatedMassStorageContentChangedBehavior
 *fill*         0x000000000009dfcc        0x4 
 .text.ARCOMMANDS_Filter_SetCommonCommonStateMassStorageContentBehavior
                0x000000000009dfd0       0x2c /home/sunho/bebop_ws/devel/arsdk/out/arsdk-native/build/libARCommands/obj/gen/Sources/ARCOMMANDS_Filter.c.o
                0x000000000009dfd0                ARCOMMANDS_Filter_SetCommonCommonStateMassStorageContentBehavior
 *fill*         0x000000000009dffc        0x4 
 .text.ARCOMMANDS_Filter_SetCommonCommonStateMassStorageContentForCurrentRunBehavior
                0x000000000009e000       0x2c /home/sunho/bebop_ws/devel/arsdk/out/arsdk-native/build/libARCommands/obj/gen/Sources/ARCOMMANDS_Filter.c.o
                0x000000000009e000                ARCOMMANDS_Filter_SetCommonCommonStateMassStorageContentForCurrentRunBehavior
 *fill*         0x000000000009e02c        0x4 
 .text.ARCOMMANDS_Filter_SetCommonOverHeatStateOverHeatChangedBehavior
                0x000000000009e030       0x2c /home/sunho/bebop_ws/devel/arsdk/out/arsdk-native/build/libARCommands/obj/gen/Sources/ARCOMMANDS_Filter.c.o
                0x000000000009e030                ARCOMMANDS_Filter_SetCommonOverHeatStateOverHeatChangedBehavior
 *fill*         0x000000000009e05c        0x4 
 .text.ARCOMMANDS_Filter_SetCommonOverHeatStateOverHeatRegulationChangedBehavior
                0x000000000009e060       0x2c /home/sunho/bebop_ws/devel/arsdk/out/arsdk-native/build/libARCommands/obj/gen/Sources/ARCOMMANDS_Filter.c.o
                0x000000000009e060                ARCOMMANDS_Filter_SetCommonOverHeatStateOverHeatRegulationChangedBehavior
 *fill*         0x000000000009e08c        0x4 
 .text.ARCOMMANDS_Filter_SetCommonWifiSettingsStateOutdoorSettingsChangedBehavior
                0x000000000009e090       0x2c /home/sunho/bebop_ws/devel/arsdk/out/arsdk-native/build/libARCommands/obj/gen/Sources/ARCOMMANDS_Filter.c.o
                0x000000000009e090                ARCOMMANDS_Filter_SetCommonWifiSettingsStateOutdoorSettingsChangedBehavior
 *fill*         0x000000000009e0bc        0x4 
 .text.ARCOMMANDS_Filter_SetCommonMavlinkStateMavlinkFilePlayingStateChangedBehavior
                0x000000000009e0c0       0x2c /home/sunho/bebop_ws/devel/arsdk/out/arsdk-native/build/libARCommands/obj/gen/Sources/ARCOMMANDS_Filter.c.o
                0x000000000009e0c0                ARCOMMANDS_Filter_SetCommonMavlinkStateMavlinkFilePlayingStateChangedBehavior
 *fill*         0x000000000009e0ec        0x4 
 .text.ARCOMMANDS_Filter_SetCommonMavlinkStateMavlinkPlayErrorStateChangedBehavior
                0x000000000009e0f0       0x2c /home/sunho/bebop_ws/devel/arsdk/out/arsdk-native/build/libARCommands/obj/gen/Sources/ARCOMMANDS_Filter.c.o
                0x000000000009e0f0                ARCOMMANDS_Filter_SetCommonMavlinkStateMavlinkPlayErrorStateChangedBehavior
 *fill*         0x000000000009e11c        0x4 
 .text.ARCOMMANDS_Filter_SetCommonCalibrationStateMagnetoCalibrationStateChangedBehavior
                0x000000000009e120       0x2c /home/sunho/bebop_ws/devel/arsdk/out/arsdk-native/build/libARCommands/obj/gen/Sources/ARCOMMANDS_Filter.c.o
                0x000000000009e120                ARCOMMANDS_Filter_SetCommonCalibrationStateMagnetoCalibrationStateChangedBehavior
 *fill*         0x000000000009e14c        0x4 
 .text.ARCOMMANDS_Filter_SetCommonCalibrationStateMagnetoCalibrationRequiredStateBehavior
                0x000000000009e150       0x2c /home/sunho/bebop_ws/devel/arsdk/out/arsdk-native/build/libARCommands/obj/gen/Sources/ARCOMMANDS_Filter.c.o
                0x000000000009e150                ARCOMMANDS_Filter_SetCommonCalibrationStateMagnetoCalibrationRequiredStateBehavior
 *fill*         0x000000000009e17c        0x4 
 .text.ARCOMMANDS_Filter_SetCommonCalibrationStateMagnetoCalibrationAxisToCalibrateChangedBehavior
                0x000000000009e180       0x2c /home/sunho/bebop_ws/devel/arsdk/out/arsdk-native/build/libARCommands/obj/gen/Sources/ARCOMMANDS_Filter.c.o
                0x000000000009e180                ARCOMMANDS_Filter_SetCommonCalibrationStateMagnetoCalibrationAxisToCalibrateChangedBehavior
 *fill*         0x000000000009e1ac        0x4 
 .text.ARCOMMANDS_Filter_SetCommonCalibrationStateMagnetoCalibrationStartedChangedBehavior
                0x000000000009e1b0       0x2c /home/sunho/bebop_ws/devel/arsdk/out/arsdk-native/build/libARCommands/obj/gen/Sources/ARCOMMANDS_Filter.c.o
                0x000000000009e1b0                ARCOMMANDS_Filter_SetCommonCalibrationStateMagnetoCalibrationStartedChangedBehavior
 *fill*         0x000000000009e1dc        0x4 
 .text.ARCOMMANDS_Filter_SetCommonCalibrationStatePitotCalibrationStateChangedBehavior
                0x000000000009e1e0       0x2c /home/sunho/bebop_ws/devel/arsdk/out/arsdk-native/build/libARCommands/obj/gen/Sources/ARCOMMANDS_Filter.c.o
                0x000000000009e1e0                ARCOMMANDS_Filter_SetCommonCalibrationStatePitotCalibrationStateChangedBehavior
 *fill*         0x000000000009e20c        0x4 
 .text.ARCOMMANDS_Filter_SetCommonCameraSettingsStateCameraSettingsChangedBehavior
                0x000000000009e210       0x2c /home/sunho/bebop_ws/devel/arsdk/out/arsdk-native/build/libARCommands/obj/gen/Sources/ARCOMMANDS_Filter.c.o
                0x000000000009e210                ARCOMMANDS_Filter_SetCommonCameraSettingsStateCameraSettingsChangedBehavior
 *fill*         0x000000000009e23c        0x4 
 .text.ARCOMMANDS_Filter_SetCommonFlightPlanStateAvailabilityStateChangedBehavior
                0x000000000009e240       0x2c /home/sunho/bebop_ws/devel/arsdk/out/arsdk-native/build/libARCommands/obj/gen/Sources/ARCOMMANDS_Filter.c.o
                0x000000000009e240                ARCOMMANDS_Filter_SetCommonFlightPlanStateAvailabilityStateChangedBehavior
 *fill*         0x000000000009e26c        0x4 
 .text.ARCOMMANDS_Filter_SetCommonFlightPlanStateComponentStateListChangedBehavior
                0x000000000009e270       0x2c /home/sunho/bebop_ws/devel/arsdk/out/arsdk-native/build/libARCommands/obj/gen/Sources/ARCOMMANDS_Filter.c.o
                0x000000000009e270                ARCOMMANDS_Filter_SetCommonFlightPlanStateComponentStateListChangedBehavior
 *fill*         0x000000000009e29c        0x4 
 .text.ARCOMMANDS_Filter_SetCommonFlightPlanStateLockStateChangedBehavior
                0x000000000009e2a0       0x2c /home/sunho/bebop_ws/devel/arsdk/out/arsdk-native/build/libARCommands/obj/gen/Sources/ARCOMMANDS_Filter.c.o
                0x000000000009e2a0                ARCOMMANDS_Filter_SetCommonFlightPlanStateLockStateChangedBehavior
 *fill*         0x000000000009e2cc        0x4 
 .text.ARCOMMANDS_Filter_SetCommonFlightPlanEventStartingErrorEventBehavior
                0x000000000009e2d0       0x2c /home/sunho/bebop_ws/devel/arsdk/out/arsdk-native/build/libARCommands/obj/gen/Sources/ARCOMMANDS_Filter.c.o
                0x000000000009e2d0                ARCOMMANDS_Filter_SetCommonFlightPlanEventStartingErrorEventBehavior
 *fill*         0x000000000009e2fc        0x4 
 .text.ARCOMMANDS_Filter_SetCommonFlightPlanEventSpeedBridleEventBehavior
                0x000000000009e300       0x2c /home/sunho/bebop_ws/devel/arsdk/out/arsdk-native/build/libARCommands/obj/gen/Sources/ARCOMMANDS_Filter.c.o
                0x000000000009e300                ARCOMMANDS_Filter_SetCommonFlightPlanEventSpeedBridleEventBehavior
 *fill*         0x000000000009e32c        0x4 
 .text.ARCOMMANDS_Filter_SetCommonARLibsVersionsStateControllerLibARCommandsVersionBehavior
                0x000000000009e330       0x2c /home/sunho/bebop_ws/devel/arsdk/out/arsdk-native/build/libARCommands/obj/gen/Sources/ARCOMMANDS_Filter.c.o
                0x000000000009e330                ARCOMMANDS_Filter_SetCommonARLibsVersionsStateControllerLibARCommandsVersionBehavior
 *fill*         0x000000000009e35c        0x4 
 .text.ARCOMMANDS_Filter_SetCommonARLibsVersionsStateSkyControllerLibARCommandsVersionBehavior
                0x000000000009e360       0x2c /home/sunho/bebop_ws/devel/arsdk/out/arsdk-native/build/libARCommands/obj/gen/Sources/ARCOMMANDS_Filter.c.o
                0x000000000009e360                ARCOMMANDS_Filter_SetCommonARLibsVersionsStateSkyControllerLibARCommandsVersionBehavior
 *fill*         0x000000000009e38c        0x4 
 .text.ARCOMMANDS_Filter_SetCommonARLibsVersionsStateDeviceLibARCommandsVersionBehavior
                0x000000000009e390       0x2c /home/sunho/bebop_ws/devel/arsdk/out/arsdk-native/build/libARCommands/obj/gen/Sources/ARCOMMANDS_Filter.c.o
                0x000000000009e390                ARCOMMANDS_Filter_SetCommonARLibsVersionsStateDeviceLibARCommandsVersionBehavior
 *fill*         0x000000000009e3bc        0x4 
 .text.ARCOMMANDS_Filter_SetCommonAudioStateAudioStreamingRunningBehavior
                0x000000000009e3c0       0x2c /home/sunho/bebop_ws/devel/arsdk/out/arsdk-native/build/libARCommands/obj/gen/Sources/ARCOMMANDS_Filter.c.o
                0x000000000009e3c0                ARCOMMANDS_Filter_SetCommonAudioStateAudioStreamingRunningBehavior
 *fill*         0x000000000009e3ec        0x4 
 .text.ARCOMMANDS_Filter_SetCommonHeadlightsStateIntensityChangedBehavior
                0x000000000009e3f0       0x2c /home/sunho/bebop_ws/devel/arsdk/out/arsdk-native/build/libARCommands/obj/gen/Sources/ARCOMMANDS_Filter.c.o
                0x000000000009e3f0                ARCOMMANDS_Filter_SetCommonHeadlightsStateIntensityChangedBehavior
 *fill*         0x000000000009e41c        0x4 
 .text.ARCOMMANDS_Filter_SetCommonAnimationsStateListBehavior
                0x000000000009e420       0x2c /home/sunho/bebop_ws/devel/arsdk/out/arsdk-native/build/libARCommands/obj/gen/Sources/ARCOMMANDS_Filter.c.o
                0x000000000009e420                ARCOMMANDS_Filter_SetCommonAnimationsStateListBehavior
 *fill*         0x000000000009e44c        0x4 
 .text.ARCOMMANDS_Filter_SetCommonAccessoryStateSupportedAccessoriesListChangedBehavior
                0x000000000009e450       0x2c /home/sunho/bebop_ws/devel/arsdk/out/arsdk-native/build/libARCommands/obj/gen/Sources/ARCOMMANDS_Filter.c.o
                0x000000000009e450                ARCOMMANDS_Filter_SetCommonAccessoryStateSupportedAccessoriesListChangedBehavior
 *fill*         0x000000000009e47c        0x4 
 .text.ARCOMMANDS_Filter_SetCommonAccessoryStateAccessoryConfigChangedBehavior
                0x000000000009e480       0x2c /home/sunho/bebop_ws/devel/arsdk/out/arsdk-native/build/libARCommands/obj/gen/Sources/ARCOMMANDS_Filter.c.o
                0x000000000009e480                ARCOMMANDS_Filter_SetCommonAccessoryStateAccessoryConfigChangedBehavior
 *fill*         0x000000000009e4ac        0x4 
 .text.ARCOMMANDS_Filter_SetCommonAccessoryStateAccessoryConfigModificationEnabledBehavior
                0x000000000009e4b0       0x2c /home/sunho/bebop_ws/devel/arsdk/out/arsdk-native/build/libARCommands/obj/gen/Sources/ARCOMMANDS_Filter.c.o
                0x000000000009e4b0                ARCOMMANDS_Filter_SetCommonAccessoryStateAccessoryConfigModificationEnabledBehavior
 *fill*         0x000000000009e4dc        0x4 
 .text.ARCOMMANDS_Filter_SetCommonChargerStateMaxChargeRateChangedBehavior
                0x000000000009e4e0       0x2c /home/sunho/bebop_ws/devel/arsdk/out/arsdk-native/build/libARCommands/obj/gen/Sources/ARCOMMANDS_Filter.c.o
                0x000000000009e4e0                ARCOMMANDS_Filter_SetCommonChargerStateMaxChargeRateChangedBehavior
 *fill*         0x000000000009e50c        0x4 
 .text.ARCOMMANDS_Filter_SetCommonChargerStateCurrentChargeStateChangedBehavior
                0x000000000009e510       0x2c /home/sunho/bebop_ws/devel/arsdk/out/arsdk-native/build/libARCommands/obj/gen/Sources/ARCOMMANDS_Filter.c.o
                0x000000000009e510                ARCOMMANDS_Filter_SetCommonChargerStateCurrentChargeStateChangedBehavior
 *fill*         0x000000000009e53c        0x4 
 .text.ARCOMMANDS_Filter_SetCommonChargerStateLastChargeRateChangedBehavior
                0x000000000009e540       0x2c /home/sunho/bebop_ws/devel/arsdk/out/arsdk-native/build/libARCommands/obj/gen/Sources/ARCOMMANDS_Filter.c.o
                0x000000000009e540                ARCOMMANDS_Filter_SetCommonChargerStateLastChargeRateChangedBehavior
 *fill*         0x000000000009e56c        0x4 
 .text.ARCOMMANDS_Filter_SetCommonChargerStateChargingInfoBehavior
                0x000000000009e570       0x2c /home/sunho/bebop_ws/devel/arsdk/out/arsdk-native/build/libARCommands/obj/gen/Sources/ARCOMMANDS_Filter.c.o
                0x000000000009e570                ARCOMMANDS_Filter_SetCommonChargerStateChargingInfoBehavior
 *fill*         0x000000000009e59c        0x4 
 .text.ARCOMMANDS_Filter_SetCommonRunStateRunIdChangedBehavior
                0x000000000009e5a0       0x2c /home/sunho/bebop_ws/devel/arsdk/out/arsdk-native/build/libARCommands/obj/gen/Sources/ARCOMMANDS_Filter.c.o
                0x000000000009e5a0                ARCOMMANDS_Filter_SetCommonRunStateRunIdChangedBehavior
 *fill*         0x000000000009e5cc        0x4 
 .text.ARCOMMANDS_Filter_SetControllerInfoBehavior
                0x000000000009e5d0       0x32 /home/sunho/bebop_ws/devel/arsdk/out/arsdk-native/build/libARCommands/obj/gen/Sources/ARCOMMANDS_Filter.c.o
                0x000000000009e5d0                ARCOMMANDS_Filter_SetControllerInfoBehavior
 *fill*         0x000000000009e602        0xe 
 .text.ARCOMMANDS_Filter_SetControllerInfoGpsBehavior
                0x000000000009e610       0x2c /home/sunho/bebop_ws/devel/arsdk/out/arsdk-native/build/libARCommands/obj/gen/Sources/ARCOMMANDS_Filter.c.o
                0x000000000009e610                ARCOMMANDS_Filter_SetControllerInfoGpsBehavior
 *fill*         0x000000000009e63c        0x4 
 .text.ARCOMMANDS_Filter_SetControllerInfoBarometerBehavior
                0x000000000009e640       0x2c /home/sunho/bebop_ws/devel/arsdk/out/arsdk-native/build/libARCommands/obj/gen/Sources/ARCOMMANDS_Filter.c.o
                0x000000000009e640                ARCOMMANDS_Filter_SetControllerInfoBarometerBehavior
 *fill*         0x000000000009e66c        0x4 
 .text.ARCOMMANDS_Filter_SetDebugBehavior
                0x000000000009e670       0x3e /home/sunho/bebop_ws/devel/arsdk/out/arsdk-native/build/libARCommands/obj/gen/Sources/ARCOMMANDS_Filter.c.o
                0x000000000009e670                ARCOMMANDS_Filter_SetDebugBehavior
 *fill*         0x000000000009e6ae        0x2 
 .text.ARCOMMANDS_Filter_SetDebugGetAllSettingsBehavior
                0x000000000009e6b0       0x2c /home/sunho/bebop_ws/devel/arsdk/out/arsdk-native/build/libARCommands/obj/gen/Sources/ARCOMMANDS_Filter.c.o
                0x000000000009e6b0                ARCOMMANDS_Filter_SetDebugGetAllSettingsBehavior
 *fill*         0x000000000009e6dc        0x4 
 .text.ARCOMMANDS_Filter_SetDebugSetSettingBehavior
                0x000000000009e6e0       0x2c /home/sunho/bebop_ws/devel/arsdk/out/arsdk-native/build/libARCommands/obj/gen/Sources/ARCOMMANDS_Filter.c.o
                0x000000000009e6e0                ARCOMMANDS_Filter_SetDebugSetSettingBehavior
 *fill*         0x000000000009e70c        0x4 
 .text.ARCOMMANDS_Filter_SetDebugSettingsInfoBehavior
                0x000000000009e710       0x2c /home/sunho/bebop_ws/devel/arsdk/out/arsdk-native/build/libARCommands/obj/gen/Sources/ARCOMMANDS_Filter.c.o
                0x000000000009e710                ARCOMMANDS_Filter_SetDebugSettingsInfoBehavior
 *fill*         0x000000000009e73c        0x4 
 .text.ARCOMMANDS_Filter_SetDebugSettingsListBehavior
                0x000000000009e740       0x2c /home/sunho/bebop_ws/devel/arsdk/out/arsdk-native/build/libARCommands/obj/gen/Sources/ARCOMMANDS_Filter.c.o
                0x000000000009e740                ARCOMMANDS_Filter_SetDebugSettingsListBehavior
 *fill*         0x000000000009e76c        0x4 
 .text.ARCOMMANDS_Filter_SetDroneManagerBehavior
                0x000000000009e770       0x50 /home/sunho/bebop_ws/devel/arsdk/out/arsdk-native/build/libARCommands/obj/gen/Sources/ARCOMMANDS_Filter.c.o
                0x000000000009e770                ARCOMMANDS_Filter_SetDroneManagerBehavior
 .text.ARCOMMANDS_Filter_SetDroneManagerDiscoverDronesBehavior
                0x000000000009e7c0       0x2c /home/sunho/bebop_ws/devel/arsdk/out/arsdk-native/build/libARCommands/obj/gen/Sources/ARCOMMANDS_Filter.c.o
                0x000000000009e7c0                ARCOMMANDS_Filter_SetDroneManagerDiscoverDronesBehavior
 *fill*         0x000000000009e7ec        0x4 
 .text.ARCOMMANDS_Filter_SetDroneManagerConnectBehavior
                0x000000000009e7f0       0x2c /home/sunho/bebop_ws/devel/arsdk/out/arsdk-native/build/libARCommands/obj/gen/Sources/ARCOMMANDS_Filter.c.o
                0x000000000009e7f0                ARCOMMANDS_Filter_SetDroneManagerConnectBehavior
 *fill*         0x000000000009e81c        0x4 
 .text.ARCOMMANDS_Filter_SetDroneManagerForgetBehavior
                0x000000000009e820       0x2c /home/sunho/bebop_ws/devel/arsdk/out/arsdk-native/build/libARCommands/obj/gen/Sources/ARCOMMANDS_Filter.c.o
                0x000000000009e820                ARCOMMANDS_Filter_SetDroneManagerForgetBehavior
 *fill*         0x000000000009e84c        0x4 
 .text.ARCOMMANDS_Filter_SetDroneManagerDroneListItemBehavior
                0x000000000009e850       0x2c /home/sunho/bebop_ws/devel/arsdk/out/arsdk-native/build/libARCommands/obj/gen/Sources/ARCOMMANDS_Filter.c.o
                0x000000000009e850                ARCOMMANDS_Filter_SetDroneManagerDroneListItemBehavior
 *fill*         0x000000000009e87c        0x4 
 .text.ARCOMMANDS_Filter_SetDroneManagerConnectionStateBehavior
                0x000000000009e880       0x2c /home/sunho/bebop_ws/devel/arsdk/out/arsdk-native/build/libARCommands/obj/gen/Sources/ARCOMMANDS_Filter.c.o
                0x000000000009e880                ARCOMMANDS_Filter_SetDroneManagerConnectionStateBehavior
 *fill*         0x000000000009e8ac        0x4 
 .text.ARCOMMANDS_Filter_SetDroneManagerAuthenticationFailedBehavior
                0x000000000009e8b0       0x2c /home/sunho/bebop_ws/devel/arsdk/out/arsdk-native/build/libARCommands/obj/gen/Sources/ARCOMMANDS_Filter.c.o
                0x000000000009e8b0                ARCOMMANDS_Filter_SetDroneManagerAuthenticationFailedBehavior
 *fill*         0x000000000009e8dc        0x4 
 .text.ARCOMMANDS_Filter_SetDroneManagerConnectionRefusedBehavior
                0x000000000009e8e0       0x2c /home/sunho/bebop_ws/devel/arsdk/out/arsdk-native/build/libARCommands/obj/gen/Sources/ARCOMMANDS_Filter.c.o
                0x000000000009e8e0                ARCOMMANDS_Filter_SetDroneManagerConnectionRefusedBehavior
 *fill*         0x000000000009e90c        0x4 
 .text.ARCOMMANDS_Filter_SetJumpingSumoBehavior
                0x000000000009e910      0x164 /home/sunho/bebop_ws/devel/arsdk/out/arsdk-native/build/libARCommands/obj/gen/Sources/ARCOMMANDS_Filter.c.o
                0x000000000009e910                ARCOMMANDS_Filter_SetJumpingSumoBehavior
 *fill*         0x000000000009ea74        0xc 
 .text.ARCOMMANDS_Filter_SetJumpingSumoPilotingBehavior
                0x000000000009ea80       0x38 /home/sunho/bebop_ws/devel/arsdk/out/arsdk-native/build/libARCommands/obj/gen/Sources/ARCOMMANDS_Filter.c.o
                0x000000000009ea80                ARCOMMANDS_Filter_SetJumpingSumoPilotingBehavior
 *fill*         0x000000000009eab8        0x8 
 .text.ARCOMMANDS_Filter_SetJumpingSumoPilotingStateBehavior
                0x000000000009eac0       0x38 /home/sunho/bebop_ws/devel/arsdk/out/arsdk-native/build/libARCommands/obj/gen/Sources/ARCOMMANDS_Filter.c.o
                0x000000000009eac0                ARCOMMANDS_Filter_SetJumpingSumoPilotingStateBehavior
 *fill*         0x000000000009eaf8        0x8 
 .text.ARCOMMANDS_Filter_SetJumpingSumoAnimationsBehavior
                0x000000000009eb00       0x44 /home/sunho/bebop_ws/devel/arsdk/out/arsdk-native/build/libARCommands/obj/gen/Sources/ARCOMMANDS_Filter.c.o
                0x000000000009eb00                ARCOMMANDS_Filter_SetJumpingSumoAnimationsBehavior
 *fill*         0x000000000009eb44        0xc 
 .text.ARCOMMANDS_Filter_SetJumpingSumoAnimationsStateBehavior
                0x000000000009eb50       0x38 /home/sunho/bebop_ws/devel/arsdk/out/arsdk-native/build/libARCommands/obj/gen/Sources/ARCOMMANDS_Filter.c.o
                0x000000000009eb50                ARCOMMANDS_Filter_SetJumpingSumoAnimationsStateBehavior
 *fill*         0x000000000009eb88        0x8 
 .text.ARCOMMANDS_Filter_SetJumpingSumoSettingsStateBehavior
                0x000000000009eb90       0x2c /home/sunho/bebop_ws/devel/arsdk/out/arsdk-native/build/libARCommands/obj/gen/Sources/ARCOMMANDS_Filter.c.o
                0x000000000009eb90                ARCOMMANDS_Filter_SetJumpingSumoSettingsStateBehavior
 *fill*         0x000000000009ebbc        0x4 
 .text.ARCOMMANDS_Filter_SetJumpingSumoMediaRecordBehavior
                0x000000000009ebc0       0x3e /home/sunho/bebop_ws/devel/arsdk/out/arsdk-native/build/libARCommands/obj/gen/Sources/ARCOMMANDS_Filter.c.o
                0x000000000009ebc0                ARCOMMANDS_Filter_SetJumpingSumoMediaRecordBehavior
 *fill*         0x000000000009ebfe        0x2 
 .text.ARCOMMANDS_Filter_SetJumpingSumoMediaRecordStateBehavior
                0x000000000009ec00       0x3e /home/sunho/bebop_ws/devel/arsdk/out/arsdk-native/build/libARCommands/obj/gen/Sources/ARCOMMANDS_Filter.c.o
                0x000000000009ec00                ARCOMMANDS_Filter_SetJumpingSumoMediaRecordStateBehavior
 *fill*         0x000000000009ec3e        0x2 
 .text.ARCOMMANDS_Filter_SetJumpingSumoMediaRecordEventBehavior
                0x000000000009ec40       0x32 /home/sunho/bebop_ws/devel/arsdk/out/arsdk-native/build/libARCommands/obj/gen/Sources/ARCOMMANDS_Filter.c.o
                0x000000000009ec40                ARCOMMANDS_Filter_SetJumpingSumoMediaRecordEventBehavior
 *fill*         0x000000000009ec72        0xe 
 .text.ARCOMMANDS_Filter_SetJumpingSumoNetworkSettingsBehavior
                0x000000000009ec80       0x2c /home/sunho/bebop_ws/devel/arsdk/out/arsdk-native/build/libARCommands/obj/gen/Sources/ARCOMMANDS_Filter.c.o
                0x000000000009ec80                ARCOMMANDS_Filter_SetJumpingSumoNetworkSettingsBehavior
 *fill*         0x000000000009ecac        0x4 
 .text.ARCOMMANDS_Filter_SetJumpingSumoNetworkSettingsStateBehavior
                0x000000000009ecb0       0x2c /home/sunho/bebop_ws/devel/arsdk/out/arsdk-native/build/libARCommands/obj/gen/Sources/ARCOMMANDS_Filter.c.o
                0x000000000009ecb0                ARCOMMANDS_Filter_SetJumpingSumoNetworkSettingsStateBehavior
 *fill*         0x000000000009ecdc        0x4 
 .text.ARCOMMANDS_Filter_SetJumpingSumoNetworkBehavior
                0x000000000009ece0       0x32 /home/sunho/bebop_ws/devel/arsdk/out/arsdk-native/build/libARCommands/obj/gen/Sources/ARCOMMANDS_Filter.c.o
                0x000000000009ece0                ARCOMMANDS_Filter_SetJumpingSumoNetworkBehavior
 *fill*         0x000000000009ed12        0xe 
 .text.ARCOMMANDS_Filter_SetJumpingSumoNetworkStateBehavior
                0x000000000009ed20       0x44 /home/sunho/bebop_ws/devel/arsdk/out/arsdk-native/build/libARCommands/obj/gen/Sources/ARCOMMANDS_Filter.c.o
                0x000000000009ed20                ARCOMMANDS_Filter_SetJumpingSumoNetworkStateBehavior
 *fill*         0x000000000009ed64        0xc 
 .text.ARCOMMANDS_Filter_SetJumpingSumoAudioSettingsBehavior
                0x000000000009ed70       0x32 /home/sunho/bebop_ws/devel/arsdk/out/arsdk-native/build/libARCommands/obj/gen/Sources/ARCOMMANDS_Filter.c.o
                0x000000000009ed70                ARCOMMANDS_Filter_SetJumpingSumoAudioSettingsBehavior
 *fill*         0x000000000009eda2        0xe 
 .text.ARCOMMANDS_Filter_SetJumpingSumoAudioSettingsStateBehavior
                0x000000000009edb0       0x32 /home/sunho/bebop_ws/devel/arsdk/out/arsdk-native/build/libARCommands/obj/gen/Sources/ARCOMMANDS_Filter.c.o
                0x000000000009edb0                ARCOMMANDS_Filter_SetJumpingSumoAudioSettingsStateBehavior
 *fill*         0x000000000009ede2        0xe 
 .text.ARCOMMANDS_Filter_SetJumpingSumoRoadPlanBehavior
                0x000000000009edf0       0x3e /home/sunho/bebop_ws/devel/arsdk/out/arsdk-native/build/libARCommands/obj/gen/Sources/ARCOMMANDS_Filter.c.o
                0x000000000009edf0                ARCOMMANDS_Filter_SetJumpingSumoRoadPlanBehavior
 *fill*         0x000000000009ee2e        0x2 
 .text.ARCOMMANDS_Filter_SetJumpingSumoRoadPlanStateBehavior
                0x000000000009ee30       0x44 /home/sunho/bebop_ws/devel/arsdk/out/arsdk-native/build/libARCommands/obj/gen/Sources/ARCOMMANDS_Filter.c.o
                0x000000000009ee30                ARCOMMANDS_Filter_SetJumpingSumoRoadPlanStateBehavior
 *fill*         0x000000000009ee74        0xc 
 .text.ARCOMMANDS_Filter_SetJumpingSumoSpeedSettingsBehavior
                0x000000000009ee80       0x2c /home/sunho/bebop_ws/devel/arsdk/out/arsdk-native/build/libARCommands/obj/gen/Sources/ARCOMMANDS_Filter.c.o
                0x000000000009ee80                ARCOMMANDS_Filter_SetJumpingSumoSpeedSettingsBehavior
 *fill*         0x000000000009eeac        0x4 
 .text.ARCOMMANDS_Filter_SetJumpingSumoSpeedSettingsStateBehavior
                0x000000000009eeb0       0x2c /home/sunho/bebop_ws/devel/arsdk/out/arsdk-native/build/libARCommands/obj/gen/Sources/ARCOMMANDS_Filter.c.o
                0x000000000009eeb0                ARCOMMANDS_Filter_SetJumpingSumoSpeedSettingsStateBehavior
 *fill*         0x000000000009eedc        0x4 
 .text.ARCOMMANDS_Filter_SetJumpingSumoMediaStreamingBehavior
                0x000000000009eee0       0x2c /home/sunho/bebop_ws/devel/arsdk/out/arsdk-native/build/libARCommands/obj/gen/Sources/ARCOMMANDS_Filter.c.o
                0x000000000009eee0                ARCOMMANDS_Filter_SetJumpingSumoMediaStreamingBehavior
 *fill*         0x000000000009ef0c        0x4 
 .text.ARCOMMANDS_Filter_SetJumpingSumoMediaStreamingStateBehavior
                0x000000000009ef10       0x2c /home/sunho/bebop_ws/devel/arsdk/out/arsdk-native/build/libARCommands/obj/gen/Sources/ARCOMMANDS_Filter.c.o
                0x000000000009ef10                ARCOMMANDS_Filter_SetJumpingSumoMediaStreamingStateBehavior
 *fill*         0x000000000009ef3c        0x4 
 .text.ARCOMMANDS_Filter_SetJumpingSumoVideoSettingsBehavior
                0x000000000009ef40       0x2c /home/sunho/bebop_ws/devel/arsdk/out/arsdk-native/build/libARCommands/obj/gen/Sources/ARCOMMANDS_Filter.c.o
                0x000000000009ef40                ARCOMMANDS_Filter_SetJumpingSumoVideoSettingsBehavior
 *fill*         0x000000000009ef6c        0x4 
 .text.ARCOMMANDS_Filter_SetJumpingSumoVideoSettingsStateBehavior
                0x000000000009ef70       0x2c /home/sunho/bebop_ws/devel/arsdk/out/arsdk-native/build/libARCommands/obj/gen/Sources/ARCOMMANDS_Filter.c.o
                0x000000000009ef70                ARCOMMANDS_Filter_SetJumpingSumoVideoSettingsStateBehavior
 *fill*         0x000000000009ef9c        0x4 
 .text.ARCOMMANDS_Filter_SetJumpingSumoPilotingPCMDBehavior
                0x000000000009efa0       0x2c /home/sunho/bebop_ws/devel/arsdk/out/arsdk-native/build/libARCommands/obj/gen/Sources/ARCOMMANDS_Filter.c.o
                0x000000000009efa0                ARCOMMANDS_Filter_SetJumpingSumoPilotingPCMDBehavior
 *fill*         0x000000000009efcc        0x4 
 .text.ARCOMMANDS_Filter_SetJumpingSumoPilotingPostureBehavior
                0x000000000009efd0       0x2c /home/sunho/bebop_ws/devel/arsdk/out/arsdk-native/build/libARCommands/obj/gen/Sources/ARCOMMANDS_Filter.c.o
                0x000000000009efd0                ARCOMMANDS_Filter_SetJumpingSumoPilotingPostureBehavior
 *fill*         0x000000000009effc        0x4 
 .text.ARCOMMANDS_Filter_SetJumpingSumoPilotingAddCapOffsetBehavior
                0x000000000009f000       0x2c /home/sunho/bebop_ws/devel/arsdk/out/arsdk-native/build/libARCommands/obj/gen/Sources/ARCOMMANDS_Filter.c.o
                0x000000000009f000                ARCOMMANDS_Filter_SetJumpingSumoPilotingAddCapOffsetBehavior
 *fill*         0x000000000009f02c        0x4 
 .text.ARCOMMANDS_Filter_SetJumpingSumoAnimationsJumpStopBehavior
                0x000000000009f030       0x2c /home/sunho/bebop_ws/devel/arsdk/out/arsdk-native/build/libARCommands/obj/gen/Sources/ARCOMMANDS_Filter.c.o
                0x000000000009f030                ARCOMMANDS_Filter_SetJumpingSumoAnimationsJumpStopBehavior
 *fill*         0x000000000009f05c        0x4 
 .text.ARCOMMANDS_Filter_SetJumpingSumoAnimationsJumpCancelBehavior
                0x000000000009f060       0x2c /home/sunho/bebop_ws/devel/arsdk/out/arsdk-native/build/libARCommands/obj/gen/Sources/ARCOMMANDS_Filter.c.o
                0x000000000009f060                ARCOMMANDS_Filter_SetJumpingSumoAnimationsJumpCancelBehavior
 *fill*         0x000000000009f08c        0x4 
 .text.ARCOMMANDS_Filter_SetJumpingSumoAnimationsJumpLoadBehavior
                0x000000000009f090       0x2c /home/sunho/bebop_ws/devel/arsdk/out/arsdk-native/build/libARCommands/obj/gen/Sources/ARCOMMANDS_Filter.c.o
                0x000000000009f090                ARCOMMANDS_Filter_SetJumpingSumoAnimationsJumpLoadBehavior
 *fill*         0x000000000009f0bc        0x4 
 .text.ARCOMMANDS_Filter_SetJumpingSumoAnimationsJumpBehavior
                0x000000000009f0c0       0x2c /home/sunho/bebop_ws/devel/arsdk/out/arsdk-native/build/libARCommands/obj/gen/Sources/ARCOMMANDS_Filter.c.o
                0x000000000009f0c0                ARCOMMANDS_Filter_SetJumpingSumoAnimationsJumpBehavior
 *fill*         0x000000000009f0ec        0x4 
 .text.ARCOMMANDS_Filter_SetJumpingSumoAnimationsSimpleAnimationBehavior
                0x000000000009f0f0       0x2c /home/sunho/bebop_ws/devel/arsdk/out/arsdk-native/build/libARCommands/obj/gen/Sources/ARCOMMANDS_Filter.c.o
                0x000000000009f0f0                ARCOMMANDS_Filter_SetJumpingSumoAnimationsSimpleAnimationBehavior
 *fill*         0x000000000009f11c        0x4 
 .text.ARCOMMANDS_Filter_SetJumpingSumoMediaRecordPictureBehavior
                0x000000000009f120       0x2c /home/sunho/bebop_ws/devel/arsdk/out/arsdk-native/build/libARCommands/obj/gen/Sources/ARCOMMANDS_Filter.c.o
                0x000000000009f120                ARCOMMANDS_Filter_SetJumpingSumoMediaRecordPictureBehavior
 *fill*         0x000000000009f14c        0x4 
 .text.ARCOMMANDS_Filter_SetJumpingSumoMediaRecordVideoBehavior
                0x000000000009f150       0x2c /home/sunho/bebop_ws/devel/arsdk/out/arsdk-native/build/libARCommands/obj/gen/Sources/ARCOMMANDS_Filter.c.o
                0x000000000009f150                ARCOMMANDS_Filter_SetJumpingSumoMediaRecordVideoBehavior
 *fill*         0x000000000009f17c        0x4 
 .text.ARCOMMANDS_Filter_SetJumpingSumoMediaRecordPictureV2Behavior
                0x000000000009f180       0x2c /home/sunho/bebop_ws/devel/arsdk/out/arsdk-native/build/libARCommands/obj/gen/Sources/ARCOMMANDS_Filter.c.o
                0x000000000009f180                ARCOMMANDS_Filter_SetJumpingSumoMediaRecordPictureV2Behavior
 *fill*         0x000000000009f1ac        0x4 
 .text.ARCOMMANDS_Filter_SetJumpingSumoMediaRecordVideoV2Behavior
                0x000000000009f1b0       0x2c /home/sunho/bebop_ws/devel/arsdk/out/arsdk-native/build/libARCommands/obj/gen/Sources/ARCOMMANDS_Filter.c.o
                0x000000000009f1b0                ARCOMMANDS_Filter_SetJumpingSumoMediaRecordVideoV2Behavior
 *fill*         0x000000000009f1dc        0x4 
 .text.ARCOMMANDS_Filter_SetJumpingSumoNetworkSettingsWifiSelectionBehavior
                0x000000000009f1e0       0x2c /home/sunho/bebop_ws/devel/arsdk/out/arsdk-native/build/libARCommands/obj/gen/Sources/ARCOMMANDS_Filter.c.o
                0x000000000009f1e0                ARCOMMANDS_Filter_SetJumpingSumoNetworkSettingsWifiSelectionBehavior
 *fill*         0x000000000009f20c        0x4 
 .text.ARCOMMANDS_Filter_SetJumpingSumoNetworkWifiScanBehavior
                0x000000000009f210       0x2c /home/sunho/bebop_ws/devel/arsdk/out/arsdk-native/build/libARCommands/obj/gen/Sources/ARCOMMANDS_Filter.c.o
                0x000000000009f210                ARCOMMANDS_Filter_SetJumpingSumoNetworkWifiScanBehavior
 *fill*         0x000000000009f23c        0x4 
 .text.ARCOMMANDS_Filter_SetJumpingSumoNetworkWifiAuthChannelBehavior
                0x000000000009f240       0x2c /home/sunho/bebop_ws/devel/arsdk/out/arsdk-native/build/libARCommands/obj/gen/Sources/ARCOMMANDS_Filter.c.o
                0x000000000009f240                ARCOMMANDS_Filter_SetJumpingSumoNetworkWifiAuthChannelBehavior
 *fill*         0x000000000009f26c        0x4 
 .text.ARCOMMANDS_Filter_SetJumpingSumoAudioSettingsMasterVolumeBehavior
                0x000000000009f270       0x2c /home/sunho/bebop_ws/devel/arsdk/out/arsdk-native/build/libARCommands/obj/gen/Sources/ARCOMMANDS_Filter.c.o
                0x000000000009f270                ARCOMMANDS_Filter_SetJumpingSumoAudioSettingsMasterVolumeBehavior
 *fill*         0x000000000009f29c        0x4 
 .text.ARCOMMANDS_Filter_SetJumpingSumoAudioSettingsThemeBehavior
                0x000000000009f2a0       0x2c /home/sunho/bebop_ws/devel/arsdk/out/arsdk-native/build/libARCommands/obj/gen/Sources/ARCOMMANDS_Filter.c.o
                0x000000000009f2a0                ARCOMMANDS_Filter_SetJumpingSumoAudioSettingsThemeBehavior
 *fill*         0x000000000009f2cc        0x4 
 .text.ARCOMMANDS_Filter_SetJumpingSumoRoadPlanAllScriptsMetadataBehavior
                0x000000000009f2d0       0x2c /home/sunho/bebop_ws/devel/arsdk/out/arsdk-native/build/libARCommands/obj/gen/Sources/ARCOMMANDS_Filter.c.o
                0x000000000009f2d0                ARCOMMANDS_Filter_SetJumpingSumoRoadPlanAllScriptsMetadataBehavior
 *fill*         0x000000000009f2fc        0x4 
 .text.ARCOMMANDS_Filter_SetJumpingSumoRoadPlanScriptUploadedBehavior
                0x000000000009f300       0x2c /home/sunho/bebop_ws/devel/arsdk/out/arsdk-native/build/libARCommands/obj/gen/Sources/ARCOMMANDS_Filter.c.o
                0x000000000009f300                ARCOMMANDS_Filter_SetJumpingSumoRoadPlanScriptUploadedBehavior
 *fill*         0x000000000009f32c        0x4 
 .text.ARCOMMANDS_Filter_SetJumpingSumoRoadPlanScriptDeleteBehavior
                0x000000000009f330       0x2c /home/sunho/bebop_ws/devel/arsdk/out/arsdk-native/build/libARCommands/obj/gen/Sources/ARCOMMANDS_Filter.c.o
                0x000000000009f330                ARCOMMANDS_Filter_SetJumpingSumoRoadPlanScriptDeleteBehavior
 *fill*         0x000000000009f35c        0x4 
 .text.ARCOMMANDS_Filter_SetJumpingSumoRoadPlanPlayScriptBehavior
                0x000000000009f360       0x2c /home/sunho/bebop_ws/devel/arsdk/out/arsdk-native/build/libARCommands/obj/gen/Sources/ARCOMMANDS_Filter.c.o
                0x000000000009f360                ARCOMMANDS_Filter_SetJumpingSumoRoadPlanPlayScriptBehavior
 *fill*         0x000000000009f38c        0x4 
 .text.ARCOMMANDS_Filter_SetJumpingSumoSpeedSettingsOutdoorBehavior
                0x000000000009f390       0x2c /home/sunho/bebop_ws/devel/arsdk/out/arsdk-native/build/libARCommands/obj/gen/Sources/ARCOMMANDS_Filter.c.o
                0x000000000009f390                ARCOMMANDS_Filter_SetJumpingSumoSpeedSettingsOutdoorBehavior
 *fill*         0x000000000009f3bc        0x4 
 .text.ARCOMMANDS_Filter_SetJumpingSumoMediaStreamingVideoEnableBehavior
                0x000000000009f3c0       0x2c /home/sunho/bebop_ws/devel/arsdk/out/arsdk-native/build/libARCommands/obj/gen/Sources/ARCOMMANDS_Filter.c.o
                0x000000000009f3c0                ARCOMMANDS_Filter_SetJumpingSumoMediaStreamingVideoEnableBehavior
 *fill*         0x000000000009f3ec        0x4 
 .text.ARCOMMANDS_Filter_SetJumpingSumoVideoSettingsAutorecordBehavior
                0x000000000009f3f0       0x2c /home/sunho/bebop_ws/devel/arsdk/out/arsdk-native/build/libARCommands/obj/gen/Sources/ARCOMMANDS_Filter.c.o
                0x000000000009f3f0                ARCOMMANDS_Filter_SetJumpingSumoVideoSettingsAutorecordBehavior
 *fill*         0x000000000009f41c        0x4 
 .text.ARCOMMANDS_Filter_SetJumpingSumoPilotingStatePostureChangedBehavior
                0x000000000009f420       0x2c /home/sunho/bebop_ws/devel/arsdk/out/arsdk-native/build/libARCommands/obj/gen/Sources/ARCOMMANDS_Filter.c.o
                0x000000000009f420                ARCOMMANDS_Filter_SetJumpingSumoPilotingStatePostureChangedBehavior
 *fill*         0x000000000009f44c        0x4 
 .text.ARCOMMANDS_Filter_SetJumpingSumoPilotingStateAlertStateChangedBehavior
                0x000000000009f450       0x2c /home/sunho/bebop_ws/devel/arsdk/out/arsdk-native/build/libARCommands/obj/gen/Sources/ARCOMMANDS_Filter.c.o
                0x000000000009f450                ARCOMMANDS_Filter_SetJumpingSumoPilotingStateAlertStateChangedBehavior
 *fill*         0x000000000009f47c        0x4 
 .text.ARCOMMANDS_Filter_SetJumpingSumoPilotingStateSpeedChangedBehavior
                0x000000000009f480       0x2c /home/sunho/bebop_ws/devel/arsdk/out/arsdk-native/build/libARCommands/obj/gen/Sources/ARCOMMANDS_Filter.c.o
                0x000000000009f480                ARCOMMANDS_Filter_SetJumpingSumoPilotingStateSpeedChangedBehavior
 *fill*         0x000000000009f4ac        0x4 
 .text.ARCOMMANDS_Filter_SetJumpingSumoAnimationsStateJumpLoadChangedBehavior
                0x000000000009f4b0       0x2c /home/sunho/bebop_ws/devel/arsdk/out/arsdk-native/build/libARCommands/obj/gen/Sources/ARCOMMANDS_Filter.c.o
                0x000000000009f4b0                ARCOMMANDS_Filter_SetJumpingSumoAnimationsStateJumpLoadChangedBehavior
 *fill*         0x000000000009f4dc        0x4 
 .text.ARCOMMANDS_Filter_SetJumpingSumoAnimationsStateJumpTypeChangedBehavior
                0x000000000009f4e0       0x2c /home/sunho/bebop_ws/devel/arsdk/out/arsdk-native/build/libARCommands/obj/gen/Sources/ARCOMMANDS_Filter.c.o
                0x000000000009f4e0                ARCOMMANDS_Filter_SetJumpingSumoAnimationsStateJumpTypeChangedBehavior
 *fill*         0x000000000009f50c        0x4 
 .text.ARCOMMANDS_Filter_SetJumpingSumoAnimationsStateJumpMotorProblemChangedBehavior
                0x000000000009f510       0x2c /home/sunho/bebop_ws/devel/arsdk/out/arsdk-native/build/libARCommands/obj/gen/Sources/ARCOMMANDS_Filter.c.o
                0x000000000009f510                ARCOMMANDS_Filter_SetJumpingSumoAnimationsStateJumpMotorProblemChangedBehavior
 *fill*         0x000000000009f53c        0x4 
 .text.ARCOMMANDS_Filter_SetJumpingSumoSettingsStateProductGPSVersionChangedBehavior
                0x000000000009f540       0x2c /home/sunho/bebop_ws/devel/arsdk/out/arsdk-native/build/libARCommands/obj/gen/Sources/ARCOMMANDS_Filter.c.o
                0x000000000009f540                ARCOMMANDS_Filter_SetJumpingSumoSettingsStateProductGPSVersionChangedBehavior
 *fill*         0x000000000009f56c        0x4 
 .text.ARCOMMANDS_Filter_SetJumpingSumoMediaRecordStatePictureStateChangedBehavior
                0x000000000009f570       0x2c /home/sunho/bebop_ws/devel/arsdk/out/arsdk-native/build/libARCommands/obj/gen/Sources/ARCOMMANDS_Filter.c.o
                0x000000000009f570                ARCOMMANDS_Filter_SetJumpingSumoMediaRecordStatePictureStateChangedBehavior
 *fill*         0x000000000009f59c        0x4 
 .text.ARCOMMANDS_Filter_SetJumpingSumoMediaRecordStateVideoStateChangedBehavior
                0x000000000009f5a0       0x2c /home/sunho/bebop_ws/devel/arsdk/out/arsdk-native/build/libARCommands/obj/gen/Sources/ARCOMMANDS_Filter.c.o
                0x000000000009f5a0                ARCOMMANDS_Filter_SetJumpingSumoMediaRecordStateVideoStateChangedBehavior
 *fill*         0x000000000009f5cc        0x4 
 .text.ARCOMMANDS_Filter_SetJumpingSumoMediaRecordStatePictureStateChangedV2Behavior
                0x000000000009f5d0       0x2c /home/sunho/bebop_ws/devel/arsdk/out/arsdk-native/build/libARCommands/obj/gen/Sources/ARCOMMANDS_Filter.c.o
                0x000000000009f5d0                ARCOMMANDS_Filter_SetJumpingSumoMediaRecordStatePictureStateChangedV2Behavior
 *fill*         0x000000000009f5fc        0x4 
 .text.ARCOMMANDS_Filter_SetJumpingSumoMediaRecordStateVideoStateChangedV2Behavior
                0x000000000009f600       0x2c /home/sunho/bebop_ws/devel/arsdk/out/arsdk-native/build/libARCommands/obj/gen/Sources/ARCOMMANDS_Filter.c.o
                0x000000000009f600                ARCOMMANDS_Filter_SetJumpingSumoMediaRecordStateVideoStateChangedV2Behavior
 *fill*         0x000000000009f62c        0x4 
 .text.ARCOMMANDS_Filter_SetJumpingSumoMediaRecordEventPictureEventChangedBehavior
                0x000000000009f630       0x2c /home/sunho/bebop_ws/devel/arsdk/out/arsdk-native/build/libARCommands/obj/gen/Sources/ARCOMMANDS_Filter.c.o
                0x000000000009f630                ARCOMMANDS_Filter_SetJumpingSumoMediaRecordEventPictureEventChangedBehavior
 *fill*         0x000000000009f65c        0x4 
 .text.ARCOMMANDS_Filter_SetJumpingSumoMediaRecordEventVideoEventChangedBehavior
                0x000000000009f660       0x2c /home/sunho/bebop_ws/devel/arsdk/out/arsdk-native/build/libARCommands/obj/gen/Sources/ARCOMMANDS_Filter.c.o
                0x000000000009f660                ARCOMMANDS_Filter_SetJumpingSumoMediaRecordEventVideoEventChangedBehavior
 *fill*         0x000000000009f68c        0x4 
 .text.ARCOMMANDS_Filter_SetJumpingSumoNetworkSettingsStateWifiSelectionChangedBehavior
                0x000000000009f690       0x2c /home/sunho/bebop_ws/devel/arsdk/out/arsdk-native/build/libARCommands/obj/gen/Sources/ARCOMMANDS_Filter.c.o
                0x000000000009f690                ARCOMMANDS_Filter_SetJumpingSumoNetworkSettingsStateWifiSelectionChangedBehavior
 *fill*         0x000000000009f6bc        0x4 
 .text.ARCOMMANDS_Filter_SetJumpingSumoNetworkStateWifiScanListChangedBehavior
                0x000000000009f6c0       0x2c /home/sunho/bebop_ws/devel/arsdk/out/arsdk-native/build/libARCommands/obj/gen/Sources/ARCOMMANDS_Filter.c.o
                0x000000000009f6c0                ARCOMMANDS_Filter_SetJumpingSumoNetworkStateWifiScanListChangedBehavior
 *fill*         0x000000000009f6ec        0x4 
 .text.ARCOMMANDS_Filter_SetJumpingSumoNetworkStateAllWifiScanChangedBehavior
                0x000000000009f6f0       0x2c /home/sunho/bebop_ws/devel/arsdk/out/arsdk-native/build/libARCommands/obj/gen/Sources/ARCOMMANDS_Filter.c.o
                0x000000000009f6f0                ARCOMMANDS_Filter_SetJumpingSumoNetworkStateAllWifiScanChangedBehavior
 *fill*         0x000000000009f71c        0x4 
 .text.ARCOMMANDS_Filter_SetJumpingSumoNetworkStateWifiAuthChannelListChangedBehavior
                0x000000000009f720       0x2c /home/sunho/bebop_ws/devel/arsdk/out/arsdk-native/build/libARCommands/obj/gen/Sources/ARCOMMANDS_Filter.c.o
                0x000000000009f720                ARCOMMANDS_Filter_SetJumpingSumoNetworkStateWifiAuthChannelListChangedBehavior
 *fill*         0x000000000009f74c        0x4 
 .text.ARCOMMANDS_Filter_SetJumpingSumoNetworkStateAllWifiAuthChannelChangedBehavior
                0x000000000009f750       0x2c /home/sunho/bebop_ws/devel/arsdk/out/arsdk-native/build/libARCommands/obj/gen/Sources/ARCOMMANDS_Filter.c.o
                0x000000000009f750                ARCOMMANDS_Filter_SetJumpingSumoNetworkStateAllWifiAuthChannelChangedBehavior
 *fill*         0x000000000009f77c        0x4 
 .text.ARCOMMANDS_Filter_SetJumpingSumoNetworkStateLinkQualityChangedBehavior
                0x000000000009f780       0x2c /home/sunho/bebop_ws/devel/arsdk/out/arsdk-native/build/libARCommands/obj/gen/Sources/ARCOMMANDS_Filter.c.o
                0x000000000009f780                ARCOMMANDS_Filter_SetJumpingSumoNetworkStateLinkQualityChangedBehavior
 *fill*         0x000000000009f7ac        0x4 
 .text.ARCOMMANDS_Filter_SetJumpingSumoAudioSettingsStateMasterVolumeChangedBehavior
                0x000000000009f7b0       0x2c /home/sunho/bebop_ws/devel/arsdk/out/arsdk-native/build/libARCommands/obj/gen/Sources/ARCOMMANDS_Filter.c.o
                0x000000000009f7b0                ARCOMMANDS_Filter_SetJumpingSumoAudioSettingsStateMasterVolumeChangedBehavior
 *fill*         0x000000000009f7dc        0x4 
 .text.ARCOMMANDS_Filter_SetJumpingSumoAudioSettingsStateThemeChangedBehavior
                0x000000000009f7e0       0x2c /home/sunho/bebop_ws/devel/arsdk/out/arsdk-native/build/libARCommands/obj/gen/Sources/ARCOMMANDS_Filter.c.o
                0x000000000009f7e0                ARCOMMANDS_Filter_SetJumpingSumoAudioSettingsStateThemeChangedBehavior
 *fill*         0x000000000009f80c        0x4 
 .text.ARCOMMANDS_Filter_SetJumpingSumoRoadPlanStateScriptMetadataListChangedBehavior
                0x000000000009f810       0x2c /home/sunho/bebop_ws/devel/arsdk/out/arsdk-native/build/libARCommands/obj/gen/Sources/ARCOMMANDS_Filter.c.o
                0x000000000009f810                ARCOMMANDS_Filter_SetJumpingSumoRoadPlanStateScriptMetadataListChangedBehavior
 *fill*         0x000000000009f83c        0x4 
 .text.ARCOMMANDS_Filter_SetJumpingSumoRoadPlanStateAllScriptsMetadataChangedBehavior
                0x000000000009f840       0x2c /home/sunho/bebop_ws/devel/arsdk/out/arsdk-native/build/libARCommands/obj/gen/Sources/ARCOMMANDS_Filter.c.o
                0x000000000009f840                ARCOMMANDS_Filter_SetJumpingSumoRoadPlanStateAllScriptsMetadataChangedBehavior
 *fill*         0x000000000009f86c        0x4 
 .text.ARCOMMANDS_Filter_SetJumpingSumoRoadPlanStateScriptUploadChangedBehavior
                0x000000000009f870       0x2c /home/sunho/bebop_ws/devel/arsdk/out/arsdk-native/build/libARCommands/obj/gen/Sources/ARCOMMANDS_Filter.c.o
                0x000000000009f870                ARCOMMANDS_Filter_SetJumpingSumoRoadPlanStateScriptUploadChangedBehavior
 *fill*         0x000000000009f89c        0x4 
 .text.ARCOMMANDS_Filter_SetJumpingSumoRoadPlanStateScriptDeleteChangedBehavior
                0x000000000009f8a0       0x2c /home/sunho/bebop_ws/devel/arsdk/out/arsdk-native/build/libARCommands/obj/gen/Sources/ARCOMMANDS_Filter.c.o
                0x000000000009f8a0                ARCOMMANDS_Filter_SetJumpingSumoRoadPlanStateScriptDeleteChangedBehavior
 *fill*         0x000000000009f8cc        0x4 
 .text.ARCOMMANDS_Filter_SetJumpingSumoRoadPlanStatePlayScriptChangedBehavior
                0x000000000009f8d0       0x2c /home/sunho/bebop_ws/devel/arsdk/out/arsdk-native/build/libARCommands/obj/gen/Sources/ARCOMMANDS_Filter.c.o
                0x000000000009f8d0                ARCOMMANDS_Filter_SetJumpingSumoRoadPlanStatePlayScriptChangedBehavior
 *fill*         0x000000000009f8fc        0x4 
 .text.ARCOMMANDS_Filter_SetJumpingSumoSpeedSettingsStateOutdoorChangedBehavior
                0x000000000009f900       0x2c /home/sunho/bebop_ws/devel/arsdk/out/arsdk-native/build/libARCommands/obj/gen/Sources/ARCOMMANDS_Filter.c.o
                0x000000000009f900                ARCOMMANDS_Filter_SetJumpingSumoSpeedSettingsStateOutdoorChangedBehavior
 *fill*         0x000000000009f92c        0x4 
 .text.ARCOMMANDS_Filter_SetJumpingSumoMediaStreamingStateVideoEnableChangedBehavior
                0x000000000009f930       0x2c /home/sunho/bebop_ws/devel/arsdk/out/arsdk-native/build/libARCommands/obj/gen/Sources/ARCOMMANDS_Filter.c.o
                0x000000000009f930                ARCOMMANDS_Filter_SetJumpingSumoMediaStreamingStateVideoEnableChangedBehavior
 *fill*         0x000000000009f95c        0x4 
 .text.ARCOMMANDS_Filter_SetJumpingSumoVideoSettingsStateAutorecordChangedBehavior
                0x000000000009f960       0x2c /home/sunho/bebop_ws/devel/arsdk/out/arsdk-native/build/libARCommands/obj/gen/Sources/ARCOMMANDS_Filter.c.o
                0x000000000009f960                ARCOMMANDS_Filter_SetJumpingSumoVideoSettingsStateAutorecordChangedBehavior
 *fill*         0x000000000009f98c        0x4 
 .text.ARCOMMANDS_Filter_SetMapperBehavior
                0x000000000009f990       0x80 /home/sunho/bebop_ws/devel/arsdk/out/arsdk-native/build/libARCommands/obj/gen/Sources/ARCOMMANDS_Filter.c.o
                0x000000000009f990                ARCOMMANDS_Filter_SetMapperBehavior
 .text.ARCOMMANDS_Filter_SetMapperGrabBehavior
                0x000000000009fa10       0x2c /home/sunho/bebop_ws/devel/arsdk/out/arsdk-native/build/libARCommands/obj/gen/Sources/ARCOMMANDS_Filter.c.o
                0x000000000009fa10                ARCOMMANDS_Filter_SetMapperGrabBehavior
 *fill*         0x000000000009fa3c        0x4 
 .text.ARCOMMANDS_Filter_SetMapperMapButtonActionBehavior
                0x000000000009fa40       0x2c /home/sunho/bebop_ws/devel/arsdk/out/arsdk-native/build/libARCommands/obj/gen/Sources/ARCOMMANDS_Filter.c.o
                0x000000000009fa40                ARCOMMANDS_Filter_SetMapperMapButtonActionBehavior
 *fill*         0x000000000009fa6c        0x4 
 .text.ARCOMMANDS_Filter_SetMapperMapAxisActionBehavior
                0x000000000009fa70       0x2c /home/sunho/bebop_ws/devel/arsdk/out/arsdk-native/build/libARCommands/obj/gen/Sources/ARCOMMANDS_Filter.c.o
                0x000000000009fa70                ARCOMMANDS_Filter_SetMapperMapAxisActionBehavior
 *fill*         0x000000000009fa9c        0x4 
 .text.ARCOMMANDS_Filter_SetMapperResetMappingBehavior
                0x000000000009faa0       0x2c /home/sunho/bebop_ws/devel/arsdk/out/arsdk-native/build/libARCommands/obj/gen/Sources/ARCOMMANDS_Filter.c.o
                0x000000000009faa0                ARCOMMANDS_Filter_SetMapperResetMappingBehavior
 *fill*         0x000000000009facc        0x4 
 .text.ARCOMMANDS_Filter_SetMapperSetExpoBehavior
                0x000000000009fad0       0x2c /home/sunho/bebop_ws/devel/arsdk/out/arsdk-native/build/libARCommands/obj/gen/Sources/ARCOMMANDS_Filter.c.o
                0x000000000009fad0                ARCOMMANDS_Filter_SetMapperSetExpoBehavior
 *fill*         0x000000000009fafc        0x4 
 .text.ARCOMMANDS_Filter_SetMapperSetInvertedBehavior
                0x000000000009fb00       0x2c /home/sunho/bebop_ws/devel/arsdk/out/arsdk-native/build/libARCommands/obj/gen/Sources/ARCOMMANDS_Filter.c.o
                0x000000000009fb00                ARCOMMANDS_Filter_SetMapperSetInvertedBehavior
 *fill*         0x000000000009fb2c        0x4 
 .text.ARCOMMANDS_Filter_SetMapperGrabStateBehavior
                0x000000000009fb30       0x2c /home/sunho/bebop_ws/devel/arsdk/out/arsdk-native/build/libARCommands/obj/gen/Sources/ARCOMMANDS_Filter.c.o
                0x000000000009fb30                ARCOMMANDS_Filter_SetMapperGrabStateBehavior
 *fill*         0x000000000009fb5c        0x4 
 .text.ARCOMMANDS_Filter_SetMapperGrabButtonEventBehavior
                0x000000000009fb60       0x2c /home/sunho/bebop_ws/devel/arsdk/out/arsdk-native/build/libARCommands/obj/gen/Sources/ARCOMMANDS_Filter.c.o
                0x000000000009fb60                ARCOMMANDS_Filter_SetMapperGrabButtonEventBehavior
 *fill*         0x000000000009fb8c        0x4 
 .text.ARCOMMANDS_Filter_SetMapperGrabAxisEventBehavior
                0x000000000009fb90       0x2c /home/sunho/bebop_ws/devel/arsdk/out/arsdk-native/build/libARCommands/obj/gen/Sources/ARCOMMANDS_Filter.c.o
                0x000000000009fb90                ARCOMMANDS_Filter_SetMapperGrabAxisEventBehavior
 *fill*         0x000000000009fbbc        0x4 
 .text.ARCOMMANDS_Filter_SetMapperButtonMappingItemBehavior
                0x000000000009fbc0       0x2c /home/sunho/bebop_ws/devel/arsdk/out/arsdk-native/build/libARCommands/obj/gen/Sources/ARCOMMANDS_Filter.c.o
                0x000000000009fbc0                ARCOMMANDS_Filter_SetMapperButtonMappingItemBehavior
 *fill*         0x000000000009fbec        0x4 
 .text.ARCOMMANDS_Filter_SetMapperAxisMappingItemBehavior
                0x000000000009fbf0       0x2c /home/sunho/bebop_ws/devel/arsdk/out/arsdk-native/build/libARCommands/obj/gen/Sources/ARCOMMANDS_Filter.c.o
                0x000000000009fbf0                ARCOMMANDS_Filter_SetMapperAxisMappingItemBehavior
 *fill*         0x000000000009fc1c        0x4 
 .text.ARCOMMANDS_Filter_SetMapperApplicationAxisEventBehavior
                0x000000000009fc20       0x2c /home/sunho/bebop_ws/devel/arsdk/out/arsdk-native/build/libARCommands/obj/gen/Sources/ARCOMMANDS_Filter.c.o
                0x000000000009fc20                ARCOMMANDS_Filter_SetMapperApplicationAxisEventBehavior
 *fill*         0x000000000009fc4c        0x4 
 .text.ARCOMMANDS_Filter_SetMapperApplicationButtonEventBehavior
                0x000000000009fc50       0x2c /home/sunho/bebop_ws/devel/arsdk/out/arsdk-native/build/libARCommands/obj/gen/Sources/ARCOMMANDS_Filter.c.o
                0x000000000009fc50                ARCOMMANDS_Filter_SetMapperApplicationButtonEventBehavior
 *fill*         0x000000000009fc7c        0x4 
 .text.ARCOMMANDS_Filter_SetMapperExpoMapItemBehavior
                0x000000000009fc80       0x2c /home/sunho/bebop_ws/devel/arsdk/out/arsdk-native/build/libARCommands/obj/gen/Sources/ARCOMMANDS_Filter.c.o
                0x000000000009fc80                ARCOMMANDS_Filter_SetMapperExpoMapItemBehavior
 *fill*         0x000000000009fcac        0x4 
 .text.ARCOMMANDS_Filter_SetMapperInvertedMapItemBehavior
                0x000000000009fcb0       0x2c /home/sunho/bebop_ws/devel/arsdk/out/arsdk-native/build/libARCommands/obj/gen/Sources/ARCOMMANDS_Filter.c.o
                0x000000000009fcb0                ARCOMMANDS_Filter_SetMapperInvertedMapItemBehavior
 *fill*         0x000000000009fcdc        0x4 
 .text.ARCOMMANDS_Filter_SetMiniDroneBehavior
                0x000000000009fce0      0x16a /home/sunho/bebop_ws/devel/arsdk/out/arsdk-native/build/libARCommands/obj/gen/Sources/ARCOMMANDS_Filter.c.o
                0x000000000009fce0                ARCOMMANDS_Filter_SetMiniDroneBehavior
 *fill*         0x000000000009fe4a        0x6 
 .text.ARCOMMANDS_Filter_SetMiniDronePilotingBehavior
                0x000000000009fe50       0x56 /home/sunho/bebop_ws/devel/arsdk/out/arsdk-native/build/libARCommands/obj/gen/Sources/ARCOMMANDS_Filter.c.o
                0x000000000009fe50                ARCOMMANDS_Filter_SetMiniDronePilotingBehavior
 *fill*         0x000000000009fea6        0xa 
 .text.ARCOMMANDS_Filter_SetMiniDronePilotingStateBehavior
                0x000000000009feb0       0x4a /home/sunho/bebop_ws/devel/arsdk/out/arsdk-native/build/libARCommands/obj/gen/Sources/ARCOMMANDS_Filter.c.o
                0x000000000009feb0                ARCOMMANDS_Filter_SetMiniDronePilotingStateBehavior
 *fill*         0x000000000009fefa        0x6 
 .text.ARCOMMANDS_Filter_SetMiniDroneAnimationsBehavior
                0x000000000009ff00       0x32 /home/sunho/bebop_ws/devel/arsdk/out/arsdk-native/build/libARCommands/obj/gen/Sources/ARCOMMANDS_Filter.c.o
                0x000000000009ff00                ARCOMMANDS_Filter_SetMiniDroneAnimationsBehavior
 *fill*         0x000000000009ff32        0xe 
 .text.ARCOMMANDS_Filter_SetMiniDroneMediaRecordBehavior
                0x000000000009ff40       0x32 /home/sunho/bebop_ws/devel/arsdk/out/arsdk-native/build/libARCommands/obj/gen/Sources/ARCOMMANDS_Filter.c.o
                0x000000000009ff40                ARCOMMANDS_Filter_SetMiniDroneMediaRecordBehavior
 *fill*         0x000000000009ff72        0xe 
 .text.ARCOMMANDS_Filter_SetMiniDroneMediaRecordStateBehavior
                0x000000000009ff80       0x32 /home/sunho/bebop_ws/devel/arsdk/out/arsdk-native/build/libARCommands/obj/gen/Sources/ARCOMMANDS_Filter.c.o
                0x000000000009ff80                ARCOMMANDS_Filter_SetMiniDroneMediaRecordStateBehavior
 *fill*         0x000000000009ffb2        0xe 
 .text.ARCOMMANDS_Filter_SetMiniDroneMediaRecordEventBehavior
                0x000000000009ffc0       0x2c /home/sunho/bebop_ws/devel/arsdk/out/arsdk-native/build/libARCommands/obj/gen/Sources/ARCOMMANDS_Filter.c.o
                0x000000000009ffc0                ARCOMMANDS_Filter_SetMiniDroneMediaRecordEventBehavior
 *fill*         0x000000000009ffec        0x4 
 .text.ARCOMMANDS_Filter_SetMiniDronePilotingSettingsBehavior
                0x000000000009fff0       0x38 /home/sunho/bebop_ws/devel/arsdk/out/arsdk-native/build/libARCommands/obj/gen/Sources/ARCOMMANDS_Filter.c.o
                0x000000000009fff0                ARCOMMANDS_Filter_SetMiniDronePilotingSettingsBehavior
 *fill*         0x00000000000a0028        0x8 
 .text.ARCOMMANDS_Filter_SetMiniDronePilotingSettingsStateBehavior
                0x00000000000a0030       0x38 /home/sunho/bebop_ws/devel/arsdk/out/arsdk-native/build/libARCommands/obj/gen/Sources/ARCOMMANDS_Filter.c.o
                0x00000000000a0030                ARCOMMANDS_Filter_SetMiniDronePilotingSettingsStateBehavior
 *fill*         0x00000000000a0068        0x8 
 .text.ARCOMMANDS_Filter_SetMiniDroneSpeedSettingsBehavior
                0x00000000000a0070       0x44 /home/sunho/bebop_ws/devel/arsdk/out/arsdk-native/build/libARCommands/obj/gen/Sources/ARCOMMANDS_Filter.c.o
                0x00000000000a0070                ARCOMMANDS_Filter_SetMiniDroneSpeedSettingsBehavior
 *fill*         0x00000000000a00b4        0xc 
 .text.ARCOMMANDS_Filter_SetMiniDroneSpeedSettingsStateBehavior
                0x00000000000a00c0       0x44 /home/sunho/bebop_ws/devel/arsdk/out/arsdk-native/build/libARCommands/obj/gen/Sources/ARCOMMANDS_Filter.c.o
                0x00000000000a00c0                ARCOMMANDS_Filter_SetMiniDroneSpeedSettingsStateBehavior
 *fill*         0x00000000000a0104        0xc 
 .text.ARCOMMANDS_Filter_SetMiniDroneSettingsBehavior
                0x00000000000a0110       0x2c /home/sunho/bebop_ws/devel/arsdk/out/arsdk-native/build/libARCommands/obj/gen/Sources/ARCOMMANDS_Filter.c.o
                0x00000000000a0110                ARCOMMANDS_Filter_SetMiniDroneSettingsBehavior
 *fill*         0x00000000000a013c        0x4 
 .text.ARCOMMANDS_Filter_SetMiniDroneSettingsStateBehavior
                0x00000000000a0140       0x38 /home/sunho/bebop_ws/devel/arsdk/out/arsdk-native/build/libARCommands/obj/gen/Sources/ARCOMMANDS_Filter.c.o
                0x00000000000a0140                ARCOMMANDS_Filter_SetMiniDroneSettingsStateBehavior
 *fill*         0x00000000000a0178        0x8 
 .text.ARCOMMANDS_Filter_SetMiniDroneFloodControlStateBehavior
                0x00000000000a0180       0x2c /home/sunho/bebop_ws/devel/arsdk/out/arsdk-native/build/libARCommands/obj/gen/Sources/ARCOMMANDS_Filter.c.o
                0x00000000000a0180                ARCOMMANDS_Filter_SetMiniDroneFloodControlStateBehavior
 *fill*         0x00000000000a01ac        0x4 
 .text.ARCOMMANDS_Filter_SetMiniDroneGPSBehavior
                0x00000000000a01b0       0x32 /home/sunho/bebop_ws/devel/arsdk/out/arsdk-native/build/libARCommands/obj/gen/Sources/ARCOMMANDS_Filter.c.o
                0x00000000000a01b0                ARCOMMANDS_Filter_SetMiniDroneGPSBehavior
 *fill*         0x00000000000a01e2        0xe 
 .text.ARCOMMANDS_Filter_SetMiniDroneConfigurationBehavior
                0x00000000000a01f0       0x32 /home/sunho/bebop_ws/devel/arsdk/out/arsdk-native/build/libARCommands/obj/gen/Sources/ARCOMMANDS_Filter.c.o
                0x00000000000a01f0                ARCOMMANDS_Filter_SetMiniDroneConfigurationBehavior
 *fill*         0x00000000000a0222        0xe 
 .text.ARCOMMANDS_Filter_SetMiniDroneUsbAccessoryStateBehavior
                0x00000000000a0230       0x38 /home/sunho/bebop_ws/devel/arsdk/out/arsdk-native/build/libARCommands/obj/gen/Sources/ARCOMMANDS_Filter.c.o
                0x00000000000a0230                ARCOMMANDS_Filter_SetMiniDroneUsbAccessoryStateBehavior
 *fill*         0x00000000000a0268        0x8 
 .text.ARCOMMANDS_Filter_SetMiniDroneUsbAccessoryBehavior
                0x00000000000a0270       0x38 /home/sunho/bebop_ws/devel/arsdk/out/arsdk-native/build/libARCommands/obj/gen/Sources/ARCOMMANDS_Filter.c.o
                0x00000000000a0270                ARCOMMANDS_Filter_SetMiniDroneUsbAccessoryBehavior
 *fill*         0x00000000000a02a8        0x8 
 .text.ARCOMMANDS_Filter_SetMiniDroneRemoteControllerBehavior
                0x00000000000a02b0       0x2c /home/sunho/bebop_ws/devel/arsdk/out/arsdk-native/build/libARCommands/obj/gen/Sources/ARCOMMANDS_Filter.c.o
                0x00000000000a02b0                ARCOMMANDS_Filter_SetMiniDroneRemoteControllerBehavior
 *fill*         0x00000000000a02dc        0x4 
 .text.ARCOMMANDS_Filter_SetMiniDroneNavigationDataStateBehavior
                0x00000000000a02e0       0x2c /home/sunho/bebop_ws/devel/arsdk/out/arsdk-native/build/libARCommands/obj/gen/Sources/ARCOMMANDS_Filter.c.o
                0x00000000000a02e0                ARCOMMANDS_Filter_SetMiniDroneNavigationDataStateBehavior
 *fill*         0x00000000000a030c        0x4 
 .text.ARCOMMANDS_Filter_SetMiniDronePilotingFlatTrimBehavior
                0x00000000000a0310       0x2c /home/sunho/bebop_ws/devel/arsdk/out/arsdk-native/build/libARCommands/obj/gen/Sources/ARCOMMANDS_Filter.c.o
                0x00000000000a0310                ARCOMMANDS_Filter_SetMiniDronePilotingFlatTrimBehavior
 *fill*         0x00000000000a033c        0x4 
 .text.ARCOMMANDS_Filter_SetMiniDronePilotingTakeOffBehavior
                0x00000000000a0340       0x2c /home/sunho/bebop_ws/devel/arsdk/out/arsdk-native/build/libARCommands/obj/gen/Sources/ARCOMMANDS_Filter.c.o
                0x00000000000a0340                ARCOMMANDS_Filter_SetMiniDronePilotingTakeOffBehavior
 *fill*         0x00000000000a036c        0x4 
 .text.ARCOMMANDS_Filter_SetMiniDronePilotingPCMDBehavior
                0x00000000000a0370       0x2c /home/sunho/bebop_ws/devel/arsdk/out/arsdk-native/build/libARCommands/obj/gen/Sources/ARCOMMANDS_Filter.c.o
                0x00000000000a0370                ARCOMMANDS_Filter_SetMiniDronePilotingPCMDBehavior
 *fill*         0x00000000000a039c        0x4 
 .text.ARCOMMANDS_Filter_SetMiniDronePilotingLandingBehavior
                0x00000000000a03a0       0x2c /home/sunho/bebop_ws/devel/arsdk/out/arsdk-native/build/libARCommands/obj/gen/Sources/ARCOMMANDS_Filter.c.o
                0x00000000000a03a0                ARCOMMANDS_Filter_SetMiniDronePilotingLandingBehavior
 *fill*         0x00000000000a03cc        0x4 
 .text.ARCOMMANDS_Filter_SetMiniDronePilotingEmergencyBehavior
                0x00000000000a03d0       0x2c /home/sunho/bebop_ws/devel/arsdk/out/arsdk-native/build/libARCommands/obj/gen/Sources/ARCOMMANDS_Filter.c.o
                0x00000000000a03d0                ARCOMMANDS_Filter_SetMiniDronePilotingEmergencyBehavior
 *fill*         0x00000000000a03fc        0x4 
 .text.ARCOMMANDS_Filter_SetMiniDronePilotingAutoTakeOffModeBehavior
                0x00000000000a0400       0x2c /home/sunho/bebop_ws/devel/arsdk/out/arsdk-native/build/libARCommands/obj/gen/Sources/ARCOMMANDS_Filter.c.o
                0x00000000000a0400                ARCOMMANDS_Filter_SetMiniDronePilotingAutoTakeOffModeBehavior
 *fill*         0x00000000000a042c        0x4 
 .text.ARCOMMANDS_Filter_SetMiniDronePilotingFlyingModeBehavior
                0x00000000000a0430       0x2c /home/sunho/bebop_ws/devel/arsdk/out/arsdk-native/build/libARCommands/obj/gen/Sources/ARCOMMANDS_Filter.c.o
                0x00000000000a0430                ARCOMMANDS_Filter_SetMiniDronePilotingFlyingModeBehavior
 *fill*         0x00000000000a045c        0x4 
 .text.ARCOMMANDS_Filter_SetMiniDronePilotingPlaneGearBoxBehavior
                0x00000000000a0460       0x2c /home/sunho/bebop_ws/devel/arsdk/out/arsdk-native/build/libARCommands/obj/gen/Sources/ARCOMMANDS_Filter.c.o
                0x00000000000a0460                ARCOMMANDS_Filter_SetMiniDronePilotingPlaneGearBoxBehavior
 *fill*         0x00000000000a048c        0x4 
 .text.ARCOMMANDS_Filter_SetMiniDroneAnimationsFlipBehavior
                0x00000000000a0490       0x2c /home/sunho/bebop_ws/devel/arsdk/out/arsdk-native/build/libARCommands/obj/gen/Sources/ARCOMMANDS_Filter.c.o
                0x00000000000a0490                ARCOMMANDS_Filter_SetMiniDroneAnimationsFlipBehavior
 *fill*         0x00000000000a04bc        0x4 
 .text.ARCOMMANDS_Filter_SetMiniDroneAnimationsCapBehavior
                0x00000000000a04c0       0x2c /home/sunho/bebop_ws/devel/arsdk/out/arsdk-native/build/libARCommands/obj/gen/Sources/ARCOMMANDS_Filter.c.o
                0x00000000000a04c0                ARCOMMANDS_Filter_SetMiniDroneAnimationsCapBehavior
 *fill*         0x00000000000a04ec        0x4 
 .text.ARCOMMANDS_Filter_SetMiniDroneMediaRecordPictureBehavior
                0x00000000000a04f0       0x2c /home/sunho/bebop_ws/devel/arsdk/out/arsdk-native/build/libARCommands/obj/gen/Sources/ARCOMMANDS_Filter.c.o
                0x00000000000a04f0                ARCOMMANDS_Filter_SetMiniDroneMediaRecordPictureBehavior
 *fill*         0x00000000000a051c        0x4 
 .text.ARCOMMANDS_Filter_SetMiniDroneMediaRecordPictureV2Behavior
                0x00000000000a0520       0x2c /home/sunho/bebop_ws/devel/arsdk/out/arsdk-native/build/libARCommands/obj/gen/Sources/ARCOMMANDS_Filter.c.o
                0x00000000000a0520                ARCOMMANDS_Filter_SetMiniDroneMediaRecordPictureV2Behavior
 *fill*         0x00000000000a054c        0x4 
 .text.ARCOMMANDS_Filter_SetMiniDronePilotingSettingsMaxAltitudeBehavior
                0x00000000000a0550       0x2c /home/sunho/bebop_ws/devel/arsdk/out/arsdk-native/build/libARCommands/obj/gen/Sources/ARCOMMANDS_Filter.c.o
                0x00000000000a0550                ARCOMMANDS_Filter_SetMiniDronePilotingSettingsMaxAltitudeBehavior
 *fill*         0x00000000000a057c        0x4 
 .text.ARCOMMANDS_Filter_SetMiniDronePilotingSettingsMaxTiltBehavior
                0x00000000000a0580       0x2c /home/sunho/bebop_ws/devel/arsdk/out/arsdk-native/build/libARCommands/obj/gen/Sources/ARCOMMANDS_Filter.c.o
                0x00000000000a0580                ARCOMMANDS_Filter_SetMiniDronePilotingSettingsMaxTiltBehavior
 *fill*         0x00000000000a05ac        0x4 
 .text.ARCOMMANDS_Filter_SetMiniDronePilotingSettingsPlaneModePitchBehavior
                0x00000000000a05b0       0x2c /home/sunho/bebop_ws/devel/arsdk/out/arsdk-native/build/libARCommands/obj/gen/Sources/ARCOMMANDS_Filter.c.o
                0x00000000000a05b0                ARCOMMANDS_Filter_SetMiniDronePilotingSettingsPlaneModePitchBehavior
 *fill*         0x00000000000a05dc        0x4 
 .text.ARCOMMANDS_Filter_SetMiniDroneSpeedSettingsMaxVerticalSpeedBehavior
                0x00000000000a05e0       0x2c /home/sunho/bebop_ws/devel/arsdk/out/arsdk-native/build/libARCommands/obj/gen/Sources/ARCOMMANDS_Filter.c.o
                0x00000000000a05e0                ARCOMMANDS_Filter_SetMiniDroneSpeedSettingsMaxVerticalSpeedBehavior
 *fill*         0x00000000000a060c        0x4 
 .text.ARCOMMANDS_Filter_SetMiniDroneSpeedSettingsMaxRotationSpeedBehavior
                0x00000000000a0610       0x2c /home/sunho/bebop_ws/devel/arsdk/out/arsdk-native/build/libARCommands/obj/gen/Sources/ARCOMMANDS_Filter.c.o
                0x00000000000a0610                ARCOMMANDS_Filter_SetMiniDroneSpeedSettingsMaxRotationSpeedBehavior
 *fill*         0x00000000000a063c        0x4 
 .text.ARCOMMANDS_Filter_SetMiniDroneSpeedSettingsWheelsBehavior
                0x00000000000a0640       0x2c /home/sunho/bebop_ws/devel/arsdk/out/arsdk-native/build/libARCommands/obj/gen/Sources/ARCOMMANDS_Filter.c.o
                0x00000000000a0640                ARCOMMANDS_Filter_SetMiniDroneSpeedSettingsWheelsBehavior
 *fill*         0x00000000000a066c        0x4 
 .text.ARCOMMANDS_Filter_SetMiniDroneSpeedSettingsMaxHorizontalSpeedBehavior
                0x00000000000a0670       0x2c /home/sunho/bebop_ws/devel/arsdk/out/arsdk-native/build/libARCommands/obj/gen/Sources/ARCOMMANDS_Filter.c.o
                0x00000000000a0670                ARCOMMANDS_Filter_SetMiniDroneSpeedSettingsMaxHorizontalSpeedBehavior
 *fill*         0x00000000000a069c        0x4 
 .text.ARCOMMANDS_Filter_SetMiniDroneSpeedSettingsMaxPlaneModeRotationSpeedBehavior
                0x00000000000a06a0       0x2c /home/sunho/bebop_ws/devel/arsdk/out/arsdk-native/build/libARCommands/obj/gen/Sources/ARCOMMANDS_Filter.c.o
                0x00000000000a06a0                ARCOMMANDS_Filter_SetMiniDroneSpeedSettingsMaxPlaneModeRotationSpeedBehavior
 *fill*         0x00000000000a06cc        0x4 
 .text.ARCOMMANDS_Filter_SetMiniDroneSettingsCutOutModeBehavior
                0x00000000000a06d0       0x2c /home/sunho/bebop_ws/devel/arsdk/out/arsdk-native/build/libARCommands/obj/gen/Sources/ARCOMMANDS_Filter.c.o
                0x00000000000a06d0                ARCOMMANDS_Filter_SetMiniDroneSettingsCutOutModeBehavior
 *fill*         0x00000000000a06fc        0x4 
 .text.ARCOMMANDS_Filter_SetMiniDroneGPSControllerLatitudeForRunBehavior
                0x00000000000a0700       0x2c /home/sunho/bebop_ws/devel/arsdk/out/arsdk-native/build/libARCommands/obj/gen/Sources/ARCOMMANDS_Filter.c.o
                0x00000000000a0700                ARCOMMANDS_Filter_SetMiniDroneGPSControllerLatitudeForRunBehavior
 *fill*         0x00000000000a072c        0x4 
 .text.ARCOMMANDS_Filter_SetMiniDroneGPSControllerLongitudeForRunBehavior
                0x00000000000a0730       0x2c /home/sunho/bebop_ws/devel/arsdk/out/arsdk-native/build/libARCommands/obj/gen/Sources/ARCOMMANDS_Filter.c.o
                0x00000000000a0730                ARCOMMANDS_Filter_SetMiniDroneGPSControllerLongitudeForRunBehavior
 *fill*         0x00000000000a075c        0x4 
 .text.ARCOMMANDS_Filter_SetMiniDroneConfigurationControllerTypeBehavior
                0x00000000000a0760       0x2c /home/sunho/bebop_ws/devel/arsdk/out/arsdk-native/build/libARCommands/obj/gen/Sources/ARCOMMANDS_Filter.c.o
                0x00000000000a0760                ARCOMMANDS_Filter_SetMiniDroneConfigurationControllerTypeBehavior
 *fill*         0x00000000000a078c        0x4 
 .text.ARCOMMANDS_Filter_SetMiniDroneConfigurationControllerNameBehavior
                0x00000000000a0790       0x2c /home/sunho/bebop_ws/devel/arsdk/out/arsdk-native/build/libARCommands/obj/gen/Sources/ARCOMMANDS_Filter.c.o
                0x00000000000a0790                ARCOMMANDS_Filter_SetMiniDroneConfigurationControllerNameBehavior
 *fill*         0x00000000000a07bc        0x4 
 .text.ARCOMMANDS_Filter_SetMiniDroneUsbAccessoryLightControlBehavior
                0x00000000000a07c0       0x2c /home/sunho/bebop_ws/devel/arsdk/out/arsdk-native/build/libARCommands/obj/gen/Sources/ARCOMMANDS_Filter.c.o
                0x00000000000a07c0                ARCOMMANDS_Filter_SetMiniDroneUsbAccessoryLightControlBehavior
 *fill*         0x00000000000a07ec        0x4 
 .text.ARCOMMANDS_Filter_SetMiniDroneUsbAccessoryClawControlBehavior
                0x00000000000a07f0       0x2c /home/sunho/bebop_ws/devel/arsdk/out/arsdk-native/build/libARCommands/obj/gen/Sources/ARCOMMANDS_Filter.c.o
                0x00000000000a07f0                ARCOMMANDS_Filter_SetMiniDroneUsbAccessoryClawControlBehavior
 *fill*         0x00000000000a081c        0x4 
 .text.ARCOMMANDS_Filter_SetMiniDroneUsbAccessoryGunControlBehavior
                0x00000000000a0820       0x2c /home/sunho/bebop_ws/devel/arsdk/out/arsdk-native/build/libARCommands/obj/gen/Sources/ARCOMMANDS_Filter.c.o
                0x00000000000a0820                ARCOMMANDS_Filter_SetMiniDroneUsbAccessoryGunControlBehavior
 *fill*         0x00000000000a084c        0x4 
 .text.ARCOMMANDS_Filter_SetMiniDroneRemoteControllerSetPairedRemoteBehavior
                0x00000000000a0850       0x2c /home/sunho/bebop_ws/devel/arsdk/out/arsdk-native/build/libARCommands/obj/gen/Sources/ARCOMMANDS_Filter.c.o
                0x00000000000a0850                ARCOMMANDS_Filter_SetMiniDroneRemoteControllerSetPairedRemoteBehavior
 *fill*         0x00000000000a087c        0x4 
 .text.ARCOMMANDS_Filter_SetMiniDronePilotingStateFlatTrimChangedBehavior
                0x00000000000a0880       0x2c /home/sunho/bebop_ws/devel/arsdk/out/arsdk-native/build/libARCommands/obj/gen/Sources/ARCOMMANDS_Filter.c.o
                0x00000000000a0880                ARCOMMANDS_Filter_SetMiniDronePilotingStateFlatTrimChangedBehavior
 *fill*         0x00000000000a08ac        0x4 
 .text.ARCOMMANDS_Filter_SetMiniDronePilotingStateFlyingStateChangedBehavior
                0x00000000000a08b0       0x2c /home/sunho/bebop_ws/devel/arsdk/out/arsdk-native/build/libARCommands/obj/gen/Sources/ARCOMMANDS_Filter.c.o
                0x00000000000a08b0                ARCOMMANDS_Filter_SetMiniDronePilotingStateFlyingStateChangedBehavior
 *fill*         0x00000000000a08dc        0x4 
 .text.ARCOMMANDS_Filter_SetMiniDronePilotingStateAlertStateChangedBehavior
                0x00000000000a08e0       0x2c /home/sunho/bebop_ws/devel/arsdk/out/arsdk-native/build/libARCommands/obj/gen/Sources/ARCOMMANDS_Filter.c.o
                0x00000000000a08e0                ARCOMMANDS_Filter_SetMiniDronePilotingStateAlertStateChangedBehavior
 *fill*         0x00000000000a090c        0x4 
 .text.ARCOMMANDS_Filter_SetMiniDronePilotingStateAutoTakeOffModeChangedBehavior
                0x00000000000a0910       0x2c /home/sunho/bebop_ws/devel/arsdk/out/arsdk-native/build/libARCommands/obj/gen/Sources/ARCOMMANDS_Filter.c.o
                0x00000000000a0910                ARCOMMANDS_Filter_SetMiniDronePilotingStateAutoTakeOffModeChangedBehavior
 *fill*         0x00000000000a093c        0x4 
 .text.ARCOMMANDS_Filter_SetMiniDronePilotingStateFlyingModeChangedBehavior
                0x00000000000a0940       0x2c /home/sunho/bebop_ws/devel/arsdk/out/arsdk-native/build/libARCommands/obj/gen/Sources/ARCOMMANDS_Filter.c.o
                0x00000000000a0940                ARCOMMANDS_Filter_SetMiniDronePilotingStateFlyingModeChangedBehavior
 *fill*         0x00000000000a096c        0x4 
 .text.ARCOMMANDS_Filter_SetMiniDronePilotingStatePlaneGearBoxChangedBehavior
                0x00000000000a0970       0x2c /home/sunho/bebop_ws/devel/arsdk/out/arsdk-native/build/libARCommands/obj/gen/Sources/ARCOMMANDS_Filter.c.o
                0x00000000000a0970                ARCOMMANDS_Filter_SetMiniDronePilotingStatePlaneGearBoxChangedBehavior
 *fill*         0x00000000000a099c        0x4 
 .text.ARCOMMANDS_Filter_SetMiniDroneMediaRecordStatePictureStateChangedBehavior
                0x00000000000a09a0       0x2c /home/sunho/bebop_ws/devel/arsdk/out/arsdk-native/build/libARCommands/obj/gen/Sources/ARCOMMANDS_Filter.c.o
                0x00000000000a09a0                ARCOMMANDS_Filter_SetMiniDroneMediaRecordStatePictureStateChangedBehavior
 *fill*         0x00000000000a09cc        0x4 
 .text.ARCOMMANDS_Filter_SetMiniDroneMediaRecordStatePictureStateChangedV2Behavior
                0x00000000000a09d0       0x2c /home/sunho/bebop_ws/devel/arsdk/out/arsdk-native/build/libARCommands/obj/gen/Sources/ARCOMMANDS_Filter.c.o
                0x00000000000a09d0                ARCOMMANDS_Filter_SetMiniDroneMediaRecordStatePictureStateChangedV2Behavior
 *fill*         0x00000000000a09fc        0x4 
 .text.ARCOMMANDS_Filter_SetMiniDroneMediaRecordEventPictureEventChangedBehavior
                0x00000000000a0a00       0x2c /home/sunho/bebop_ws/devel/arsdk/out/arsdk-native/build/libARCommands/obj/gen/Sources/ARCOMMANDS_Filter.c.o
                0x00000000000a0a00                ARCOMMANDS_Filter_SetMiniDroneMediaRecordEventPictureEventChangedBehavior
 *fill*         0x00000000000a0a2c        0x4 
 .text.ARCOMMANDS_Filter_SetMiniDronePilotingSettingsStateMaxAltitudeChangedBehavior
                0x00000000000a0a30       0x2c /home/sunho/bebop_ws/devel/arsdk/out/arsdk-native/build/libARCommands/obj/gen/Sources/ARCOMMANDS_Filter.c.o
                0x00000000000a0a30                ARCOMMANDS_Filter_SetMiniDronePilotingSettingsStateMaxAltitudeChangedBehavior
 *fill*         0x00000000000a0a5c        0x4 
 .text.ARCOMMANDS_Filter_SetMiniDronePilotingSettingsStateMaxTiltChangedBehavior
                0x00000000000a0a60       0x2c /home/sunho/bebop_ws/devel/arsdk/out/arsdk-native/build/libARCommands/obj/gen/Sources/ARCOMMANDS_Filter.c.o
                0x00000000000a0a60                ARCOMMANDS_Filter_SetMiniDronePilotingSettingsStateMaxTiltChangedBehavior
 *fill*         0x00000000000a0a8c        0x4 
 .text.ARCOMMANDS_Filter_SetMiniDronePilotingSettingsStatePlaneModePitchChangedBehavior
                0x00000000000a0a90       0x2c /home/sunho/bebop_ws/devel/arsdk/out/arsdk-native/build/libARCommands/obj/gen/Sources/ARCOMMANDS_Filter.c.o
                0x00000000000a0a90                ARCOMMANDS_Filter_SetMiniDronePilotingSettingsStatePlaneModePitchChangedBehavior
 *fill*         0x00000000000a0abc        0x4 
 .text.ARCOMMANDS_Filter_SetMiniDroneSpeedSettingsStateMaxVerticalSpeedChangedBehavior
                0x00000000000a0ac0       0x2c /home/sunho/bebop_ws/devel/arsdk/out/arsdk-native/build/libARCommands/obj/gen/Sources/ARCOMMANDS_Filter.c.o
                0x00000000000a0ac0                ARCOMMANDS_Filter_SetMiniDroneSpeedSettingsStateMaxVerticalSpeedChangedBehavior
 *fill*         0x00000000000a0aec        0x4 
 .text.ARCOMMANDS_Filter_SetMiniDroneSpeedSettingsStateMaxRotationSpeedChangedBehavior
                0x00000000000a0af0       0x2c /home/sunho/bebop_ws/devel/arsdk/out/arsdk-native/build/libARCommands/obj/gen/Sources/ARCOMMANDS_Filter.c.o
                0x00000000000a0af0                ARCOMMANDS_Filter_SetMiniDroneSpeedSettingsStateMaxRotationSpeedChangedBehavior
 *fill*         0x00000000000a0b1c        0x4 
 .text.ARCOMMANDS_Filter_SetMiniDroneSpeedSettingsStateWheelsChangedBehavior
                0x00000000000a0b20       0x2c /home/sunho/bebop_ws/devel/arsdk/out/arsdk-native/build/libARCommands/obj/gen/Sources/ARCOMMANDS_Filter.c.o
                0x00000000000a0b20                ARCOMMANDS_Filter_SetMiniDroneSpeedSettingsStateWheelsChangedBehavior
 *fill*         0x00000000000a0b4c        0x4 
 .text.ARCOMMANDS_Filter_SetMiniDroneSpeedSettingsStateMaxHorizontalSpeedChangedBehavior
                0x00000000000a0b50       0x2c /home/sunho/bebop_ws/devel/arsdk/out/arsdk-native/build/libARCommands/obj/gen/Sources/ARCOMMANDS_Filter.c.o
                0x00000000000a0b50                ARCOMMANDS_Filter_SetMiniDroneSpeedSettingsStateMaxHorizontalSpeedChangedBehavior
 *fill*         0x00000000000a0b7c        0x4 
 .text.ARCOMMANDS_Filter_SetMiniDroneSpeedSettingsStateMaxPlaneModeRotationSpeedChangedBehavior
                0x00000000000a0b80       0x2c /home/sunho/bebop_ws/devel/arsdk/out/arsdk-native/build/libARCommands/obj/gen/Sources/ARCOMMANDS_Filter.c.o
                0x00000000000a0b80                ARCOMMANDS_Filter_SetMiniDroneSpeedSettingsStateMaxPlaneModeRotationSpeedChangedBehavior
 *fill*         0x00000000000a0bac        0x4 
 .text.ARCOMMANDS_Filter_SetMiniDroneSettingsStateProductMotorsVersionChangedBehavior
                0x00000000000a0bb0       0x2c /home/sunho/bebop_ws/devel/arsdk/out/arsdk-native/build/libARCommands/obj/gen/Sources/ARCOMMANDS_Filter.c.o
                0x00000000000a0bb0                ARCOMMANDS_Filter_SetMiniDroneSettingsStateProductMotorsVersionChangedBehavior
 *fill*         0x00000000000a0bdc        0x4 
 .text.ARCOMMANDS_Filter_SetMiniDroneSettingsStateProductInertialVersionChangedBehavior
                0x00000000000a0be0       0x2c /home/sunho/bebop_ws/devel/arsdk/out/arsdk-native/build/libARCommands/obj/gen/Sources/ARCOMMANDS_Filter.c.o
                0x00000000000a0be0                ARCOMMANDS_Filter_SetMiniDroneSettingsStateProductInertialVersionChangedBehavior
 *fill*         0x00000000000a0c0c        0x4 
 .text.ARCOMMANDS_Filter_SetMiniDroneSettingsStateCutOutModeChangedBehavior
                0x00000000000a0c10       0x2c /home/sunho/bebop_ws/devel/arsdk/out/arsdk-native/build/libARCommands/obj/gen/Sources/ARCOMMANDS_Filter.c.o
                0x00000000000a0c10                ARCOMMANDS_Filter_SetMiniDroneSettingsStateCutOutModeChangedBehavior
 *fill*         0x00000000000a0c3c        0x4 
 .text.ARCOMMANDS_Filter_SetMiniDroneFloodControlStateFloodControlChangedBehavior
                0x00000000000a0c40       0x2c /home/sunho/bebop_ws/devel/arsdk/out/arsdk-native/build/libARCommands/obj/gen/Sources/ARCOMMANDS_Filter.c.o
                0x00000000000a0c40                ARCOMMANDS_Filter_SetMiniDroneFloodControlStateFloodControlChangedBehavior
 *fill*         0x00000000000a0c6c        0x4 
 .text.ARCOMMANDS_Filter_SetMiniDroneUsbAccessoryStateLightStateBehavior
                0x00000000000a0c70       0x2c /home/sunho/bebop_ws/devel/arsdk/out/arsdk-native/build/libARCommands/obj/gen/Sources/ARCOMMANDS_Filter.c.o
                0x00000000000a0c70                ARCOMMANDS_Filter_SetMiniDroneUsbAccessoryStateLightStateBehavior
 *fill*         0x00000000000a0c9c        0x4 
 .text.ARCOMMANDS_Filter_SetMiniDroneUsbAccessoryStateClawStateBehavior
                0x00000000000a0ca0       0x2c /home/sunho/bebop_ws/devel/arsdk/out/arsdk-native/build/libARCommands/obj/gen/Sources/ARCOMMANDS_Filter.c.o
                0x00000000000a0ca0                ARCOMMANDS_Filter_SetMiniDroneUsbAccessoryStateClawStateBehavior
 *fill*         0x00000000000a0ccc        0x4 
 .text.ARCOMMANDS_Filter_SetMiniDroneUsbAccessoryStateGunStateBehavior
                0x00000000000a0cd0       0x2c /home/sunho/bebop_ws/devel/arsdk/out/arsdk-native/build/libARCommands/obj/gen/Sources/ARCOMMANDS_Filter.c.o
                0x00000000000a0cd0                ARCOMMANDS_Filter_SetMiniDroneUsbAccessoryStateGunStateBehavior
 *fill*         0x00000000000a0cfc        0x4 
 .text.ARCOMMANDS_Filter_SetMiniDroneNavigationDataStateDronePositionBehavior
                0x00000000000a0d00       0x2c /home/sunho/bebop_ws/devel/arsdk/out/arsdk-native/build/libARCommands/obj/gen/Sources/ARCOMMANDS_Filter.c.o
                0x00000000000a0d00                ARCOMMANDS_Filter_SetMiniDroneNavigationDataStateDronePositionBehavior
 *fill*         0x00000000000a0d2c        0x4 
 .text.ARCOMMANDS_Filter_SetPowerupBehavior
                0x00000000000a0d30       0xec /home/sunho/bebop_ws/devel/arsdk/out/arsdk-native/build/libARCommands/obj/gen/Sources/ARCOMMANDS_Filter.c.o
                0x00000000000a0d30                ARCOMMANDS_Filter_SetPowerupBehavior
 *fill*         0x00000000000a0e1c        0x4 
 .text.ARCOMMANDS_Filter_SetPowerupPilotingBehavior
                0x00000000000a0e20       0x38 /home/sunho/bebop_ws/devel/arsdk/out/arsdk-native/build/libARCommands/obj/gen/Sources/ARCOMMANDS_Filter.c.o
                0x00000000000a0e20                ARCOMMANDS_Filter_SetPowerupPilotingBehavior
 *fill*         0x00000000000a0e58        0x8 
 .text.ARCOMMANDS_Filter_SetPowerupPilotingStateBehavior
                0x00000000000a0e60       0x44 /home/sunho/bebop_ws/devel/arsdk/out/arsdk-native/build/libARCommands/obj/gen/Sources/ARCOMMANDS_Filter.c.o
                0x00000000000a0e60                ARCOMMANDS_Filter_SetPowerupPilotingStateBehavior
 *fill*         0x00000000000a0ea4        0xc 
 .text.ARCOMMANDS_Filter_SetPowerupPilotingSettingsBehavior
                0x00000000000a0eb0       0x2c /home/sunho/bebop_ws/devel/arsdk/out/arsdk-native/build/libARCommands/obj/gen/Sources/ARCOMMANDS_Filter.c.o
                0x00000000000a0eb0                ARCOMMANDS_Filter_SetPowerupPilotingSettingsBehavior
 *fill*         0x00000000000a0edc        0x4 
 .text.ARCOMMANDS_Filter_SetPowerupPilotingSettingsStateBehavior
                0x00000000000a0ee0       0x2c /home/sunho/bebop_ws/devel/arsdk/out/arsdk-native/build/libARCommands/obj/gen/Sources/ARCOMMANDS_Filter.c.o
                0x00000000000a0ee0                ARCOMMANDS_Filter_SetPowerupPilotingSettingsStateBehavior
 *fill*         0x00000000000a0f0c        0x4 
 .text.ARCOMMANDS_Filter_SetPowerupMediaRecordBehavior
                0x00000000000a0f10       0x32 /home/sunho/bebop_ws/devel/arsdk/out/arsdk-native/build/libARCommands/obj/gen/Sources/ARCOMMANDS_Filter.c.o
                0x00000000000a0f10                ARCOMMANDS_Filter_SetPowerupMediaRecordBehavior
 *fill*         0x00000000000a0f42        0xe 
 .text.ARCOMMANDS_Filter_SetPowerupMediaRecordStateBehavior
                0x00000000000a0f50       0x32 /home/sunho/bebop_ws/devel/arsdk/out/arsdk-native/build/libARCommands/obj/gen/Sources/ARCOMMANDS_Filter.c.o
                0x00000000000a0f50                ARCOMMANDS_Filter_SetPowerupMediaRecordStateBehavior
 *fill*         0x00000000000a0f82        0xe 
 .text.ARCOMMANDS_Filter_SetPowerupMediaRecordEventBehavior
                0x00000000000a0f90       0x32 /home/sunho/bebop_ws/devel/arsdk/out/arsdk-native/build/libARCommands/obj/gen/Sources/ARCOMMANDS_Filter.c.o
                0x00000000000a0f90                ARCOMMANDS_Filter_SetPowerupMediaRecordEventBehavior
 *fill*         0x00000000000a0fc2        0xe 
 .text.ARCOMMANDS_Filter_SetPowerupNetworkSettingsBehavior
                0x00000000000a0fd0       0x2c /home/sunho/bebop_ws/devel/arsdk/out/arsdk-native/build/libARCommands/obj/gen/Sources/ARCOMMANDS_Filter.c.o
                0x00000000000a0fd0                ARCOMMANDS_Filter_SetPowerupNetworkSettingsBehavior
 *fill*         0x00000000000a0ffc        0x4 
 .text.ARCOMMANDS_Filter_SetPowerupNetworkSettingsStateBehavior
                0x00000000000a1000       0x2c /home/sunho/bebop_ws/devel/arsdk/out/arsdk-native/build/libARCommands/obj/gen/Sources/ARCOMMANDS_Filter.c.o
                0x00000000000a1000                ARCOMMANDS_Filter_SetPowerupNetworkSettingsStateBehavior
 *fill*         0x00000000000a102c        0x4 
 .text.ARCOMMANDS_Filter_SetPowerupNetworkBehavior
                0x00000000000a1030       0x32 /home/sunho/bebop_ws/devel/arsdk/out/arsdk-native/build/libARCommands/obj/gen/Sources/ARCOMMANDS_Filter.c.o
                0x00000000000a1030                ARCOMMANDS_Filter_SetPowerupNetworkBehavior
 *fill*         0x00000000000a1062        0xe 
 .text.ARCOMMANDS_Filter_SetPowerupNetworkStateBehavior
                0x00000000000a1070       0x44 /home/sunho/bebop_ws/devel/arsdk/out/arsdk-native/build/libARCommands/obj/gen/Sources/ARCOMMANDS_Filter.c.o
                0x00000000000a1070                ARCOMMANDS_Filter_SetPowerupNetworkStateBehavior
 *fill*         0x00000000000a10b4        0xc 
 .text.ARCOMMANDS_Filter_SetPowerupMediaStreamingBehavior
                0x00000000000a10c0       0x2c /home/sunho/bebop_ws/devel/arsdk/out/arsdk-native/build/libARCommands/obj/gen/Sources/ARCOMMANDS_Filter.c.o
                0x00000000000a10c0                ARCOMMANDS_Filter_SetPowerupMediaStreamingBehavior
 *fill*         0x00000000000a10ec        0x4 
 .text.ARCOMMANDS_Filter_SetPowerupMediaStreamingStateBehavior
                0x00000000000a10f0       0x2c /home/sunho/bebop_ws/devel/arsdk/out/arsdk-native/build/libARCommands/obj/gen/Sources/ARCOMMANDS_Filter.c.o
                0x00000000000a10f0                ARCOMMANDS_Filter_SetPowerupMediaStreamingStateBehavior
 *fill*         0x00000000000a111c        0x4 
 .text.ARCOMMANDS_Filter_SetPowerupVideoSettingsBehavior
                0x00000000000a1120       0x32 /home/sunho/bebop_ws/devel/arsdk/out/arsdk-native/build/libARCommands/obj/gen/Sources/ARCOMMANDS_Filter.c.o
                0x00000000000a1120                ARCOMMANDS_Filter_SetPowerupVideoSettingsBehavior
 *fill*         0x00000000000a1152        0xe 
 .text.ARCOMMANDS_Filter_SetPowerupVideoSettingsStateBehavior
                0x00000000000a1160       0x32 /home/sunho/bebop_ws/devel/arsdk/out/arsdk-native/build/libARCommands/obj/gen/Sources/ARCOMMANDS_Filter.c.o
                0x00000000000a1160                ARCOMMANDS_Filter_SetPowerupVideoSettingsStateBehavior
 *fill*         0x00000000000a1192        0xe 
 .text.ARCOMMANDS_Filter_SetPowerupSoundsBehavior
                0x00000000000a11a0       0x2c /home/sunho/bebop_ws/devel/arsdk/out/arsdk-native/build/libARCommands/obj/gen/Sources/ARCOMMANDS_Filter.c.o
                0x00000000000a11a0                ARCOMMANDS_Filter_SetPowerupSoundsBehavior
 *fill*         0x00000000000a11cc        0x4 
 .text.ARCOMMANDS_Filter_SetPowerupSoundsStateBehavior
                0x00000000000a11d0       0x2c /home/sunho/bebop_ws/devel/arsdk/out/arsdk-native/build/libARCommands/obj/gen/Sources/ARCOMMANDS_Filter.c.o
                0x00000000000a11d0                ARCOMMANDS_Filter_SetPowerupSoundsStateBehavior
 *fill*         0x00000000000a11fc        0x4 
 .text.ARCOMMANDS_Filter_SetPowerupPilotingPCMDBehavior
                0x00000000000a1200       0x2c /home/sunho/bebop_ws/devel/arsdk/out/arsdk-native/build/libARCommands/obj/gen/Sources/ARCOMMANDS_Filter.c.o
                0x00000000000a1200                ARCOMMANDS_Filter_SetPowerupPilotingPCMDBehavior
 *fill*         0x00000000000a122c        0x4 
 .text.ARCOMMANDS_Filter_SetPowerupPilotingUserTakeOffBehavior
                0x00000000000a1230       0x2c /home/sunho/bebop_ws/devel/arsdk/out/arsdk-native/build/libARCommands/obj/gen/Sources/ARCOMMANDS_Filter.c.o
                0x00000000000a1230                ARCOMMANDS_Filter_SetPowerupPilotingUserTakeOffBehavior
 *fill*         0x00000000000a125c        0x4 
 .text.ARCOMMANDS_Filter_SetPowerupPilotingMotorModeBehavior
                0x00000000000a1260       0x2c /home/sunho/bebop_ws/devel/arsdk/out/arsdk-native/build/libARCommands/obj/gen/Sources/ARCOMMANDS_Filter.c.o
                0x00000000000a1260                ARCOMMANDS_Filter_SetPowerupPilotingMotorModeBehavior
 *fill*         0x00000000000a128c        0x4 
 .text.ARCOMMANDS_Filter_SetPowerupPilotingSettingsSetBehavior
                0x00000000000a1290       0x2c /home/sunho/bebop_ws/devel/arsdk/out/arsdk-native/build/libARCommands/obj/gen/Sources/ARCOMMANDS_Filter.c.o
                0x00000000000a1290                ARCOMMANDS_Filter_SetPowerupPilotingSettingsSetBehavior
 *fill*         0x00000000000a12bc        0x4 
 .text.ARCOMMANDS_Filter_SetPowerupMediaRecordPictureV2Behavior
                0x00000000000a12c0       0x2c /home/sunho/bebop_ws/devel/arsdk/out/arsdk-native/build/libARCommands/obj/gen/Sources/ARCOMMANDS_Filter.c.o
                0x00000000000a12c0                ARCOMMANDS_Filter_SetPowerupMediaRecordPictureV2Behavior
 *fill*         0x00000000000a12ec        0x4 
 .text.ARCOMMANDS_Filter_SetPowerupMediaRecordVideoV2Behavior
                0x00000000000a12f0       0x2c /home/sunho/bebop_ws/devel/arsdk/out/arsdk-native/build/libARCommands/obj/gen/Sources/ARCOMMANDS_Filter.c.o
                0x00000000000a12f0                ARCOMMANDS_Filter_SetPowerupMediaRecordVideoV2Behavior
 *fill*         0x00000000000a131c        0x4 
 .text.ARCOMMANDS_Filter_SetPowerupNetworkSettingsWifiSelectionBehavior
                0x00000000000a1320       0x2c /home/sunho/bebop_ws/devel/arsdk/out/arsdk-native/build/libARCommands/obj/gen/Sources/ARCOMMANDS_Filter.c.o
                0x00000000000a1320                ARCOMMANDS_Filter_SetPowerupNetworkSettingsWifiSelectionBehavior
 *fill*         0x00000000000a134c        0x4 
 .text.ARCOMMANDS_Filter_SetPowerupNetworkWifiScanBehavior
                0x00000000000a1350       0x2c /home/sunho/bebop_ws/devel/arsdk/out/arsdk-native/build/libARCommands/obj/gen/Sources/ARCOMMANDS_Filter.c.o
                0x00000000000a1350                ARCOMMANDS_Filter_SetPowerupNetworkWifiScanBehavior
 *fill*         0x00000000000a137c        0x4 
 .text.ARCOMMANDS_Filter_SetPowerupNetworkWifiAuthChannelBehavior
                0x00000000000a1380       0x2c /home/sunho/bebop_ws/devel/arsdk/out/arsdk-native/build/libARCommands/obj/gen/Sources/ARCOMMANDS_Filter.c.o
                0x00000000000a1380                ARCOMMANDS_Filter_SetPowerupNetworkWifiAuthChannelBehavior
 *fill*         0x00000000000a13ac        0x4 
 .text.ARCOMMANDS_Filter_SetPowerupMediaStreamingVideoEnableBehavior
                0x00000000000a13b0       0x2c /home/sunho/bebop_ws/devel/arsdk/out/arsdk-native/build/libARCommands/obj/gen/Sources/ARCOMMANDS_Filter.c.o
                0x00000000000a13b0                ARCOMMANDS_Filter_SetPowerupMediaStreamingVideoEnableBehavior
 *fill*         0x00000000000a13dc        0x4 
 .text.ARCOMMANDS_Filter_SetPowerupVideoSettingsAutorecordBehavior
                0x00000000000a13e0       0x2c /home/sunho/bebop_ws/devel/arsdk/out/arsdk-native/build/libARCommands/obj/gen/Sources/ARCOMMANDS_Filter.c.o
                0x00000000000a13e0                ARCOMMANDS_Filter_SetPowerupVideoSettingsAutorecordBehavior
 *fill*         0x00000000000a140c        0x4 
 .text.ARCOMMANDS_Filter_SetPowerupVideoSettingsVideoModeBehavior
                0x00000000000a1410       0x2c /home/sunho/bebop_ws/devel/arsdk/out/arsdk-native/build/libARCommands/obj/gen/Sources/ARCOMMANDS_Filter.c.o
                0x00000000000a1410                ARCOMMANDS_Filter_SetPowerupVideoSettingsVideoModeBehavior
 *fill*         0x00000000000a143c        0x4 
 .text.ARCOMMANDS_Filter_SetPowerupSoundsBuzzBehavior
                0x00000000000a1440       0x2c /home/sunho/bebop_ws/devel/arsdk/out/arsdk-native/build/libARCommands/obj/gen/Sources/ARCOMMANDS_Filter.c.o
                0x00000000000a1440                ARCOMMANDS_Filter_SetPowerupSoundsBuzzBehavior
 *fill*         0x00000000000a146c        0x4 
 .text.ARCOMMANDS_Filter_SetPowerupPilotingStateAlertStateChangedBehavior
                0x00000000000a1470       0x2c /home/sunho/bebop_ws/devel/arsdk/out/arsdk-native/build/libARCommands/obj/gen/Sources/ARCOMMANDS_Filter.c.o
                0x00000000000a1470                ARCOMMANDS_Filter_SetPowerupPilotingStateAlertStateChangedBehavior
 *fill*         0x00000000000a149c        0x4 
 .text.ARCOMMANDS_Filter_SetPowerupPilotingStateFlyingStateChangedBehavior
                0x00000000000a14a0       0x2c /home/sunho/bebop_ws/devel/arsdk/out/arsdk-native/build/libARCommands/obj/gen/Sources/ARCOMMANDS_Filter.c.o
                0x00000000000a14a0                ARCOMMANDS_Filter_SetPowerupPilotingStateFlyingStateChangedBehavior
 *fill*         0x00000000000a14cc        0x4 
 .text.ARCOMMANDS_Filter_SetPowerupPilotingStateMotorModeChangedBehavior
                0x00000000000a14d0       0x2c /home/sunho/bebop_ws/devel/arsdk/out/arsdk-native/build/libARCommands/obj/gen/Sources/ARCOMMANDS_Filter.c.o
                0x00000000000a14d0                ARCOMMANDS_Filter_SetPowerupPilotingStateMotorModeChangedBehavior
 *fill*         0x00000000000a14fc        0x4 
 .text.ARCOMMANDS_Filter_SetPowerupPilotingStateAttitudeChangedBehavior
                0x00000000000a1500       0x2c /home/sunho/bebop_ws/devel/arsdk/out/arsdk-native/build/libARCommands/obj/gen/Sources/ARCOMMANDS_Filter.c.o
                0x00000000000a1500                ARCOMMANDS_Filter_SetPowerupPilotingStateAttitudeChangedBehavior
 *fill*         0x00000000000a152c        0x4 
 .text.ARCOMMANDS_Filter_SetPowerupPilotingStateAltitudeChangedBehavior
                0x00000000000a1530       0x2c /home/sunho/bebop_ws/devel/arsdk/out/arsdk-native/build/libARCommands/obj/gen/Sources/ARCOMMANDS_Filter.c.o
                0x00000000000a1530                ARCOMMANDS_Filter_SetPowerupPilotingStateAltitudeChangedBehavior
 *fill*         0x00000000000a155c        0x4 
 .text.ARCOMMANDS_Filter_SetPowerupPilotingSettingsStateSettingChangedBehavior
                0x00000000000a1560       0x2c /home/sunho/bebop_ws/devel/arsdk/out/arsdk-native/build/libARCommands/obj/gen/Sources/ARCOMMANDS_Filter.c.o
                0x00000000000a1560                ARCOMMANDS_Filter_SetPowerupPilotingSettingsStateSettingChangedBehavior
 *fill*         0x00000000000a158c        0x4 
 .text.ARCOMMANDS_Filter_SetPowerupMediaRecordStatePictureStateChangedV2Behavior
                0x00000000000a1590       0x2c /home/sunho/bebop_ws/devel/arsdk/out/arsdk-native/build/libARCommands/obj/gen/Sources/ARCOMMANDS_Filter.c.o
                0x00000000000a1590                ARCOMMANDS_Filter_SetPowerupMediaRecordStatePictureStateChangedV2Behavior
 *fill*         0x00000000000a15bc        0x4 
 .text.ARCOMMANDS_Filter_SetPowerupMediaRecordStateVideoStateChangedV2Behavior
                0x00000000000a15c0       0x2c /home/sunho/bebop_ws/devel/arsdk/out/arsdk-native/build/libARCommands/obj/gen/Sources/ARCOMMANDS_Filter.c.o
                0x00000000000a15c0                ARCOMMANDS_Filter_SetPowerupMediaRecordStateVideoStateChangedV2Behavior
 *fill*         0x00000000000a15ec        0x4 
 .text.ARCOMMANDS_Filter_SetPowerupMediaRecordEventPictureEventChangedBehavior
                0x00000000000a15f0       0x2c /home/sunho/bebop_ws/devel/arsdk/out/arsdk-native/build/libARCommands/obj/gen/Sources/ARCOMMANDS_Filter.c.o
                0x00000000000a15f0                ARCOMMANDS_Filter_SetPowerupMediaRecordEventPictureEventChangedBehavior
 *fill*         0x00000000000a161c        0x4 
 .text.ARCOMMANDS_Filter_SetPowerupMediaRecordEventVideoEventChangedBehavior
                0x00000000000a1620       0x2c /home/sunho/bebop_ws/devel/arsdk/out/arsdk-native/build/libARCommands/obj/gen/Sources/ARCOMMANDS_Filter.c.o
                0x00000000000a1620                ARCOMMANDS_Filter_SetPowerupMediaRecordEventVideoEventChangedBehavior
 *fill*         0x00000000000a164c        0x4 
 .text.ARCOMMANDS_Filter_SetPowerupNetworkSettingsStateWifiSelectionChangedBehavior
                0x00000000000a1650       0x2c /home/sunho/bebop_ws/devel/arsdk/out/arsdk-native/build/libARCommands/obj/gen/Sources/ARCOMMANDS_Filter.c.o
                0x00000000000a1650                ARCOMMANDS_Filter_SetPowerupNetworkSettingsStateWifiSelectionChangedBehavior
 *fill*         0x00000000000a167c        0x4 
 .text.ARCOMMANDS_Filter_SetPowerupNetworkStateWifiScanListChangedBehavior
                0x00000000000a1680       0x2c /home/sunho/bebop_ws/devel/arsdk/out/arsdk-native/build/libARCommands/obj/gen/Sources/ARCOMMANDS_Filter.c.o
                0x00000000000a1680                ARCOMMANDS_Filter_SetPowerupNetworkStateWifiScanListChangedBehavior
 *fill*         0x00000000000a16ac        0x4 
 .text.ARCOMMANDS_Filter_SetPowerupNetworkStateAllWifiScanChangedBehavior
                0x00000000000a16b0       0x2c /home/sunho/bebop_ws/devel/arsdk/out/arsdk-native/build/libARCommands/obj/gen/Sources/ARCOMMANDS_Filter.c.o
                0x00000000000a16b0                ARCOMMANDS_Filter_SetPowerupNetworkStateAllWifiScanChangedBehavior
 *fill*         0x00000000000a16dc        0x4 
 .text.ARCOMMANDS_Filter_SetPowerupNetworkStateWifiAuthChannelListChangedBehavior
                0x00000000000a16e0       0x2c /home/sunho/bebop_ws/devel/arsdk/out/arsdk-native/build/libARCommands/obj/gen/Sources/ARCOMMANDS_Filter.c.o
                0x00000000000a16e0                ARCOMMANDS_Filter_SetPowerupNetworkStateWifiAuthChannelListChangedBehavior
 *fill*         0x00000000000a170c        0x4 
 .text.ARCOMMANDS_Filter_SetPowerupNetworkStateAllWifiAuthChannelChangedBehavior
                0x00000000000a1710       0x2c /home/sunho/bebop_ws/devel/arsdk/out/arsdk-native/build/libARCommands/obj/gen/Sources/ARCOMMANDS_Filter.c.o
                0x00000000000a1710                ARCOMMANDS_Filter_SetPowerupNetworkStateAllWifiAuthChannelChangedBehavior
 *fill*         0x00000000000a173c        0x4 
 .text.ARCOMMANDS_Filter_SetPowerupNetworkStateLinkQualityChangedBehavior
                0x00000000000a1740       0x2c /home/sunho/bebop_ws/devel/arsdk/out/arsdk-native/build/libARCommands/obj/gen/Sources/ARCOMMANDS_Filter.c.o
                0x00000000000a1740                ARCOMMANDS_Filter_SetPowerupNetworkStateLinkQualityChangedBehavior
 *fill*         0x00000000000a176c        0x4 
 .text.ARCOMMANDS_Filter_SetPowerupMediaStreamingStateVideoEnableChangedBehavior
                0x00000000000a1770       0x2c /home/sunho/bebop_ws/devel/arsdk/out/arsdk-native/build/libARCommands/obj/gen/Sources/ARCOMMANDS_Filter.c.o
                0x00000000000a1770                ARCOMMANDS_Filter_SetPowerupMediaStreamingStateVideoEnableChangedBehavior
 *fill*         0x00000000000a179c        0x4 
 .text.ARCOMMANDS_Filter_SetPowerupVideoSettingsStateAutorecordChangedBehavior
                0x00000000000a17a0       0x2c /home/sunho/bebop_ws/devel/arsdk/out/arsdk-native/build/libARCommands/obj/gen/Sources/ARCOMMANDS_Filter.c.o
                0x00000000000a17a0                ARCOMMANDS_Filter_SetPowerupVideoSettingsStateAutorecordChangedBehavior
 *fill*         0x00000000000a17cc        0x4 
 .text.ARCOMMANDS_Filter_SetPowerupVideoSettingsStateVideoModeChangedBehavior
                0x00000000000a17d0       0x2c /home/sunho/bebop_ws/devel/arsdk/out/arsdk-native/build/libARCommands/obj/gen/Sources/ARCOMMANDS_Filter.c.o
                0x00000000000a17d0                ARCOMMANDS_Filter_SetPowerupVideoSettingsStateVideoModeChangedBehavior
 *fill*         0x00000000000a17fc        0x4 
 .text.ARCOMMANDS_Filter_SetPowerupSoundsStateBuzzChangedBehavior
                0x00000000000a1800       0x2c /home/sunho/bebop_ws/devel/arsdk/out/arsdk-native/build/libARCommands/obj/gen/Sources/ARCOMMANDS_Filter.c.o
                0x00000000000a1800                ARCOMMANDS_Filter_SetPowerupSoundsStateBuzzChangedBehavior
 *fill*         0x00000000000a182c        0x4 
 .text.ARCOMMANDS_Filter_SetProBehavior
                0x00000000000a1830       0x4a /home/sunho/bebop_ws/devel/arsdk/out/arsdk-native/build/libARCommands/obj/gen/Sources/ARCOMMANDS_Filter.c.o
                0x00000000000a1830                ARCOMMANDS_Filter_SetProBehavior
 *fill*         0x00000000000a187a        0x6 
 .text.ARCOMMANDS_Filter_SetProProBehavior
                0x00000000000a1880       0x38 /home/sunho/bebop_ws/devel/arsdk/out/arsdk-native/build/libARCommands/obj/gen/Sources/ARCOMMANDS_Filter.c.o
                0x00000000000a1880                ARCOMMANDS_Filter_SetProProBehavior
 *fill*         0x00000000000a18b8        0x8 
 .text.ARCOMMANDS_Filter_SetProProStateBehavior
                0x00000000000a18c0       0x32 /home/sunho/bebop_ws/devel/arsdk/out/arsdk-native/build/libARCommands/obj/gen/Sources/ARCOMMANDS_Filter.c.o
                0x00000000000a18c0                ARCOMMANDS_Filter_SetProProStateBehavior
 *fill*         0x00000000000a18f2        0xe 
 .text.ARCOMMANDS_Filter_SetProProEventBehavior
                0x00000000000a1900       0x2c /home/sunho/bebop_ws/devel/arsdk/out/arsdk-native/build/libARCommands/obj/gen/Sources/ARCOMMANDS_Filter.c.o
                0x00000000000a1900                ARCOMMANDS_Filter_SetProProEventBehavior
 *fill*         0x00000000000a192c        0x4 
 .text.ARCOMMANDS_Filter_SetProProBoughtFeaturesBehavior
                0x00000000000a1930       0x2c /home/sunho/bebop_ws/devel/arsdk/out/arsdk-native/build/libARCommands/obj/gen/Sources/ARCOMMANDS_Filter.c.o
                0x00000000000a1930                ARCOMMANDS_Filter_SetProProBoughtFeaturesBehavior
 *fill*         0x00000000000a195c        0x4 
 .text.ARCOMMANDS_Filter_SetProProResponseBehavior
                0x00000000000a1960       0x2c /home/sunho/bebop_ws/devel/arsdk/out/arsdk-native/build/libARCommands/obj/gen/Sources/ARCOMMANDS_Filter.c.o
                0x00000000000a1960                ARCOMMANDS_Filter_SetProProResponseBehavior
 *fill*         0x00000000000a198c        0x4 
 .text.ARCOMMANDS_Filter_SetProProActivateFeaturesBehavior
                0x00000000000a1990       0x2c /home/sunho/bebop_ws/devel/arsdk/out/arsdk-native/build/libARCommands/obj/gen/Sources/ARCOMMANDS_Filter.c.o
                0x00000000000a1990                ARCOMMANDS_Filter_SetProProActivateFeaturesBehavior
 *fill*         0x00000000000a19bc        0x4 
 .text.ARCOMMANDS_Filter_SetProProStateSupportedFeaturesBehavior
                0x00000000000a19c0       0x2c /home/sunho/bebop_ws/devel/arsdk/out/arsdk-native/build/libARCommands/obj/gen/Sources/ARCOMMANDS_Filter.c.o
                0x00000000000a19c0                ARCOMMANDS_Filter_SetProProStateSupportedFeaturesBehavior
 *fill*         0x00000000000a19ec        0x4 
 .text.ARCOMMANDS_Filter_SetProProStateFeaturesActivatedBehavior
                0x00000000000a19f0       0x2c /home/sunho/bebop_ws/devel/arsdk/out/arsdk-native/build/libARCommands/obj/gen/Sources/ARCOMMANDS_Filter.c.o
                0x00000000000a19f0                ARCOMMANDS_Filter_SetProProStateFeaturesActivatedBehavior
 *fill*         0x00000000000a1a1c        0x4 
 .text.ARCOMMANDS_Filter_SetProProEventChallengeEventBehavior
                0x00000000000a1a20       0x2c /home/sunho/bebop_ws/devel/arsdk/out/arsdk-native/build/libARCommands/obj/gen/Sources/ARCOMMANDS_Filter.c.o
                0x00000000000a1a20                ARCOMMANDS_Filter_SetProProEventChallengeEventBehavior
 *fill*         0x00000000000a1a4c        0x4 
 .text.ARCOMMANDS_Filter_SetRcBehavior
                0x00000000000a1a50       0x62 /home/sunho/bebop_ws/devel/arsdk/out/arsdk-native/build/libARCommands/obj/gen/Sources/ARCOMMANDS_Filter.c.o
                0x00000000000a1a50                ARCOMMANDS_Filter_SetRcBehavior
 *fill*         0x00000000000a1ab2        0xe 
 .text.ARCOMMANDS_Filter_SetRcMonitorChannelsBehavior
                0x00000000000a1ac0       0x2c /home/sunho/bebop_ws/devel/arsdk/out/arsdk-native/build/libARCommands/obj/gen/Sources/ARCOMMANDS_Filter.c.o
                0x00000000000a1ac0                ARCOMMANDS_Filter_SetRcMonitorChannelsBehavior
 *fill*         0x00000000000a1aec        0x4 
 .text.ARCOMMANDS_Filter_SetRcStartCalibrationBehavior
                0x00000000000a1af0       0x2c /home/sunho/bebop_ws/devel/arsdk/out/arsdk-native/build/libARCommands/obj/gen/Sources/ARCOMMANDS_Filter.c.o
                0x00000000000a1af0                ARCOMMANDS_Filter_SetRcStartCalibrationBehavior
 *fill*         0x00000000000a1b1c        0x4 
 .text.ARCOMMANDS_Filter_SetRcInvertChannelBehavior
                0x00000000000a1b20       0x2c /home/sunho/bebop_ws/devel/arsdk/out/arsdk-native/build/libARCommands/obj/gen/Sources/ARCOMMANDS_Filter.c.o
                0x00000000000a1b20                ARCOMMANDS_Filter_SetRcInvertChannelBehavior
 *fill*         0x00000000000a1b4c        0x4 
 .text.ARCOMMANDS_Filter_SetRcAbortCalibrationBehavior
                0x00000000000a1b50       0x2c /home/sunho/bebop_ws/devel/arsdk/out/arsdk-native/build/libARCommands/obj/gen/Sources/ARCOMMANDS_Filter.c.o
                0x00000000000a1b50                ARCOMMANDS_Filter_SetRcAbortCalibrationBehavior
 *fill*         0x00000000000a1b7c        0x4 
 .text.ARCOMMANDS_Filter_SetRcResetCalibrationBehavior
                0x00000000000a1b80       0x2c /home/sunho/bebop_ws/devel/arsdk/out/arsdk-native/build/libARCommands/obj/gen/Sources/ARCOMMANDS_Filter.c.o
                0x00000000000a1b80                ARCOMMANDS_Filter_SetRcResetCalibrationBehavior
 *fill*         0x00000000000a1bac        0x4 
 .text.ARCOMMANDS_Filter_SetRcReceiverStateBehavior
                0x00000000000a1bb0       0x2c /home/sunho/bebop_ws/devel/arsdk/out/arsdk-native/build/libARCommands/obj/gen/Sources/ARCOMMANDS_Filter.c.o
                0x00000000000a1bb0                ARCOMMANDS_Filter_SetRcReceiverStateBehavior
 *fill*         0x00000000000a1bdc        0x4 
 .text.ARCOMMANDS_Filter_SetRcChannelsMonitorStateBehavior
                0x00000000000a1be0       0x2c /home/sunho/bebop_ws/devel/arsdk/out/arsdk-native/build/libARCommands/obj/gen/Sources/ARCOMMANDS_Filter.c.o
                0x00000000000a1be0                ARCOMMANDS_Filter_SetRcChannelsMonitorStateBehavior
 *fill*         0x00000000000a1c0c        0x4 
 .text.ARCOMMANDS_Filter_SetRcChannelValueBehavior
                0x00000000000a1c10       0x2c /home/sunho/bebop_ws/devel/arsdk/out/arsdk-native/build/libARCommands/obj/gen/Sources/ARCOMMANDS_Filter.c.o
                0x00000000000a1c10                ARCOMMANDS_Filter_SetRcChannelValueBehavior
 *fill*         0x00000000000a1c3c        0x4 
 .text.ARCOMMANDS_Filter_SetRcCalibrationStateBehavior
                0x00000000000a1c40       0x2c /home/sunho/bebop_ws/devel/arsdk/out/arsdk-native/build/libARCommands/obj/gen/Sources/ARCOMMANDS_Filter.c.o
                0x00000000000a1c40                ARCOMMANDS_Filter_SetRcCalibrationStateBehavior
 *fill*         0x00000000000a1c6c        0x4 
 .text.ARCOMMANDS_Filter_SetRcReceiverQualityBehavior
                0x00000000000a1c70       0x2c /home/sunho/bebop_ws/devel/arsdk/out/arsdk-native/build/libARCommands/obj/gen/Sources/ARCOMMANDS_Filter.c.o
                0x00000000000a1c70                ARCOMMANDS_Filter_SetRcReceiverQualityBehavior
 *fill*         0x00000000000a1c9c        0x4 
 .text.ARCOMMANDS_Filter_SetSkyControllerBehavior
                0x00000000000a1ca0      0x1ca /home/sunho/bebop_ws/devel/arsdk/out/arsdk-native/build/libARCommands/obj/gen/Sources/ARCOMMANDS_Filter.c.o
                0x00000000000a1ca0                ARCOMMANDS_Filter_SetSkyControllerBehavior
 *fill*         0x00000000000a1e6a        0x6 
 .text.ARCOMMANDS_Filter_SetSkyControllerWifiStateBehavior
                0x00000000000a1e70       0x44 /home/sunho/bebop_ws/devel/arsdk/out/arsdk-native/build/libARCommands/obj/gen/Sources/ARCOMMANDS_Filter.c.o
                0x00000000000a1e70                ARCOMMANDS_Filter_SetSkyControllerWifiStateBehavior
 *fill*         0x00000000000a1eb4        0xc 
 .text.ARCOMMANDS_Filter_SetSkyControllerWifiBehavior
                0x00000000000a1ec0       0x44 /home/sunho/bebop_ws/devel/arsdk/out/arsdk-native/build/libARCommands/obj/gen/Sources/ARCOMMANDS_Filter.c.o
                0x00000000000a1ec0                ARCOMMANDS_Filter_SetSkyControllerWifiBehavior
 *fill*         0x00000000000a1f04        0xc 
 .text.ARCOMMANDS_Filter_SetSkyControllerDeviceBehavior
                0x00000000000a1f10       0x38 /home/sunho/bebop_ws/devel/arsdk/out/arsdk-native/build/libARCommands/obj/gen/Sources/ARCOMMANDS_Filter.c.o
                0x00000000000a1f10                ARCOMMANDS_Filter_SetSkyControllerDeviceBehavior
 *fill*         0x00000000000a1f48        0x8 
 .text.ARCOMMANDS_Filter_SetSkyControllerDeviceStateBehavior
                0x00000000000a1f50       0x32 /home/sunho/bebop_ws/devel/arsdk/out/arsdk-native/build/libARCommands/obj/gen/Sources/ARCOMMANDS_Filter.c.o
                0x00000000000a1f50                ARCOMMANDS_Filter_SetSkyControllerDeviceStateBehavior
 *fill*         0x00000000000a1f82        0xe 
 .text.ARCOMMANDS_Filter_SetSkyControllerSettingsBehavior
                0x00000000000a1f90       0x32 /home/sunho/bebop_ws/devel/arsdk/out/arsdk-native/build/libARCommands/obj/gen/Sources/ARCOMMANDS_Filter.c.o
                0x00000000000a1f90                ARCOMMANDS_Filter_SetSkyControllerSettingsBehavior
 *fill*         0x00000000000a1fc2        0xe 
 .text.ARCOMMANDS_Filter_SetSkyControllerSettingsStateBehavior
                0x00000000000a1fd0       0x44 /home/sunho/bebop_ws/devel/arsdk/out/arsdk-native/build/libARCommands/obj/gen/Sources/ARCOMMANDS_Filter.c.o
                0x00000000000a1fd0                ARCOMMANDS_Filter_SetSkyControllerSettingsStateBehavior
 *fill*         0x00000000000a2014        0xc 
 .text.ARCOMMANDS_Filter_SetSkyControllerCommonBehavior
                0x00000000000a2020       0x2c /home/sunho/bebop_ws/devel/arsdk/out/arsdk-native/build/libARCommands/obj/gen/Sources/ARCOMMANDS_Filter.c.o
                0x00000000000a2020                ARCOMMANDS_Filter_SetSkyControllerCommonBehavior
 *fill*         0x00000000000a204c        0x4 
 .text.ARCOMMANDS_Filter_SetSkyControllerCommonStateBehavior
                0x00000000000a2050       0x2c /home/sunho/bebop_ws/devel/arsdk/out/arsdk-native/build/libARCommands/obj/gen/Sources/ARCOMMANDS_Filter.c.o
                0x00000000000a2050                ARCOMMANDS_Filter_SetSkyControllerCommonStateBehavior
 *fill*         0x00000000000a207c        0x4 
 .text.ARCOMMANDS_Filter_SetSkyControllerSkyControllerStateBehavior
                0x00000000000a2080       0x44 /home/sunho/bebop_ws/devel/arsdk/out/arsdk-native/build/libARCommands/obj/gen/Sources/ARCOMMANDS_Filter.c.o
                0x00000000000a2080                ARCOMMANDS_Filter_SetSkyControllerSkyControllerStateBehavior
 *fill*         0x00000000000a20c4        0xc 
 .text.ARCOMMANDS_Filter_SetSkyControllerAccessPointSettingsBehavior
                0x00000000000a20d0       0x38 /home/sunho/bebop_ws/devel/arsdk/out/arsdk-native/build/libARCommands/obj/gen/Sources/ARCOMMANDS_Filter.c.o
                0x00000000000a20d0                ARCOMMANDS_Filter_SetSkyControllerAccessPointSettingsBehavior
 *fill*         0x00000000000a2108        0x8 
 .text.ARCOMMANDS_Filter_SetSkyControllerAccessPointSettingsStateBehavior
                0x00000000000a2110       0x38 /home/sunho/bebop_ws/devel/arsdk/out/arsdk-native/build/libARCommands/obj/gen/Sources/ARCOMMANDS_Filter.c.o
                0x00000000000a2110                ARCOMMANDS_Filter_SetSkyControllerAccessPointSettingsStateBehavior
 *fill*         0x00000000000a2148        0x8 
 .text.ARCOMMANDS_Filter_SetSkyControllerCameraBehavior
                0x00000000000a2150       0x2c /home/sunho/bebop_ws/devel/arsdk/out/arsdk-native/build/libARCommands/obj/gen/Sources/ARCOMMANDS_Filter.c.o
                0x00000000000a2150                ARCOMMANDS_Filter_SetSkyControllerCameraBehavior
 *fill*         0x00000000000a217c        0x4 
 .text.ARCOMMANDS_Filter_SetSkyControllerGamepadInfosBehavior
                0x00000000000a2180       0x2c /home/sunho/bebop_ws/devel/arsdk/out/arsdk-native/build/libARCommands/obj/gen/Sources/ARCOMMANDS_Filter.c.o
                0x00000000000a2180                ARCOMMANDS_Filter_SetSkyControllerGamepadInfosBehavior
 *fill*         0x00000000000a21ac        0x4 
 .text.ARCOMMANDS_Filter_SetSkyControllerGamepadInfosStateBehavior
                0x00000000000a21b0       0x32 /home/sunho/bebop_ws/devel/arsdk/out/arsdk-native/build/libARCommands/obj/gen/Sources/ARCOMMANDS_Filter.c.o
                0x00000000000a21b0                ARCOMMANDS_Filter_SetSkyControllerGamepadInfosStateBehavior
 *fill*         0x00000000000a21e2        0xe 
 .text.ARCOMMANDS_Filter_SetSkyControllerButtonMappingsBehavior
                0x00000000000a21f0       0x3e /home/sunho/bebop_ws/devel/arsdk/out/arsdk-native/build/libARCommands/obj/gen/Sources/ARCOMMANDS_Filter.c.o
                0x00000000000a21f0                ARCOMMANDS_Filter_SetSkyControllerButtonMappingsBehavior
 *fill*         0x00000000000a222e        0x2 
 .text.ARCOMMANDS_Filter_SetSkyControllerButtonMappingsStateBehavior
                0x00000000000a2230       0x3e /home/sunho/bebop_ws/devel/arsdk/out/arsdk-native/build/libARCommands/obj/gen/Sources/ARCOMMANDS_Filter.c.o
                0x00000000000a2230                ARCOMMANDS_Filter_SetSkyControllerButtonMappingsStateBehavior
 *fill*         0x00000000000a226e        0x2 
 .text.ARCOMMANDS_Filter_SetSkyControllerAxisMappingsBehavior
                0x00000000000a2270       0x3e /home/sunho/bebop_ws/devel/arsdk/out/arsdk-native/build/libARCommands/obj/gen/Sources/ARCOMMANDS_Filter.c.o
                0x00000000000a2270                ARCOMMANDS_Filter_SetSkyControllerAxisMappingsBehavior
 *fill*         0x00000000000a22ae        0x2 
 .text.ARCOMMANDS_Filter_SetSkyControllerAxisMappingsStateBehavior
                0x00000000000a22b0       0x3e /home/sunho/bebop_ws/devel/arsdk/out/arsdk-native/build/libARCommands/obj/gen/Sources/ARCOMMANDS_Filter.c.o
                0x00000000000a22b0                ARCOMMANDS_Filter_SetSkyControllerAxisMappingsStateBehavior
 *fill*         0x00000000000a22ee        0x2 
 .text.ARCOMMANDS_Filter_SetSkyControllerAxisFiltersBehavior
                0x00000000000a22f0       0x3e /home/sunho/bebop_ws/devel/arsdk/out/arsdk-native/build/libARCommands/obj/gen/Sources/ARCOMMANDS_Filter.c.o
                0x00000000000a22f0                ARCOMMANDS_Filter_SetSkyControllerAxisFiltersBehavior
 *fill*         0x00000000000a232e        0x2 
 .text.ARCOMMANDS_Filter_SetSkyControllerAxisFiltersStateBehavior
                0x00000000000a2330       0x3e /home/sunho/bebop_ws/devel/arsdk/out/arsdk-native/build/libARCommands/obj/gen/Sources/ARCOMMANDS_Filter.c.o
                0x00000000000a2330                ARCOMMANDS_Filter_SetSkyControllerAxisFiltersStateBehavior
 *fill*         0x00000000000a236e        0x2 
 .text.ARCOMMANDS_Filter_SetSkyControllerCoPilotingBehavior
                0x00000000000a2370       0x2c /home/sunho/bebop_ws/devel/arsdk/out/arsdk-native/build/libARCommands/obj/gen/Sources/ARCOMMANDS_Filter.c.o
                0x00000000000a2370                ARCOMMANDS_Filter_SetSkyControllerCoPilotingBehavior
 *fill*         0x00000000000a239c        0x4 
 .text.ARCOMMANDS_Filter_SetSkyControllerCoPilotingStateBehavior
                0x00000000000a23a0       0x2c /home/sunho/bebop_ws/devel/arsdk/out/arsdk-native/build/libARCommands/obj/gen/Sources/ARCOMMANDS_Filter.c.o
                0x00000000000a23a0                ARCOMMANDS_Filter_SetSkyControllerCoPilotingStateBehavior
 *fill*         0x00000000000a23cc        0x4 
 .text.ARCOMMANDS_Filter_SetSkyControllerCalibrationBehavior
                0x00000000000a23d0       0x2c /home/sunho/bebop_ws/devel/arsdk/out/arsdk-native/build/libARCommands/obj/gen/Sources/ARCOMMANDS_Filter.c.o
                0x00000000000a23d0                ARCOMMANDS_Filter_SetSkyControllerCalibrationBehavior
 *fill*         0x00000000000a23fc        0x4 
 .text.ARCOMMANDS_Filter_SetSkyControllerCalibrationStateBehavior
                0x00000000000a2400       0x32 /home/sunho/bebop_ws/devel/arsdk/out/arsdk-native/build/libARCommands/obj/gen/Sources/ARCOMMANDS_Filter.c.o
                0x00000000000a2400                ARCOMMANDS_Filter_SetSkyControllerCalibrationStateBehavior
 *fill*         0x00000000000a2432        0xe 
 .text.ARCOMMANDS_Filter_SetSkyControllerButtonEventsBehavior
                0x00000000000a2440       0x2c /home/sunho/bebop_ws/devel/arsdk/out/arsdk-native/build/libARCommands/obj/gen/Sources/ARCOMMANDS_Filter.c.o
                0x00000000000a2440                ARCOMMANDS_Filter_SetSkyControllerButtonEventsBehavior
 *fill*         0x00000000000a246c        0x4 
 .text.ARCOMMANDS_Filter_SetSkyControllerFactoryBehavior
                0x00000000000a2470       0x2c /home/sunho/bebop_ws/devel/arsdk/out/arsdk-native/build/libARCommands/obj/gen/Sources/ARCOMMANDS_Filter.c.o
                0x00000000000a2470                ARCOMMANDS_Filter_SetSkyControllerFactoryBehavior
 *fill*         0x00000000000a249c        0x4 
 .text.ARCOMMANDS_Filter_SetSkyControllerWifiRequestWifiListBehavior
                0x00000000000a24a0       0x2c /home/sunho/bebop_ws/devel/arsdk/out/arsdk-native/build/libARCommands/obj/gen/Sources/ARCOMMANDS_Filter.c.o
                0x00000000000a24a0                ARCOMMANDS_Filter_SetSkyControllerWifiRequestWifiListBehavior
 *fill*         0x00000000000a24cc        0x4 
 .text.ARCOMMANDS_Filter_SetSkyControllerWifiRequestCurrentWifiBehavior
                0x00000000000a24d0       0x2c /home/sunho/bebop_ws/devel/arsdk/out/arsdk-native/build/libARCommands/obj/gen/Sources/ARCOMMANDS_Filter.c.o
                0x00000000000a24d0                ARCOMMANDS_Filter_SetSkyControllerWifiRequestCurrentWifiBehavior
 *fill*         0x00000000000a24fc        0x4 
 .text.ARCOMMANDS_Filter_SetSkyControllerWifiConnectToWifiBehavior
                0x00000000000a2500       0x2c /home/sunho/bebop_ws/devel/arsdk/out/arsdk-native/build/libARCommands/obj/gen/Sources/ARCOMMANDS_Filter.c.o
                0x00000000000a2500                ARCOMMANDS_Filter_SetSkyControllerWifiConnectToWifiBehavior
 *fill*         0x00000000000a252c        0x4 
 .text.ARCOMMANDS_Filter_SetSkyControllerWifiForgetWifiBehavior
                0x00000000000a2530       0x2c /home/sunho/bebop_ws/devel/arsdk/out/arsdk-native/build/libARCommands/obj/gen/Sources/ARCOMMANDS_Filter.c.o
                0x00000000000a2530                ARCOMMANDS_Filter_SetSkyControllerWifiForgetWifiBehavior
 *fill*         0x00000000000a255c        0x4 
 .text.ARCOMMANDS_Filter_SetSkyControllerWifiWifiAuthChannelBehavior
                0x00000000000a2560       0x2c /home/sunho/bebop_ws/devel/arsdk/out/arsdk-native/build/libARCommands/obj/gen/Sources/ARCOMMANDS_Filter.c.o
                0x00000000000a2560                ARCOMMANDS_Filter_SetSkyControllerWifiWifiAuthChannelBehavior
 *fill*         0x00000000000a258c        0x4 
 .text.ARCOMMANDS_Filter_SetSkyControllerDeviceRequestDeviceListBehavior
                0x00000000000a2590       0x2c /home/sunho/bebop_ws/devel/arsdk/out/arsdk-native/build/libARCommands/obj/gen/Sources/ARCOMMANDS_Filter.c.o
                0x00000000000a2590                ARCOMMANDS_Filter_SetSkyControllerDeviceRequestDeviceListBehavior
 *fill*         0x00000000000a25bc        0x4 
 .text.ARCOMMANDS_Filter_SetSkyControllerDeviceRequestCurrentDeviceBehavior
                0x00000000000a25c0       0x2c /home/sunho/bebop_ws/devel/arsdk/out/arsdk-native/build/libARCommands/obj/gen/Sources/ARCOMMANDS_Filter.c.o
                0x00000000000a25c0                ARCOMMANDS_Filter_SetSkyControllerDeviceRequestCurrentDeviceBehavior
 *fill*         0x00000000000a25ec        0x4 
 .text.ARCOMMANDS_Filter_SetSkyControllerDeviceConnectToDeviceBehavior
                0x00000000000a25f0       0x2c /home/sunho/bebop_ws/devel/arsdk/out/arsdk-native/build/libARCommands/obj/gen/Sources/ARCOMMANDS_Filter.c.o
                0x00000000000a25f0                ARCOMMANDS_Filter_SetSkyControllerDeviceConnectToDeviceBehavior
 *fill*         0x00000000000a261c        0x4 
 .text.ARCOMMANDS_Filter_SetSkyControllerSettingsAllSettingsBehavior
                0x00000000000a2620       0x2c /home/sunho/bebop_ws/devel/arsdk/out/arsdk-native/build/libARCommands/obj/gen/Sources/ARCOMMANDS_Filter.c.o
                0x00000000000a2620                ARCOMMANDS_Filter_SetSkyControllerSettingsAllSettingsBehavior
 *fill*         0x00000000000a264c        0x4 
 .text.ARCOMMANDS_Filter_SetSkyControllerSettingsResetBehavior
                0x00000000000a2650       0x2c /home/sunho/bebop_ws/devel/arsdk/out/arsdk-native/build/libARCommands/obj/gen/Sources/ARCOMMANDS_Filter.c.o
                0x00000000000a2650                ARCOMMANDS_Filter_SetSkyControllerSettingsResetBehavior
 *fill*         0x00000000000a267c        0x4 
 .text.ARCOMMANDS_Filter_SetSkyControllerCommonAllStatesBehavior
                0x00000000000a2680       0x2c /home/sunho/bebop_ws/devel/arsdk/out/arsdk-native/build/libARCommands/obj/gen/Sources/ARCOMMANDS_Filter.c.o
                0x00000000000a2680                ARCOMMANDS_Filter_SetSkyControllerCommonAllStatesBehavior
 *fill*         0x00000000000a26ac        0x4 
 .text.ARCOMMANDS_Filter_SetSkyControllerAccessPointSettingsAccessPointSSIDBehavior
                0x00000000000a26b0       0x2c /home/sunho/bebop_ws/devel/arsdk/out/arsdk-native/build/libARCommands/obj/gen/Sources/ARCOMMANDS_Filter.c.o
                0x00000000000a26b0                ARCOMMANDS_Filter_SetSkyControllerAccessPointSettingsAccessPointSSIDBehavior
 *fill*         0x00000000000a26dc        0x4 
 .text.ARCOMMANDS_Filter_SetSkyControllerAccessPointSettingsAccessPointChannelBehavior
                0x00000000000a26e0       0x2c /home/sunho/bebop_ws/devel/arsdk/out/arsdk-native/build/libARCommands/obj/gen/Sources/ARCOMMANDS_Filter.c.o
                0x00000000000a26e0                ARCOMMANDS_Filter_SetSkyControllerAccessPointSettingsAccessPointChannelBehavior
 *fill*         0x00000000000a270c        0x4 
 .text.ARCOMMANDS_Filter_SetSkyControllerAccessPointSettingsWifiSelectionBehavior
                0x00000000000a2710       0x2c /home/sunho/bebop_ws/devel/arsdk/out/arsdk-native/build/libARCommands/obj/gen/Sources/ARCOMMANDS_Filter.c.o
                0x00000000000a2710                ARCOMMANDS_Filter_SetSkyControllerAccessPointSettingsWifiSelectionBehavior
 *fill*         0x00000000000a273c        0x4 
 .text.ARCOMMANDS_Filter_SetSkyControllerCameraResetOrientationBehavior
                0x00000000000a2740       0x2c /home/sunho/bebop_ws/devel/arsdk/out/arsdk-native/build/libARCommands/obj/gen/Sources/ARCOMMANDS_Filter.c.o
                0x00000000000a2740                ARCOMMANDS_Filter_SetSkyControllerCameraResetOrientationBehavior
 *fill*         0x00000000000a276c        0x4 
 .text.ARCOMMANDS_Filter_SetSkyControllerGamepadInfosGetGamepadControlsBehavior
                0x00000000000a2770       0x2c /home/sunho/bebop_ws/devel/arsdk/out/arsdk-native/build/libARCommands/obj/gen/Sources/ARCOMMANDS_Filter.c.o
                0x00000000000a2770                ARCOMMANDS_Filter_SetSkyControllerGamepadInfosGetGamepadControlsBehavior
 *fill*         0x00000000000a279c        0x4 
 .text.ARCOMMANDS_Filter_SetSkyControllerButtonMappingsGetCurrentButtonMappingsBehavior
                0x00000000000a27a0       0x2c /home/sunho/bebop_ws/devel/arsdk/out/arsdk-native/build/libARCommands/obj/gen/Sources/ARCOMMANDS_Filter.c.o
                0x00000000000a27a0                ARCOMMANDS_Filter_SetSkyControllerButtonMappingsGetCurrentButtonMappingsBehavior
 *fill*         0x00000000000a27cc        0x4 
 .text.ARCOMMANDS_Filter_SetSkyControllerButtonMappingsGetAvailableButtonMappingsBehavior
                0x00000000000a27d0       0x2c /home/sunho/bebop_ws/devel/arsdk/out/arsdk-native/build/libARCommands/obj/gen/Sources/ARCOMMANDS_Filter.c.o
                0x00000000000a27d0                ARCOMMANDS_Filter_SetSkyControllerButtonMappingsGetAvailableButtonMappingsBehavior
 *fill*         0x00000000000a27fc        0x4 
 .text.ARCOMMANDS_Filter_SetSkyControllerButtonMappingsSetButtonMappingBehavior
                0x00000000000a2800       0x2c /home/sunho/bebop_ws/devel/arsdk/out/arsdk-native/build/libARCommands/obj/gen/Sources/ARCOMMANDS_Filter.c.o
                0x00000000000a2800                ARCOMMANDS_Filter_SetSkyControllerButtonMappingsSetButtonMappingBehavior
 *fill*         0x00000000000a282c        0x4 
 .text.ARCOMMANDS_Filter_SetSkyControllerButtonMappingsDefaultButtonMappingBehavior
                0x00000000000a2830       0x2c /home/sunho/bebop_ws/devel/arsdk/out/arsdk-native/build/libARCommands/obj/gen/Sources/ARCOMMANDS_Filter.c.o
                0x00000000000a2830                ARCOMMANDS_Filter_SetSkyControllerButtonMappingsDefaultButtonMappingBehavior
 *fill*         0x00000000000a285c        0x4 
 .text.ARCOMMANDS_Filter_SetSkyControllerAxisMappingsGetCurrentAxisMappingsBehavior
                0x00000000000a2860       0x2c /home/sunho/bebop_ws/devel/arsdk/out/arsdk-native/build/libARCommands/obj/gen/Sources/ARCOMMANDS_Filter.c.o
                0x00000000000a2860                ARCOMMANDS_Filter_SetSkyControllerAxisMappingsGetCurrentAxisMappingsBehavior
 *fill*         0x00000000000a288c        0x4 
 .text.ARCOMMANDS_Filter_SetSkyControllerAxisMappingsGetAvailableAxisMappingsBehavior
                0x00000000000a2890       0x2c /home/sunho/bebop_ws/devel/arsdk/out/arsdk-native/build/libARCommands/obj/gen/Sources/ARCOMMANDS_Filter.c.o
                0x00000000000a2890                ARCOMMANDS_Filter_SetSkyControllerAxisMappingsGetAvailableAxisMappingsBehavior
 *fill*         0x00000000000a28bc        0x4 
 .text.ARCOMMANDS_Filter_SetSkyControllerAxisMappingsSetAxisMappingBehavior
                0x00000000000a28c0       0x2c /home/sunho/bebop_ws/devel/arsdk/out/arsdk-native/build/libARCommands/obj/gen/Sources/ARCOMMANDS_Filter.c.o
                0x00000000000a28c0                ARCOMMANDS_Filter_SetSkyControllerAxisMappingsSetAxisMappingBehavior
 *fill*         0x00000000000a28ec        0x4 
 .text.ARCOMMANDS_Filter_SetSkyControllerAxisMappingsDefaultAxisMappingBehavior
                0x00000000000a28f0       0x2c /home/sunho/bebop_ws/devel/arsdk/out/arsdk-native/build/libARCommands/obj/gen/Sources/ARCOMMANDS_Filter.c.o
                0x00000000000a28f0                ARCOMMANDS_Filter_SetSkyControllerAxisMappingsDefaultAxisMappingBehavior
 *fill*         0x00000000000a291c        0x4 
 .text.ARCOMMANDS_Filter_SetSkyControllerAxisFiltersGetCurrentAxisFiltersBehavior
                0x00000000000a2920       0x2c /home/sunho/bebop_ws/devel/arsdk/out/arsdk-native/build/libARCommands/obj/gen/Sources/ARCOMMANDS_Filter.c.o
                0x00000000000a2920                ARCOMMANDS_Filter_SetSkyControllerAxisFiltersGetCurrentAxisFiltersBehavior
 *fill*         0x00000000000a294c        0x4 
 .text.ARCOMMANDS_Filter_SetSkyControllerAxisFiltersGetPresetAxisFiltersBehavior
                0x00000000000a2950       0x2c /home/sunho/bebop_ws/devel/arsdk/out/arsdk-native/build/libARCommands/obj/gen/Sources/ARCOMMANDS_Filter.c.o
                0x00000000000a2950                ARCOMMANDS_Filter_SetSkyControllerAxisFiltersGetPresetAxisFiltersBehavior
 *fill*         0x00000000000a297c        0x4 
 .text.ARCOMMANDS_Filter_SetSkyControllerAxisFiltersSetAxisFilterBehavior
                0x00000000000a2980       0x2c /home/sunho/bebop_ws/devel/arsdk/out/arsdk-native/build/libARCommands/obj/gen/Sources/ARCOMMANDS_Filter.c.o
                0x00000000000a2980                ARCOMMANDS_Filter_SetSkyControllerAxisFiltersSetAxisFilterBehavior
 *fill*         0x00000000000a29ac        0x4 
 .text.ARCOMMANDS_Filter_SetSkyControllerAxisFiltersDefaultAxisFiltersBehavior
                0x00000000000a29b0       0x2c /home/sunho/bebop_ws/devel/arsdk/out/arsdk-native/build/libARCommands/obj/gen/Sources/ARCOMMANDS_Filter.c.o
                0x00000000000a29b0                ARCOMMANDS_Filter_SetSkyControllerAxisFiltersDefaultAxisFiltersBehavior
 *fill*         0x00000000000a29dc        0x4 
 .text.ARCOMMANDS_Filter_SetSkyControllerCoPilotingSetPilotingSourceBehavior
                0x00000000000a29e0       0x2c /home/sunho/bebop_ws/devel/arsdk/out/arsdk-native/build/libARCommands/obj/gen/Sources/ARCOMMANDS_Filter.c.o
                0x00000000000a29e0                ARCOMMANDS_Filter_SetSkyControllerCoPilotingSetPilotingSourceBehavior
 *fill*         0x00000000000a2a0c        0x4 
 .text.ARCOMMANDS_Filter_SetSkyControllerCalibrationEnableMagnetoCalibrationQualityUpdatesBehavior
                0x00000000000a2a10       0x2c /home/sunho/bebop_ws/devel/arsdk/out/arsdk-native/build/libARCommands/obj/gen/Sources/ARCOMMANDS_Filter.c.o
                0x00000000000a2a10                ARCOMMANDS_Filter_SetSkyControllerCalibrationEnableMagnetoCalibrationQualityUpdatesBehavior
 *fill*         0x00000000000a2a3c        0x4 
 .text.ARCOMMANDS_Filter_SetSkyControllerFactoryResetBehavior
                0x00000000000a2a40       0x2c /home/sunho/bebop_ws/devel/arsdk/out/arsdk-native/build/libARCommands/obj/gen/Sources/ARCOMMANDS_Filter.c.o
                0x00000000000a2a40                ARCOMMANDS_Filter_SetSkyControllerFactoryResetBehavior
 *fill*         0x00000000000a2a6c        0x4 
 .text.ARCOMMANDS_Filter_SetSkyControllerWifiStateWifiListBehavior
                0x00000000000a2a70       0x2c /home/sunho/bebop_ws/devel/arsdk/out/arsdk-native/build/libARCommands/obj/gen/Sources/ARCOMMANDS_Filter.c.o
                0x00000000000a2a70                ARCOMMANDS_Filter_SetSkyControllerWifiStateWifiListBehavior
 *fill*         0x00000000000a2a9c        0x4 
 .text.ARCOMMANDS_Filter_SetSkyControllerWifiStateConnexionChangedBehavior
                0x00000000000a2aa0       0x2c /home/sunho/bebop_ws/devel/arsdk/out/arsdk-native/build/libARCommands/obj/gen/Sources/ARCOMMANDS_Filter.c.o
                0x00000000000a2aa0                ARCOMMANDS_Filter_SetSkyControllerWifiStateConnexionChangedBehavior
 *fill*         0x00000000000a2acc        0x4 
 .text.ARCOMMANDS_Filter_SetSkyControllerWifiStateWifiAuthChannelListChangedBehavior
                0x00000000000a2ad0       0x2c /home/sunho/bebop_ws/devel/arsdk/out/arsdk-native/build/libARCommands/obj/gen/Sources/ARCOMMANDS_Filter.c.o
                0x00000000000a2ad0                ARCOMMANDS_Filter_SetSkyControllerWifiStateWifiAuthChannelListChangedBehavior
 *fill*         0x00000000000a2afc        0x4 
 .text.ARCOMMANDS_Filter_SetSkyControllerWifiStateAllWifiAuthChannelChangedBehavior
                0x00000000000a2b00       0x2c /home/sunho/bebop_ws/devel/arsdk/out/arsdk-native/build/libARCommands/obj/gen/Sources/ARCOMMANDS_Filter.c.o
                0x00000000000a2b00                ARCOMMANDS_Filter_SetSkyControllerWifiStateAllWifiAuthChannelChangedBehavior
 *fill*         0x00000000000a2b2c        0x4 
 .text.ARCOMMANDS_Filter_SetSkyControllerWifiStateWifiSignalChangedBehavior
                0x00000000000a2b30       0x2c /home/sunho/bebop_ws/devel/arsdk/out/arsdk-native/build/libARCommands/obj/gen/Sources/ARCOMMANDS_Filter.c.o
                0x00000000000a2b30                ARCOMMANDS_Filter_SetSkyControllerWifiStateWifiSignalChangedBehavior
 *fill*         0x00000000000a2b5c        0x4 
 .text.ARCOMMANDS_Filter_SetSkyControllerDeviceStateDeviceListBehavior
                0x00000000000a2b60       0x2c /home/sunho/bebop_ws/devel/arsdk/out/arsdk-native/build/libARCommands/obj/gen/Sources/ARCOMMANDS_Filter.c.o
                0x00000000000a2b60                ARCOMMANDS_Filter_SetSkyControllerDeviceStateDeviceListBehavior
 *fill*         0x00000000000a2b8c        0x4 
 .text.ARCOMMANDS_Filter_SetSkyControllerDeviceStateConnexionChangedBehavior
                0x00000000000a2b90       0x2c /home/sunho/bebop_ws/devel/arsdk/out/arsdk-native/build/libARCommands/obj/gen/Sources/ARCOMMANDS_Filter.c.o
                0x00000000000a2b90                ARCOMMANDS_Filter_SetSkyControllerDeviceStateConnexionChangedBehavior
 *fill*         0x00000000000a2bbc        0x4 
 .text.ARCOMMANDS_Filter_SetSkyControllerSettingsStateAllSettingsChangedBehavior
                0x00000000000a2bc0       0x2c /home/sunho/bebop_ws/devel/arsdk/out/arsdk-native/build/libARCommands/obj/gen/Sources/ARCOMMANDS_Filter.c.o
                0x00000000000a2bc0                ARCOMMANDS_Filter_SetSkyControllerSettingsStateAllSettingsChangedBehavior
 *fill*         0x00000000000a2bec        0x4 
 .text.ARCOMMANDS_Filter_SetSkyControllerSettingsStateResetChangedBehavior
                0x00000000000a2bf0       0x2c /home/sunho/bebop_ws/devel/arsdk/out/arsdk-native/build/libARCommands/obj/gen/Sources/ARCOMMANDS_Filter.c.o
                0x00000000000a2bf0                ARCOMMANDS_Filter_SetSkyControllerSettingsStateResetChangedBehavior
 *fill*         0x00000000000a2c1c        0x4 
 .text.ARCOMMANDS_Filter_SetSkyControllerSettingsStateProductSerialChangedBehavior
                0x00000000000a2c20       0x2c /home/sunho/bebop_ws/devel/arsdk/out/arsdk-native/build/libARCommands/obj/gen/Sources/ARCOMMANDS_Filter.c.o
                0x00000000000a2c20                ARCOMMANDS_Filter_SetSkyControllerSettingsStateProductSerialChangedBehavior
 *fill*         0x00000000000a2c4c        0x4 
 .text.ARCOMMANDS_Filter_SetSkyControllerSettingsStateProductVariantChangedBehavior
                0x00000000000a2c50       0x2c /home/sunho/bebop_ws/devel/arsdk/out/arsdk-native/build/libARCommands/obj/gen/Sources/ARCOMMANDS_Filter.c.o
                0x00000000000a2c50                ARCOMMANDS_Filter_SetSkyControllerSettingsStateProductVariantChangedBehavior
 *fill*         0x00000000000a2c7c        0x4 
 .text.ARCOMMANDS_Filter_SetSkyControllerSettingsStateProductVersionChangedBehavior
                0x00000000000a2c80       0x2c /home/sunho/bebop_ws/devel/arsdk/out/arsdk-native/build/libARCommands/obj/gen/Sources/ARCOMMANDS_Filter.c.o
                0x00000000000a2c80                ARCOMMANDS_Filter_SetSkyControllerSettingsStateProductVersionChangedBehavior
 *fill*         0x00000000000a2cac        0x4 
 .text.ARCOMMANDS_Filter_SetSkyControllerCommonStateAllStatesChangedBehavior
                0x00000000000a2cb0       0x2c /home/sunho/bebop_ws/devel/arsdk/out/arsdk-native/build/libARCommands/obj/gen/Sources/ARCOMMANDS_Filter.c.o
                0x00000000000a2cb0                ARCOMMANDS_Filter_SetSkyControllerCommonStateAllStatesChangedBehavior
 *fill*         0x00000000000a2cdc        0x4 
 .text.ARCOMMANDS_Filter_SetSkyControllerSkyControllerStateBatteryChangedBehavior
                0x00000000000a2ce0       0x2c /home/sunho/bebop_ws/devel/arsdk/out/arsdk-native/build/libARCommands/obj/gen/Sources/ARCOMMANDS_Filter.c.o
                0x00000000000a2ce0                ARCOMMANDS_Filter_SetSkyControllerSkyControllerStateBatteryChangedBehavior
 *fill*         0x00000000000a2d0c        0x4 
 .text.ARCOMMANDS_Filter_SetSkyControllerSkyControllerStateGpsFixChangedBehavior
                0x00000000000a2d10       0x2c /home/sunho/bebop_ws/devel/arsdk/out/arsdk-native/build/libARCommands/obj/gen/Sources/ARCOMMANDS_Filter.c.o
                0x00000000000a2d10                ARCOMMANDS_Filter_SetSkyControllerSkyControllerStateGpsFixChangedBehavior
 *fill*         0x00000000000a2d3c        0x4 
 .text.ARCOMMANDS_Filter_SetSkyControllerSkyControllerStateGpsPositionChangedBehavior
                0x00000000000a2d40       0x2c /home/sunho/bebop_ws/devel/arsdk/out/arsdk-native/build/libARCommands/obj/gen/Sources/ARCOMMANDS_Filter.c.o
                0x00000000000a2d40                ARCOMMANDS_Filter_SetSkyControllerSkyControllerStateGpsPositionChangedBehavior
 *fill*         0x00000000000a2d6c        0x4 
 .text.ARCOMMANDS_Filter_SetSkyControllerSkyControllerStateBatteryStateBehavior
                0x00000000000a2d70       0x2c /home/sunho/bebop_ws/devel/arsdk/out/arsdk-native/build/libARCommands/obj/gen/Sources/ARCOMMANDS_Filter.c.o
                0x00000000000a2d70                ARCOMMANDS_Filter_SetSkyControllerSkyControllerStateBatteryStateBehavior
 *fill*         0x00000000000a2d9c        0x4 
 .text.ARCOMMANDS_Filter_SetSkyControllerSkyControllerStateAttitudeChangedBehavior
                0x00000000000a2da0       0x2c /home/sunho/bebop_ws/devel/arsdk/out/arsdk-native/build/libARCommands/obj/gen/Sources/ARCOMMANDS_Filter.c.o
                0x00000000000a2da0                ARCOMMANDS_Filter_SetSkyControllerSkyControllerStateAttitudeChangedBehavior
 *fill*         0x00000000000a2dcc        0x4 
 .text.ARCOMMANDS_Filter_SetSkyControllerAccessPointSettingsStateAccessPointSSIDChangedBehavior
                0x00000000000a2dd0       0x2c /home/sunho/bebop_ws/devel/arsdk/out/arsdk-native/build/libARCommands/obj/gen/Sources/ARCOMMANDS_Filter.c.o
                0x00000000000a2dd0                ARCOMMANDS_Filter_SetSkyControllerAccessPointSettingsStateAccessPointSSIDChangedBehavior
 *fill*         0x00000000000a2dfc        0x4 
 .text.ARCOMMANDS_Filter_SetSkyControllerAccessPointSettingsStateAccessPointChannelChangedBehavior
                0x00000000000a2e00       0x2c /home/sunho/bebop_ws/devel/arsdk/out/arsdk-native/build/libARCommands/obj/gen/Sources/ARCOMMANDS_Filter.c.o
                0x00000000000a2e00                ARCOMMANDS_Filter_SetSkyControllerAccessPointSettingsStateAccessPointChannelChangedBehavior
 *fill*         0x00000000000a2e2c        0x4 
 .text.ARCOMMANDS_Filter_SetSkyControllerAccessPointSettingsStateWifiSelectionChangedBehavior
                0x00000000000a2e30       0x2c /home/sunho/bebop_ws/devel/arsdk/out/arsdk-native/build/libARCommands/obj/gen/Sources/ARCOMMANDS_Filter.c.o
                0x00000000000a2e30                ARCOMMANDS_Filter_SetSkyControllerAccessPointSettingsStateWifiSelectionChangedBehavior
 *fill*         0x00000000000a2e5c        0x4 
 .text.ARCOMMANDS_Filter_SetSkyControllerGamepadInfosStateGamepadControlBehavior
                0x00000000000a2e60       0x2c /home/sunho/bebop_ws/devel/arsdk/out/arsdk-native/build/libARCommands/obj/gen/Sources/ARCOMMANDS_Filter.c.o
                0x00000000000a2e60                ARCOMMANDS_Filter_SetSkyControllerGamepadInfosStateGamepadControlBehavior
 *fill*         0x00000000000a2e8c        0x4 
 .text.ARCOMMANDS_Filter_SetSkyControllerGamepadInfosStateAllGamepadControlsSentBehavior
                0x00000000000a2e90       0x2c /home/sunho/bebop_ws/devel/arsdk/out/arsdk-native/build/libARCommands/obj/gen/Sources/ARCOMMANDS_Filter.c.o
                0x00000000000a2e90                ARCOMMANDS_Filter_SetSkyControllerGamepadInfosStateAllGamepadControlsSentBehavior
 *fill*         0x00000000000a2ebc        0x4 
 .text.ARCOMMANDS_Filter_SetSkyControllerButtonMappingsStateCurrentButtonMappingsBehavior
                0x00000000000a2ec0       0x2c /home/sunho/bebop_ws/devel/arsdk/out/arsdk-native/build/libARCommands/obj/gen/Sources/ARCOMMANDS_Filter.c.o
                0x00000000000a2ec0                ARCOMMANDS_Filter_SetSkyControllerButtonMappingsStateCurrentButtonMappingsBehavior
 *fill*         0x00000000000a2eec        0x4 
 .text.ARCOMMANDS_Filter_SetSkyControllerButtonMappingsStateAllCurrentButtonMappingsSentBehavior
                0x00000000000a2ef0       0x2c /home/sunho/bebop_ws/devel/arsdk/out/arsdk-native/build/libARCommands/obj/gen/Sources/ARCOMMANDS_Filter.c.o
                0x00000000000a2ef0                ARCOMMANDS_Filter_SetSkyControllerButtonMappingsStateAllCurrentButtonMappingsSentBehavior
 *fill*         0x00000000000a2f1c        0x4 
 .text.ARCOMMANDS_Filter_SetSkyControllerButtonMappingsStateAvailableButtonMappingsBehavior
                0x00000000000a2f20       0x2c /home/sunho/bebop_ws/devel/arsdk/out/arsdk-native/build/libARCommands/obj/gen/Sources/ARCOMMANDS_Filter.c.o
                0x00000000000a2f20                ARCOMMANDS_Filter_SetSkyControllerButtonMappingsStateAvailableButtonMappingsBehavior
 *fill*         0x00000000000a2f4c        0x4 
 .text.ARCOMMANDS_Filter_SetSkyControllerButtonMappingsStateAllAvailableButtonsMappingsSentBehavior
                0x00000000000a2f50       0x2c /home/sunho/bebop_ws/devel/arsdk/out/arsdk-native/build/libARCommands/obj/gen/Sources/ARCOMMANDS_Filter.c.o
                0x00000000000a2f50                ARCOMMANDS_Filter_SetSkyControllerButtonMappingsStateAllAvailableButtonsMappingsSentBehavior
 *fill*         0x00000000000a2f7c        0x4 
 .text.ARCOMMANDS_Filter_SetSkyControllerAxisMappingsStateCurrentAxisMappingsBehavior
                0x00000000000a2f80       0x2c /home/sunho/bebop_ws/devel/arsdk/out/arsdk-native/build/libARCommands/obj/gen/Sources/ARCOMMANDS_Filter.c.o
                0x00000000000a2f80                ARCOMMANDS_Filter_SetSkyControllerAxisMappingsStateCurrentAxisMappingsBehavior
 *fill*         0x00000000000a2fac        0x4 
 .text.ARCOMMANDS_Filter_SetSkyControllerAxisMappingsStateAllCurrentAxisMappingsSentBehavior
                0x00000000000a2fb0       0x2c /home/sunho/bebop_ws/devel/arsdk/out/arsdk-native/build/libARCommands/obj/gen/Sources/ARCOMMANDS_Filter.c.o
                0x00000000000a2fb0                ARCOMMANDS_Filter_SetSkyControllerAxisMappingsStateAllCurrentAxisMappingsSentBehavior
 *fill*         0x00000000000a2fdc        0x4 
 .text.ARCOMMANDS_Filter_SetSkyControllerAxisMappingsStateAvailableAxisMappingsBehavior
                0x00000000000a2fe0       0x2c /home/sunho/bebop_ws/devel/arsdk/out/arsdk-native/build/libARCommands/obj/gen/Sources/ARCOMMANDS_Filter.c.o
                0x00000000000a2fe0                ARCOMMANDS_Filter_SetSkyControllerAxisMappingsStateAvailableAxisMappingsBehavior
 *fill*         0x00000000000a300c        0x4 
 .text.ARCOMMANDS_Filter_SetSkyControllerAxisMappingsStateAllAvailableAxisMappingsSentBehavior
                0x00000000000a3010       0x2c /home/sunho/bebop_ws/devel/arsdk/out/arsdk-native/build/libARCommands/obj/gen/Sources/ARCOMMANDS_Filter.c.o
                0x00000000000a3010                ARCOMMANDS_Filter_SetSkyControllerAxisMappingsStateAllAvailableAxisMappingsSentBehavior
 *fill*         0x00000000000a303c        0x4 
 .text.ARCOMMANDS_Filter_SetSkyControllerAxisFiltersStateCurrentAxisFiltersBehavior
                0x00000000000a3040       0x2c /home/sunho/bebop_ws/devel/arsdk/out/arsdk-native/build/libARCommands/obj/gen/Sources/ARCOMMANDS_Filter.c.o
                0x00000000000a3040                ARCOMMANDS_Filter_SetSkyControllerAxisFiltersStateCurrentAxisFiltersBehavior
 *fill*         0x00000000000a306c        0x4 
 .text.ARCOMMANDS_Filter_SetSkyControllerAxisFiltersStateAllCurrentFiltersSentBehavior
                0x00000000000a3070       0x2c /home/sunho/bebop_ws/devel/arsdk/out/arsdk-native/build/libARCommands/obj/gen/Sources/ARCOMMANDS_Filter.c.o
                0x00000000000a3070                ARCOMMANDS_Filter_SetSkyControllerAxisFiltersStateAllCurrentFiltersSentBehavior
 *fill*         0x00000000000a309c        0x4 
 .text.ARCOMMANDS_Filter_SetSkyControllerAxisFiltersStatePresetAxisFiltersBehavior
                0x00000000000a30a0       0x2c /home/sunho/bebop_ws/devel/arsdk/out/arsdk-native/build/libARCommands/obj/gen/Sources/ARCOMMANDS_Filter.c.o
                0x00000000000a30a0                ARCOMMANDS_Filter_SetSkyControllerAxisFiltersStatePresetAxisFiltersBehavior
 *fill*         0x00000000000a30cc        0x4 
 .text.ARCOMMANDS_Filter_SetSkyControllerAxisFiltersStateAllPresetFiltersSentBehavior
                0x00000000000a30d0       0x2c /home/sunho/bebop_ws/devel/arsdk/out/arsdk-native/build/libARCommands/obj/gen/Sources/ARCOMMANDS_Filter.c.o
                0x00000000000a30d0                ARCOMMANDS_Filter_SetSkyControllerAxisFiltersStateAllPresetFiltersSentBehavior
 *fill*         0x00000000000a30fc        0x4 
 .text.ARCOMMANDS_Filter_SetSkyControllerCoPilotingStatePilotingSourceBehavior
                0x00000000000a3100       0x2c /home/sunho/bebop_ws/devel/arsdk/out/arsdk-native/build/libARCommands/obj/gen/Sources/ARCOMMANDS_Filter.c.o
                0x00000000000a3100                ARCOMMANDS_Filter_SetSkyControllerCoPilotingStatePilotingSourceBehavior
 *fill*         0x00000000000a312c        0x4 
 .text.ARCOMMANDS_Filter_SetSkyControllerCalibrationStateMagnetoCalibrationStateBehavior
                0x00000000000a3130       0x2c /home/sunho/bebop_ws/devel/arsdk/out/arsdk-native/build/libARCommands/obj/gen/Sources/ARCOMMANDS_Filter.c.o
                0x00000000000a3130                ARCOMMANDS_Filter_SetSkyControllerCalibrationStateMagnetoCalibrationStateBehavior
 *fill*         0x00000000000a315c        0x4 
 .text.ARCOMMANDS_Filter_SetSkyControllerCalibrationStateMagnetoCalibrationQualityUpdatesStateBehavior
                0x00000000000a3160       0x2c /home/sunho/bebop_ws/devel/arsdk/out/arsdk-native/build/libARCommands/obj/gen/Sources/ARCOMMANDS_Filter.c.o
                0x00000000000a3160                ARCOMMANDS_Filter_SetSkyControllerCalibrationStateMagnetoCalibrationQualityUpdatesStateBehavior
 *fill*         0x00000000000a318c        0x4 
 .text.ARCOMMANDS_Filter_SetSkyControllerButtonEventsSettingsBehavior
                0x00000000000a3190       0x2c /home/sunho/bebop_ws/devel/arsdk/out/arsdk-native/build/libARCommands/obj/gen/Sources/ARCOMMANDS_Filter.c.o
                0x00000000000a3190                ARCOMMANDS_Filter_SetSkyControllerButtonEventsSettingsBehavior
 *fill*         0x00000000000a31bc        0x4 
 .text.ARCOMMANDS_Filter_SetUnknownFeature1Behavior
                0x00000000000a31c0       0xb0 /home/sunho/bebop_ws/devel/arsdk/out/arsdk-native/build/libARCommands/obj/gen/Sources/ARCOMMANDS_Filter.c.o
                0x00000000000a31c0                ARCOMMANDS_Filter_SetUnknownFeature1Behavior
 .text.ARCOMMANDS_Filter_SetUnknownFeature1GeographicRunBehavior
                0x00000000000a3270       0x2c /home/sunho/bebop_ws/devel/arsdk/out/arsdk-native/build/libARCommands/obj/gen/Sources/ARCOMMANDS_Filter.c.o
                0x00000000000a3270                ARCOMMANDS_Filter_SetUnknownFeature1GeographicRunBehavior
 *fill*         0x00000000000a329c        0x4 
 .text.ARCOMMANDS_Filter_SetUnknownFeature1RelativeRunBehavior
                0x00000000000a32a0       0x2c /home/sunho/bebop_ws/devel/arsdk/out/arsdk-native/build/libARCommands/obj/gen/Sources/ARCOMMANDS_Filter.c.o
                0x00000000000a32a0                ARCOMMANDS_Filter_SetUnknownFeature1RelativeRunBehavior
 *fill*         0x00000000000a32cc        0x4 
 .text.ARCOMMANDS_Filter_SetUnknownFeature1LookAtRunBehavior
                0x00000000000a32d0       0x2c /home/sunho/bebop_ws/devel/arsdk/out/arsdk-native/build/libARCommands/obj/gen/Sources/ARCOMMANDS_Filter.c.o
                0x00000000000a32d0                ARCOMMANDS_Filter_SetUnknownFeature1LookAtRunBehavior
 *fill*         0x00000000000a32fc        0x4 
 .text.ARCOMMANDS_Filter_SetUnknownFeature1SpiralAnimRunBehavior
                0x00000000000a3300       0x2c /home/sunho/bebop_ws/devel/arsdk/out/arsdk-native/build/libARCommands/obj/gen/Sources/ARCOMMANDS_Filter.c.o
                0x00000000000a3300                ARCOMMANDS_Filter_SetUnknownFeature1SpiralAnimRunBehavior
 *fill*         0x00000000000a332c        0x4 
 .text.ARCOMMANDS_Filter_SetUnknownFeature1SwingAnimRunBehavior
                0x00000000000a3330       0x2c /home/sunho/bebop_ws/devel/arsdk/out/arsdk-native/build/libARCommands/obj/gen/Sources/ARCOMMANDS_Filter.c.o
                0x00000000000a3330                ARCOMMANDS_Filter_SetUnknownFeature1SwingAnimRunBehavior
 *fill*         0x00000000000a335c        0x4 
 .text.ARCOMMANDS_Filter_SetUnknownFeature1BoomerangAnimRunBehavior
                0x00000000000a3360       0x2c /home/sunho/bebop_ws/devel/arsdk/out/arsdk-native/build/libARCommands/obj/gen/Sources/ARCOMMANDS_Filter.c.o
                0x00000000000a3360                ARCOMMANDS_Filter_SetUnknownFeature1BoomerangAnimRunBehavior
 *fill*         0x00000000000a338c        0x4 
 .text.ARCOMMANDS_Filter_SetUnknownFeature1CandleAnimRunBehavior
                0x00000000000a3390       0x2c /home/sunho/bebop_ws/devel/arsdk/out/arsdk-native/build/libARCommands/obj/gen/Sources/ARCOMMANDS_Filter.c.o
                0x00000000000a3390                ARCOMMANDS_Filter_SetUnknownFeature1CandleAnimRunBehavior
 *fill*         0x00000000000a33bc        0x4 
 .text.ARCOMMANDS_Filter_SetUnknownFeature1DollySlideAnimRunBehavior
                0x00000000000a33c0       0x2c /home/sunho/bebop_ws/devel/arsdk/out/arsdk-native/build/libARCommands/obj/gen/Sources/ARCOMMANDS_Filter.c.o
                0x00000000000a33c0                ARCOMMANDS_Filter_SetUnknownFeature1DollySlideAnimRunBehavior
 *fill*         0x00000000000a33ec        0x4 
 .text.ARCOMMANDS_Filter_SetUnknownFeature1UserFramingPositionBehavior
                0x00000000000a33f0       0x2c /home/sunho/bebop_ws/devel/arsdk/out/arsdk-native/build/libARCommands/obj/gen/Sources/ARCOMMANDS_Filter.c.o
                0x00000000000a33f0                ARCOMMANDS_Filter_SetUnknownFeature1UserFramingPositionBehavior
 *fill*         0x00000000000a341c        0x4 
 .text.ARCOMMANDS_Filter_SetUnknownFeature1UserGPSDataBehavior
                0x00000000000a3420       0x2c /home/sunho/bebop_ws/devel/arsdk/out/arsdk-native/build/libARCommands/obj/gen/Sources/ARCOMMANDS_Filter.c.o
                0x00000000000a3420                ARCOMMANDS_Filter_SetUnknownFeature1UserGPSDataBehavior
 *fill*         0x00000000000a344c        0x4 
 .text.ARCOMMANDS_Filter_SetUnknownFeature1UserBaroDataBehavior
                0x00000000000a3450       0x2c /home/sunho/bebop_ws/devel/arsdk/out/arsdk-native/build/libARCommands/obj/gen/Sources/ARCOMMANDS_Filter.c.o
                0x00000000000a3450                ARCOMMANDS_Filter_SetUnknownFeature1UserBaroDataBehavior
 *fill*         0x00000000000a347c        0x4 
 .text.ARCOMMANDS_Filter_SetUnknownFeature1LynxDetectionBehavior
                0x00000000000a3480       0x2c /home/sunho/bebop_ws/devel/arsdk/out/arsdk-native/build/libARCommands/obj/gen/Sources/ARCOMMANDS_Filter.c.o
                0x00000000000a3480                ARCOMMANDS_Filter_SetUnknownFeature1LynxDetectionBehavior
 *fill*         0x00000000000a34ac        0x4 
 .text.ARCOMMANDS_Filter_SetUnknownFeature1AvailabilityBehavior
                0x00000000000a34b0       0x2c /home/sunho/bebop_ws/devel/arsdk/out/arsdk-native/build/libARCommands/obj/gen/Sources/ARCOMMANDS_Filter.c.o
                0x00000000000a34b0                ARCOMMANDS_Filter_SetUnknownFeature1AvailabilityBehavior
 *fill*         0x00000000000a34dc        0x4 
 .text.ARCOMMANDS_Filter_SetUnknownFeature1RunBehavior
                0x00000000000a34e0       0x2c /home/sunho/bebop_ws/devel/arsdk/out/arsdk-native/build/libARCommands/obj/gen/Sources/ARCOMMANDS_Filter.c.o
                0x00000000000a34e0                ARCOMMANDS_Filter_SetUnknownFeature1RunBehavior
 *fill*         0x00000000000a350c        0x4 
 .text.ARCOMMANDS_Filter_SetUnknownFeature1GeographicConfigChangedBehavior
                0x00000000000a3510       0x2c /home/sunho/bebop_ws/devel/arsdk/out/arsdk-native/build/libARCommands/obj/gen/Sources/ARCOMMANDS_Filter.c.o
                0x00000000000a3510                ARCOMMANDS_Filter_SetUnknownFeature1GeographicConfigChangedBehavior
 *fill*         0x00000000000a353c        0x4 
 .text.ARCOMMANDS_Filter_SetUnknownFeature1RelativeConfigChangedBehavior
                0x00000000000a3540       0x2c /home/sunho/bebop_ws/devel/arsdk/out/arsdk-native/build/libARCommands/obj/gen/Sources/ARCOMMANDS_Filter.c.o
                0x00000000000a3540                ARCOMMANDS_Filter_SetUnknownFeature1RelativeConfigChangedBehavior
 *fill*         0x00000000000a356c        0x4 
 .text.ARCOMMANDS_Filter_SetUnknownFeature1AnimRunBehavior
                0x00000000000a3570       0x2c /home/sunho/bebop_ws/devel/arsdk/out/arsdk-native/build/libARCommands/obj/gen/Sources/ARCOMMANDS_Filter.c.o
                0x00000000000a3570                ARCOMMANDS_Filter_SetUnknownFeature1AnimRunBehavior
 *fill*         0x00000000000a359c        0x4 
 .text.ARCOMMANDS_Filter_SetUnknownFeature1SpiralAnimConfigChangedBehavior
                0x00000000000a35a0       0x2c /home/sunho/bebop_ws/devel/arsdk/out/arsdk-native/build/libARCommands/obj/gen/Sources/ARCOMMANDS_Filter.c.o
                0x00000000000a35a0                ARCOMMANDS_Filter_SetUnknownFeature1SpiralAnimConfigChangedBehavior
 *fill*         0x00000000000a35cc        0x4 
 .text.ARCOMMANDS_Filter_SetUnknownFeature1SwingAnimConfigChangedBehavior
                0x00000000000a35d0       0x2c /home/sunho/bebop_ws/devel/arsdk/out/arsdk-native/build/libARCommands/obj/gen/Sources/ARCOMMANDS_Filter.c.o
                0x00000000000a35d0                ARCOMMANDS_Filter_SetUnknownFeature1SwingAnimConfigChangedBehavior
 *fill*         0x00000000000a35fc        0x4 
 .text.ARCOMMANDS_Filter_SetUnknownFeature1BoomerangAnimConfigChangedBehavior
                0x00000000000a3600       0x2c /home/sunho/bebop_ws/devel/arsdk/out/arsdk-native/build/libARCommands/obj/gen/Sources/ARCOMMANDS_Filter.c.o
                0x00000000000a3600                ARCOMMANDS_Filter_SetUnknownFeature1BoomerangAnimConfigChangedBehavior
 *fill*         0x00000000000a362c        0x4 
 .text.ARCOMMANDS_Filter_SetUnknownFeature1CandleAnimConfigChangedBehavior
                0x00000000000a3630       0x2c /home/sunho/bebop_ws/devel/arsdk/out/arsdk-native/build/libARCommands/obj/gen/Sources/ARCOMMANDS_Filter.c.o
                0x00000000000a3630                ARCOMMANDS_Filter_SetUnknownFeature1CandleAnimConfigChangedBehavior
 *fill*         0x00000000000a365c        0x4 
 .text.ARCOMMANDS_Filter_SetUnknownFeature1DollySlideAnimConfigChangedBehavior
                0x00000000000a3660       0x2c /home/sunho/bebop_ws/devel/arsdk/out/arsdk-native/build/libARCommands/obj/gen/Sources/ARCOMMANDS_Filter.c.o
                0x00000000000a3660                ARCOMMANDS_Filter_SetUnknownFeature1DollySlideAnimConfigChangedBehavior
 *fill*         0x00000000000a368c        0x4 
 .text.ARCOMMANDS_Filter_SetUnknownFeature1UserFramingPositionChangedBehavior
                0x00000000000a3690       0x2c /home/sunho/bebop_ws/devel/arsdk/out/arsdk-native/build/libARCommands/obj/gen/Sources/ARCOMMANDS_Filter.c.o
                0x00000000000a3690                ARCOMMANDS_Filter_SetUnknownFeature1UserFramingPositionChangedBehavior
 *fill*         0x00000000000a36bc        0x4 
 .text.ARCOMMANDS_Filter_SetWifiBehavior
                0x00000000000a36c0       0x74 /home/sunho/bebop_ws/devel/arsdk/out/arsdk-native/build/libARCommands/obj/gen/Sources/ARCOMMANDS_Filter.c.o
                0x00000000000a36c0                ARCOMMANDS_Filter_SetWifiBehavior
 *fill*         0x00000000000a3734        0xc 
 .text.ARCOMMANDS_Filter_SetWifiScanBehavior
                0x00000000000a3740       0x2c /home/sunho/bebop_ws/devel/arsdk/out/arsdk-native/build/libARCommands/obj/gen/Sources/ARCOMMANDS_Filter.c.o
                0x00000000000a3740                ARCOMMANDS_Filter_SetWifiScanBehavior
 *fill*         0x00000000000a376c        0x4 
 .text.ARCOMMANDS_Filter_SetWifiUpdateAuthorizedChannelsBehavior
                0x00000000000a3770       0x2c /home/sunho/bebop_ws/devel/arsdk/out/arsdk-native/build/libARCommands/obj/gen/Sources/ARCOMMANDS_Filter.c.o
                0x00000000000a3770                ARCOMMANDS_Filter_SetWifiUpdateAuthorizedChannelsBehavior
 *fill*         0x00000000000a379c        0x4 
 .text.ARCOMMANDS_Filter_SetWifiSetApChannelBehavior
                0x00000000000a37a0       0x2c /home/sunho/bebop_ws/devel/arsdk/out/arsdk-native/build/libARCommands/obj/gen/Sources/ARCOMMANDS_Filter.c.o
                0x00000000000a37a0                ARCOMMANDS_Filter_SetWifiSetApChannelBehavior
 *fill*         0x00000000000a37cc        0x4 
 .text.ARCOMMANDS_Filter_SetWifiSetSecurityBehavior
                0x00000000000a37d0       0x2c /home/sunho/bebop_ws/devel/arsdk/out/arsdk-native/build/libARCommands/obj/gen/Sources/ARCOMMANDS_Filter.c.o
                0x00000000000a37d0                ARCOMMANDS_Filter_SetWifiSetSecurityBehavior
 *fill*         0x00000000000a37fc        0x4 
 .text.ARCOMMANDS_Filter_SetWifiSetCountryBehavior
                0x00000000000a3800       0x2c /home/sunho/bebop_ws/devel/arsdk/out/arsdk-native/build/libARCommands/obj/gen/Sources/ARCOMMANDS_Filter.c.o
                0x00000000000a3800                ARCOMMANDS_Filter_SetWifiSetCountryBehavior
 *fill*         0x00000000000a382c        0x4 
 .text.ARCOMMANDS_Filter_SetWifiSetEnvironmentBehavior
                0x00000000000a3830       0x2c /home/sunho/bebop_ws/devel/arsdk/out/arsdk-native/build/libARCommands/obj/gen/Sources/ARCOMMANDS_Filter.c.o
                0x00000000000a3830                ARCOMMANDS_Filter_SetWifiSetEnvironmentBehavior
 *fill*         0x00000000000a385c        0x4 
 .text.ARCOMMANDS_Filter_SetWifiScannedItemBehavior
                0x00000000000a3860       0x2c /home/sunho/bebop_ws/devel/arsdk/out/arsdk-native/build/libARCommands/obj/gen/Sources/ARCOMMANDS_Filter.c.o
                0x00000000000a3860                ARCOMMANDS_Filter_SetWifiScannedItemBehavior
 *fill*         0x00000000000a388c        0x4 
 .text.ARCOMMANDS_Filter_SetWifiAuthorizedChannelBehavior
                0x00000000000a3890       0x2c /home/sunho/bebop_ws/devel/arsdk/out/arsdk-native/build/libARCommands/obj/gen/Sources/ARCOMMANDS_Filter.c.o
                0x00000000000a3890                ARCOMMANDS_Filter_SetWifiAuthorizedChannelBehavior
 *fill*         0x00000000000a38bc        0x4 
 .text.ARCOMMANDS_Filter_SetWifiApChannelChangedBehavior
                0x00000000000a38c0       0x2c /home/sunho/bebop_ws/devel/arsdk/out/arsdk-native/build/libARCommands/obj/gen/Sources/ARCOMMANDS_Filter.c.o
                0x00000000000a38c0                ARCOMMANDS_Filter_SetWifiApChannelChangedBehavior
 *fill*         0x00000000000a38ec        0x4 
 .text.ARCOMMANDS_Filter_SetWifiSecurityChangedBehavior
                0x00000000000a38f0       0x2c /home/sunho/bebop_ws/devel/arsdk/out/arsdk-native/build/libARCommands/obj/gen/Sources/ARCOMMANDS_Filter.c.o
                0x00000000000a38f0                ARCOMMANDS_Filter_SetWifiSecurityChangedBehavior
 *fill*         0x00000000000a391c        0x4 
 .text.ARCOMMANDS_Filter_SetWifiCountryChangedBehavior
                0x00000000000a3920       0x2c /home/sunho/bebop_ws/devel/arsdk/out/arsdk-native/build/libARCommands/obj/gen/Sources/ARCOMMANDS_Filter.c.o
                0x00000000000a3920                ARCOMMANDS_Filter_SetWifiCountryChangedBehavior
 *fill*         0x00000000000a394c        0x4 
 .text.ARCOMMANDS_Filter_SetWifiEnvironmentChangedBehavior
                0x00000000000a3950       0x2c /home/sunho/bebop_ws/devel/arsdk/out/arsdk-native/build/libARCommands/obj/gen/Sources/ARCOMMANDS_Filter.c.o
                0x00000000000a3950                ARCOMMANDS_Filter_SetWifiEnvironmentChangedBehavior
 *fill*         0x00000000000a397c        0x4 
 .text.ARCOMMANDS_Filter_SetWifiRssiChangedBehavior
                0x00000000000a3980       0x2c /home/sunho/bebop_ws/devel/arsdk/out/arsdk-native/build/libARCommands/obj/gen/Sources/ARCOMMANDS_Filter.c.o
                0x00000000000a3980                ARCOMMANDS_Filter_SetWifiRssiChangedBehavior
 *fill*         0x00000000000a39ac        0x4 
 .text.ARCOMMANDS_ReadWrite_AddU8ToBuffer
                0x00000000000a39b0       0x16 /home/sunho/bebop_ws/devel/arsdk/out/arsdk-native/build/libARCommands/obj/gen/Sources/ARCOMMANDS_ReadWrite.c.o
                0x00000000000a39b0                ARCOMMANDS_ReadWrite_AddU8ToBuffer
 *fill*         0x00000000000a39c6        0xa 
 .text.ARCOMMANDS_ReadWrite_AddU16ToBuffer
                0x00000000000a39d0       0x16 /home/sunho/bebop_ws/devel/arsdk/out/arsdk-native/build/libARCommands/obj/gen/Sources/ARCOMMANDS_ReadWrite.c.o
                0x00000000000a39d0                ARCOMMANDS_ReadWrite_AddU16ToBuffer
 *fill*         0x00000000000a39e6        0xa 
 .text.ARCOMMANDS_ReadWrite_AddU32ToBuffer
                0x00000000000a39f0       0x16 /home/sunho/bebop_ws/devel/arsdk/out/arsdk-native/build/libARCommands/obj/gen/Sources/ARCOMMANDS_ReadWrite.c.o
                0x00000000000a39f0                ARCOMMANDS_ReadWrite_AddU32ToBuffer
 *fill*         0x00000000000a3a06        0xa 
 .text.ARCOMMANDS_ReadWrite_AddU64ToBuffer
                0x00000000000a3a10       0x16 /home/sunho/bebop_ws/devel/arsdk/out/arsdk-native/build/libARCommands/obj/gen/Sources/ARCOMMANDS_ReadWrite.c.o
                0x00000000000a3a10                ARCOMMANDS_ReadWrite_AddU64ToBuffer
 *fill*         0x00000000000a3a26        0xa 
 .text.ARCOMMANDS_ReadWrite_AddStringToBuffer
                0x00000000000a3a30       0x35 /home/sunho/bebop_ws/devel/arsdk/out/arsdk-native/build/libARCommands/obj/gen/Sources/ARCOMMANDS_ReadWrite.c.o
                0x00000000000a3a30                ARCOMMANDS_ReadWrite_AddStringToBuffer
 *fill*         0x00000000000a3a65        0xb 
 .text.ARCOMMANDS_ReadWrite_AddFloatToBuffer
                0x00000000000a3a70       0x15 /home/sunho/bebop_ws/devel/arsdk/out/arsdk-native/build/libARCommands/obj/gen/Sources/ARCOMMANDS_ReadWrite.c.o
                0x00000000000a3a70                ARCOMMANDS_ReadWrite_AddFloatToBuffer
 *fill*         0x00000000000a3a85        0xb 
 .text.ARCOMMANDS_ReadWrite_AddDoubleToBuffer
                0x00000000000a3a90       0x17 /home/sunho/bebop_ws/devel/arsdk/out/arsdk-native/build/libARCommands/obj/gen/Sources/ARCOMMANDS_ReadWrite.c.o
                0x00000000000a3a90                ARCOMMANDS_ReadWrite_AddDoubleToBuffer
 *fill*         0x00000000000a3aa7        0x9 
 .text.ARCOMMANDS_ReadWrite_Read8FromBuffer
                0x00000000000a3ab0       0x29 /home/sunho/bebop_ws/devel/arsdk/out/arsdk-native/build/libARCommands/obj/gen/Sources/ARCOMMANDS_ReadWrite.c.o
                0x00000000000a3ab0                ARCOMMANDS_ReadWrite_Read8FromBuffer
 *fill*         0x00000000000a3ad9        0x7 
 .text.ARCOMMANDS_ReadWrite_Read16FromBuffer
                0x00000000000a3ae0       0x29 /home/sunho/bebop_ws/devel/arsdk/out/arsdk-native/build/libARCommands/obj/gen/Sources/ARCOMMANDS_ReadWrite.c.o
                0x00000000000a3ae0                ARCOMMANDS_ReadWrite_Read16FromBuffer
 *fill*         0x00000000000a3b09        0x7 
 .text.ARCOMMANDS_ReadWrite_Read32FromBuffer
                0x00000000000a3b10       0x29 /home/sunho/bebop_ws/devel/arsdk/out/arsdk-native/build/libARCommands/obj/gen/Sources/ARCOMMANDS_ReadWrite.c.o
                0x00000000000a3b10                ARCOMMANDS_ReadWrite_Read32FromBuffer
 *fill*         0x00000000000a3b39        0x7 
 .text.ARCOMMANDS_ReadWrite_Read64FromBuffer
                0x00000000000a3b40       0x29 /home/sunho/bebop_ws/devel/arsdk/out/arsdk-native/build/libARCommands/obj/gen/Sources/ARCOMMANDS_ReadWrite.c.o
                0x00000000000a3b40                ARCOMMANDS_ReadWrite_Read64FromBuffer
 *fill*         0x00000000000a3b69        0x7 
 .text.ARCOMMANDS_ReadWrite_ReadFloatFromBuffer
                0x00000000000a3b70       0x2a /home/sunho/bebop_ws/devel/arsdk/out/arsdk-native/build/libARCommands/obj/gen/Sources/ARCOMMANDS_ReadWrite.c.o
                0x00000000000a3b70                ARCOMMANDS_ReadWrite_ReadFloatFromBuffer
 *fill*         0x00000000000a3b9a        0x6 
 .text.ARCOMMANDS_ReadWrite_ReadDoubleFromBuffer
                0x00000000000a3ba0       0x2b /home/sunho/bebop_ws/devel/arsdk/out/arsdk-native/build/libARCommands/obj/gen/Sources/ARCOMMANDS_ReadWrite.c.o
                0x00000000000a3ba0                ARCOMMANDS_ReadWrite_ReadDoubleFromBuffer
 *fill*         0x00000000000a3bcb        0x5 
 .text.ARCOMMANDS_ReadWrite_ReadStringFromBuffer
                0x00000000000a3bd0       0x46 /home/sunho/bebop_ws/devel/arsdk/out/arsdk-native/build/libARCommands/obj/gen/Sources/ARCOMMANDS_ReadWrite.c.o
                0x00000000000a3bd0                ARCOMMANDS_ReadWrite_ReadStringFromBuffer
 *fill*         0x00000000000a3c16        0xa 
 .text.ARCOMMANDS_ReadWrite_WriteString
                0x00000000000a3c20       0x43 /home/sunho/bebop_ws/devel/arsdk/out/arsdk-native/build/libARCommands/obj/gen/Sources/ARCOMMANDS_ReadWrite.c.o
                0x00000000000a3c20                ARCOMMANDS_ReadWrite_WriteString
 *fill*         0x00000000000a3c63        0xd 
 .text.ARCOMMANDS_ReadWrite_PrintU8
                0x00000000000a3c70       0x77 /home/sunho/bebop_ws/devel/arsdk/out/arsdk-native/build/libARCommands/obj/gen/Sources/ARCOMMANDS_ReadWrite.c.o
                0x00000000000a3c70                ARCOMMANDS_ReadWrite_PrintU8
 *fill*         0x00000000000a3ce7        0x9 
 .text.ARCOMMANDS_ReadWrite_PrintI8
                0x00000000000a3cf0       0x77 /home/sunho/bebop_ws/devel/arsdk/out/arsdk-native/build/libARCommands/obj/gen/Sources/ARCOMMANDS_ReadWrite.c.o
                0x00000000000a3cf0                ARCOMMANDS_ReadWrite_PrintI8
 *fill*         0x00000000000a3d67        0x9 
 .text.ARCOMMANDS_ReadWrite_PrintU16
                0x00000000000a3d70       0x77 /home/sunho/bebop_ws/devel/arsdk/out/arsdk-native/build/libARCommands/obj/gen/Sources/ARCOMMANDS_ReadWrite.c.o
                0x00000000000a3d70                ARCOMMANDS_ReadWrite_PrintU16
 *fill*         0x00000000000a3de7        0x9 
 .text.ARCOMMANDS_ReadWrite_PrintI16
                0x00000000000a3df0       0x70 /home/sunho/bebop_ws/devel/arsdk/out/arsdk-native/build/libARCommands/obj/gen/Sources/ARCOMMANDS_ReadWrite.c.o
                0x00000000000a3df0                ARCOMMANDS_ReadWrite_PrintI16
 .text.ARCOMMANDS_ReadWrite_PrintU32
                0x00000000000a3e60       0x6f /home/sunho/bebop_ws/devel/arsdk/out/arsdk-native/build/libARCommands/obj/gen/Sources/ARCOMMANDS_ReadWrite.c.o
                0x00000000000a3e60                ARCOMMANDS_ReadWrite_PrintU32
 *fill*         0x00000000000a3ecf        0x1 
 .text.ARCOMMANDS_ReadWrite_PrintI32
                0x00000000000a3ed0       0x6f /home/sunho/bebop_ws/devel/arsdk/out/arsdk-native/build/libARCommands/obj/gen/Sources/ARCOMMANDS_ReadWrite.c.o
                0x00000000000a3ed0                ARCOMMANDS_ReadWrite_PrintI32
 *fill*         0x00000000000a3f3f        0x1 
 .text.ARCOMMANDS_ReadWrite_PrintU64
                0x00000000000a3f40       0x6f /home/sunho/bebop_ws/devel/arsdk/out/arsdk-native/build/libARCommands/obj/gen/Sources/ARCOMMANDS_ReadWrite.c.o
                0x00000000000a3f40                ARCOMMANDS_ReadWrite_PrintU64
 *fill*         0x00000000000a3faf        0x1 
 .text.ARCOMMANDS_ReadWrite_PrintFloat
                0x00000000000a3fb0       0x6e /home/sunho/bebop_ws/devel/arsdk/out/arsdk-native/build/libARCommands/obj/gen/Sources/ARCOMMANDS_ReadWrite.c.o
                0x00000000000a3fb0                ARCOMMANDS_ReadWrite_PrintFloat
 *fill*         0x00000000000a401e        0x2 
 .text.ARCOMMANDS_ReadWrite_PrintDouble
                0x00000000000a4020       0x6b /home/sunho/bebop_ws/devel/arsdk/out/arsdk-native/build/libARCommands/obj/gen/Sources/ARCOMMANDS_ReadWrite.c.o
                0x00000000000a4020                ARCOMMANDS_ReadWrite_PrintDouble
 *fill*         0x00000000000a408b        0x5 
 .text.ARCOMMANDS_ReadWrite_PrintString
                0x00000000000a4090       0x35 /home/sunho/bebop_ws/devel/arsdk/out/arsdk-native/build/libARCommands/obj/gen/Sources/ARCOMMANDS_ReadWrite.c.o
                0x00000000000a4090                ARCOMMANDS_ReadWrite_PrintString
 *(.gnu.warning)

.fini           0x00000000000a40c8        0x9
 *(SORT(.fini))
 .fini          0x00000000000a40c8        0x4 /usr/lib/gcc/x86_64-linux-gnu/4.8/../../../x86_64-linux-gnu/crti.o
                0x00000000000a40c8                _fini
 .fini          0x00000000000a40cc        0x5 /usr/lib/gcc/x86_64-linux-gnu/4.8/../../../x86_64-linux-gnu/crtn.o
                0x00000000000a40d1                PROVIDE (__etext, .)
                0x00000000000a40d1                PROVIDE (_etext, .)
                0x00000000000a40d1                PROVIDE (etext, .)

.rodata         0x00000000000a40d8     0xa309
 *(.rodata .rodata.* .gnu.linkonce.r.*)
 .rodata.str1.1
                0x00000000000a40d8        0xc /home/sunho/bebop_ws/devel/arsdk/out/arsdk-native/build/libARCommands/obj/Sources/ARCOMMANDS_Version.c.o
 .rodata        0x00000000000a40e4     0x11e8 /home/sunho/bebop_ws/devel/arsdk/out/arsdk-native/build/libARCommands/obj/gen/Sources/ARCOMMANDS_Decoder.c.o
 .rodata.str1.1
                0x00000000000a52cc     0x1994 /home/sunho/bebop_ws/devel/arsdk/out/arsdk-native/build/libARCommands/obj/gen/Sources/ARCOMMANDS_Decoder.c.o
                                       0x19af (size before relaxing)
 .rodata.str1.8
                0x00000000000a6c60     0x6e80 /home/sunho/bebop_ws/devel/arsdk/out/arsdk-native/build/libARCommands/obj/gen/Sources/ARCOMMANDS_Decoder.c.o
 .rodata        0x00000000000adae0      0x8f4 /home/sunho/bebop_ws/devel/arsdk/out/arsdk-native/build/libARCommands/obj/gen/Sources/ARCOMMANDS_Filter.c.o
 .rodata.str1.1
                0x00000000000ae3d4        0xd /home/sunho/bebop_ws/devel/arsdk/out/arsdk-native/build/libARCommands/obj/gen/Sources/ARCOMMANDS_ReadWrite.c.o

.rodata1
 *(.rodata1)

.eh_frame_hdr   0x00000000000ae3e4     0x4634
 *(.eh_frame_hdr)
 .eh_frame_hdr  0x00000000000ae3e4     0x4634 /home/sunho/bebop_ws/devel/arsdk/out/arsdk-native/build/libARCommands/obj/Sources/ARCOMMANDS_Version.c.o

.eh_frame       0x00000000000b2a18    0x1c2fc
 *(.eh_frame)
 .eh_frame      0x00000000000b2a18       0x40 /usr/lib/gcc/x86_64-linux-gnu/4.8/../../../x86_64-linux-gnu/crti.o
 .eh_frame      0x00000000000b2a58       0x50 /home/sunho/bebop_ws/devel/arsdk/out/arsdk-native/build/libARCommands/obj/Sources/ARCOMMANDS_Version.c.o
 .eh_frame      0x00000000000b2aa8     0x9db8 /home/sunho/bebop_ws/devel/arsdk/out/arsdk-native/build/libARCommands/obj/gen/Sources/ARCOMMANDS_Generator.c.o
                                       0x9990 (size before relaxing)
 .eh_frame      0x00000000000bc860     0xe128 /home/sunho/bebop_ws/devel/arsdk/out/arsdk-native/build/libARCommands/obj/gen/Sources/ARCOMMANDS_Decoder.c.o
                                       0xd928 (size before relaxing)
 .eh_frame      0x00000000000ca988     0x3fb0 /home/sunho/bebop_ws/devel/arsdk/out/arsdk-native/build/libARCommands/obj/gen/Sources/ARCOMMANDS_Filter.c.o
                                       0x3538 (size before relaxing)
 .eh_frame      0x00000000000ce938      0x3d8 /home/sunho/bebop_ws/devel/arsdk/out/arsdk-native/build/libARCommands/obj/gen/Sources/ARCOMMANDS_ReadWrite.c.o
                                        0x3b0 (size before relaxing)
 .eh_frame      0x00000000000ced10        0x4 /usr/lib/gcc/x86_64-linux-gnu/4.8/crtendS.o

.gcc_except_table
 *(.gcc_except_table .gcc_except_table.*)

.exception_ranges
 *(.exception_ranges .exception_ranges*)
                0x00000000000ced14                . = (ALIGN (0x200000) - ((0x200000 - .) & 0x1fffff))
                0x00000000002ceddc                . = DATA_SEGMENT_ALIGN (0x200000, 0x1000)

.eh_frame
 *(.eh_frame)

.gcc_except_table
 *(.gcc_except_table .gcc_except_table.*)

.exception_ranges
 *(.exception_ranges .exception_ranges*)

.tdata
 *(.tdata .tdata.* .gnu.linkonce.td.*)

.tbss
 *(.tbss .tbss.* .gnu.linkonce.tb.*)
 *(.tcommon)

.preinit_array
 *(.preinit_array)

.init_array     0x00000000002cede0        0x8
 *(SORT(.init_array.*) SORT(.ctors.*))
 *(.init_array EXCLUDE_FILE(*crtend?.o *crtend.o *crtbegin?.o *crtbegin.o) .ctors)
 .init_array    0x00000000002cede0        0x8 /usr/lib/gcc/x86_64-linux-gnu/4.8/crtbeginS.o

.fini_array     0x00000000002cede8        0x8
 *(SORT(.fini_array.*) SORT(.dtors.*))
 *(.fini_array EXCLUDE_FILE(*crtend?.o *crtend.o *crtbegin?.o *crtbegin.o) .dtors)
 .fini_array    0x00000000002cede8        0x8 /usr/lib/gcc/x86_64-linux-gnu/4.8/crtbeginS.o

.ctors
 *crtbegin.o(.ctors)
 *crtbegin?.o(.ctors)
 *(EXCLUDE_FILE(*crtend?.o *crtend.o) .ctors)
 *(SORT(.ctors.*))
 *(.ctors)

.dtors
 *crtbegin.o(.dtors)
 *crtbegin?.o(.dtors)
 *(EXCLUDE_FILE(*crtend?.o *crtend.o) .dtors)
 *(SORT(.dtors.*))
 *(.dtors)

.jcr            0x00000000002cedf0        0x8
 *(.jcr)
 .jcr           0x00000000002cedf0        0x0 /usr/lib/gcc/x86_64-linux-gnu/4.8/crtbeginS.o
 .jcr           0x00000000002cedf0        0x8 /usr/lib/gcc/x86_64-linux-gnu/4.8/crtendS.o

.data.rel.ro
 *(.data.rel.ro.local* .gnu.linkonce.d.rel.ro.local.*)
 *(.data.rel.ro .data.rel.ro.* .gnu.linkonce.d.rel.ro.*)

.dynamic        0x00000000002cedf8      0x1e0
 *(.dynamic)
 .dynamic       0x00000000002cedf8      0x1e0 /usr/lib/gcc/x86_64-linux-gnu/4.8/../../../x86_64-linux-gnu/crti.o
                0x00000000002cedf8                _DYNAMIC

.got            0x00000000002cefd8       0x28
 *(.got)
 .got           0x00000000002cefd8       0x28 /usr/lib/gcc/x86_64-linux-gnu/4.8/../../../x86_64-linux-gnu/crti.o
 *(.igot)
                0x00000000002cffe8                . = DATA_SEGMENT_RELRO_END (., (SIZEOF (.got.plt) >= 0x18)?0x18:0x0)

.got.plt        0x00000000002cf000      0x160
 *(.got.plt)
 .got.plt       0x00000000002cf000      0x160 /usr/lib/gcc/x86_64-linux-gnu/4.8/../../../x86_64-linux-gnu/crti.o
                0x00000000002cf000                _GLOBAL_OFFSET_TABLE_
 *(.igot.plt)

.data           0x00000000002cf160        0x8
 *(.data .data.* .gnu.linkonce.d.*)
 .data.rel      0x00000000002cf160        0x8 /usr/lib/gcc/x86_64-linux-gnu/4.8/crtbeginS.o
                0x00000000002cf160                __dso_handle

.tm_clone_table
                0x00000000002cf168        0x0
 .tm_clone_table
                0x00000000002cf168        0x0 /usr/lib/gcc/x86_64-linux-gnu/4.8/crtbeginS.o
 .tm_clone_table
                0x00000000002cf168        0x0 /usr/lib/gcc/x86_64-linux-gnu/4.8/crtendS.o

.data1
 *(.data1)
                0x00000000002cf168                _edata = .
                0x00000000002cf168                PROVIDE (edata, .)
                0x00000000002cf168                . = .
                0x00000000002cf168                __bss_start = .

.bss            0x00000000002cf168     0x2018
 *(.dynbss)
 .dynbss        0x0000000000000000        0x0 /usr/lib/gcc/x86_64-linux-gnu/4.8/../../../x86_64-linux-gnu/crti.o
 *(.bss .bss.* .gnu.linkonce.b.*)
 .bss           0x00000000002cf168        0x1 /usr/lib/gcc/x86_64-linux-gnu/4.8/crtbeginS.o
 *fill*         0x00000000002cf169        0x7 
 .bss           0x00000000002cf170     0x2010 /home/sunho/bebop_ws/devel/arsdk/out/arsdk-native/build/libARCommands/obj/gen/Sources/ARCOMMANDS_Decoder.c.o
 *(COMMON)
                0x00000000002d1180                . = ALIGN ((. != 0x0)?0x8:0x1)

.lbss
 *(.dynlbss)
 *(.lbss .lbss.* .gnu.linkonce.lb.*)
 *(LARGE_COMMON)
                0x00000000002d1180                . = ALIGN (0x8)
                0x00000000002d1180                . = SEGMENT_START ("ldata-segment", .)

.lrodata
 *(.lrodata .lrodata.* .gnu.linkonce.lr.*)

.ldata          0x00000000006d1180        0x0
 *(.ldata .ldata.* .gnu.linkonce.l.*)
                0x00000000006d1180                . = ALIGN ((. != 0x0)?0x8:0x1)
                0x00000000006d1180                . = ALIGN (0x8)
                0x00000000006d1180                _end = .
                0x00000000006d1180                PROVIDE (end, .)
                0x00000000006d1180                . = DATA_SEGMENT_END (.)

.stab
 *(.stab)

.stabstr
 *(.stabstr)

.stab.excl
 *(.stab.excl)

.stab.exclstr
 *(.stab.exclstr)

.stab.index
 *(.stab.index)

.stab.indexstr
 *(.stab.indexstr)

.comment        0x0000000000000000       0x2b
 *(.comment)
 .comment       0x0000000000000000       0x2b /usr/lib/gcc/x86_64-linux-gnu/4.8/crtbeginS.o
                                         0x2c (size before relaxing)
 .comment       0x0000000000000000       0x2c /home/sunho/bebop_ws/devel/arsdk/out/arsdk-native/build/libARCommands/obj/Sources/ARCOMMANDS_Version.c.o
 .comment       0x0000000000000000       0x2c /home/sunho/bebop_ws/devel/arsdk/out/arsdk-native/build/libARCommands/obj/gen/Sources/ARCOMMANDS_Generator.c.o
 .comment       0x0000000000000000       0x2c /home/sunho/bebop_ws/devel/arsdk/out/arsdk-native/build/libARCommands/obj/gen/Sources/ARCOMMANDS_Decoder.c.o
 .comment       0x0000000000000000       0x2c /home/sunho/bebop_ws/devel/arsdk/out/arsdk-native/build/libARCommands/obj/gen/Sources/ARCOMMANDS_Filter.c.o
 .comment       0x0000000000000000       0x2c /home/sunho/bebop_ws/devel/arsdk/out/arsdk-native/build/libARCommands/obj/gen/Sources/ARCOMMANDS_ReadWrite.c.o
 .comment       0x0000000000000000       0x2c /usr/lib/gcc/x86_64-linux-gnu/4.8/crtendS.o

.debug
 *(.debug)

.line
 *(.line)

.debug_srcinfo
 *(.debug_srcinfo)

.debug_sfnames
 *(.debug_sfnames)

.debug_aranges  0x0000000000000000     0x8cf0
 *(.debug_aranges)
 .debug_aranges
                0x0000000000000000       0x40 /home/sunho/bebop_ws/devel/arsdk/out/arsdk-native/build/libARCommands/obj/Sources/ARCOMMANDS_Version.c.o
 .debug_aranges
                0x0000000000000040     0x2020 /home/sunho/bebop_ws/devel/arsdk/out/arsdk-native/build/libARCommands/obj/gen/Sources/ARCOMMANDS_Generator.c.o
 .debug_aranges
                0x0000000000002060     0x4080 /home/sunho/bebop_ws/devel/arsdk/out/arsdk-native/build/libARCommands/obj/gen/Sources/ARCOMMANDS_Decoder.c.o
 .debug_aranges
                0x00000000000060e0     0x2a60 /home/sunho/bebop_ws/devel/arsdk/out/arsdk-native/build/libARCommands/obj/gen/Sources/ARCOMMANDS_Filter.c.o
 .debug_aranges
                0x0000000000008b40      0x1b0 /home/sunho/bebop_ws/devel/arsdk/out/arsdk-native/build/libARCommands/obj/gen/Sources/ARCOMMANDS_ReadWrite.c.o

.debug_pubnames
 *(.debug_pubnames)

.debug_info     0x0000000000000000    0xacf56
 *(.debug_info .gnu.linkonce.wi.*)
 .debug_info    0x0000000000000000      0x491 /home/sunho/bebop_ws/devel/arsdk/out/arsdk-native/build/libARCommands/obj/Sources/ARCOMMANDS_Version.c.o
 .debug_info    0x0000000000000491    0x2a816 /home/sunho/bebop_ws/devel/arsdk/out/arsdk-native/build/libARCommands/obj/gen/Sources/ARCOMMANDS_Generator.c.o
 .debug_info    0x000000000002aca7    0x7018c /home/sunho/bebop_ws/devel/arsdk/out/arsdk-native/build/libARCommands/obj/gen/Sources/ARCOMMANDS_Decoder.c.o
 .debug_info    0x000000000009ae33    0x10488 /home/sunho/bebop_ws/devel/arsdk/out/arsdk-native/build/libARCommands/obj/gen/Sources/ARCOMMANDS_Filter.c.o
 .debug_info    0x00000000000ab2bb     0x1c9b /home/sunho/bebop_ws/devel/arsdk/out/arsdk-native/build/libARCommands/obj/gen/Sources/ARCOMMANDS_ReadWrite.c.o

.debug_abbrev   0x0000000000000000      0x9a3
 *(.debug_abbrev)
 .debug_abbrev  0x0000000000000000      0x146 /home/sunho/bebop_ws/devel/arsdk/out/arsdk-native/build/libARCommands/obj/Sources/ARCOMMANDS_Version.c.o
 .debug_abbrev  0x0000000000000146      0x16b /home/sunho/bebop_ws/devel/arsdk/out/arsdk-native/build/libARCommands/obj/gen/Sources/ARCOMMANDS_Generator.c.o
 .debug_abbrev  0x00000000000002b1      0x273 /home/sunho/bebop_ws/devel/arsdk/out/arsdk-native/build/libARCommands/obj/gen/Sources/ARCOMMANDS_Decoder.c.o
 .debug_abbrev  0x0000000000000524      0x1ad /home/sunho/bebop_ws/devel/arsdk/out/arsdk-native/build/libARCommands/obj/gen/Sources/ARCOMMANDS_Filter.c.o
 .debug_abbrev  0x00000000000006d1      0x2d2 /home/sunho/bebop_ws/devel/arsdk/out/arsdk-native/build/libARCommands/obj/gen/Sources/ARCOMMANDS_ReadWrite.c.o

.debug_line     0x0000000000000000    0x204ee
 *(.debug_line .debug_line.* .debug_line_end)
 .debug_line    0x0000000000000000      0x11d /home/sunho/bebop_ws/devel/arsdk/out/arsdk-native/build/libARCommands/obj/Sources/ARCOMMANDS_Version.c.o
 .debug_line    0x000000000000011d     0x6343 /home/sunho/bebop_ws/devel/arsdk/out/arsdk-native/build/libARCommands/obj/gen/Sources/ARCOMMANDS_Generator.c.o
 .debug_line    0x0000000000006460    0x1247a /home/sunho/bebop_ws/devel/arsdk/out/arsdk-native/build/libARCommands/obj/gen/Sources/ARCOMMANDS_Decoder.c.o
 .debug_line    0x00000000000188da     0x762f /home/sunho/bebop_ws/devel/arsdk/out/arsdk-native/build/libARCommands/obj/gen/Sources/ARCOMMANDS_Filter.c.o
 .debug_line    0x000000000001ff09      0x5e5 /home/sunho/bebop_ws/devel/arsdk/out/arsdk-native/build/libARCommands/obj/gen/Sources/ARCOMMANDS_ReadWrite.c.o

.debug_frame
 *(.debug_frame)

.debug_str      0x0000000000000000    0x5d255
 *(.debug_str)
 .debug_str     0x0000000000000000      0x2e5 /home/sunho/bebop_ws/devel/arsdk/out/arsdk-native/build/libARCommands/obj/Sources/ARCOMMANDS_Version.c.o
                                        0x33a (size before relaxing)
 .debug_str     0x00000000000002e5    0x244f4 /home/sunho/bebop_ws/devel/arsdk/out/arsdk-native/build/libARCommands/obj/gen/Sources/ARCOMMANDS_Generator.c.o
                                      0x246be (size before relaxing)
 .debug_str     0x00000000000247d9    0x28050 /home/sunho/bebop_ws/devel/arsdk/out/arsdk-native/build/libARCommands/obj/gen/Sources/ARCOMMANDS_Decoder.c.o
                                      0x4f40c (size before relaxing)
 .debug_str     0x000000000004c829    0x10906 /home/sunho/bebop_ws/devel/arsdk/out/arsdk-native/build/libARCommands/obj/gen/Sources/ARCOMMANDS_Filter.c.o
                                      0x1997f (size before relaxing)
 .debug_str     0x000000000005d12f      0x126 /home/sunho/bebop_ws/devel/arsdk/out/arsdk-native/build/libARCommands/obj/gen/Sources/ARCOMMANDS_ReadWrite.c.o
                                        0x7e4 (size before relaxing)

.debug_loc      0x0000000000000000   0x1180bb
 *(.debug_loc)
 .debug_loc     0x0000000000000000      0x145 /home/sunho/bebop_ws/devel/arsdk/out/arsdk-native/build/libARCommands/obj/Sources/ARCOMMANDS_Version.c.o
 .debug_loc     0x0000000000000145    0x5ffef /home/sunho/bebop_ws/devel/arsdk/out/arsdk-native/build/libARCommands/obj/gen/Sources/ARCOMMANDS_Generator.c.o
 .debug_loc     0x0000000000060134    0xa022f /home/sunho/bebop_ws/devel/arsdk/out/arsdk-native/build/libARCommands/obj/gen/Sources/ARCOMMANDS_Decoder.c.o
 .debug_loc     0x0000000000100363    0x14eb7 /home/sunho/bebop_ws/devel/arsdk/out/arsdk-native/build/libARCommands/obj/gen/Sources/ARCOMMANDS_Filter.c.o
 .debug_loc     0x000000000011521a     0x2ea1 /home/sunho/bebop_ws/devel/arsdk/out/arsdk-native/build/libARCommands/obj/gen/Sources/ARCOMMANDS_ReadWrite.c.o

.debug_macinfo
 *(.debug_macinfo)

.debug_weaknames
 *(.debug_weaknames)

.debug_funcnames
 *(.debug_funcnames)

.debug_typenames
 *(.debug_typenames)

.debug_varnames
 *(.debug_varnames)

.debug_pubtypes
 *(.debug_pubtypes)

.debug_ranges   0x0000000000000000    0x18000
 *(.debug_ranges)
 .debug_ranges  0x0000000000000000       0x30 /home/sunho/bebop_ws/devel/arsdk/out/arsdk-native/build/libARCommands/obj/Sources/ARCOMMANDS_Version.c.o
 .debug_ranges  0x0000000000000030     0x2010 /home/sunho/bebop_ws/devel/arsdk/out/arsdk-native/build/libARCommands/obj/gen/Sources/ARCOMMANDS_Generator.c.o
 .debug_ranges  0x0000000000002040    0x13180 /home/sunho/bebop_ws/devel/arsdk/out/arsdk-native/build/libARCommands/obj/gen/Sources/ARCOMMANDS_Decoder.c.o
 .debug_ranges  0x00000000000151c0     0x2a50 /home/sunho/bebop_ws/devel/arsdk/out/arsdk-native/build/libARCommands/obj/gen/Sources/ARCOMMANDS_Filter.c.o
 .debug_ranges  0x0000000000017c10      0x3f0 /home/sunho/bebop_ws/devel/arsdk/out/arsdk-native/build/libARCommands/obj/gen/Sources/ARCOMMANDS_ReadWrite.c.o

.debug_macro
 *(.debug_macro)

.gnu.attributes
 *(.gnu.attributes)

/DISCARD/
 *(.note.GNU-stack)
 *(.gnu_debuglink)
 *(.gnu.lto_*)
OUTPUT(out/arsdk-native/build/libARCommands/libarcommands.so elf64-x86-64)
