
As-needed library included to satisfy reference by file (symbol)

librt.so.1                    /home/sunho/bebop_ws/devel/arsdk/out/arsdk-native/build/libpomp/obj/src/pomp_timer.c.o (timer_settime@@GLIBC_2.3.3)
libpthread.so.0               /home/sunho/bebop_ws/devel/arsdk/out/arsdk-native/build/libpomp/obj/src/pomp_conn.c.o (write@@GLIBC_2.2.5)
libc.so.6                     /home/sunho/bebop_ws/devel/arsdk/out/arsdk-native/build/libpomp/obj/src/pomp_loop.c.o (epoll_create@@GLIBC_2.3.2)

Discarded input sections

 .text          0x0000000000000000        0x0 /usr/lib/gcc/x86_64-linux-gnu/4.8/../../../x86_64-linux-gnu/crti.o
 .data          0x0000000000000000        0x0 /usr/lib/gcc/x86_64-linux-gnu/4.8/../../../x86_64-linux-gnu/crti.o
 .bss           0x0000000000000000        0x0 /usr/lib/gcc/x86_64-linux-gnu/4.8/../../../x86_64-linux-gnu/crti.o
 .note.GNU-stack
                0x0000000000000000        0x0 /usr/lib/gcc/x86_64-linux-gnu/4.8/../../../x86_64-linux-gnu/crti.o
 .gnu_debuglink
                0x0000000000000000        0xc /usr/lib/gcc/x86_64-linux-gnu/4.8/../../../x86_64-linux-gnu/crti.o
 .data          0x0000000000000000        0x0 /usr/lib/gcc/x86_64-linux-gnu/4.8/crtbeginS.o
 .note.GNU-stack
                0x0000000000000000        0x0 /usr/lib/gcc/x86_64-linux-gnu/4.8/crtbeginS.o
 .text          0x0000000000000000        0x0 /home/sunho/bebop_ws/devel/arsdk/out/arsdk-native/build/libpomp/obj/src/pomp_addr.c.o
 .data          0x0000000000000000        0x0 /home/sunho/bebop_ws/devel/arsdk/out/arsdk-native/build/libpomp/obj/src/pomp_addr.c.o
 .bss           0x0000000000000000        0x0 /home/sunho/bebop_ws/devel/arsdk/out/arsdk-native/build/libpomp/obj/src/pomp_addr.c.o
 .note.GNU-stack
                0x0000000000000000        0x0 /home/sunho/bebop_ws/devel/arsdk/out/arsdk-native/build/libpomp/obj/src/pomp_addr.c.o
 .text          0x0000000000000000        0x0 /home/sunho/bebop_ws/devel/arsdk/out/arsdk-native/build/libpomp/obj/src/pomp_buffer.c.o
 .data          0x0000000000000000        0x0 /home/sunho/bebop_ws/devel/arsdk/out/arsdk-native/build/libpomp/obj/src/pomp_buffer.c.o
 .bss           0x0000000000000000        0x0 /home/sunho/bebop_ws/devel/arsdk/out/arsdk-native/build/libpomp/obj/src/pomp_buffer.c.o
 .note.GNU-stack
                0x0000000000000000        0x0 /home/sunho/bebop_ws/devel/arsdk/out/arsdk-native/build/libpomp/obj/src/pomp_buffer.c.o
 .text          0x0000000000000000        0x0 /home/sunho/bebop_ws/devel/arsdk/out/arsdk-native/build/libpomp/obj/src/pomp_conn.c.o
 .data          0x0000000000000000        0x0 /home/sunho/bebop_ws/devel/arsdk/out/arsdk-native/build/libpomp/obj/src/pomp_conn.c.o
 .bss           0x0000000000000000        0x0 /home/sunho/bebop_ws/devel/arsdk/out/arsdk-native/build/libpomp/obj/src/pomp_conn.c.o
 .note.GNU-stack
                0x0000000000000000        0x0 /home/sunho/bebop_ws/devel/arsdk/out/arsdk-native/build/libpomp/obj/src/pomp_conn.c.o
 .text          0x0000000000000000        0x0 /home/sunho/bebop_ws/devel/arsdk/out/arsdk-native/build/libpomp/obj/src/pomp_ctx.c.o
 .data          0x0000000000000000        0x0 /home/sunho/bebop_ws/devel/arsdk/out/arsdk-native/build/libpomp/obj/src/pomp_ctx.c.o
 .bss           0x0000000000000000        0x0 /home/sunho/bebop_ws/devel/arsdk/out/arsdk-native/build/libpomp/obj/src/pomp_ctx.c.o
 .note.GNU-stack
                0x0000000000000000        0x0 /home/sunho/bebop_ws/devel/arsdk/out/arsdk-native/build/libpomp/obj/src/pomp_ctx.c.o
 .text          0x0000000000000000        0x0 /home/sunho/bebop_ws/devel/arsdk/out/arsdk-native/build/libpomp/obj/src/pomp_decoder.c.o
 .data          0x0000000000000000        0x0 /home/sunho/bebop_ws/devel/arsdk/out/arsdk-native/build/libpomp/obj/src/pomp_decoder.c.o
 .bss           0x0000000000000000        0x0 /home/sunho/bebop_ws/devel/arsdk/out/arsdk-native/build/libpomp/obj/src/pomp_decoder.c.o
 .note.GNU-stack
                0x0000000000000000        0x0 /home/sunho/bebop_ws/devel/arsdk/out/arsdk-native/build/libpomp/obj/src/pomp_decoder.c.o
 .text          0x0000000000000000        0x0 /home/sunho/bebop_ws/devel/arsdk/out/arsdk-native/build/libpomp/obj/src/pomp_encoder.c.o
 .data          0x0000000000000000        0x0 /home/sunho/bebop_ws/devel/arsdk/out/arsdk-native/build/libpomp/obj/src/pomp_encoder.c.o
 .bss           0x0000000000000000        0x0 /home/sunho/bebop_ws/devel/arsdk/out/arsdk-native/build/libpomp/obj/src/pomp_encoder.c.o
 .note.GNU-stack
                0x0000000000000000        0x0 /home/sunho/bebop_ws/devel/arsdk/out/arsdk-native/build/libpomp/obj/src/pomp_encoder.c.o
 .text          0x0000000000000000        0x0 /home/sunho/bebop_ws/devel/arsdk/out/arsdk-native/build/libpomp/obj/src/pomp_log.c.o
 .data          0x0000000000000000        0x0 /home/sunho/bebop_ws/devel/arsdk/out/arsdk-native/build/libpomp/obj/src/pomp_log.c.o
 .bss           0x0000000000000000        0x0 /home/sunho/bebop_ws/devel/arsdk/out/arsdk-native/build/libpomp/obj/src/pomp_log.c.o
 .debug_info    0x0000000000000000      0x2b4 /home/sunho/bebop_ws/devel/arsdk/out/arsdk-native/build/libpomp/obj/src/pomp_log.c.o
 .debug_abbrev  0x0000000000000000       0x9e /home/sunho/bebop_ws/devel/arsdk/out/arsdk-native/build/libpomp/obj/src/pomp_log.c.o
 .debug_aranges
                0x0000000000000000       0x20 /home/sunho/bebop_ws/devel/arsdk/out/arsdk-native/build/libpomp/obj/src/pomp_log.c.o
 .debug_line    0x0000000000000000       0xa4 /home/sunho/bebop_ws/devel/arsdk/out/arsdk-native/build/libpomp/obj/src/pomp_log.c.o
 .debug_str     0x0000000000000000      0x312 /home/sunho/bebop_ws/devel/arsdk/out/arsdk-native/build/libpomp/obj/src/pomp_log.c.o
 .comment       0x0000000000000000       0x2c /home/sunho/bebop_ws/devel/arsdk/out/arsdk-native/build/libpomp/obj/src/pomp_log.c.o
 .note.GNU-stack
                0x0000000000000000        0x0 /home/sunho/bebop_ws/devel/arsdk/out/arsdk-native/build/libpomp/obj/src/pomp_log.c.o
 .text          0x0000000000000000        0x0 /home/sunho/bebop_ws/devel/arsdk/out/arsdk-native/build/libpomp/obj/src/pomp_loop.c.o
 .data          0x0000000000000000        0x0 /home/sunho/bebop_ws/devel/arsdk/out/arsdk-native/build/libpomp/obj/src/pomp_loop.c.o
 .bss           0x0000000000000000        0x0 /home/sunho/bebop_ws/devel/arsdk/out/arsdk-native/build/libpomp/obj/src/pomp_loop.c.o
 .text.pomp_loop_set_ops
                0x0000000000000000        0xf /home/sunho/bebop_ws/devel/arsdk/out/arsdk-native/build/libpomp/obj/src/pomp_loop.c.o
 .text.pomp_loop_find_pfd
                0x0000000000000000       0x32 /home/sunho/bebop_ws/devel/arsdk/out/arsdk-native/build/libpomp/obj/src/pomp_loop.c.o
 .note.GNU-stack
                0x0000000000000000        0x0 /home/sunho/bebop_ws/devel/arsdk/out/arsdk-native/build/libpomp/obj/src/pomp_loop.c.o
 .text          0x0000000000000000        0x0 /home/sunho/bebop_ws/devel/arsdk/out/arsdk-native/build/libpomp/obj/src/pomp_msg.c.o
 .data          0x0000000000000000        0x0 /home/sunho/bebop_ws/devel/arsdk/out/arsdk-native/build/libpomp/obj/src/pomp_msg.c.o
 .bss           0x0000000000000000        0x0 /home/sunho/bebop_ws/devel/arsdk/out/arsdk-native/build/libpomp/obj/src/pomp_msg.c.o
 .note.GNU-stack
                0x0000000000000000        0x0 /home/sunho/bebop_ws/devel/arsdk/out/arsdk-native/build/libpomp/obj/src/pomp_msg.c.o
 .text          0x0000000000000000        0x0 /home/sunho/bebop_ws/devel/arsdk/out/arsdk-native/build/libpomp/obj/src/pomp_prot.c.o
 .data          0x0000000000000000        0x0 /home/sunho/bebop_ws/devel/arsdk/out/arsdk-native/build/libpomp/obj/src/pomp_prot.c.o
 .bss           0x0000000000000000        0x0 /home/sunho/bebop_ws/devel/arsdk/out/arsdk-native/build/libpomp/obj/src/pomp_prot.c.o
 .note.GNU-stack
                0x0000000000000000        0x0 /home/sunho/bebop_ws/devel/arsdk/out/arsdk-native/build/libpomp/obj/src/pomp_prot.c.o
 .text          0x0000000000000000        0x0 /home/sunho/bebop_ws/devel/arsdk/out/arsdk-native/build/libpomp/obj/src/pomp_timer.c.o
 .data          0x0000000000000000        0x0 /home/sunho/bebop_ws/devel/arsdk/out/arsdk-native/build/libpomp/obj/src/pomp_timer.c.o
 .bss           0x0000000000000000        0x0 /home/sunho/bebop_ws/devel/arsdk/out/arsdk-native/build/libpomp/obj/src/pomp_timer.c.o
 .text.pomp_timer_set_ops
                0x0000000000000000        0xf /home/sunho/bebop_ws/devel/arsdk/out/arsdk-native/build/libpomp/obj/src/pomp_timer.c.o
 .note.GNU-stack
                0x0000000000000000        0x0 /home/sunho/bebop_ws/devel/arsdk/out/arsdk-native/build/libpomp/obj/src/pomp_timer.c.o
 .text          0x0000000000000000        0x0 /usr/lib/gcc/x86_64-linux-gnu/4.8/crtendS.o
 .data          0x0000000000000000        0x0 /usr/lib/gcc/x86_64-linux-gnu/4.8/crtendS.o
 .bss           0x0000000000000000        0x0 /usr/lib/gcc/x86_64-linux-gnu/4.8/crtendS.o
 .note.GNU-stack
                0x0000000000000000        0x0 /usr/lib/gcc/x86_64-linux-gnu/4.8/crtendS.o
 .text          0x0000000000000000        0x0 /usr/lib/gcc/x86_64-linux-gnu/4.8/../../../x86_64-linux-gnu/crtn.o
 .data          0x0000000000000000        0x0 /usr/lib/gcc/x86_64-linux-gnu/4.8/../../../x86_64-linux-gnu/crtn.o
 .bss           0x0000000000000000        0x0 /usr/lib/gcc/x86_64-linux-gnu/4.8/../../../x86_64-linux-gnu/crtn.o
 .note.GNU-stack
                0x0000000000000000        0x0 /usr/lib/gcc/x86_64-linux-gnu/4.8/../../../x86_64-linux-gnu/crtn.o
 .gnu_debuglink
                0x0000000000000000        0xc /usr/lib/gcc/x86_64-linux-gnu/4.8/../../../x86_64-linux-gnu/crtn.o

Memory Configuration

Name             Origin             Length             Attributes
*default*        0x0000000000000000 0xffffffffffffffff

Linker script and memory map

LOAD /usr/lib/gcc/x86_64-linux-gnu/4.8/../../../x86_64-linux-gnu/crti.o
LOAD /usr/lib/gcc/x86_64-linux-gnu/4.8/crtbeginS.o
LOAD /home/sunho/bebop_ws/devel/arsdk/out/arsdk-native/build/libpomp/obj/src/pomp_addr.c.o
LOAD /home/sunho/bebop_ws/devel/arsdk/out/arsdk-native/build/libpomp/obj/src/pomp_buffer.c.o
LOAD /home/sunho/bebop_ws/devel/arsdk/out/arsdk-native/build/libpomp/obj/src/pomp_conn.c.o
LOAD /home/sunho/bebop_ws/devel/arsdk/out/arsdk-native/build/libpomp/obj/src/pomp_ctx.c.o
LOAD /home/sunho/bebop_ws/devel/arsdk/out/arsdk-native/build/libpomp/obj/src/pomp_decoder.c.o
LOAD /home/sunho/bebop_ws/devel/arsdk/out/arsdk-native/build/libpomp/obj/src/pomp_encoder.c.o
LOAD /home/sunho/bebop_ws/devel/arsdk/out/arsdk-native/build/libpomp/obj/src/pomp_log.c.o
LOAD /home/sunho/bebop_ws/devel/arsdk/out/arsdk-native/build/libpomp/obj/src/pomp_loop.c.o
LOAD /home/sunho/bebop_ws/devel/arsdk/out/arsdk-native/build/libpomp/obj/src/pomp_msg.c.o
LOAD /home/sunho/bebop_ws/devel/arsdk/out/arsdk-native/build/libpomp/obj/src/pomp_prot.c.o
LOAD /home/sunho/bebop_ws/devel/arsdk/out/arsdk-native/build/libpomp/obj/src/pomp_timer.c.o
LOAD /usr/lib/gcc/x86_64-linux-gnu/4.8/../../../x86_64-linux-gnu/librt.so
LOAD /usr/lib/gcc/x86_64-linux-gnu/4.8/libstdc++.so
LOAD /usr/lib/gcc/x86_64-linux-gnu/4.8/../../../x86_64-linux-gnu/libm.so
LOAD /usr/lib/gcc/x86_64-linux-gnu/4.8/libgcc_s.so
LOAD /usr/lib/gcc/x86_64-linux-gnu/4.8/../../../x86_64-linux-gnu/libpthread.so
START GROUP
LOAD /lib/x86_64-linux-gnu/libpthread.so.0
LOAD /usr/lib/x86_64-linux-gnu/libpthread_nonshared.a
END GROUP
LOAD /usr/lib/gcc/x86_64-linux-gnu/4.8/../../../x86_64-linux-gnu/libc.so
START GROUP
LOAD /lib/x86_64-linux-gnu/libc.so.6
LOAD /usr/lib/x86_64-linux-gnu/libc_nonshared.a
LOAD /lib/x86_64-linux-gnu/ld-linux-x86-64.so.2
END GROUP
LOAD /usr/lib/gcc/x86_64-linux-gnu/4.8/libgcc_s.so
LOAD /usr/lib/gcc/x86_64-linux-gnu/4.8/crtendS.o
LOAD /usr/lib/gcc/x86_64-linux-gnu/4.8/../../../x86_64-linux-gnu/crtn.o
                0x00000000000001c8                . = (0x0 + SIZEOF_HEADERS)

.note.gnu.build-id
                0x00000000000001c8       0x24
 *(.note.gnu.build-id)
 .note.gnu.build-id
                0x00000000000001c8       0x24 /usr/lib/gcc/x86_64-linux-gnu/4.8/../../../x86_64-linux-gnu/crti.o

.hash
 *(.hash)

.gnu.hash       0x00000000000001f0      0x4a8
 *(.gnu.hash)
 .gnu.hash      0x00000000000001f0      0x4a8 /usr/lib/gcc/x86_64-linux-gnu/4.8/../../../x86_64-linux-gnu/crti.o

.dynsym         0x0000000000000698     0x1320
 *(.dynsym)
 .dynsym        0x0000000000000698     0x1320 /usr/lib/gcc/x86_64-linux-gnu/4.8/../../../x86_64-linux-gnu/crti.o

.dynstr         0x00000000000019b8      0xd21
 *(.dynstr)
 .dynstr        0x00000000000019b8      0xd21 /usr/lib/gcc/x86_64-linux-gnu/4.8/../../../x86_64-linux-gnu/crti.o

.gnu.version    0x00000000000026da      0x198
 *(.gnu.version)
 .gnu.version   0x00000000000026da      0x198 /usr/lib/gcc/x86_64-linux-gnu/4.8/../../../x86_64-linux-gnu/crti.o

.gnu.version_d  0x0000000000002878        0x0
 *(.gnu.version_d)
 .gnu.version_d
                0x0000000000000000        0x0 /usr/lib/gcc/x86_64-linux-gnu/4.8/../../../x86_64-linux-gnu/crti.o

.gnu.version_r  0x0000000000002878       0xc0
 *(.gnu.version_r)
 .gnu.version_r
                0x0000000000002878       0xc0 /usr/lib/gcc/x86_64-linux-gnu/4.8/../../../x86_64-linux-gnu/crti.o

.rela.dyn       0x0000000000002938      0x348
 *(.rela.init)
 *(.rela.text .rela.text.* .rela.gnu.linkonce.t.*)
 .rela.text     0x0000000000000000        0x0 /usr/lib/gcc/x86_64-linux-gnu/4.8/../../../x86_64-linux-gnu/crti.o
 .rela.text.pomp_buffer_new_copy
                0x0000000000000000        0x0 /usr/lib/gcc/x86_64-linux-gnu/4.8/../../../x86_64-linux-gnu/crti.o
 .rela.text.pomp_buffer_unref
                0x0000000000000000        0x0 /usr/lib/gcc/x86_64-linux-gnu/4.8/../../../x86_64-linux-gnu/crti.o
 .rela.text.pomp_buffer_write
                0x0000000000000000        0x0 /usr/lib/gcc/x86_64-linux-gnu/4.8/../../../x86_64-linux-gnu/crti.o
 .rela.text.pomp_buffer_append_data
                0x0000000000000000        0x0 /usr/lib/gcc/x86_64-linux-gnu/4.8/../../../x86_64-linux-gnu/crti.o
 .rela.text.pomp_buffer_writeb
                0x0000000000000000        0x0 /usr/lib/gcc/x86_64-linux-gnu/4.8/../../../x86_64-linux-gnu/crti.o
 .rela.text.pomp_buffer_write_fd
                0x0000000000000000        0x0 /usr/lib/gcc/x86_64-linux-gnu/4.8/../../../x86_64-linux-gnu/crti.o
 .rela.text.pomp_buffer_readb
                0x0000000000000000        0x0 /usr/lib/gcc/x86_64-linux-gnu/4.8/../../../x86_64-linux-gnu/crti.o
 .rela.text.server_cb
                0x0000000000000000        0x0 /usr/lib/gcc/x86_64-linux-gnu/4.8/../../../x86_64-linux-gnu/crti.o
 .rela.text.client_complete_conn
                0x0000000000000000        0x0 /usr/lib/gcc/x86_64-linux-gnu/4.8/../../../x86_64-linux-gnu/crti.o
 .rela.text.pomp_ctx_remove_conn
                0x0000000000000000        0x0 /usr/lib/gcc/x86_64-linux-gnu/4.8/../../../x86_64-linux-gnu/crti.o
 .rela.text.pomp_ctx_stop
                0x0000000000000000        0x0 /usr/lib/gcc/x86_64-linux-gnu/4.8/../../../x86_64-linux-gnu/crti.o
 .rela.text.decoder_dump
                0x0000000000000000        0x0 /usr/lib/gcc/x86_64-linux-gnu/4.8/../../../x86_64-linux-gnu/crti.o
 .rela.text.pomp_loop_add
                0x0000000000000000        0x0 /usr/lib/gcc/x86_64-linux-gnu/4.8/../../../x86_64-linux-gnu/crti.o
 .rela.text.pomp_loop_remove
                0x0000000000000000        0x0 /usr/lib/gcc/x86_64-linux-gnu/4.8/../../../x86_64-linux-gnu/crti.o
 *(.rela.fini)
 *(.rela.rodata .rela.rodata.* .rela.gnu.linkonce.r.*)
 *(.rela.data .rela.data.* .rela.gnu.linkonce.d.*)
 .rela.data.rel
                0x0000000000002938       0x48 /usr/lib/gcc/x86_64-linux-gnu/4.8/../../../x86_64-linux-gnu/crti.o
 .rela.data.rel.ro.local
                0x0000000000002980      0x240 /usr/lib/gcc/x86_64-linux-gnu/4.8/../../../x86_64-linux-gnu/crti.o
 *(.rela.tdata .rela.tdata.* .rela.gnu.linkonce.td.*)
 *(.rela.tbss .rela.tbss.* .rela.gnu.linkonce.tb.*)
 *(.rela.ctors)
 *(.rela.dtors)
 *(.rela.got)
 .rela.got      0x0000000000002bc0       0x90 /usr/lib/gcc/x86_64-linux-gnu/4.8/../../../x86_64-linux-gnu/crti.o
 *(.rela.bss .rela.bss.* .rela.gnu.linkonce.b.*)
 *(.rela.ldata .rela.ldata.* .rela.gnu.linkonce.l.*)
 *(.rela.lbss .rela.lbss.* .rela.gnu.linkonce.lb.*)
 *(.rela.lrodata .rela.lrodata.* .rela.gnu.linkonce.lr.*)
 *(.rela.ifunc)
 .rela.ifunc    0x0000000000000000        0x0 /usr/lib/gcc/x86_64-linux-gnu/4.8/../../../x86_64-linux-gnu/crti.o
 .rela.fini_array
                0x0000000000002c50       0x18 /usr/lib/gcc/x86_64-linux-gnu/4.8/../../../x86_64-linux-gnu/crti.o
 .rela.init_array
                0x0000000000002c68       0x18 /usr/lib/gcc/x86_64-linux-gnu/4.8/../../../x86_64-linux-gnu/crti.o

.rela.plt       0x0000000000002c80      0xc48
 *(.rela.plt)
 .rela.plt      0x0000000000002c80      0xc48 /usr/lib/gcc/x86_64-linux-gnu/4.8/../../../x86_64-linux-gnu/crti.o
 *(.rela.iplt)

.init           0x00000000000038c8       0x1a
 *(SORT(.init))
 .init          0x00000000000038c8       0x15 /usr/lib/gcc/x86_64-linux-gnu/4.8/../../../x86_64-linux-gnu/crti.o
                0x00000000000038c8                _init
 .init          0x00000000000038dd        0x5 /usr/lib/gcc/x86_64-linux-gnu/4.8/../../../x86_64-linux-gnu/crtn.o

.plt            0x00000000000038f0      0x840
 *(.plt)
 .plt           0x00000000000038f0      0x840 /usr/lib/gcc/x86_64-linux-gnu/4.8/../../../x86_64-linux-gnu/crti.o
 *(.iplt)

.text           0x0000000000004130     0x9a2d
 *(.text.unlikely .text.*_unlikely .text.unlikely.*)
 *(.text.exit .text.exit.*)
 *(.text.startup .text.startup.*)
 *(.text.hot .text.hot.*)
 *(.text .stub .text.* .gnu.linkonce.t.*)
 .text          0x0000000000004130       0xe5 /usr/lib/gcc/x86_64-linux-gnu/4.8/crtbeginS.o
 *fill*         0x0000000000004215        0xb 
 .text.pomp_addr_parse_inet
                0x0000000000004220      0x123 /home/sunho/bebop_ws/devel/arsdk/out/arsdk-native/build/libpomp/obj/src/pomp_addr.c.o
 *fill*         0x0000000000004343        0xd 
 .text.pomp_addr_parse
                0x0000000000004350      0x1a5 /home/sunho/bebop_ws/devel/arsdk/out/arsdk-native/build/libpomp/obj/src/pomp_addr.c.o
                0x0000000000004350                pomp_addr_parse
 *fill*         0x00000000000044f5        0xb 
 .text.pomp_addr_format
                0x0000000000004500      0x1d0 /home/sunho/bebop_ws/devel/arsdk/out/arsdk-native/build/libpomp/obj/src/pomp_addr.c.o
                0x0000000000004500                pomp_addr_format
 .text.pomp_addr_is_unix
                0x00000000000046d0       0x1b /home/sunho/bebop_ws/devel/arsdk/out/arsdk-native/build/libpomp/obj/src/pomp_addr.c.o
                0x00000000000046d0                pomp_addr_is_unix
 *fill*         0x00000000000046eb        0x5 
 .text.pomp_buffer_get_fd
                0x00000000000046f0       0x26 /home/sunho/bebop_ws/devel/arsdk/out/arsdk-native/build/libpomp/obj/src/pomp_buffer.c.o
                0x00000000000046f0                pomp_buffer_get_fd
 *fill*         0x0000000000004716        0xa 
 .text.pomp_buffer_register_fd
                0x0000000000004720       0x7f /home/sunho/bebop_ws/devel/arsdk/out/arsdk-native/build/libpomp/obj/src/pomp_buffer.c.o
                0x0000000000004720                pomp_buffer_register_fd
 *fill*         0x000000000000479f        0x1 
 .text.pomp_buffer_clear
                0x00000000000047a0      0x13d /home/sunho/bebop_ws/devel/arsdk/out/arsdk-native/build/libpomp/obj/src/pomp_buffer.c.o
                0x00000000000047a0                pomp_buffer_clear
 *fill*         0x00000000000048dd        0x3 
 .text.pomp_buffer_new_copy
                0x00000000000048e0      0x1bd /home/sunho/bebop_ws/devel/arsdk/out/arsdk-native/build/libpomp/obj/src/pomp_buffer.c.o
                0x00000000000048e0                pomp_buffer_new_copy
 *fill*         0x0000000000004a9d        0x3 
 .text.pomp_buffer_ref
                0x0000000000004aa0        0x5 /home/sunho/bebop_ws/devel/arsdk/out/arsdk-native/build/libpomp/obj/src/pomp_buffer.c.o
                0x0000000000004aa0                pomp_buffer_ref
 *fill*         0x0000000000004aa5        0xb 
 .text.pomp_buffer_unref
                0x0000000000004ab0       0x1e /home/sunho/bebop_ws/devel/arsdk/out/arsdk-native/build/libpomp/obj/src/pomp_buffer.c.o
                0x0000000000004ab0                pomp_buffer_unref
 *fill*         0x0000000000004ace        0x2 
 .text.pomp_buffer_set_capacity
                0x0000000000004ad0       0x4e /home/sunho/bebop_ws/devel/arsdk/out/arsdk-native/build/libpomp/obj/src/pomp_buffer.c.o
                0x0000000000004ad0                pomp_buffer_set_capacity
 *fill*         0x0000000000004b1e        0x2 
 .text.pomp_buffer_new
                0x0000000000004b20       0x5c /home/sunho/bebop_ws/devel/arsdk/out/arsdk-native/build/libpomp/obj/src/pomp_buffer.c.o
                0x0000000000004b20                pomp_buffer_new
 *fill*         0x0000000000004b7c        0x4 
 .text.pomp_buffer_new_with_data
                0x0000000000004b80       0x35 /home/sunho/bebop_ws/devel/arsdk/out/arsdk-native/build/libpomp/obj/src/pomp_buffer.c.o
                0x0000000000004b80                pomp_buffer_new_with_data
 *fill*         0x0000000000004bb5        0xb 
 .text.pomp_buffer_new_get_data
                0x0000000000004bc0       0x1c /home/sunho/bebop_ws/devel/arsdk/out/arsdk-native/build/libpomp/obj/src/pomp_buffer.c.o
                0x0000000000004bc0                pomp_buffer_new_get_data
 *fill*         0x0000000000004bdc        0x4 
 .text.pomp_buffer_set_len
                0x0000000000004be0       0x27 /home/sunho/bebop_ws/devel/arsdk/out/arsdk-native/build/libpomp/obj/src/pomp_buffer.c.o
                0x0000000000004be0                pomp_buffer_set_len
 *fill*         0x0000000000004c07        0x9 
 .text.pomp_buffer_get_data
                0x0000000000004c10       0x4a /home/sunho/bebop_ws/devel/arsdk/out/arsdk-native/build/libpomp/obj/src/pomp_buffer.c.o
                0x0000000000004c10                pomp_buffer_get_data
 *fill*         0x0000000000004c5a        0x6 
 .text.pomp_buffer_get_cdata
                0x0000000000004c60       0x39 /home/sunho/bebop_ws/devel/arsdk/out/arsdk-native/build/libpomp/obj/src/pomp_buffer.c.o
                0x0000000000004c60                pomp_buffer_get_cdata
 *fill*         0x0000000000004c99        0x7 
 .text.pomp_buffer_ensure_capacity
                0x0000000000004ca0       0x3c /home/sunho/bebop_ws/devel/arsdk/out/arsdk-native/build/libpomp/obj/src/pomp_buffer.c.o
                0x0000000000004ca0                pomp_buffer_ensure_capacity
 *fill*         0x0000000000004cdc        0x4 
 .text.pomp_buffer_write
                0x0000000000004ce0       0x7f /home/sunho/bebop_ws/devel/arsdk/out/arsdk-native/build/libpomp/obj/src/pomp_buffer.c.o
                0x0000000000004ce0                pomp_buffer_write
 *fill*         0x0000000000004d5f        0x1 
 .text.pomp_buffer_append_data
                0x0000000000004d60       0x36 /home/sunho/bebop_ws/devel/arsdk/out/arsdk-native/build/libpomp/obj/src/pomp_buffer.c.o
                0x0000000000004d60                pomp_buffer_append_data
 *fill*         0x0000000000004d96        0xa 
 .text.pomp_buffer_writeb
                0x0000000000004da0       0x1c /home/sunho/bebop_ws/devel/arsdk/out/arsdk-native/build/libpomp/obj/src/pomp_buffer.c.o
                0x0000000000004da0                pomp_buffer_writeb
 *fill*         0x0000000000004dbc        0x4 
 .text.pomp_buffer_write_fd
                0x0000000000004dc0       0xef /home/sunho/bebop_ws/devel/arsdk/out/arsdk-native/build/libpomp/obj/src/pomp_buffer.c.o
                0x0000000000004dc0                pomp_buffer_write_fd
 *fill*         0x0000000000004eaf        0x1 
 .text.pomp_buffer_read
                0x0000000000004eb0       0x5d /home/sunho/bebop_ws/devel/arsdk/out/arsdk-native/build/libpomp/obj/src/pomp_buffer.c.o
                0x0000000000004eb0                pomp_buffer_read
 *fill*         0x0000000000004f0d        0x3 
 .text.pomp_buffer_cread
                0x0000000000004f10       0x36 /home/sunho/bebop_ws/devel/arsdk/out/arsdk-native/build/libpomp/obj/src/pomp_buffer.c.o
                0x0000000000004f10                pomp_buffer_cread
 *fill*         0x0000000000004f46        0xa 
 .text.pomp_buffer_readb
                0x0000000000004f50        0xa /home/sunho/bebop_ws/devel/arsdk/out/arsdk-native/build/libpomp/obj/src/pomp_buffer.c.o
                0x0000000000004f50                pomp_buffer_readb
 *fill*         0x0000000000004f5a        0x6 
 .text.pomp_buffer_read_fd
                0x0000000000004f60       0xad /home/sunho/bebop_ws/devel/arsdk/out/arsdk-native/build/libpomp/obj/src/pomp_buffer.c.o
                0x0000000000004f60                pomp_buffer_read_fd
 *fill*         0x000000000000500d        0x3 
 .text.pomp_conn_fixup_rx_fds_cb
                0x0000000000005010      0x150 /home/sunho/bebop_ws/devel/arsdk/out/arsdk-native/build/libpomp/obj/src/pomp_conn.c.o
 .text.pomp_conn_clear_rx_fds.isra.3
                0x0000000000005160       0xbc /home/sunho/bebop_ws/devel/arsdk/out/arsdk-native/build/libpomp/obj/src/pomp_conn.c.o
 *fill*         0x000000000000521c        0x4 
 .text.pomp_io_buffer_write
                0x0000000000005220      0x2d1 /home/sunho/bebop_ws/devel/arsdk/out/arsdk-native/build/libpomp/obj/src/pomp_conn.c.o
 *fill*         0x00000000000054f1        0xf 
 .text.pomp_conn_cb
                0x0000000000005500      0x799 /home/sunho/bebop_ws/devel/arsdk/out/arsdk-native/build/libpomp/obj/src/pomp_conn.c.o
 *fill*         0x0000000000005c99        0x7 
 .text.pomp_conn_send_buf_internal
                0x0000000000005ca0      0x285 /home/sunho/bebop_ws/devel/arsdk/out/arsdk-native/build/libpomp/obj/src/pomp_conn.c.o
 *fill*         0x0000000000005f25        0xb 
 .text.pomp_conn_new
                0x0000000000005f30      0x2bc /home/sunho/bebop_ws/devel/arsdk/out/arsdk-native/build/libpomp/obj/src/pomp_conn.c.o
                0x0000000000005f30                pomp_conn_new
 *fill*         0x00000000000061ec        0x4 
 .text.pomp_conn_destroy
                0x00000000000061f0       0x44 /home/sunho/bebop_ws/devel/arsdk/out/arsdk-native/build/libpomp/obj/src/pomp_conn.c.o
                0x00000000000061f0                pomp_conn_destroy
 *fill*         0x0000000000006234        0xc 
 .text.pomp_conn_close
                0x0000000000006240      0x128 /home/sunho/bebop_ws/devel/arsdk/out/arsdk-native/build/libpomp/obj/src/pomp_conn.c.o
                0x0000000000006240                pomp_conn_close
 *fill*         0x0000000000006368        0x8 
 .text.pomp_conn_get_next
                0x0000000000006370       0x13 /home/sunho/bebop_ws/devel/arsdk/out/arsdk-native/build/libpomp/obj/src/pomp_conn.c.o
                0x0000000000006370                pomp_conn_get_next
 *fill*         0x0000000000006383        0xd 
 .text.pomp_conn_set_next
                0x0000000000006390       0x12 /home/sunho/bebop_ws/devel/arsdk/out/arsdk-native/build/libpomp/obj/src/pomp_conn.c.o
                0x0000000000006390                pomp_conn_set_next
 *fill*         0x00000000000063a2        0xe 
 .text.pomp_conn_disconnect
                0x00000000000063b0       0xa7 /home/sunho/bebop_ws/devel/arsdk/out/arsdk-native/build/libpomp/obj/src/pomp_conn.c.o
                0x00000000000063b0                pomp_conn_disconnect
 *fill*         0x0000000000006457        0x9 
 .text.pomp_conn_get_local_addr
                0x0000000000006460       0x23 /home/sunho/bebop_ws/devel/arsdk/out/arsdk-native/build/libpomp/obj/src/pomp_conn.c.o
                0x0000000000006460                pomp_conn_get_local_addr
 *fill*         0x0000000000006483        0xd 
 .text.pomp_conn_get_peer_addr
                0x0000000000006490       0x23 /home/sunho/bebop_ws/devel/arsdk/out/arsdk-native/build/libpomp/obj/src/pomp_conn.c.o
                0x0000000000006490                pomp_conn_get_peer_addr
 *fill*         0x00000000000064b3        0xd 
 .text.pomp_conn_get_peer_cred
                0x00000000000064c0       0x23 /home/sunho/bebop_ws/devel/arsdk/out/arsdk-native/build/libpomp/obj/src/pomp_conn.c.o
                0x00000000000064c0                pomp_conn_get_peer_cred
 *fill*         0x00000000000064e3        0xd 
 .text.pomp_conn_get_fd
                0x00000000000064f0        0xf /home/sunho/bebop_ws/devel/arsdk/out/arsdk-native/build/libpomp/obj/src/pomp_conn.c.o
                0x00000000000064f0                pomp_conn_get_fd
 *fill*         0x00000000000064ff        0x1 
 .text.pomp_conn_suspend_read
                0x0000000000006500       0x37 /home/sunho/bebop_ws/devel/arsdk/out/arsdk-native/build/libpomp/obj/src/pomp_conn.c.o
                0x0000000000006500                pomp_conn_suspend_read
 *fill*         0x0000000000006537        0x9 
 .text.pomp_conn_resume_read
                0x0000000000006540       0x37 /home/sunho/bebop_ws/devel/arsdk/out/arsdk-native/build/libpomp/obj/src/pomp_conn.c.o
                0x0000000000006540                pomp_conn_resume_read
 *fill*         0x0000000000006577        0x9 
 .text.pomp_conn_send_msg_to
                0x0000000000006580       0x16 /home/sunho/bebop_ws/devel/arsdk/out/arsdk-native/build/libpomp/obj/src/pomp_conn.c.o
                0x0000000000006580                pomp_conn_send_msg_to
 *fill*         0x0000000000006596        0xa 
 .text.pomp_conn_send_msg
                0x00000000000065a0       0x1e /home/sunho/bebop_ws/devel/arsdk/out/arsdk-native/build/libpomp/obj/src/pomp_conn.c.o
                0x00000000000065a0                pomp_conn_send_msg
 *fill*         0x00000000000065be        0x2 
 .text.pomp_conn_sendv
                0x00000000000065c0       0x54 /home/sunho/bebop_ws/devel/arsdk/out/arsdk-native/build/libpomp/obj/src/pomp_conn.c.o
                0x00000000000065c0                pomp_conn_sendv
 *fill*         0x0000000000006614        0xc 
 .text.pomp_conn_send
                0x0000000000006620       0x8a /home/sunho/bebop_ws/devel/arsdk/out/arsdk-native/build/libpomp/obj/src/pomp_conn.c.o
                0x0000000000006620                pomp_conn_send
 *fill*         0x00000000000066aa        0x6 
 .text.pomp_conn_send_raw_buf_to
                0x00000000000066b0        0x5 /home/sunho/bebop_ws/devel/arsdk/out/arsdk-native/build/libpomp/obj/src/pomp_conn.c.o
                0x00000000000066b0                pomp_conn_send_raw_buf_to
 *fill*         0x00000000000066b5        0xb 
 .text.pomp_conn_send_raw_buf
                0x00000000000066c0        0x9 /home/sunho/bebop_ws/devel/arsdk/out/arsdk-native/build/libpomp/obj/src/pomp_conn.c.o
                0x00000000000066c0                pomp_conn_send_raw_buf
 *fill*         0x00000000000066c9        0x7 
 .text.fd_socket_setup_keepalive
                0x00000000000066d0      0x1ac /home/sunho/bebop_ws/devel/arsdk/out/arsdk-native/build/libpomp/obj/src/pomp_ctx.c.o
 *fill*         0x000000000000687c        0x4 
 .text.server_start
                0x0000000000006880      0x4f5 /home/sunho/bebop_ws/devel/arsdk/out/arsdk-native/build/libpomp/obj/src/pomp_ctx.c.o
 *fill*         0x0000000000006d75        0xb 
 .text.dgram_start
                0x0000000000006d80      0x523 /home/sunho/bebop_ws/devel/arsdk/out/arsdk-native/build/libpomp/obj/src/pomp_ctx.c.o
 *fill*         0x00000000000072a3        0xd 
 .text.pomp_event_str
                0x00000000000072b0       0x2c /home/sunho/bebop_ws/devel/arsdk/out/arsdk-native/build/libpomp/obj/src/pomp_ctx.c.o
                0x00000000000072b0                pomp_event_str
 *fill*         0x00000000000072dc        0x4 
 .text.pomp_socket_kind_str
                0x00000000000072e0       0x38 /home/sunho/bebop_ws/devel/arsdk/out/arsdk-native/build/libpomp/obj/src/pomp_ctx.c.o
                0x00000000000072e0                pomp_socket_kind_str
 *fill*         0x0000000000007318        0x8 
 .text.pomp_ctx_set_raw
                0x0000000000007320       0x32 /home/sunho/bebop_ws/devel/arsdk/out/arsdk-native/build/libpomp/obj/src/pomp_ctx.c.o
                0x0000000000007320                pomp_ctx_set_raw
 *fill*         0x0000000000007352        0xe 
 .text.pomp_ctx_set_socket_cb
                0x0000000000007360       0x2a /home/sunho/bebop_ws/devel/arsdk/out/arsdk-native/build/libpomp/obj/src/pomp_ctx.c.o
                0x0000000000007360                pomp_ctx_set_socket_cb
 *fill*         0x000000000000738a        0x6 
 .text.pomp_ctx_set_send_cb
                0x0000000000007390       0x2a /home/sunho/bebop_ws/devel/arsdk/out/arsdk-native/build/libpomp/obj/src/pomp_ctx.c.o
                0x0000000000007390                pomp_ctx_set_send_cb
 *fill*         0x00000000000073ba        0x6 
 .text.pomp_ctx_setup_keepalive
                0x00000000000073c0       0x1b /home/sunho/bebop_ws/devel/arsdk/out/arsdk-native/build/libpomp/obj/src/pomp_ctx.c.o
                0x00000000000073c0                pomp_ctx_setup_keepalive
 *fill*         0x00000000000073db        0x5 
 .text.pomp_ctx_destroy
                0x00000000000073e0       0x58 /home/sunho/bebop_ws/devel/arsdk/out/arsdk-native/build/libpomp/obj/src/pomp_ctx.c.o
                0x00000000000073e0                pomp_ctx_destroy
 *fill*         0x0000000000007438        0x8 
 .text.pomp_ctx_new_with_loop
                0x0000000000007440       0xb5 /home/sunho/bebop_ws/devel/arsdk/out/arsdk-native/build/libpomp/obj/src/pomp_ctx.c.o
                0x0000000000007440                pomp_ctx_new_with_loop
 *fill*         0x00000000000074f5        0xb 
 .text.pomp_ctx_new
                0x0000000000007500       0x4f /home/sunho/bebop_ws/devel/arsdk/out/arsdk-native/build/libpomp/obj/src/pomp_ctx.c.o
                0x0000000000007500                pomp_ctx_new
 *fill*         0x000000000000754f        0x1 
 .text.pomp_ctx_get_fd
                0x0000000000007550       0x18 /home/sunho/bebop_ws/devel/arsdk/out/arsdk-native/build/libpomp/obj/src/pomp_ctx.c.o
                0x0000000000007550                pomp_ctx_get_fd
 *fill*         0x0000000000007568        0x8 
 .text.pomp_ctx_process_fd
                0x0000000000007570       0x16 /home/sunho/bebop_ws/devel/arsdk/out/arsdk-native/build/libpomp/obj/src/pomp_ctx.c.o
                0x0000000000007570                pomp_ctx_process_fd
 *fill*         0x0000000000007586        0xa 
 .text.pomp_ctx_wait_and_process
                0x0000000000007590       0x16 /home/sunho/bebop_ws/devel/arsdk/out/arsdk-native/build/libpomp/obj/src/pomp_ctx.c.o
                0x0000000000007590                pomp_ctx_wait_and_process
 *fill*         0x00000000000075a6        0xa 
 .text.pomp_ctx_wakeup
                0x00000000000075b0       0x16 /home/sunho/bebop_ws/devel/arsdk/out/arsdk-native/build/libpomp/obj/src/pomp_ctx.c.o
                0x00000000000075b0                pomp_ctx_wakeup
 *fill*         0x00000000000075c6        0xa 
 .text.pomp_ctx_get_loop
                0x00000000000075d0       0x13 /home/sunho/bebop_ws/devel/arsdk/out/arsdk-native/build/libpomp/obj/src/pomp_ctx.c.o
                0x00000000000075d0                pomp_ctx_get_loop
 *fill*         0x00000000000075e3        0xd 
 .text.pomp_ctx_get_next_conn
                0x00000000000075f0       0x2b /home/sunho/bebop_ws/devel/arsdk/out/arsdk-native/build/libpomp/obj/src/pomp_ctx.c.o
                0x00000000000075f0                pomp_ctx_get_next_conn
 *fill*         0x000000000000761b        0x5 
 .text.pomp_ctx_get_conn
                0x0000000000007620       0x1a /home/sunho/bebop_ws/devel/arsdk/out/arsdk-native/build/libpomp/obj/src/pomp_ctx.c.o
                0x0000000000007620                pomp_ctx_get_conn
 *fill*         0x000000000000763a        0x6 
 .text.pomp_ctx_get_local_addr
                0x0000000000007640       0x40 /home/sunho/bebop_ws/devel/arsdk/out/arsdk-native/build/libpomp/obj/src/pomp_ctx.c.o
                0x0000000000007640                pomp_ctx_get_local_addr
 .text.pomp_ctx_send_msg
                0x0000000000007680       0x9c /home/sunho/bebop_ws/devel/arsdk/out/arsdk-native/build/libpomp/obj/src/pomp_ctx.c.o
                0x0000000000007680                pomp_ctx_send_msg
 *fill*         0x000000000000771c        0x4 
 .text.pomp_ctx_send_msg_to
                0x0000000000007720       0x2e /home/sunho/bebop_ws/devel/arsdk/out/arsdk-native/build/libpomp/obj/src/pomp_ctx.c.o
                0x0000000000007720                pomp_ctx_send_msg_to
 *fill*         0x000000000000774e        0x2 
 .text.pomp_ctx_sendv
                0x0000000000007750       0x54 /home/sunho/bebop_ws/devel/arsdk/out/arsdk-native/build/libpomp/obj/src/pomp_ctx.c.o
                0x0000000000007750                pomp_ctx_sendv
 *fill*         0x00000000000077a4        0xc 
 .text.pomp_ctx_send
                0x00000000000077b0       0x8a /home/sunho/bebop_ws/devel/arsdk/out/arsdk-native/build/libpomp/obj/src/pomp_ctx.c.o
                0x00000000000077b0                pomp_ctx_send
 *fill*         0x000000000000783a        0x6 
 .text.pomp_ctx_send_raw_buf
                0x0000000000007840       0xad /home/sunho/bebop_ws/devel/arsdk/out/arsdk-native/build/libpomp/obj/src/pomp_ctx.c.o
                0x0000000000007840                pomp_ctx_send_raw_buf
 *fill*         0x00000000000078ed        0x3 
 .text.pomp_ctx_send_raw_buf_to
                0x00000000000078f0       0x36 /home/sunho/bebop_ws/devel/arsdk/out/arsdk-native/build/libpomp/obj/src/pomp_ctx.c.o
                0x00000000000078f0                pomp_ctx_send_raw_buf_to
 *fill*         0x0000000000007926        0xa 
 .text.pomp_ctx_notify_event
                0x0000000000007930       0x36 /home/sunho/bebop_ws/devel/arsdk/out/arsdk-native/build/libpomp/obj/src/pomp_ctx.c.o
                0x0000000000007930                pomp_ctx_notify_event
 *fill*         0x0000000000007966        0xa 
 .text.server_cb
                0x0000000000007970      0x2b1 /home/sunho/bebop_ws/devel/arsdk/out/arsdk-native/build/libpomp/obj/src/pomp_ctx.c.o
 *fill*         0x0000000000007c21        0xf 
 .text.client_complete_conn
                0x0000000000007c30      0x170 /home/sunho/bebop_ws/devel/arsdk/out/arsdk-native/build/libpomp/obj/src/pomp_ctx.c.o
 .text.client_start
                0x0000000000007da0      0x322 /home/sunho/bebop_ws/devel/arsdk/out/arsdk-native/build/libpomp/obj/src/pomp_ctx.c.o
 *fill*         0x00000000000080c2        0xe 
 .text.timer_cb
                0x00000000000080d0       0x49 /home/sunho/bebop_ws/devel/arsdk/out/arsdk-native/build/libpomp/obj/src/pomp_ctx.c.o
 *fill*         0x0000000000008119        0x7 
 .text.pomp_ctx_start
                0x0000000000008120      0x24a /home/sunho/bebop_ws/devel/arsdk/out/arsdk-native/build/libpomp/obj/src/pomp_ctx.c.o
 *fill*         0x000000000000836a        0x6 
 .text.pomp_ctx_listen
                0x0000000000008370        0xc /home/sunho/bebop_ws/devel/arsdk/out/arsdk-native/build/libpomp/obj/src/pomp_ctx.c.o
                0x0000000000008370                pomp_ctx_listen
 *fill*         0x000000000000837c        0x4 
 .text.pomp_ctx_connect
                0x0000000000008380        0xf /home/sunho/bebop_ws/devel/arsdk/out/arsdk-native/build/libpomp/obj/src/pomp_ctx.c.o
                0x0000000000008380                pomp_ctx_connect
 *fill*         0x000000000000838f        0x1 
 .text.pomp_ctx_bind
                0x0000000000008390        0xf /home/sunho/bebop_ws/devel/arsdk/out/arsdk-native/build/libpomp/obj/src/pomp_ctx.c.o
                0x0000000000008390                pomp_ctx_bind
 *fill*         0x000000000000839f        0x1 
 .text.client_cb
                0x00000000000083a0        0x8 /home/sunho/bebop_ws/devel/arsdk/out/arsdk-native/build/libpomp/obj/src/pomp_ctx.c.o
 *fill*         0x00000000000083a8        0x8 
 .text.pomp_ctx_remove_conn
                0x00000000000083b0      0x15e /home/sunho/bebop_ws/devel/arsdk/out/arsdk-native/build/libpomp/obj/src/pomp_ctx.c.o
                0x00000000000083b0                pomp_ctx_remove_conn
 *fill*         0x000000000000850e        0x2 
 .text.pomp_ctx_stop
                0x0000000000008510      0x2c9 /home/sunho/bebop_ws/devel/arsdk/out/arsdk-native/build/libpomp/obj/src/pomp_ctx.c.o
                0x0000000000008510                pomp_ctx_stop
 *fill*         0x00000000000087d9        0x7 
 .text.pomp_ctx_notify_msg
                0x00000000000087e0       0x3e /home/sunho/bebop_ws/devel/arsdk/out/arsdk-native/build/libpomp/obj/src/pomp_ctx.c.o
                0x00000000000087e0                pomp_ctx_notify_msg
 *fill*         0x000000000000881e        0x2 
 .text.pomp_ctx_notify_raw_buf
                0x0000000000008820       0x36 /home/sunho/bebop_ws/devel/arsdk/out/arsdk-native/build/libpomp/obj/src/pomp_ctx.c.o
                0x0000000000008820                pomp_ctx_notify_raw_buf
 *fill*         0x0000000000008856        0xa 
 .text.pomp_ctx_notify_send
                0x0000000000008860       0x37 /home/sunho/bebop_ws/devel/arsdk/out/arsdk-native/build/libpomp/obj/src/pomp_ctx.c.o
                0x0000000000008860                pomp_ctx_notify_send
 *fill*         0x0000000000008897        0x9 
 .text.dump_append
                0x00000000000088a0      0x17e /home/sunho/bebop_ws/devel/arsdk/out/arsdk-native/build/libpomp/obj/src/pomp_decoder.c.o
 *fill*         0x0000000000008a1e        0x2 
 .text.decoder_dump_cb
                0x0000000000008a20      0x24e /home/sunho/bebop_ws/devel/arsdk/out/arsdk-native/build/libpomp/obj/src/pomp_decoder.c.o
 *fill*         0x0000000000008c6e        0x2 
 .text.decoder_read_varint
                0x0000000000008c70       0xe5 /home/sunho/bebop_ws/devel/arsdk/out/arsdk-native/build/libpomp/obj/src/pomp_decoder.c.o
 *fill*         0x0000000000008d55        0xb 
 .text.decoder_read_data
                0x0000000000008d60       0xb5 /home/sunho/bebop_ws/devel/arsdk/out/arsdk-native/build/libpomp/obj/src/pomp_decoder.c.o
 *fill*         0x0000000000008e15        0xb 
 .text.pomp_decoder_new
                0x0000000000008e20        0xf /home/sunho/bebop_ws/devel/arsdk/out/arsdk-native/build/libpomp/obj/src/pomp_decoder.c.o
                0x0000000000008e20                pomp_decoder_new
 *fill*         0x0000000000008e2f        0x1 
 .text.pomp_decoder_destroy
                0x0000000000008e30       0x1e /home/sunho/bebop_ws/devel/arsdk/out/arsdk-native/build/libpomp/obj/src/pomp_decoder.c.o
                0x0000000000008e30                pomp_decoder_destroy
 *fill*         0x0000000000008e4e        0x2 
 .text.pomp_decoder_init
                0x0000000000008e50       0x26 /home/sunho/bebop_ws/devel/arsdk/out/arsdk-native/build/libpomp/obj/src/pomp_decoder.c.o
                0x0000000000008e50                pomp_decoder_init
 *fill*         0x0000000000008e76        0xa 
 .text.pomp_decoder_clear
                0x0000000000008e80       0x1d /home/sunho/bebop_ws/devel/arsdk/out/arsdk-native/build/libpomp/obj/src/pomp_decoder.c.o
                0x0000000000008e80                pomp_decoder_clear
 *fill*         0x0000000000008e9d        0x3 
 .text.pomp_decoder_read_i8
                0x0000000000008ea0       0x47 /home/sunho/bebop_ws/devel/arsdk/out/arsdk-native/build/libpomp/obj/src/pomp_decoder.c.o
                0x0000000000008ea0                pomp_decoder_read_i8
 *fill*         0x0000000000008ee7        0x9 
 .text.pomp_decoder_read_u8
                0x0000000000008ef0       0x47 /home/sunho/bebop_ws/devel/arsdk/out/arsdk-native/build/libpomp/obj/src/pomp_decoder.c.o
                0x0000000000008ef0                pomp_decoder_read_u8
 *fill*         0x0000000000008f37        0x9 
 .text.pomp_decoder_read_i16
                0x0000000000008f40       0x4f /home/sunho/bebop_ws/devel/arsdk/out/arsdk-native/build/libpomp/obj/src/pomp_decoder.c.o
                0x0000000000008f40                pomp_decoder_read_i16
 *fill*         0x0000000000008f8f        0x1 
 .text.pomp_decoder_read_u16
                0x0000000000008f90       0x4f /home/sunho/bebop_ws/devel/arsdk/out/arsdk-native/build/libpomp/obj/src/pomp_decoder.c.o
                0x0000000000008f90                pomp_decoder_read_u16
 *fill*         0x0000000000008fdf        0x1 
 .text.pomp_decoder_read_i32
                0x0000000000008fe0       0x57 /home/sunho/bebop_ws/devel/arsdk/out/arsdk-native/build/libpomp/obj/src/pomp_decoder.c.o
                0x0000000000008fe0                pomp_decoder_read_i32
 *fill*         0x0000000000009037        0x9 
 .text.pomp_decoder_read_u32
                0x0000000000009040       0x47 /home/sunho/bebop_ws/devel/arsdk/out/arsdk-native/build/libpomp/obj/src/pomp_decoder.c.o
                0x0000000000009040                pomp_decoder_read_u32
 *fill*         0x0000000000009087        0x9 
 .text.pomp_decoder_read_i64
                0x0000000000009090       0x57 /home/sunho/bebop_ws/devel/arsdk/out/arsdk-native/build/libpomp/obj/src/pomp_decoder.c.o
                0x0000000000009090                pomp_decoder_read_i64
 *fill*         0x00000000000090e7        0x9 
 .text.pomp_decoder_read_u64
                0x00000000000090f0       0x47 /home/sunho/bebop_ws/devel/arsdk/out/arsdk-native/build/libpomp/obj/src/pomp_decoder.c.o
                0x00000000000090f0                pomp_decoder_read_u64
 *fill*         0x0000000000009137        0x9 
 .text.pomp_decoder_read_cstr
                0x0000000000009140      0x160 /home/sunho/bebop_ws/devel/arsdk/out/arsdk-native/build/libpomp/obj/src/pomp_decoder.c.o
                0x0000000000009140                pomp_decoder_read_cstr
 .text.pomp_decoder_read_str
                0x00000000000092a0       0x57 /home/sunho/bebop_ws/devel/arsdk/out/arsdk-native/build/libpomp/obj/src/pomp_decoder.c.o
                0x00000000000092a0                pomp_decoder_read_str
 *fill*         0x00000000000092f7        0x9 
 .text.pomp_decoder_read_cbuf
                0x0000000000009300      0x107 /home/sunho/bebop_ws/devel/arsdk/out/arsdk-native/build/libpomp/obj/src/pomp_decoder.c.o
                0x0000000000009300                pomp_decoder_read_cbuf
 *fill*         0x0000000000009407        0x9 
 .text.pomp_decoder_read_buf
                0x0000000000009410       0x77 /home/sunho/bebop_ws/devel/arsdk/out/arsdk-native/build/libpomp/obj/src/pomp_decoder.c.o
                0x0000000000009410                pomp_decoder_read_buf
 *fill*         0x0000000000009487        0x9 
 .text.pomp_decoder_read_f32
                0x0000000000009490       0x46 /home/sunho/bebop_ws/devel/arsdk/out/arsdk-native/build/libpomp/obj/src/pomp_decoder.c.o
                0x0000000000009490                pomp_decoder_read_f32
 *fill*         0x00000000000094d6        0xa 
 .text.pomp_decoder_read_f64
                0x00000000000094e0       0x56 /home/sunho/bebop_ws/devel/arsdk/out/arsdk-native/build/libpomp/obj/src/pomp_decoder.c.o
                0x00000000000094e0                pomp_decoder_read_f64
 *fill*         0x0000000000009536        0xa 
 .text.pomp_decoder_read_fd
                0x0000000000009540       0xa7 /home/sunho/bebop_ws/devel/arsdk/out/arsdk-native/build/libpomp/obj/src/pomp_decoder.c.o
                0x0000000000009540                pomp_decoder_read_fd
 *fill*         0x00000000000095e7        0x9 
 .text.pomp_decoder_readv
                0x00000000000095f0      0x648 /home/sunho/bebop_ws/devel/arsdk/out/arsdk-native/build/libpomp/obj/src/pomp_decoder.c.o
                0x00000000000095f0                pomp_decoder_readv
 *fill*         0x0000000000009c38        0x8 
 .text.pomp_decoder_read
                0x0000000000009c40       0x8f /home/sunho/bebop_ws/devel/arsdk/out/arsdk-native/build/libpomp/obj/src/pomp_decoder.c.o
                0x0000000000009c40                pomp_decoder_read
 *fill*         0x0000000000009ccf        0x1 
 .text.pomp_decoder_walk
                0x0000000000009cd0      0x2e0 /home/sunho/bebop_ws/devel/arsdk/out/arsdk-native/build/libpomp/obj/src/pomp_decoder.c.o
                0x0000000000009cd0                pomp_decoder_walk
 .text.decoder_dump
                0x0000000000009fb0       0xca /home/sunho/bebop_ws/devel/arsdk/out/arsdk-native/build/libpomp/obj/src/pomp_decoder.c.o
 *fill*         0x000000000000a07a        0x6 
 .text.pomp_decoder_dump
                0x000000000000a080       0x56 /home/sunho/bebop_ws/devel/arsdk/out/arsdk-native/build/libpomp/obj/src/pomp_decoder.c.o
                0x000000000000a080                pomp_decoder_dump
 *fill*         0x000000000000a0d6        0xa 
 .text.pomp_decoder_adump
                0x000000000000a0e0       0xa7 /home/sunho/bebop_ws/devel/arsdk/out/arsdk-native/build/libpomp/obj/src/pomp_decoder.c.o
                0x000000000000a0e0                pomp_decoder_adump
 *fill*         0x000000000000a187        0x9 
 .text.encoder_write_data
                0x000000000000a190       0x57 /home/sunho/bebop_ws/devel/arsdk/out/arsdk-native/build/libpomp/obj/src/pomp_encoder.c.o
 *fill*         0x000000000000a1e7        0x9 
 .text.encoder_write_varint
                0x000000000000a1f0       0xb0 /home/sunho/bebop_ws/devel/arsdk/out/arsdk-native/build/libpomp/obj/src/pomp_encoder.c.o
 .text.pomp_encoder_new
                0x000000000000a2a0        0xf /home/sunho/bebop_ws/devel/arsdk/out/arsdk-native/build/libpomp/obj/src/pomp_encoder.c.o
                0x000000000000a2a0                pomp_encoder_new
 *fill*         0x000000000000a2af        0x1 
 .text.pomp_encoder_destroy
                0x000000000000a2b0       0x1e /home/sunho/bebop_ws/devel/arsdk/out/arsdk-native/build/libpomp/obj/src/pomp_encoder.c.o
                0x000000000000a2b0                pomp_encoder_destroy
 *fill*         0x000000000000a2ce        0x2 
 .text.pomp_encoder_init
                0x000000000000a2d0       0x26 /home/sunho/bebop_ws/devel/arsdk/out/arsdk-native/build/libpomp/obj/src/pomp_encoder.c.o
                0x000000000000a2d0                pomp_encoder_init
 *fill*         0x000000000000a2f6        0xa 
 .text.pomp_encoder_clear
                0x000000000000a300       0x1d /home/sunho/bebop_ws/devel/arsdk/out/arsdk-native/build/libpomp/obj/src/pomp_encoder.c.o
                0x000000000000a300                pomp_encoder_clear
 *fill*         0x000000000000a31d        0x3 
 .text.pomp_encoder_write_i8
                0x000000000000a320       0x47 /home/sunho/bebop_ws/devel/arsdk/out/arsdk-native/build/libpomp/obj/src/pomp_encoder.c.o
                0x000000000000a320                pomp_encoder_write_i8
 *fill*         0x000000000000a367        0x9 
 .text.pomp_encoder_write_u8
                0x000000000000a370       0x47 /home/sunho/bebop_ws/devel/arsdk/out/arsdk-native/build/libpomp/obj/src/pomp_encoder.c.o
                0x000000000000a370                pomp_encoder_write_u8
 *fill*         0x000000000000a3b7        0x9 
 .text.pomp_encoder_write_i16
                0x000000000000a3c0       0x47 /home/sunho/bebop_ws/devel/arsdk/out/arsdk-native/build/libpomp/obj/src/pomp_encoder.c.o
                0x000000000000a3c0                pomp_encoder_write_i16
 *fill*         0x000000000000a407        0x9 
 .text.pomp_encoder_write_u16
                0x000000000000a410       0x47 /home/sunho/bebop_ws/devel/arsdk/out/arsdk-native/build/libpomp/obj/src/pomp_encoder.c.o
                0x000000000000a410                pomp_encoder_write_u16
 *fill*         0x000000000000a457        0x9 
 .text.pomp_encoder_write_i32
                0x000000000000a460       0x46 /home/sunho/bebop_ws/devel/arsdk/out/arsdk-native/build/libpomp/obj/src/pomp_encoder.c.o
                0x000000000000a460                pomp_encoder_write_i32
 *fill*         0x000000000000a4a6        0xa 
 .text.pomp_encoder_write_u32
                0x000000000000a4b0       0x36 /home/sunho/bebop_ws/devel/arsdk/out/arsdk-native/build/libpomp/obj/src/pomp_encoder.c.o
                0x000000000000a4b0                pomp_encoder_write_u32
 *fill*         0x000000000000a4e6        0xa 
 .text.pomp_encoder_write_i64
                0x000000000000a4f0       0x46 /home/sunho/bebop_ws/devel/arsdk/out/arsdk-native/build/libpomp/obj/src/pomp_encoder.c.o
                0x000000000000a4f0                pomp_encoder_write_i64
 *fill*         0x000000000000a536        0xa 
 .text.pomp_encoder_write_u64
                0x000000000000a540       0x36 /home/sunho/bebop_ws/devel/arsdk/out/arsdk-native/build/libpomp/obj/src/pomp_encoder.c.o
                0x000000000000a540                pomp_encoder_write_u64
 *fill*         0x000000000000a576        0xa 
 .text.pomp_encoder_write_str
                0x000000000000a580       0xe7 /home/sunho/bebop_ws/devel/arsdk/out/arsdk-native/build/libpomp/obj/src/pomp_encoder.c.o
                0x000000000000a580                pomp_encoder_write_str
 *fill*         0x000000000000a667        0x9 
 .text.pomp_encoder_write_buf
                0x000000000000a670       0x97 /home/sunho/bebop_ws/devel/arsdk/out/arsdk-native/build/libpomp/obj/src/pomp_encoder.c.o
                0x000000000000a670                pomp_encoder_write_buf
 *fill*         0x000000000000a707        0x9 
 .text.pomp_encoder_write_f32
                0x000000000000a710       0x4f /home/sunho/bebop_ws/devel/arsdk/out/arsdk-native/build/libpomp/obj/src/pomp_encoder.c.o
                0x000000000000a710                pomp_encoder_write_f32
 *fill*         0x000000000000a75f        0x1 
 .text.pomp_encoder_write_f64
                0x000000000000a760       0x57 /home/sunho/bebop_ws/devel/arsdk/out/arsdk-native/build/libpomp/obj/src/pomp_encoder.c.o
                0x000000000000a760                pomp_encoder_write_f64
 *fill*         0x000000000000a7b7        0x9 
 .text.pomp_encoder_write_fd
                0x000000000000a7c0       0x67 /home/sunho/bebop_ws/devel/arsdk/out/arsdk-native/build/libpomp/obj/src/pomp_encoder.c.o
                0x000000000000a7c0                pomp_encoder_write_fd
 *fill*         0x000000000000a827        0x9 
 .text.encoder_writev_internal
                0x000000000000a830      0xa2e /home/sunho/bebop_ws/devel/arsdk/out/arsdk-native/build/libpomp/obj/src/pomp_encoder.c.o
 *fill*         0x000000000000b25e        0x2 
 .text.pomp_encoder_write
                0x000000000000b260       0x93 /home/sunho/bebop_ws/devel/arsdk/out/arsdk-native/build/libpomp/obj/src/pomp_encoder.c.o
                0x000000000000b260                pomp_encoder_write
 *fill*         0x000000000000b2f3        0xd 
 .text.pomp_encoder_writev
                0x000000000000b300        0xc /home/sunho/bebop_ws/devel/arsdk/out/arsdk-native/build/libpomp/obj/src/pomp_encoder.c.o
                0x000000000000b300                pomp_encoder_writev
 *fill*         0x000000000000b30c        0x4 
 .text.encoder_write_internal
                0x000000000000b310       0x85 /home/sunho/bebop_ws/devel/arsdk/out/arsdk-native/build/libpomp/obj/src/pomp_encoder.c.o
 *fill*         0x000000000000b395        0xb 
 .text.pomp_encoder_write_argv
                0x000000000000b3a0       0x1e /home/sunho/bebop_ws/devel/arsdk/out/arsdk-native/build/libpomp/obj/src/pomp_encoder.c.o
                0x000000000000b3a0                pomp_encoder_write_argv
 *fill*         0x000000000000b3be        0x2 
 .text.pomp_loop_epoll_do_get_fd
                0x000000000000b3c0        0x5 /home/sunho/bebop_ws/devel/arsdk/out/arsdk-native/build/libpomp/obj/src/pomp_loop.c.o
 *fill*         0x000000000000b3c5        0xb 
 .text.pomp_loop_poll_do_add
                0x000000000000b3d0        0x3 /home/sunho/bebop_ws/devel/arsdk/out/arsdk-native/build/libpomp/obj/src/pomp_loop.c.o
 *fill*         0x000000000000b3d3        0xd 
 .text.pomp_loop_poll_do_update
                0x000000000000b3e0        0x3 /home/sunho/bebop_ws/devel/arsdk/out/arsdk-native/build/libpomp/obj/src/pomp_loop.c.o
 *fill*         0x000000000000b3e3        0xd 
 .text.pomp_loop_poll_do_remove
                0x000000000000b3f0        0x3 /home/sunho/bebop_ws/devel/arsdk/out/arsdk-native/build/libpomp/obj/src/pomp_loop.c.o
 *fill*         0x000000000000b3f3        0xd 
 .text.pomp_loop_poll_do_get_fd
                0x000000000000b400        0x8 /home/sunho/bebop_ws/devel/arsdk/out/arsdk-native/build/libpomp/obj/src/pomp_loop.c.o
 *fill*         0x000000000000b408        0x8 
 .text.pomp_loop_epoll_do_wakeup
                0x000000000000b410       0x9e /home/sunho/bebop_ws/devel/arsdk/out/arsdk-native/build/libpomp/obj/src/pomp_loop.c.o
 *fill*         0x000000000000b4ae        0x2 
 .text.pomp_loop_poll_do_wakeup
                0x000000000000b4b0       0x9e /home/sunho/bebop_ws/devel/arsdk/out/arsdk-native/build/libpomp/obj/src/pomp_loop.c.o
 *fill*         0x000000000000b54e        0x2 
 .text.pomp_loop_epoll_do_destroy
                0x000000000000b550       0x40 /home/sunho/bebop_ws/devel/arsdk/out/arsdk-native/build/libpomp/obj/src/pomp_loop.c.o
 .text.pomp_loop_poll_do_destroy
                0x000000000000b590       0x4b /home/sunho/bebop_ws/devel/arsdk/out/arsdk-native/build/libpomp/obj/src/pomp_loop.c.o
 *fill*         0x000000000000b5db        0x5 
 .text.pomp_loop_epoll_do_wait_and_process
                0x000000000000b5e0      0x1ab /home/sunho/bebop_ws/devel/arsdk/out/arsdk-native/build/libpomp/obj/src/pomp_loop.c.o
 *fill*         0x000000000000b78b        0x5 
 .text.pomp_loop_poll_do_wait_and_process
                0x000000000000b790      0x31b /home/sunho/bebop_ws/devel/arsdk/out/arsdk-native/build/libpomp/obj/src/pomp_loop.c.o
 *fill*         0x000000000000baab        0x5 
 .text.pomp_loop_epoll_ctl.isra.2
                0x000000000000bab0       0x77 /home/sunho/bebop_ws/devel/arsdk/out/arsdk-native/build/libpomp/obj/src/pomp_loop.c.o
 *fill*         0x000000000000bb27        0x9 
 .text.pomp_loop_epoll_do_remove
                0x000000000000bb30       0x12 /home/sunho/bebop_ws/devel/arsdk/out/arsdk-native/build/libpomp/obj/src/pomp_loop.c.o
 *fill*         0x000000000000bb42        0xe 
 .text.pomp_loop_epoll_do_update
                0x000000000000bb50       0x12 /home/sunho/bebop_ws/devel/arsdk/out/arsdk-native/build/libpomp/obj/src/pomp_loop.c.o
 *fill*         0x000000000000bb62        0xe 
 .text.pomp_loop_epoll_do_add
                0x000000000000bb70       0x12 /home/sunho/bebop_ws/devel/arsdk/out/arsdk-native/build/libpomp/obj/src/pomp_loop.c.o
 *fill*         0x000000000000bb82        0xe 
 .text.pomp_loop_poll_do_new
                0x000000000000bb90       0x87 /home/sunho/bebop_ws/devel/arsdk/out/arsdk-native/build/libpomp/obj/src/pomp_loop.c.o
 *fill*         0x000000000000bc17        0x9 
 .text.pomp_loop_epoll_do_new
                0x000000000000bc20      0x2e0 /home/sunho/bebop_ws/devel/arsdk/out/arsdk-native/build/libpomp/obj/src/pomp_loop.c.o
 .text.pomp_loop_add_pfd
                0x000000000000bf00       0x5c /home/sunho/bebop_ws/devel/arsdk/out/arsdk-native/build/libpomp/obj/src/pomp_loop.c.o
                0x000000000000bf00                pomp_loop_add_pfd
 *fill*         0x000000000000bf5c        0x4 
 .text.pomp_loop_remove_pfd
                0x000000000000bf60       0xa9 /home/sunho/bebop_ws/devel/arsdk/out/arsdk-native/build/libpomp/obj/src/pomp_loop.c.o
                0x000000000000bf60                pomp_loop_remove_pfd
 *fill*         0x000000000000c009        0x7 
 .text.pomp_loop_new
                0x000000000000c010       0x44 /home/sunho/bebop_ws/devel/arsdk/out/arsdk-native/build/libpomp/obj/src/pomp_loop.c.o
                0x000000000000c010                pomp_loop_new
 *fill*         0x000000000000c054        0xc 
 .text.pomp_loop_destroy
                0x000000000000c060       0x3e /home/sunho/bebop_ws/devel/arsdk/out/arsdk-native/build/libpomp/obj/src/pomp_loop.c.o
                0x000000000000c060                pomp_loop_destroy
 *fill*         0x000000000000c09e        0x2 
 .text.pomp_loop_add
                0x000000000000c0a0       0xc9 /home/sunho/bebop_ws/devel/arsdk/out/arsdk-native/build/libpomp/obj/src/pomp_loop.c.o
                0x000000000000c0a0                pomp_loop_add
 *fill*         0x000000000000c169        0x7 
 .text.pomp_loop_update
                0x000000000000c170       0x84 /home/sunho/bebop_ws/devel/arsdk/out/arsdk-native/build/libpomp/obj/src/pomp_loop.c.o
                0x000000000000c170                pomp_loop_update
 *fill*         0x000000000000c1f4        0xc 
 .text.pomp_loop_update2
                0x000000000000c200       0x8c /home/sunho/bebop_ws/devel/arsdk/out/arsdk-native/build/libpomp/obj/src/pomp_loop.c.o
                0x000000000000c200                pomp_loop_update2
 *fill*         0x000000000000c28c        0x4 
 .text.pomp_loop_remove
                0x000000000000c290       0x9d /home/sunho/bebop_ws/devel/arsdk/out/arsdk-native/build/libpomp/obj/src/pomp_loop.c.o
                0x000000000000c290                pomp_loop_remove
 *fill*         0x000000000000c32d        0x3 
 .text.pomp_loop_has_fd
                0x000000000000c330       0x33 /home/sunho/bebop_ws/devel/arsdk/out/arsdk-native/build/libpomp/obj/src/pomp_loop.c.o
                0x000000000000c330                pomp_loop_has_fd
 *fill*         0x000000000000c363        0xd 
 .text.pomp_loop_get_fd
                0x000000000000c370       0x20 /home/sunho/bebop_ws/devel/arsdk/out/arsdk-native/build/libpomp/obj/src/pomp_loop.c.o
                0x000000000000c370                pomp_loop_get_fd
 .text.pomp_loop_wait_and_process
                0x000000000000c390       0x96 /home/sunho/bebop_ws/devel/arsdk/out/arsdk-native/build/libpomp/obj/src/pomp_loop.c.o
                0x000000000000c390                pomp_loop_wait_and_process
 *fill*         0x000000000000c426        0xa 
 .text.pomp_loop_process_fd
                0x000000000000c430        0x7 /home/sunho/bebop_ws/devel/arsdk/out/arsdk-native/build/libpomp/obj/src/pomp_loop.c.o
                0x000000000000c430                pomp_loop_process_fd
 *fill*         0x000000000000c437        0x9 
 .text.pomp_loop_wakeup
                0x000000000000c440       0x1e /home/sunho/bebop_ws/devel/arsdk/out/arsdk-native/build/libpomp/obj/src/pomp_loop.c.o
                0x000000000000c440                pomp_loop_wakeup
 *fill*         0x000000000000c45e        0x2 
 .text.pomp_loop_idle_add
                0x000000000000c460       0x8e /home/sunho/bebop_ws/devel/arsdk/out/arsdk-native/build/libpomp/obj/src/pomp_loop.c.o
                0x000000000000c460                pomp_loop_idle_add
 *fill*         0x000000000000c4ee        0x2 
 .text.pomp_loop_idle_remove
                0x000000000000c4f0       0x59 /home/sunho/bebop_ws/devel/arsdk/out/arsdk-native/build/libpomp/obj/src/pomp_loop.c.o
                0x000000000000c4f0                pomp_loop_idle_remove
 *fill*         0x000000000000c549        0x7 
 .text.pomp_msg_new
                0x000000000000c550        0xf /home/sunho/bebop_ws/devel/arsdk/out/arsdk-native/build/libpomp/obj/src/pomp_msg.c.o
                0x000000000000c550                pomp_msg_new
 *fill*         0x000000000000c55f        0x1 
 .text.pomp_msg_new_copy
                0x000000000000c560       0x5f /home/sunho/bebop_ws/devel/arsdk/out/arsdk-native/build/libpomp/obj/src/pomp_msg.c.o
                0x000000000000c560                pomp_msg_new_copy
 *fill*         0x000000000000c5bf        0x1 
 .text.pomp_msg_new_with_buffer
                0x000000000000c5c0      0x13e /home/sunho/bebop_ws/devel/arsdk/out/arsdk-native/build/libpomp/obj/src/pomp_msg.c.o
                0x000000000000c5c0                pomp_msg_new_with_buffer
 *fill*         0x000000000000c6fe        0x2 
 .text.pomp_msg_init
                0x000000000000c700       0x3b /home/sunho/bebop_ws/devel/arsdk/out/arsdk-native/build/libpomp/obj/src/pomp_msg.c.o
                0x000000000000c700                pomp_msg_init
 *fill*         0x000000000000c73b        0x5 
 .text.pomp_msg_finish
                0x000000000000c740       0xfd /home/sunho/bebop_ws/devel/arsdk/out/arsdk-native/build/libpomp/obj/src/pomp_msg.c.o
                0x000000000000c740                pomp_msg_finish
 *fill*         0x000000000000c83d        0x3 
 .text.pomp_msg_clear
                0x000000000000c840       0x37 /home/sunho/bebop_ws/devel/arsdk/out/arsdk-native/build/libpomp/obj/src/pomp_msg.c.o
                0x000000000000c840                pomp_msg_clear
 *fill*         0x000000000000c877        0x9 
 .text.pomp_msg_destroy
                0x000000000000c880       0x27 /home/sunho/bebop_ws/devel/arsdk/out/arsdk-native/build/libpomp/obj/src/pomp_msg.c.o
                0x000000000000c880                pomp_msg_destroy
 *fill*         0x000000000000c8a7        0x9 
 .text.pomp_msg_get_id
                0x000000000000c8b0       0x13 /home/sunho/bebop_ws/devel/arsdk/out/arsdk-native/build/libpomp/obj/src/pomp_msg.c.o
                0x000000000000c8b0                pomp_msg_get_id
 *fill*         0x000000000000c8c3        0xd 
 .text.pomp_msg_get_buffer
                0x000000000000c8d0       0x13 /home/sunho/bebop_ws/devel/arsdk/out/arsdk-native/build/libpomp/obj/src/pomp_msg.c.o
                0x000000000000c8d0                pomp_msg_get_buffer
 *fill*         0x000000000000c8e3        0xd 
 .text.pomp_msg_writev
                0x000000000000c8f0       0x97 /home/sunho/bebop_ws/devel/arsdk/out/arsdk-native/build/libpomp/obj/src/pomp_msg.c.o
                0x000000000000c8f0                pomp_msg_writev
 *fill*         0x000000000000c987        0x9 
 .text.pomp_msg_write
                0x000000000000c990       0x8a /home/sunho/bebop_ws/devel/arsdk/out/arsdk-native/build/libpomp/obj/src/pomp_msg.c.o
                0x000000000000c990                pomp_msg_write
 *fill*         0x000000000000ca1a        0x6 
 .text.pomp_msg_write_argv
                0x000000000000ca20       0x97 /home/sunho/bebop_ws/devel/arsdk/out/arsdk-native/build/libpomp/obj/src/pomp_msg.c.o
                0x000000000000ca20                pomp_msg_write_argv
 *fill*         0x000000000000cab7        0x9 
 .text.pomp_msg_readv
                0x000000000000cac0       0x6f /home/sunho/bebop_ws/devel/arsdk/out/arsdk-native/build/libpomp/obj/src/pomp_msg.c.o
                0x000000000000cac0                pomp_msg_readv
 *fill*         0x000000000000cb2f        0x1 
 .text.pomp_msg_read
                0x000000000000cb30       0x8f /home/sunho/bebop_ws/devel/arsdk/out/arsdk-native/build/libpomp/obj/src/pomp_msg.c.o
                0x000000000000cb30                pomp_msg_read
 *fill*         0x000000000000cbbf        0x1 
 .text.pomp_msg_dump
                0x000000000000cbc0       0x6f /home/sunho/bebop_ws/devel/arsdk/out/arsdk-native/build/libpomp/obj/src/pomp_msg.c.o
                0x000000000000cbc0                pomp_msg_dump
 *fill*         0x000000000000cc2f        0x1 
 .text.pomp_msg_adump
                0x000000000000cc30       0x77 /home/sunho/bebop_ws/devel/arsdk/out/arsdk-native/build/libpomp/obj/src/pomp_msg.c.o
                0x000000000000cc30                pomp_msg_adump
 *fill*         0x000000000000cca7        0x9 
 .text.pomp_prot_reset_state
                0x000000000000ccb0       0x35 /home/sunho/bebop_ws/devel/arsdk/out/arsdk-native/build/libpomp/obj/src/pomp_prot.c.o
 *fill*         0x000000000000cce5        0xb 
 .text.pomp_prot_check_magic
                0x000000000000ccf0       0x4a /home/sunho/bebop_ws/devel/arsdk/out/arsdk-native/build/libpomp/obj/src/pomp_prot.c.o
 *fill*         0x000000000000cd3a        0x6 
 .text.copy.constprop.2
                0x000000000000cd40       0x46 /home/sunho/bebop_ws/devel/arsdk/out/arsdk-native/build/libpomp/obj/src/pomp_prot.c.o
 *fill*         0x000000000000cd86        0xa 
 .text.pomp_prot_new
                0x000000000000cd90       0x25 /home/sunho/bebop_ws/devel/arsdk/out/arsdk-native/build/libpomp/obj/src/pomp_prot.c.o
                0x000000000000cd90                pomp_prot_new
 *fill*         0x000000000000cdb5        0xb 
 .text.pomp_prot_destroy
                0x000000000000cdc0       0x32 /home/sunho/bebop_ws/devel/arsdk/out/arsdk-native/build/libpomp/obj/src/pomp_prot.c.o
                0x000000000000cdc0                pomp_prot_destroy
 *fill*         0x000000000000cdf2        0xe 
 .text.pomp_prot_decode_msg
                0x000000000000ce00      0x392 /home/sunho/bebop_ws/devel/arsdk/out/arsdk-native/build/libpomp/obj/src/pomp_prot.c.o
                0x000000000000ce00                pomp_prot_decode_msg
 *fill*         0x000000000000d192        0xe 
 .text.pomp_prot_release_msg
                0x000000000000d1a0       0x46 /home/sunho/bebop_ws/devel/arsdk/out/arsdk-native/build/libpomp/obj/src/pomp_prot.c.o
                0x000000000000d1a0                pomp_prot_release_msg
 *fill*         0x000000000000d1e6        0xa 
 .text.pomp_timer_fd_set
                0x000000000000d1f0       0xd8 /home/sunho/bebop_ws/devel/arsdk/out/arsdk-native/build/libpomp/obj/src/pomp_timer.c.o
 *fill*         0x000000000000d2c8        0x8 
 .text.pomp_timer_fd_clear
                0x000000000000d2d0       0x16 /home/sunho/bebop_ws/devel/arsdk/out/arsdk-native/build/libpomp/obj/src/pomp_timer.c.o
 *fill*         0x000000000000d2e6        0xa 
 .text.pomp_timer_fd_destroy
                0x000000000000d2f0       0x33 /home/sunho/bebop_ws/devel/arsdk/out/arsdk-native/build/libpomp/obj/src/pomp_timer.c.o
 *fill*         0x000000000000d323        0xd 
 .text.pomp_timer_fd_new
                0x000000000000d330       0xe7 /home/sunho/bebop_ws/devel/arsdk/out/arsdk-native/build/libpomp/obj/src/pomp_timer.c.o
 *fill*         0x000000000000d417        0x9 
 .text.pomp_timer_fd_cb
                0x000000000000d420       0x50 /home/sunho/bebop_ws/devel/arsdk/out/arsdk-native/build/libpomp/obj/src/pomp_timer.c.o
 .text.pomp_timer_posix_cb
                0x000000000000d470       0x48 /home/sunho/bebop_ws/devel/arsdk/out/arsdk-native/build/libpomp/obj/src/pomp_timer.c.o
 *fill*         0x000000000000d4b8        0x8 
 .text.pomp_timer_posix_set
                0x000000000000d4c0       0xd8 /home/sunho/bebop_ws/devel/arsdk/out/arsdk-native/build/libpomp/obj/src/pomp_timer.c.o
 *fill*         0x000000000000d598        0x8 
 .text.pomp_timer_posix_clear
                0x000000000000d5a0       0x16 /home/sunho/bebop_ws/devel/arsdk/out/arsdk-native/build/libpomp/obj/src/pomp_timer.c.o
 *fill*         0x000000000000d5b6        0xa 
 .text.pomp_timer_posix_destroy
                0x000000000000d5c0       0x4d /home/sunho/bebop_ws/devel/arsdk/out/arsdk-native/build/libpomp/obj/src/pomp_timer.c.o
 *fill*         0x000000000000d60d        0x3 
 .text.pomp_timer_posix_sighandler
                0x000000000000d610       0x56 /home/sunho/bebop_ws/devel/arsdk/out/arsdk-native/build/libpomp/obj/src/pomp_timer.c.o
 *fill*         0x000000000000d666        0xa 
 .text.pomp_timer_posix_new
                0x000000000000d670      0x499 /home/sunho/bebop_ws/devel/arsdk/out/arsdk-native/build/libpomp/obj/src/pomp_timer.c.o
 *fill*         0x000000000000db09        0x7 
 .text.pomp_timer_new
                0x000000000000db10        0xc /home/sunho/bebop_ws/devel/arsdk/out/arsdk-native/build/libpomp/obj/src/pomp_timer.c.o
                0x000000000000db10                pomp_timer_new
 *fill*         0x000000000000db1c        0x4 
 .text.pomp_timer_destroy
                0x000000000000db20        0xd /home/sunho/bebop_ws/devel/arsdk/out/arsdk-native/build/libpomp/obj/src/pomp_timer.c.o
                0x000000000000db20                pomp_timer_destroy
 *fill*         0x000000000000db2d        0x3 
 .text.pomp_timer_set
                0x000000000000db30        0xf /home/sunho/bebop_ws/devel/arsdk/out/arsdk-native/build/libpomp/obj/src/pomp_timer.c.o
                0x000000000000db30                pomp_timer_set
 *fill*         0x000000000000db3f        0x1 
 .text.pomp_timer_set_periodic
                0x000000000000db40        0xd /home/sunho/bebop_ws/devel/arsdk/out/arsdk-native/build/libpomp/obj/src/pomp_timer.c.o
                0x000000000000db40                pomp_timer_set_periodic
 *fill*         0x000000000000db4d        0x3 
 .text.pomp_timer_clear
                0x000000000000db50        0xd /home/sunho/bebop_ws/devel/arsdk/out/arsdk-native/build/libpomp/obj/src/pomp_timer.c.o
                0x000000000000db50                pomp_timer_clear
 *(.gnu.warning)

.fini           0x000000000000db60        0x9
 *(SORT(.fini))
 .fini          0x000000000000db60        0x4 /usr/lib/gcc/x86_64-linux-gnu/4.8/../../../x86_64-linux-gnu/crti.o
                0x000000000000db60                _fini
 .fini          0x000000000000db64        0x5 /usr/lib/gcc/x86_64-linux-gnu/4.8/../../../x86_64-linux-gnu/crtn.o
                0x000000000000db69                PROVIDE (__etext, .)
                0x000000000000db69                PROVIDE (_etext, .)
                0x000000000000db69                PROVIDE (etext, .)

.rodata         0x000000000000db70      0xb60
 *(.rodata .rodata.* .gnu.linkonce.r.*)
 .rodata.str1.8
                0x000000000000db70       0x23 /home/sunho/bebop_ws/devel/arsdk/out/arsdk-native/build/libpomp/obj/src/pomp_addr.c.o
 .rodata.str1.1
                0x000000000000db93       0x4a /home/sunho/bebop_ws/devel/arsdk/out/arsdk-native/build/libpomp/obj/src/pomp_addr.c.o
 *fill*         0x000000000000dbdd        0x3 
 .rodata.str1.8
                0x000000000000dbe0       0x59 /home/sunho/bebop_ws/devel/arsdk/out/arsdk-native/build/libpomp/obj/src/pomp_buffer.c.o
 .rodata.str1.1
                0x000000000000dc39       0x3f /home/sunho/bebop_ws/devel/arsdk/out/arsdk-native/build/libpomp/obj/src/pomp_buffer.c.o
 .rodata.str1.8
                0x000000000000dc78       0xdb /home/sunho/bebop_ws/devel/arsdk/out/arsdk-native/build/libpomp/obj/src/pomp_conn.c.o
 .rodata.str1.1
                0x000000000000dd53       0x63 /home/sunho/bebop_ws/devel/arsdk/out/arsdk-native/build/libpomp/obj/src/pomp_conn.c.o
                                         0x82 (size before relaxing)
 .rodata.str1.1
                0x000000000000ddb6      0x122 /home/sunho/bebop_ws/devel/arsdk/out/arsdk-native/build/libpomp/obj/src/pomp_ctx.c.o
                                        0x151 (size before relaxing)
 .rodata.str1.8
                0x000000000000ded8       0x78 /home/sunho/bebop_ws/devel/arsdk/out/arsdk-native/build/libpomp/obj/src/pomp_ctx.c.o
 .rodata.str1.1
                0x000000000000df50       0x9e /home/sunho/bebop_ws/devel/arsdk/out/arsdk-native/build/libpomp/obj/src/pomp_decoder.c.o
 *fill*         0x000000000000dfee        0x2 
 .rodata.str1.8
                0x000000000000dff0      0x194 /home/sunho/bebop_ws/devel/arsdk/out/arsdk-native/build/libpomp/obj/src/pomp_decoder.c.o
 .rodata        0x000000000000e184      0x140 /home/sunho/bebop_ws/devel/arsdk/out/arsdk-native/build/libpomp/obj/src/pomp_decoder.c.o
 *fill*         0x000000000000e2c4        0x4 
 .rodata.str1.8
                0x000000000000e2c8       0xf4 /home/sunho/bebop_ws/devel/arsdk/out/arsdk-native/build/libpomp/obj/src/pomp_encoder.c.o
 .rodata.str1.1
                0x000000000000e3bc       0x57 /home/sunho/bebop_ws/devel/arsdk/out/arsdk-native/build/libpomp/obj/src/pomp_encoder.c.o
                                         0x5a (size before relaxing)
 *fill*         0x000000000000e413        0x1 
 .rodata        0x000000000000e414       0xd0 /home/sunho/bebop_ws/devel/arsdk/out/arsdk-native/build/libpomp/obj/src/pomp_encoder.c.o
 .rodata.str1.1
                0x000000000000e4e4       0x34 /home/sunho/bebop_ws/devel/arsdk/out/arsdk-native/build/libpomp/obj/src/pomp_loop.c.o
                                         0x9a (size before relaxing)
 .rodata.str1.8
                0x000000000000e518       0x8f /home/sunho/bebop_ws/devel/arsdk/out/arsdk-native/build/libpomp/obj/src/pomp_loop.c.o
 .rodata.str1.1
                0x000000000000e5a7       0x18 /home/sunho/bebop_ws/devel/arsdk/out/arsdk-native/build/libpomp/obj/src/pomp_msg.c.o
 *fill*         0x000000000000e5bf        0x1 
 .rodata.str1.8
                0x000000000000e5c0       0x49 /home/sunho/bebop_ws/devel/arsdk/out/arsdk-native/build/libpomp/obj/src/pomp_msg.c.o
 *fill*         0x000000000000e609        0x7 
 .rodata.str1.8
                0x000000000000e610       0x30 /home/sunho/bebop_ws/devel/arsdk/out/arsdk-native/build/libpomp/obj/src/pomp_prot.c.o
                                         0x29 (size before relaxing)
 .rodata.str1.1
                0x000000000000e640       0x2e /home/sunho/bebop_ws/devel/arsdk/out/arsdk-native/build/libpomp/obj/src/pomp_prot.c.o
 *fill*         0x000000000000e66e        0x2 
 .rodata        0x000000000000e670       0x1c /home/sunho/bebop_ws/devel/arsdk/out/arsdk-native/build/libpomp/obj/src/pomp_prot.c.o
 .rodata.str1.1
                0x000000000000e68c       0x44 /home/sunho/bebop_ws/devel/arsdk/out/arsdk-native/build/libpomp/obj/src/pomp_timer.c.o
                                         0xa4 (size before relaxing)

.rodata1
 *(.rodata1)

.eh_frame_hdr   0x000000000000e6d0      0x6bc
 *(.eh_frame_hdr)
 .eh_frame_hdr  0x000000000000e6d0      0x6bc /home/sunho/bebop_ws/devel/arsdk/out/arsdk-native/build/libpomp/obj/src/pomp_addr.c.o

.eh_frame       0x000000000000ed90     0x24d4
 *(.eh_frame)
 .eh_frame      0x000000000000ed90       0x40 /usr/lib/gcc/x86_64-linux-gnu/4.8/../../../x86_64-linux-gnu/crti.o
 .eh_frame      0x000000000000edd0      0x118 /home/sunho/bebop_ws/devel/arsdk/out/arsdk-native/build/libpomp/obj/src/pomp_addr.c.o
                                        0x110 (size before relaxing)
 .eh_frame      0x000000000000eee8      0x370 /home/sunho/bebop_ws/devel/arsdk/out/arsdk-native/build/libpomp/obj/src/pomp_buffer.c.o
                                        0x348 (size before relaxing)
 .eh_frame      0x000000000000f258      0x3e8 /home/sunho/bebop_ws/devel/arsdk/out/arsdk-native/build/libpomp/obj/src/pomp_conn.c.o
                                        0x3c0 (size before relaxing)
 .eh_frame      0x000000000000f640      0x718 /home/sunho/bebop_ws/devel/arsdk/out/arsdk-native/build/libpomp/obj/src/pomp_ctx.c.o
                                        0x6c0 (size before relaxing)
 .eh_frame      0x000000000000fd58      0x568 /home/sunho/bebop_ws/devel/arsdk/out/arsdk-native/build/libpomp/obj/src/pomp_decoder.c.o
                                        0x538 (size before relaxing)
 .eh_frame      0x00000000000102c0      0x3c0 /home/sunho/bebop_ws/devel/arsdk/out/arsdk-native/build/libpomp/obj/src/pomp_encoder.c.o
                                        0x390 (size before relaxing)
 .eh_frame      0x0000000000010680      0x578 /home/sunho/bebop_ws/devel/arsdk/out/arsdk-native/build/libpomp/obj/src/pomp_loop.c.o
                                        0x570 (size before relaxing)
 .eh_frame      0x0000000000010bf8      0x2d0 /home/sunho/bebop_ws/devel/arsdk/out/arsdk-native/build/libpomp/obj/src/pomp_msg.c.o
                                        0x2b8 (size before relaxing)
 .eh_frame      0x0000000000010ec8      0x118 /home/sunho/bebop_ws/devel/arsdk/out/arsdk-native/build/libpomp/obj/src/pomp_prot.c.o
                                        0x120 (size before relaxing)
 .eh_frame      0x0000000000010fe0      0x280 /home/sunho/bebop_ws/devel/arsdk/out/arsdk-native/build/libpomp/obj/src/pomp_timer.c.o
 .eh_frame      0x0000000000011260        0x4 /usr/lib/gcc/x86_64-linux-gnu/4.8/crtendS.o

.gcc_except_table
 *(.gcc_except_table .gcc_except_table.*)

.exception_ranges
 *(.exception_ranges .exception_ranges*)
                0x0000000000011264                . = (ALIGN (0x200000) - ((0x200000 - .) & 0x1fffff))
                0x0000000000211d04                . = DATA_SEGMENT_ALIGN (0x200000, 0x1000)

.eh_frame
 *(.eh_frame)

.gcc_except_table
 *(.gcc_except_table .gcc_except_table.*)

.exception_ranges
 *(.exception_ranges .exception_ranges*)

.tdata
 *(.tdata .tdata.* .gnu.linkonce.td.*)

.tbss
 *(.tbss .tbss.* .gnu.linkonce.tb.*)
 *(.tcommon)

.preinit_array
 *(.preinit_array)

.init_array     0x0000000000211d08        0x8
 *(SORT(.init_array.*) SORT(.ctors.*))
 *(.init_array EXCLUDE_FILE(*crtend?.o *crtend.o *crtbegin?.o *crtbegin.o) .ctors)
 .init_array    0x0000000000211d08        0x8 /usr/lib/gcc/x86_64-linux-gnu/4.8/crtbeginS.o

.fini_array     0x0000000000211d10        0x8
 *(SORT(.fini_array.*) SORT(.dtors.*))
 *(.fini_array EXCLUDE_FILE(*crtend?.o *crtend.o *crtbegin?.o *crtbegin.o) .dtors)
 .fini_array    0x0000000000211d10        0x8 /usr/lib/gcc/x86_64-linux-gnu/4.8/crtbeginS.o

.ctors
 *crtbegin.o(.ctors)
 *crtbegin?.o(.ctors)
 *(EXCLUDE_FILE(*crtend?.o *crtend.o) .ctors)
 *(SORT(.ctors.*))
 *(.ctors)

.dtors
 *crtbegin.o(.dtors)
 *crtbegin?.o(.dtors)
 *(EXCLUDE_FILE(*crtend?.o *crtend.o) .dtors)
 *(SORT(.dtors.*))
 *(.dtors)

.jcr            0x0000000000211d18        0x8
 *(.jcr)
 .jcr           0x0000000000211d18        0x0 /usr/lib/gcc/x86_64-linux-gnu/4.8/crtbeginS.o
 .jcr           0x0000000000211d18        0x8 /usr/lib/gcc/x86_64-linux-gnu/4.8/crtendS.o

.data.rel.ro    0x0000000000211d20       0xc0
 *(.data.rel.ro.local* .gnu.linkonce.d.rel.ro.local.*)
 .data.rel.ro.local
                0x0000000000211d20       0x80 /home/sunho/bebop_ws/devel/arsdk/out/arsdk-native/build/libpomp/obj/src/pomp_loop.c.o
                0x0000000000211d20                pomp_loop_poll_ops
                0x0000000000211d60                pomp_loop_epoll_ops
 .data.rel.ro.local
                0x0000000000211da0       0x40 /home/sunho/bebop_ws/devel/arsdk/out/arsdk-native/build/libpomp/obj/src/pomp_timer.c.o
                0x0000000000211da0                pomp_timer_posix_ops
                0x0000000000211dc0                pomp_timer_fd_ops
 *(.data.rel.ro .data.rel.ro.* .gnu.linkonce.d.rel.ro.*)

.dynamic        0x0000000000211de0      0x1f0
 *(.dynamic)
 .dynamic       0x0000000000211de0      0x1f0 /usr/lib/gcc/x86_64-linux-gnu/4.8/../../../x86_64-linux-gnu/crti.o
                0x0000000000211de0                _DYNAMIC

.got            0x0000000000211fd0       0x30
 *(.got)
 .got           0x0000000000211fd0       0x30 /usr/lib/gcc/x86_64-linux-gnu/4.8/../../../x86_64-linux-gnu/crti.o
 *(.igot)
                0x0000000000212fe8                . = DATA_SEGMENT_RELRO_END (., (SIZEOF (.got.plt) >= 0x18)?0x18:0x0)

.got.plt        0x0000000000212000      0x430
 *(.got.plt)
 .got.plt       0x0000000000212000      0x430 /usr/lib/gcc/x86_64-linux-gnu/4.8/../../../x86_64-linux-gnu/crti.o
                0x0000000000212000                _GLOBAL_OFFSET_TABLE_
 *(.igot.plt)

.data           0x0000000000212430       0x18
 *(.data .data.* .gnu.linkonce.d.*)
 .data.rel      0x0000000000212430        0x8 /usr/lib/gcc/x86_64-linux-gnu/4.8/crtbeginS.o
                0x0000000000212430                __dso_handle
 .data.rel      0x0000000000212438        0x8 /home/sunho/bebop_ws/devel/arsdk/out/arsdk-native/build/libpomp/obj/src/pomp_loop.c.o
 .data.rel      0x0000000000212440        0x8 /home/sunho/bebop_ws/devel/arsdk/out/arsdk-native/build/libpomp/obj/src/pomp_timer.c.o

.tm_clone_table
                0x0000000000212448        0x0
 .tm_clone_table
                0x0000000000212448        0x0 /usr/lib/gcc/x86_64-linux-gnu/4.8/crtbeginS.o
 .tm_clone_table
                0x0000000000212448        0x0 /usr/lib/gcc/x86_64-linux-gnu/4.8/crtendS.o

.data1
 *(.data1)
                0x0000000000212448                _edata = .
                0x0000000000212448                PROVIDE (edata, .)
                0x0000000000212448                . = .
                0x0000000000212448                __bss_start = .

.bss            0x0000000000212448        0x8
 *(.dynbss)
 .dynbss        0x0000000000000000        0x0 /usr/lib/gcc/x86_64-linux-gnu/4.8/../../../x86_64-linux-gnu/crti.o
 *(.bss .bss.* .gnu.linkonce.b.*)
 .bss           0x0000000000212448        0x1 /usr/lib/gcc/x86_64-linux-gnu/4.8/crtbeginS.o
 *(COMMON)
                0x0000000000212450                . = ALIGN ((. != 0x0)?0x8:0x1)
 *fill*         0x0000000000212449        0x7 

.lbss
 *(.dynlbss)
 *(.lbss .lbss.* .gnu.linkonce.lb.*)
 *(LARGE_COMMON)
                0x0000000000212450                . = ALIGN (0x8)
                0x0000000000212450                . = SEGMENT_START ("ldata-segment", .)

.lrodata
 *(.lrodata .lrodata.* .gnu.linkonce.lr.*)

.ldata          0x0000000000612450        0x0
 *(.ldata .ldata.* .gnu.linkonce.l.*)
                0x0000000000612450                . = ALIGN ((. != 0x0)?0x8:0x1)
                0x0000000000612450                . = ALIGN (0x8)
                0x0000000000612450                _end = .
                0x0000000000612450                PROVIDE (end, .)
                0x0000000000612450                . = DATA_SEGMENT_END (.)

.stab
 *(.stab)

.stabstr
 *(.stabstr)

.stab.excl
 *(.stab.excl)

.stab.exclstr
 *(.stab.exclstr)

.stab.index
 *(.stab.index)

.stab.indexstr
 *(.stab.indexstr)

.comment        0x0000000000000000       0x2b
 *(.comment)
 .comment       0x0000000000000000       0x2b /usr/lib/gcc/x86_64-linux-gnu/4.8/crtbeginS.o
                                         0x2c (size before relaxing)
 .comment       0x0000000000000000       0x2c /home/sunho/bebop_ws/devel/arsdk/out/arsdk-native/build/libpomp/obj/src/pomp_addr.c.o
 .comment       0x0000000000000000       0x2c /home/sunho/bebop_ws/devel/arsdk/out/arsdk-native/build/libpomp/obj/src/pomp_buffer.c.o
 .comment       0x0000000000000000       0x2c /home/sunho/bebop_ws/devel/arsdk/out/arsdk-native/build/libpomp/obj/src/pomp_conn.c.o
 .comment       0x0000000000000000       0x2c /home/sunho/bebop_ws/devel/arsdk/out/arsdk-native/build/libpomp/obj/src/pomp_ctx.c.o
 .comment       0x0000000000000000       0x2c /home/sunho/bebop_ws/devel/arsdk/out/arsdk-native/build/libpomp/obj/src/pomp_decoder.c.o
 .comment       0x0000000000000000       0x2c /home/sunho/bebop_ws/devel/arsdk/out/arsdk-native/build/libpomp/obj/src/pomp_encoder.c.o
 .comment       0x0000000000000000       0x2c /home/sunho/bebop_ws/devel/arsdk/out/arsdk-native/build/libpomp/obj/src/pomp_loop.c.o
 .comment       0x0000000000000000       0x2c /home/sunho/bebop_ws/devel/arsdk/out/arsdk-native/build/libpomp/obj/src/pomp_msg.c.o
 .comment       0x0000000000000000       0x2c /home/sunho/bebop_ws/devel/arsdk/out/arsdk-native/build/libpomp/obj/src/pomp_prot.c.o
 .comment       0x0000000000000000       0x2c /home/sunho/bebop_ws/devel/arsdk/out/arsdk-native/build/libpomp/obj/src/pomp_timer.c.o
 .comment       0x0000000000000000       0x2c /usr/lib/gcc/x86_64-linux-gnu/4.8/crtendS.o

.debug
 *(.debug)

.line
 *(.line)

.debug_srcinfo
 *(.debug_srcinfo)

.debug_sfnames
 *(.debug_sfnames)

.debug_aranges  0x0000000000000000      0xed0
 *(.debug_aranges)
 .debug_aranges
                0x0000000000000000       0x60 /home/sunho/bebop_ws/devel/arsdk/out/arsdk-native/build/libpomp/obj/src/pomp_addr.c.o
 .debug_aranges
                0x0000000000000060      0x180 /home/sunho/bebop_ws/devel/arsdk/out/arsdk-native/build/libpomp/obj/src/pomp_buffer.c.o
 .debug_aranges
                0x00000000000001e0      0x190 /home/sunho/bebop_ws/devel/arsdk/out/arsdk-native/build/libpomp/obj/src/pomp_conn.c.o
 .debug_aranges
                0x0000000000000370      0x2b0 /home/sunho/bebop_ws/devel/arsdk/out/arsdk-native/build/libpomp/obj/src/pomp_ctx.c.o
 .debug_aranges
                0x0000000000000620      0x1f0 /home/sunho/bebop_ws/devel/arsdk/out/arsdk-native/build/libpomp/obj/src/pomp_decoder.c.o
 .debug_aranges
                0x0000000000000810      0x1a0 /home/sunho/bebop_ws/devel/arsdk/out/arsdk-native/build/libpomp/obj/src/pomp_encoder.c.o
 .debug_aranges
                0x00000000000009b0      0x240 /home/sunho/bebop_ws/devel/arsdk/out/arsdk-native/build/libpomp/obj/src/pomp_loop.c.o
 .debug_aranges
                0x0000000000000bf0      0x120 /home/sunho/bebop_ws/devel/arsdk/out/arsdk-native/build/libpomp/obj/src/pomp_msg.c.o
 .debug_aranges
                0x0000000000000d10       0x90 /home/sunho/bebop_ws/devel/arsdk/out/arsdk-native/build/libpomp/obj/src/pomp_prot.c.o
 .debug_aranges
                0x0000000000000da0      0x130 /home/sunho/bebop_ws/devel/arsdk/out/arsdk-native/build/libpomp/obj/src/pomp_timer.c.o

.debug_pubnames
 *(.debug_pubnames)

.debug_info     0x0000000000000000    0x148fe
 *(.debug_info .gnu.linkonce.wi.*)
 .debug_info    0x0000000000000000      0xc6b /home/sunho/bebop_ws/devel/arsdk/out/arsdk-native/build/libpomp/obj/src/pomp_addr.c.o
 .debug_info    0x0000000000000c6b     0x15e3 /home/sunho/bebop_ws/devel/arsdk/out/arsdk-native/build/libpomp/obj/src/pomp_buffer.c.o
 .debug_info    0x000000000000224e     0x3608 /home/sunho/bebop_ws/devel/arsdk/out/arsdk-native/build/libpomp/obj/src/pomp_conn.c.o
 .debug_info    0x0000000000005856     0x42c4 /home/sunho/bebop_ws/devel/arsdk/out/arsdk-native/build/libpomp/obj/src/pomp_ctx.c.o
 .debug_info    0x0000000000009b1a     0x2595 /home/sunho/bebop_ws/devel/arsdk/out/arsdk-native/build/libpomp/obj/src/pomp_decoder.c.o
 .debug_info    0x000000000000c0af     0x1ae5 /home/sunho/bebop_ws/devel/arsdk/out/arsdk-native/build/libpomp/obj/src/pomp_encoder.c.o
 .debug_info    0x000000000000db94     0x2bc0 /home/sunho/bebop_ws/devel/arsdk/out/arsdk-native/build/libpomp/obj/src/pomp_loop.c.o
 .debug_info    0x0000000000010754     0x11be /home/sunho/bebop_ws/devel/arsdk/out/arsdk-native/build/libpomp/obj/src/pomp_msg.c.o
 .debug_info    0x0000000000011912     0x109e /home/sunho/bebop_ws/devel/arsdk/out/arsdk-native/build/libpomp/obj/src/pomp_prot.c.o
 .debug_info    0x00000000000129b0     0x1f4e /home/sunho/bebop_ws/devel/arsdk/out/arsdk-native/build/libpomp/obj/src/pomp_timer.c.o

.debug_abbrev   0x0000000000000000     0x28ff
 *(.debug_abbrev)
 .debug_abbrev  0x0000000000000000      0x29e /home/sunho/bebop_ws/devel/arsdk/out/arsdk-native/build/libpomp/obj/src/pomp_addr.c.o
 .debug_abbrev  0x000000000000029e      0x488 /home/sunho/bebop_ws/devel/arsdk/out/arsdk-native/build/libpomp/obj/src/pomp_buffer.c.o
 .debug_abbrev  0x0000000000000726      0x4f4 /home/sunho/bebop_ws/devel/arsdk/out/arsdk-native/build/libpomp/obj/src/pomp_conn.c.o
 .debug_abbrev  0x0000000000000c1a      0x4c7 /home/sunho/bebop_ws/devel/arsdk/out/arsdk-native/build/libpomp/obj/src/pomp_ctx.c.o
 .debug_abbrev  0x00000000000010e1      0x482 /home/sunho/bebop_ws/devel/arsdk/out/arsdk-native/build/libpomp/obj/src/pomp_decoder.c.o
 .debug_abbrev  0x0000000000001563      0x39b /home/sunho/bebop_ws/devel/arsdk/out/arsdk-native/build/libpomp/obj/src/pomp_encoder.c.o
 .debug_abbrev  0x00000000000018fe      0x555 /home/sunho/bebop_ws/devel/arsdk/out/arsdk-native/build/libpomp/obj/src/pomp_loop.c.o
 .debug_abbrev  0x0000000000001e53      0x2e7 /home/sunho/bebop_ws/devel/arsdk/out/arsdk-native/build/libpomp/obj/src/pomp_msg.c.o
 .debug_abbrev  0x000000000000213a      0x341 /home/sunho/bebop_ws/devel/arsdk/out/arsdk-native/build/libpomp/obj/src/pomp_prot.c.o
 .debug_abbrev  0x000000000000247b      0x484 /home/sunho/bebop_ws/devel/arsdk/out/arsdk-native/build/libpomp/obj/src/pomp_timer.c.o

.debug_line     0x0000000000000000     0x46fc
 *(.debug_line .debug_line.* .debug_line_end)
 .debug_line    0x0000000000000000      0x2f4 /home/sunho/bebop_ws/devel/arsdk/out/arsdk-native/build/libpomp/obj/src/pomp_addr.c.o
 .debug_line    0x00000000000002f4      0x54e /home/sunho/bebop_ws/devel/arsdk/out/arsdk-native/build/libpomp/obj/src/pomp_buffer.c.o
 .debug_line    0x0000000000000842      0x8d9 /home/sunho/bebop_ws/devel/arsdk/out/arsdk-native/build/libpomp/obj/src/pomp_conn.c.o
 .debug_line    0x000000000000111b      0xd0c /home/sunho/bebop_ws/devel/arsdk/out/arsdk-native/build/libpomp/obj/src/pomp_ctx.c.o
 .debug_line    0x0000000000001e27      0x99c /home/sunho/bebop_ws/devel/arsdk/out/arsdk-native/build/libpomp/obj/src/pomp_decoder.c.o
 .debug_line    0x00000000000027c3      0x7f3 /home/sunho/bebop_ws/devel/arsdk/out/arsdk-native/build/libpomp/obj/src/pomp_encoder.c.o
 .debug_line    0x0000000000002fb6      0x9f0 /home/sunho/bebop_ws/devel/arsdk/out/arsdk-native/build/libpomp/obj/src/pomp_loop.c.o
 .debug_line    0x00000000000039a6      0x3ab /home/sunho/bebop_ws/devel/arsdk/out/arsdk-native/build/libpomp/obj/src/pomp_msg.c.o
 .debug_line    0x0000000000003d51      0x364 /home/sunho/bebop_ws/devel/arsdk/out/arsdk-native/build/libpomp/obj/src/pomp_prot.c.o
 .debug_line    0x00000000000040b5      0x647 /home/sunho/bebop_ws/devel/arsdk/out/arsdk-native/build/libpomp/obj/src/pomp_timer.c.o

.debug_frame
 *(.debug_frame)

.debug_str      0x0000000000000000     0x2bfc
 *(.debug_str)
 .debug_str     0x0000000000000000      0x491 /home/sunho/bebop_ws/devel/arsdk/out/arsdk-native/build/libpomp/obj/src/pomp_addr.c.o
                                        0x538 (size before relaxing)
 .debug_str     0x0000000000000491      0x258 /home/sunho/bebop_ws/devel/arsdk/out/arsdk-native/build/libpomp/obj/src/pomp_buffer.c.o
                                        0x5e8 (size before relaxing)
 .debug_str     0x00000000000006e9      0xbe8 /home/sunho/bebop_ws/devel/arsdk/out/arsdk-native/build/libpomp/obj/src/pomp_conn.c.o
                                       0x117e (size before relaxing)
 .debug_str     0x00000000000012d1      0x665 /home/sunho/bebop_ws/devel/arsdk/out/arsdk-native/build/libpomp/obj/src/pomp_ctx.c.o
                                       0x10ac (size before relaxing)
 .debug_str     0x0000000000001936      0x2fc /home/sunho/bebop_ws/devel/arsdk/out/arsdk-native/build/libpomp/obj/src/pomp_decoder.c.o
                                        0x873 (size before relaxing)
 .debug_str     0x0000000000001c32      0x2a7 /home/sunho/bebop_ws/devel/arsdk/out/arsdk-native/build/libpomp/obj/src/pomp_encoder.c.o
                                        0x74e (size before relaxing)
 .debug_str     0x0000000000001ed9      0x56a /home/sunho/bebop_ws/devel/arsdk/out/arsdk-native/build/libpomp/obj/src/pomp_loop.c.o
                                        0xbf9 (size before relaxing)
 .debug_str     0x0000000000002443      0x10f /home/sunho/bebop_ws/devel/arsdk/out/arsdk-native/build/libpomp/obj/src/pomp_msg.c.o
                                        0x687 (size before relaxing)
 .debug_str     0x0000000000002552      0x1d7 /home/sunho/bebop_ws/devel/arsdk/out/arsdk-native/build/libpomp/obj/src/pomp_prot.c.o
                                        0x672 (size before relaxing)
 .debug_str     0x0000000000002729      0x4d3 /home/sunho/bebop_ws/devel/arsdk/out/arsdk-native/build/libpomp/obj/src/pomp_timer.c.o
                                        0xb2c (size before relaxing)

.debug_loc      0x0000000000000000    0x1705c
 *(.debug_loc)
 .debug_loc     0x0000000000000000      0xbaa /home/sunho/bebop_ws/devel/arsdk/out/arsdk-native/build/libpomp/obj/src/pomp_addr.c.o
 .debug_loc     0x0000000000000baa     0x1bb8 /home/sunho/bebop_ws/devel/arsdk/out/arsdk-native/build/libpomp/obj/src/pomp_buffer.c.o
 .debug_loc     0x0000000000002762     0x3559 /home/sunho/bebop_ws/devel/arsdk/out/arsdk-native/build/libpomp/obj/src/pomp_conn.c.o
 .debug_loc     0x0000000000005cbb     0x491a /home/sunho/bebop_ws/devel/arsdk/out/arsdk-native/build/libpomp/obj/src/pomp_ctx.c.o
 .debug_loc     0x000000000000a5d5     0x3b0a /home/sunho/bebop_ws/devel/arsdk/out/arsdk-native/build/libpomp/obj/src/pomp_decoder.c.o
 .debug_loc     0x000000000000e0df     0x2918 /home/sunho/bebop_ws/devel/arsdk/out/arsdk-native/build/libpomp/obj/src/pomp_encoder.c.o
 .debug_loc     0x00000000000109f7     0x2ec3 /home/sunho/bebop_ws/devel/arsdk/out/arsdk-native/build/libpomp/obj/src/pomp_loop.c.o
 .debug_loc     0x00000000000138ba     0x104d /home/sunho/bebop_ws/devel/arsdk/out/arsdk-native/build/libpomp/obj/src/pomp_msg.c.o
 .debug_loc     0x0000000000014907     0x102b /home/sunho/bebop_ws/devel/arsdk/out/arsdk-native/build/libpomp/obj/src/pomp_prot.c.o
 .debug_loc     0x0000000000015932     0x172a /home/sunho/bebop_ws/devel/arsdk/out/arsdk-native/build/libpomp/obj/src/pomp_timer.c.o

.debug_macinfo
 *(.debug_macinfo)

.debug_weaknames
 *(.debug_weaknames)

.debug_funcnames
 *(.debug_funcnames)

.debug_typenames
 *(.debug_typenames)

.debug_varnames
 *(.debug_varnames)

.debug_pubtypes
 *(.debug_pubtypes)

.debug_ranges   0x0000000000000000     0x2d50
 *(.debug_ranges)
 .debug_ranges  0x0000000000000000      0x1a0 /home/sunho/bebop_ws/devel/arsdk/out/arsdk-native/build/libpomp/obj/src/pomp_addr.c.o
 .debug_ranges  0x00000000000001a0      0x290 /home/sunho/bebop_ws/devel/arsdk/out/arsdk-native/build/libpomp/obj/src/pomp_buffer.c.o
 .debug_ranges  0x0000000000000430      0x670 /home/sunho/bebop_ws/devel/arsdk/out/arsdk-native/build/libpomp/obj/src/pomp_conn.c.o
 .debug_ranges  0x0000000000000aa0      0xd90 /home/sunho/bebop_ws/devel/arsdk/out/arsdk-native/build/libpomp/obj/src/pomp_ctx.c.o
 .debug_ranges  0x0000000000001830      0x3d0 /home/sunho/bebop_ws/devel/arsdk/out/arsdk-native/build/libpomp/obj/src/pomp_decoder.c.o
 .debug_ranges  0x0000000000001c00      0x1f0 /home/sunho/bebop_ws/devel/arsdk/out/arsdk-native/build/libpomp/obj/src/pomp_encoder.c.o
 .debug_ranges  0x0000000000001df0      0x720 /home/sunho/bebop_ws/devel/arsdk/out/arsdk-native/build/libpomp/obj/src/pomp_loop.c.o
 .debug_ranges  0x0000000000002510      0x140 /home/sunho/bebop_ws/devel/arsdk/out/arsdk-native/build/libpomp/obj/src/pomp_msg.c.o
 .debug_ranges  0x0000000000002650      0x1c0 /home/sunho/bebop_ws/devel/arsdk/out/arsdk-native/build/libpomp/obj/src/pomp_prot.c.o
 .debug_ranges  0x0000000000002810      0x540 /home/sunho/bebop_ws/devel/arsdk/out/arsdk-native/build/libpomp/obj/src/pomp_timer.c.o

.debug_macro
 *(.debug_macro)

.gnu.attributes
 *(.gnu.attributes)

/DISCARD/
 *(.note.GNU-stack)
 *(.gnu_debuglink)
 *(.gnu.lto_*)
OUTPUT(out/arsdk-native/build/libpomp/libpomp.so elf64-x86-64)
